
i2c.elf:     file format elf32-littlearm


Disassembly of section .text:

80100000 <_start>:
80100000:	e59fd028 	ldr	sp, [pc, #40]	; 80100030 <clean+0x14>
80100004:	eb000001 	bl	80100010 <clean_bss>
80100008:	fa00028c 	blx	80100a40 <main>

8010000c <halt>:
8010000c:	eafffffe 	b	8010000c <halt>

80100010 <clean_bss>:
80100010:	e59f101c 	ldr	r1, [pc, #28]	; 80100034 <clean+0x18>
80100014:	e59f201c 	ldr	r2, [pc, #28]	; 80100038 <clean+0x1c>
80100018:	e3a03000 	mov	r3, #0

8010001c <clean>:
8010001c:	e5813000 	str	r3, [r1]
80100020:	e2811004 	add	r1, r1, #4
80100024:	e1510002 	cmp	r1, r2
80100028:	1afffffb 	bne	8010001c <clean>
8010002c:	e1a0f00e 	mov	pc, lr
80100030:	80200000 	eorhi	r0, r0, r0
80100034:	80101590 	mulshi	r0, r0, r5
80100038:	80101598 	mulshi	r0, r8, r5

8010003c <i2c_init>:
8010003c:	b480      	push	{r7}
8010003e:	b083      	sub	sp, #12
80100040:	af00      	add	r7, sp, #0
80100042:	6078      	str	r0, [r7, #4]
80100044:	687b      	ldr	r3, [r7, #4]
80100046:	891b      	ldrh	r3, [r3, #8]
80100048:	b29b      	uxth	r3, r3
8010004a:	f023 0380 	bic.w	r3, r3, #128	; 0x80
8010004e:	b29a      	uxth	r2, r3
80100050:	687b      	ldr	r3, [r7, #4]
80100052:	811a      	strh	r2, [r3, #8]
80100054:	687b      	ldr	r3, [r7, #4]
80100056:	2237      	movs	r2, #55	; 0x37
80100058:	809a      	strh	r2, [r3, #4]
8010005a:	687b      	ldr	r3, [r7, #4]
8010005c:	891b      	ldrh	r3, [r3, #8]
8010005e:	b29b      	uxth	r3, r3
80100060:	f043 0380 	orr.w	r3, r3, #128	; 0x80
80100064:	b29a      	uxth	r2, r3
80100066:	687b      	ldr	r3, [r7, #4]
80100068:	811a      	strh	r2, [r3, #8]
8010006a:	bf00      	nop
8010006c:	370c      	adds	r7, #12
8010006e:	46bd      	mov	sp, r7
80100070:	f85d 7b04 	ldr.w	r7, [sp], #4
80100074:	4770      	bx	lr

80100076 <i2c_check>:
80100076:	b480      	push	{r7}
80100078:	b083      	sub	sp, #12
8010007a:	af00      	add	r7, sp, #0
8010007c:	6078      	str	r0, [r7, #4]
8010007e:	6039      	str	r1, [r7, #0]
80100080:	683b      	ldr	r3, [r7, #0]
80100082:	f003 0310 	and.w	r3, r3, #16
80100086:	2b00      	cmp	r3, #0
80100088:	d019      	beq.n	801000be <i2c_check+0x48>
8010008a:	687b      	ldr	r3, [r7, #4]
8010008c:	899b      	ldrh	r3, [r3, #12]
8010008e:	b29b      	uxth	r3, r3
80100090:	f023 0310 	bic.w	r3, r3, #16
80100094:	b29a      	uxth	r2, r3
80100096:	687b      	ldr	r3, [r7, #4]
80100098:	819a      	strh	r2, [r3, #12]
8010009a:	687b      	ldr	r3, [r7, #4]
8010009c:	891b      	ldrh	r3, [r3, #8]
8010009e:	b29b      	uxth	r3, r3
801000a0:	f023 0380 	bic.w	r3, r3, #128	; 0x80
801000a4:	b29a      	uxth	r2, r3
801000a6:	687b      	ldr	r3, [r7, #4]
801000a8:	811a      	strh	r2, [r3, #8]
801000aa:	687b      	ldr	r3, [r7, #4]
801000ac:	891b      	ldrh	r3, [r3, #8]
801000ae:	b29b      	uxth	r3, r3
801000b0:	f043 0380 	orr.w	r3, r3, #128	; 0x80
801000b4:	b29a      	uxth	r2, r3
801000b6:	687b      	ldr	r3, [r7, #4]
801000b8:	811a      	strh	r2, [r3, #8]
801000ba:	2305      	movs	r3, #5
801000bc:	e007      	b.n	801000ce <i2c_check+0x58>
801000be:	683b      	ldr	r3, [r7, #0]
801000c0:	f003 0301 	and.w	r3, r3, #1
801000c4:	2b00      	cmp	r3, #0
801000c6:	d001      	beq.n	801000cc <i2c_check+0x56>
801000c8:	2304      	movs	r3, #4
801000ca:	e000      	b.n	801000ce <i2c_check+0x58>
801000cc:	2300      	movs	r3, #0
801000ce:	4618      	mov	r0, r3
801000d0:	370c      	adds	r7, #12
801000d2:	46bd      	mov	sp, r7
801000d4:	f85d 7b04 	ldr.w	r7, [sp], #4
801000d8:	4770      	bx	lr

801000da <i2c_start>:
801000da:	b480      	push	{r7}
801000dc:	b085      	sub	sp, #20
801000de:	af00      	add	r7, sp, #0
801000e0:	60f8      	str	r0, [r7, #12]
801000e2:	460b      	mov	r3, r1
801000e4:	607a      	str	r2, [r7, #4]
801000e6:	72fb      	strb	r3, [r7, #11]
801000e8:	68fb      	ldr	r3, [r7, #12]
801000ea:	899b      	ldrh	r3, [r3, #12]
801000ec:	b29b      	uxth	r3, r3
801000ee:	f003 0320 	and.w	r3, r3, #32
801000f2:	2b00      	cmp	r3, #0
801000f4:	d001      	beq.n	801000fa <i2c_start+0x20>
801000f6:	2301      	movs	r3, #1
801000f8:	e016      	b.n	80100128 <i2c_start+0x4e>
801000fa:	68fb      	ldr	r3, [r7, #12]
801000fc:	891b      	ldrh	r3, [r3, #8]
801000fe:	b29b      	uxth	r3, r3
80100100:	f043 0330 	orr.w	r3, r3, #48	; 0x30
80100104:	b29a      	uxth	r2, r3
80100106:	68fb      	ldr	r3, [r7, #12]
80100108:	811a      	strh	r2, [r3, #8]
8010010a:	7afb      	ldrb	r3, [r7, #11]
8010010c:	b29b      	uxth	r3, r3
8010010e:	005b      	lsls	r3, r3, #1
80100110:	b29a      	uxth	r2, r3
80100112:	687b      	ldr	r3, [r7, #4]
80100114:	2b01      	cmp	r3, #1
80100116:	d101      	bne.n	8010011c <i2c_start+0x42>
80100118:	2301      	movs	r3, #1
8010011a:	e000      	b.n	8010011e <i2c_start+0x44>
8010011c:	2300      	movs	r3, #0
8010011e:	4313      	orrs	r3, r2
80100120:	b29a      	uxth	r2, r3
80100122:	68fb      	ldr	r3, [r7, #12]
80100124:	821a      	strh	r2, [r3, #16]
80100126:	2300      	movs	r3, #0
80100128:	4618      	mov	r0, r3
8010012a:	3714      	adds	r7, #20
8010012c:	46bd      	mov	sp, r7
8010012e:	f85d 7b04 	ldr.w	r7, [sp], #4
80100132:	4770      	bx	lr

80100134 <i2c_stop>:
80100134:	b480      	push	{r7}
80100136:	b085      	sub	sp, #20
80100138:	af00      	add	r7, sp, #0
8010013a:	6078      	str	r0, [r7, #4]
8010013c:	f64f 73ff 	movw	r3, #65535	; 0xffff
80100140:	81fb      	strh	r3, [r7, #14]
80100142:	687b      	ldr	r3, [r7, #4]
80100144:	891b      	ldrh	r3, [r3, #8]
80100146:	b29b      	uxth	r3, r3
80100148:	f023 0338 	bic.w	r3, r3, #56	; 0x38
8010014c:	b29a      	uxth	r2, r3
8010014e:	687b      	ldr	r3, [r7, #4]
80100150:	811a      	strh	r2, [r3, #8]
80100152:	e007      	b.n	80100164 <i2c_stop+0x30>
80100154:	89fb      	ldrh	r3, [r7, #14]
80100156:	3b01      	subs	r3, #1
80100158:	81fb      	strh	r3, [r7, #14]
8010015a:	89fb      	ldrh	r3, [r7, #14]
8010015c:	2b00      	cmp	r3, #0
8010015e:	d101      	bne.n	80100164 <i2c_stop+0x30>
80100160:	2306      	movs	r3, #6
80100162:	e007      	b.n	80100174 <i2c_stop+0x40>
80100164:	687b      	ldr	r3, [r7, #4]
80100166:	899b      	ldrh	r3, [r3, #12]
80100168:	b29b      	uxth	r3, r3
8010016a:	f003 0320 	and.w	r3, r3, #32
8010016e:	2b00      	cmp	r3, #0
80100170:	d1f0      	bne.n	80100154 <i2c_stop+0x20>
80100172:	2300      	movs	r3, #0
80100174:	4618      	mov	r0, r3
80100176:	3714      	adds	r7, #20
80100178:	46bd      	mov	sp, r7
8010017a:	f85d 7b04 	ldr.w	r7, [sp], #4
8010017e:	4770      	bx	lr

80100180 <i2c_restart>:
80100180:	b480      	push	{r7}
80100182:	b085      	sub	sp, #20
80100184:	af00      	add	r7, sp, #0
80100186:	60f8      	str	r0, [r7, #12]
80100188:	460b      	mov	r3, r1
8010018a:	607a      	str	r2, [r7, #4]
8010018c:	72fb      	strb	r3, [r7, #11]
8010018e:	68fb      	ldr	r3, [r7, #12]
80100190:	899b      	ldrh	r3, [r3, #12]
80100192:	b29b      	uxth	r3, r3
80100194:	f003 0320 	and.w	r3, r3, #32
80100198:	2b00      	cmp	r3, #0
8010019a:	d008      	beq.n	801001ae <i2c_restart+0x2e>
8010019c:	68fb      	ldr	r3, [r7, #12]
8010019e:	891b      	ldrh	r3, [r3, #8]
801001a0:	b29b      	uxth	r3, r3
801001a2:	f003 0320 	and.w	r3, r3, #32
801001a6:	2b00      	cmp	r3, #0
801001a8:	d101      	bne.n	801001ae <i2c_restart+0x2e>
801001aa:	2306      	movs	r3, #6
801001ac:	e016      	b.n	801001dc <i2c_restart+0x5c>
801001ae:	68fb      	ldr	r3, [r7, #12]
801001b0:	891b      	ldrh	r3, [r3, #8]
801001b2:	b29b      	uxth	r3, r3
801001b4:	f043 0314 	orr.w	r3, r3, #20
801001b8:	b29a      	uxth	r2, r3
801001ba:	68fb      	ldr	r3, [r7, #12]
801001bc:	811a      	strh	r2, [r3, #8]
801001be:	7afb      	ldrb	r3, [r7, #11]
801001c0:	b29b      	uxth	r3, r3
801001c2:	005b      	lsls	r3, r3, #1
801001c4:	b29a      	uxth	r2, r3
801001c6:	687b      	ldr	r3, [r7, #4]
801001c8:	2b01      	cmp	r3, #1
801001ca:	d101      	bne.n	801001d0 <i2c_restart+0x50>
801001cc:	2301      	movs	r3, #1
801001ce:	e000      	b.n	801001d2 <i2c_restart+0x52>
801001d0:	2300      	movs	r3, #0
801001d2:	4313      	orrs	r3, r2
801001d4:	b29a      	uxth	r2, r3
801001d6:	68fb      	ldr	r3, [r7, #12]
801001d8:	821a      	strh	r2, [r3, #16]
801001da:	2300      	movs	r3, #0
801001dc:	4618      	mov	r0, r3
801001de:	3714      	adds	r7, #20
801001e0:	46bd      	mov	sp, r7
801001e2:	f85d 7b04 	ldr.w	r7, [sp], #4
801001e6:	4770      	bx	lr

801001e8 <i2c_write>:
801001e8:	b580      	push	{r7, lr}
801001ea:	b084      	sub	sp, #16
801001ec:	af00      	add	r7, sp, #0
801001ee:	60f8      	str	r0, [r7, #12]
801001f0:	60b9      	str	r1, [r7, #8]
801001f2:	607a      	str	r2, [r7, #4]
801001f4:	bf00      	nop
801001f6:	68fb      	ldr	r3, [r7, #12]
801001f8:	899b      	ldrh	r3, [r3, #12]
801001fa:	b29b      	uxth	r3, r3
801001fc:	f003 0380 	and.w	r3, r3, #128	; 0x80
80100200:	2b00      	cmp	r3, #0
80100202:	d0f8      	beq.n	801001f6 <i2c_write+0xe>
80100204:	68fb      	ldr	r3, [r7, #12]
80100206:	899b      	ldrh	r3, [r3, #12]
80100208:	b29b      	uxth	r3, r3
8010020a:	f023 0302 	bic.w	r3, r3, #2
8010020e:	b29a      	uxth	r2, r3
80100210:	68fb      	ldr	r3, [r7, #12]
80100212:	819a      	strh	r2, [r3, #12]
80100214:	68fb      	ldr	r3, [r7, #12]
80100216:	891b      	ldrh	r3, [r3, #8]
80100218:	b29b      	uxth	r3, r3
8010021a:	f043 0310 	orr.w	r3, r3, #16
8010021e:	b29a      	uxth	r2, r3
80100220:	68fb      	ldr	r3, [r7, #12]
80100222:	811a      	strh	r2, [r3, #8]
80100224:	e020      	b.n	80100268 <i2c_write+0x80>
80100226:	68bb      	ldr	r3, [r7, #8]
80100228:	1c5a      	adds	r2, r3, #1
8010022a:	60ba      	str	r2, [r7, #8]
8010022c:	781b      	ldrb	r3, [r3, #0]
8010022e:	b29a      	uxth	r2, r3
80100230:	68fb      	ldr	r3, [r7, #12]
80100232:	821a      	strh	r2, [r3, #16]
80100234:	bf00      	nop
80100236:	68fb      	ldr	r3, [r7, #12]
80100238:	899b      	ldrh	r3, [r3, #12]
8010023a:	b29b      	uxth	r3, r3
8010023c:	f003 0302 	and.w	r3, r3, #2
80100240:	2b00      	cmp	r3, #0
80100242:	d0f8      	beq.n	80100236 <i2c_write+0x4e>
80100244:	68fb      	ldr	r3, [r7, #12]
80100246:	899b      	ldrh	r3, [r3, #12]
80100248:	b29b      	uxth	r3, r3
8010024a:	f023 0302 	bic.w	r3, r3, #2
8010024e:	b29a      	uxth	r2, r3
80100250:	68fb      	ldr	r3, [r7, #12]
80100252:	819a      	strh	r2, [r3, #12]
80100254:	68fb      	ldr	r3, [r7, #12]
80100256:	899b      	ldrh	r3, [r3, #12]
80100258:	b29b      	uxth	r3, r3
8010025a:	4619      	mov	r1, r3
8010025c:	68f8      	ldr	r0, [r7, #12]
8010025e:	f7ff ff0a 	bl	80100076 <i2c_check>
80100262:	4603      	mov	r3, r0
80100264:	2b00      	cmp	r3, #0
80100266:	d105      	bne.n	80100274 <i2c_write+0x8c>
80100268:	687b      	ldr	r3, [r7, #4]
8010026a:	1e5a      	subs	r2, r3, #1
8010026c:	607a      	str	r2, [r7, #4]
8010026e:	2b00      	cmp	r3, #0
80100270:	d1d9      	bne.n	80100226 <i2c_write+0x3e>
80100272:	e000      	b.n	80100276 <i2c_write+0x8e>
80100274:	bf00      	nop
80100276:	68fb      	ldr	r3, [r7, #12]
80100278:	899b      	ldrh	r3, [r3, #12]
8010027a:	b29b      	uxth	r3, r3
8010027c:	f023 0302 	bic.w	r3, r3, #2
80100280:	b29a      	uxth	r2, r3
80100282:	68fb      	ldr	r3, [r7, #12]
80100284:	819a      	strh	r2, [r3, #12]
80100286:	68f8      	ldr	r0, [r7, #12]
80100288:	f7ff ff54 	bl	80100134 <i2c_stop>
8010028c:	bf00      	nop
8010028e:	3710      	adds	r7, #16
80100290:	46bd      	mov	sp, r7
80100292:	bd80      	pop	{r7, pc}

80100294 <i2c_read>:
80100294:	b580      	push	{r7, lr}
80100296:	b086      	sub	sp, #24
80100298:	af00      	add	r7, sp, #0
8010029a:	60f8      	str	r0, [r7, #12]
8010029c:	60b9      	str	r1, [r7, #8]
8010029e:	607a      	str	r2, [r7, #4]
801002a0:	2300      	movs	r3, #0
801002a2:	75fb      	strb	r3, [r7, #23]
801002a4:	7dfb      	ldrb	r3, [r7, #23]
801002a6:	b2db      	uxtb	r3, r3
801002a8:	3301      	adds	r3, #1
801002aa:	b2db      	uxtb	r3, r3
801002ac:	75fb      	strb	r3, [r7, #23]
801002ae:	bf00      	nop
801002b0:	68fb      	ldr	r3, [r7, #12]
801002b2:	899b      	ldrh	r3, [r3, #12]
801002b4:	b29b      	uxth	r3, r3
801002b6:	f003 0380 	and.w	r3, r3, #128	; 0x80
801002ba:	2b00      	cmp	r3, #0
801002bc:	d0f8      	beq.n	801002b0 <i2c_read+0x1c>
801002be:	68fb      	ldr	r3, [r7, #12]
801002c0:	899b      	ldrh	r3, [r3, #12]
801002c2:	b29b      	uxth	r3, r3
801002c4:	f023 0302 	bic.w	r3, r3, #2
801002c8:	b29a      	uxth	r2, r3
801002ca:	68fb      	ldr	r3, [r7, #12]
801002cc:	819a      	strh	r2, [r3, #12]
801002ce:	68fb      	ldr	r3, [r7, #12]
801002d0:	891b      	ldrh	r3, [r3, #8]
801002d2:	b29b      	uxth	r3, r3
801002d4:	f023 0318 	bic.w	r3, r3, #24
801002d8:	b29a      	uxth	r2, r3
801002da:	68fb      	ldr	r3, [r7, #12]
801002dc:	811a      	strh	r2, [r3, #8]
801002de:	687b      	ldr	r3, [r7, #4]
801002e0:	2b01      	cmp	r3, #1
801002e2:	d107      	bne.n	801002f4 <i2c_read+0x60>
801002e4:	68fb      	ldr	r3, [r7, #12]
801002e6:	891b      	ldrh	r3, [r3, #8]
801002e8:	b29b      	uxth	r3, r3
801002ea:	f043 0308 	orr.w	r3, r3, #8
801002ee:	b29a      	uxth	r2, r3
801002f0:	68fb      	ldr	r3, [r7, #12]
801002f2:	811a      	strh	r2, [r3, #8]
801002f4:	68fb      	ldr	r3, [r7, #12]
801002f6:	8a1b      	ldrh	r3, [r3, #16]
801002f8:	b29b      	uxth	r3, r3
801002fa:	b2db      	uxtb	r3, r3
801002fc:	75fb      	strb	r3, [r7, #23]
801002fe:	e028      	b.n	80100352 <i2c_read+0xbe>
80100300:	bf00      	nop
80100302:	68fb      	ldr	r3, [r7, #12]
80100304:	899b      	ldrh	r3, [r3, #12]
80100306:	b29b      	uxth	r3, r3
80100308:	f003 0302 	and.w	r3, r3, #2
8010030c:	2b00      	cmp	r3, #0
8010030e:	d0f8      	beq.n	80100302 <i2c_read+0x6e>
80100310:	68fb      	ldr	r3, [r7, #12]
80100312:	899b      	ldrh	r3, [r3, #12]
80100314:	b29b      	uxth	r3, r3
80100316:	f023 0302 	bic.w	r3, r3, #2
8010031a:	b29a      	uxth	r2, r3
8010031c:	68fb      	ldr	r3, [r7, #12]
8010031e:	819a      	strh	r2, [r3, #12]
80100320:	687b      	ldr	r3, [r7, #4]
80100322:	2b00      	cmp	r3, #0
80100324:	d102      	bne.n	8010032c <i2c_read+0x98>
80100326:	68f8      	ldr	r0, [r7, #12]
80100328:	f7ff ff04 	bl	80100134 <i2c_stop>
8010032c:	687b      	ldr	r3, [r7, #4]
8010032e:	2b01      	cmp	r3, #1
80100330:	d107      	bne.n	80100342 <i2c_read+0xae>
80100332:	68fb      	ldr	r3, [r7, #12]
80100334:	891b      	ldrh	r3, [r3, #8]
80100336:	b29b      	uxth	r3, r3
80100338:	f043 0308 	orr.w	r3, r3, #8
8010033c:	b29a      	uxth	r2, r3
8010033e:	68fb      	ldr	r3, [r7, #12]
80100340:	811a      	strh	r2, [r3, #8]
80100342:	68bb      	ldr	r3, [r7, #8]
80100344:	1c5a      	adds	r2, r3, #1
80100346:	60ba      	str	r2, [r7, #8]
80100348:	68fa      	ldr	r2, [r7, #12]
8010034a:	8a12      	ldrh	r2, [r2, #16]
8010034c:	b292      	uxth	r2, r2
8010034e:	b2d2      	uxtb	r2, r2
80100350:	701a      	strb	r2, [r3, #0]
80100352:	687b      	ldr	r3, [r7, #4]
80100354:	1e5a      	subs	r2, r3, #1
80100356:	607a      	str	r2, [r7, #4]
80100358:	2b00      	cmp	r3, #0
8010035a:	d1d1      	bne.n	80100300 <i2c_read+0x6c>
8010035c:	bf00      	nop
8010035e:	3718      	adds	r7, #24
80100360:	46bd      	mov	sp, r7
80100362:	bd80      	pop	{r7, pc}

80100364 <i2c_transfer>:
80100364:	b580      	push	{r7, lr}
80100366:	b084      	sub	sp, #16
80100368:	af00      	add	r7, sp, #0
8010036a:	6078      	str	r0, [r7, #4]
8010036c:	6039      	str	r1, [r7, #0]
8010036e:	2300      	movs	r3, #0
80100370:	60bb      	str	r3, [r7, #8]
80100372:	683b      	ldr	r3, [r7, #0]
80100374:	685b      	ldr	r3, [r3, #4]
80100376:	60fb      	str	r3, [r7, #12]
80100378:	687b      	ldr	r3, [r7, #4]
8010037a:	899b      	ldrh	r3, [r3, #12]
8010037c:	b29b      	uxth	r3, r3
8010037e:	f023 0312 	bic.w	r3, r3, #18
80100382:	b29a      	uxth	r2, r3
80100384:	687b      	ldr	r3, [r7, #4]
80100386:	819a      	strh	r2, [r3, #12]
80100388:	bf00      	nop
8010038a:	687b      	ldr	r3, [r7, #4]
8010038c:	899b      	ldrh	r3, [r3, #12]
8010038e:	b29b      	uxth	r3, r3
80100390:	09db      	lsrs	r3, r3, #7
80100392:	b29b      	uxth	r3, r3
80100394:	f003 0301 	and.w	r3, r3, #1
80100398:	2b00      	cmp	r3, #0
8010039a:	d0f6      	beq.n	8010038a <i2c_transfer+0x26>
8010039c:	683b      	ldr	r3, [r7, #0]
8010039e:	7b1b      	ldrb	r3, [r3, #12]
801003a0:	2b00      	cmp	r3, #0
801003a2:	d005      	beq.n	801003b0 <i2c_transfer+0x4c>
801003a4:	683b      	ldr	r3, [r7, #0]
801003a6:	685b      	ldr	r3, [r3, #4]
801003a8:	2b01      	cmp	r3, #1
801003aa:	d101      	bne.n	801003b0 <i2c_transfer+0x4c>
801003ac:	2300      	movs	r3, #0
801003ae:	60fb      	str	r3, [r7, #12]
801003b0:	683b      	ldr	r3, [r7, #0]
801003b2:	781b      	ldrb	r3, [r3, #0]
801003b4:	68fa      	ldr	r2, [r7, #12]
801003b6:	4619      	mov	r1, r3
801003b8:	6878      	ldr	r0, [r7, #4]
801003ba:	f7ff fe8e 	bl	801000da <i2c_start>
801003be:	4603      	mov	r3, r0
801003c0:	60bb      	str	r3, [r7, #8]
801003c2:	68bb      	ldr	r3, [r7, #8]
801003c4:	2b00      	cmp	r3, #0
801003c6:	d002      	beq.n	801003ce <i2c_transfer+0x6a>
801003c8:	68bb      	ldr	r3, [r7, #8]
801003ca:	b2db      	uxtb	r3, r3
801003cc:	e0a6      	b.n	8010051c <i2c_transfer+0x1b8>
801003ce:	bf00      	nop
801003d0:	687b      	ldr	r3, [r7, #4]
801003d2:	899b      	ldrh	r3, [r3, #12]
801003d4:	b29b      	uxth	r3, r3
801003d6:	f003 0302 	and.w	r3, r3, #2
801003da:	2b00      	cmp	r3, #0
801003dc:	d0f8      	beq.n	801003d0 <i2c_transfer+0x6c>
801003de:	687b      	ldr	r3, [r7, #4]
801003e0:	899b      	ldrh	r3, [r3, #12]
801003e2:	b29b      	uxth	r3, r3
801003e4:	4619      	mov	r1, r3
801003e6:	6878      	ldr	r0, [r7, #4]
801003e8:	f7ff fe45 	bl	80100076 <i2c_check>
801003ec:	4603      	mov	r3, r0
801003ee:	60bb      	str	r3, [r7, #8]
801003f0:	68bb      	ldr	r3, [r7, #8]
801003f2:	2b00      	cmp	r3, #0
801003f4:	d005      	beq.n	80100402 <i2c_transfer+0x9e>
801003f6:	6878      	ldr	r0, [r7, #4]
801003f8:	f7ff fe9c 	bl	80100134 <i2c_stop>
801003fc:	68bb      	ldr	r3, [r7, #8]
801003fe:	b2db      	uxtb	r3, r3
80100400:	e08c      	b.n	8010051c <i2c_transfer+0x1b8>
80100402:	683b      	ldr	r3, [r7, #0]
80100404:	7b1b      	ldrb	r3, [r3, #12]
80100406:	2b00      	cmp	r3, #0
80100408:	d067      	beq.n	801004da <i2c_transfer+0x176>
8010040a:	687b      	ldr	r3, [r7, #4]
8010040c:	899b      	ldrh	r3, [r3, #12]
8010040e:	b29b      	uxth	r3, r3
80100410:	f023 0302 	bic.w	r3, r3, #2
80100414:	b29a      	uxth	r2, r3
80100416:	687b      	ldr	r3, [r7, #4]
80100418:	819a      	strh	r2, [r3, #12]
8010041a:	683b      	ldr	r3, [r7, #0]
8010041c:	7b1b      	ldrb	r3, [r3, #12]
8010041e:	3b01      	subs	r3, #1
80100420:	b2da      	uxtb	r2, r3
80100422:	683b      	ldr	r3, [r7, #0]
80100424:	731a      	strb	r2, [r3, #12]
80100426:	683b      	ldr	r3, [r7, #0]
80100428:	689a      	ldr	r2, [r3, #8]
8010042a:	683b      	ldr	r3, [r7, #0]
8010042c:	7b1b      	ldrb	r3, [r3, #12]
8010042e:	00db      	lsls	r3, r3, #3
80100430:	fa22 f303 	lsr.w	r3, r2, r3
80100434:	b29a      	uxth	r2, r3
80100436:	687b      	ldr	r3, [r7, #4]
80100438:	821a      	strh	r2, [r3, #16]
8010043a:	bf00      	nop
8010043c:	687b      	ldr	r3, [r7, #4]
8010043e:	899b      	ldrh	r3, [r3, #12]
80100440:	b29b      	uxth	r3, r3
80100442:	f003 0302 	and.w	r3, r3, #2
80100446:	2b00      	cmp	r3, #0
80100448:	d0f8      	beq.n	8010043c <i2c_transfer+0xd8>
8010044a:	687b      	ldr	r3, [r7, #4]
8010044c:	899b      	ldrh	r3, [r3, #12]
8010044e:	b29b      	uxth	r3, r3
80100450:	4619      	mov	r1, r3
80100452:	6878      	ldr	r0, [r7, #4]
80100454:	f7ff fe0f 	bl	80100076 <i2c_check>
80100458:	4603      	mov	r3, r0
8010045a:	60bb      	str	r3, [r7, #8]
8010045c:	68bb      	ldr	r3, [r7, #8]
8010045e:	2b00      	cmp	r3, #0
80100460:	d005      	beq.n	8010046e <i2c_transfer+0x10a>
80100462:	6878      	ldr	r0, [r7, #4]
80100464:	f7ff fe66 	bl	80100134 <i2c_stop>
80100468:	68bb      	ldr	r3, [r7, #8]
8010046a:	b2db      	uxtb	r3, r3
8010046c:	e056      	b.n	8010051c <i2c_transfer+0x1b8>
8010046e:	683b      	ldr	r3, [r7, #0]
80100470:	7b1b      	ldrb	r3, [r3, #12]
80100472:	2b00      	cmp	r3, #0
80100474:	d002      	beq.n	8010047c <i2c_transfer+0x118>
80100476:	68bb      	ldr	r3, [r7, #8]
80100478:	2b00      	cmp	r3, #0
8010047a:	d0c6      	beq.n	8010040a <i2c_transfer+0xa6>
8010047c:	683b      	ldr	r3, [r7, #0]
8010047e:	685b      	ldr	r3, [r3, #4]
80100480:	2b01      	cmp	r3, #1
80100482:	d12a      	bne.n	801004da <i2c_transfer+0x176>
80100484:	687b      	ldr	r3, [r7, #4]
80100486:	899b      	ldrh	r3, [r3, #12]
80100488:	b29b      	uxth	r3, r3
8010048a:	f023 0302 	bic.w	r3, r3, #2
8010048e:	b29a      	uxth	r2, r3
80100490:	687b      	ldr	r3, [r7, #4]
80100492:	819a      	strh	r2, [r3, #12]
80100494:	683b      	ldr	r3, [r7, #0]
80100496:	781b      	ldrb	r3, [r3, #0]
80100498:	2201      	movs	r2, #1
8010049a:	4619      	mov	r1, r3
8010049c:	6878      	ldr	r0, [r7, #4]
8010049e:	f7ff fe6f 	bl	80100180 <i2c_restart>
801004a2:	bf00      	nop
801004a4:	687b      	ldr	r3, [r7, #4]
801004a6:	899b      	ldrh	r3, [r3, #12]
801004a8:	b29b      	uxth	r3, r3
801004aa:	f003 0302 	and.w	r3, r3, #2
801004ae:	2b00      	cmp	r3, #0
801004b0:	d0f8      	beq.n	801004a4 <i2c_transfer+0x140>
801004b2:	687b      	ldr	r3, [r7, #4]
801004b4:	899b      	ldrh	r3, [r3, #12]
801004b6:	b29b      	uxth	r3, r3
801004b8:	4619      	mov	r1, r3
801004ba:	6878      	ldr	r0, [r7, #4]
801004bc:	f7ff fddb 	bl	80100076 <i2c_check>
801004c0:	4603      	mov	r3, r0
801004c2:	60bb      	str	r3, [r7, #8]
801004c4:	68bb      	ldr	r3, [r7, #8]
801004c6:	2b00      	cmp	r3, #0
801004c8:	d007      	beq.n	801004da <i2c_transfer+0x176>
801004ca:	2307      	movs	r3, #7
801004cc:	60bb      	str	r3, [r7, #8]
801004ce:	6878      	ldr	r0, [r7, #4]
801004d0:	f7ff fe30 	bl	80100134 <i2c_stop>
801004d4:	68bb      	ldr	r3, [r7, #8]
801004d6:	b2db      	uxtb	r3, r3
801004d8:	e020      	b.n	8010051c <i2c_transfer+0x1b8>
801004da:	683b      	ldr	r3, [r7, #0]
801004dc:	685b      	ldr	r3, [r3, #4]
801004de:	2b00      	cmp	r3, #0
801004e0:	d10b      	bne.n	801004fa <i2c_transfer+0x196>
801004e2:	683b      	ldr	r3, [r7, #0]
801004e4:	691b      	ldr	r3, [r3, #16]
801004e6:	2b00      	cmp	r3, #0
801004e8:	d007      	beq.n	801004fa <i2c_transfer+0x196>
801004ea:	683b      	ldr	r3, [r7, #0]
801004ec:	6959      	ldr	r1, [r3, #20]
801004ee:	683b      	ldr	r3, [r7, #0]
801004f0:	691b      	ldr	r3, [r3, #16]
801004f2:	461a      	mov	r2, r3
801004f4:	6878      	ldr	r0, [r7, #4]
801004f6:	f7ff fe77 	bl	801001e8 <i2c_write>
801004fa:	683b      	ldr	r3, [r7, #0]
801004fc:	685b      	ldr	r3, [r3, #4]
801004fe:	2b01      	cmp	r3, #1
80100500:	d10b      	bne.n	8010051a <i2c_transfer+0x1b6>
80100502:	683b      	ldr	r3, [r7, #0]
80100504:	691b      	ldr	r3, [r3, #16]
80100506:	2b00      	cmp	r3, #0
80100508:	d007      	beq.n	8010051a <i2c_transfer+0x1b6>
8010050a:	683b      	ldr	r3, [r7, #0]
8010050c:	6959      	ldr	r1, [r3, #20]
8010050e:	683b      	ldr	r3, [r7, #0]
80100510:	691b      	ldr	r3, [r3, #16]
80100512:	461a      	mov	r2, r3
80100514:	6878      	ldr	r0, [r7, #4]
80100516:	f7ff febd 	bl	80100294 <i2c_read>
8010051a:	2300      	movs	r3, #0
8010051c:	4618      	mov	r0, r3
8010051e:	3710      	adds	r7, #16
80100520:	46bd      	mov	sp, r7
80100522:	bd80      	pop	{r7, pc}

80100524 <i2c_write_one_byte>:
80100524:	b580      	push	{r7, lr}
80100526:	b08a      	sub	sp, #40	; 0x28
80100528:	af00      	add	r7, sp, #0
8010052a:	603b      	str	r3, [r7, #0]
8010052c:	4603      	mov	r3, r0
8010052e:	71fb      	strb	r3, [r7, #7]
80100530:	460b      	mov	r3, r1
80100532:	71bb      	strb	r3, [r7, #6]
80100534:	4613      	mov	r3, r2
80100536:	717b      	strb	r3, [r7, #5]
80100538:	2300      	movs	r3, #0
8010053a:	f887 3027 	strb.w	r3, [r7, #39]	; 0x27
8010053e:	797b      	ldrb	r3, [r7, #5]
80100540:	f887 3026 	strb.w	r3, [r7, #38]	; 0x26
80100544:	79fb      	ldrb	r3, [r7, #7]
80100546:	733b      	strb	r3, [r7, #12]
80100548:	2300      	movs	r3, #0
8010054a:	613b      	str	r3, [r7, #16]
8010054c:	79bb      	ldrb	r3, [r7, #6]
8010054e:	617b      	str	r3, [r7, #20]
80100550:	2301      	movs	r3, #1
80100552:	763b      	strb	r3, [r7, #24]
80100554:	f107 0326 	add.w	r3, r7, #38	; 0x26
80100558:	623b      	str	r3, [r7, #32]
8010055a:	2301      	movs	r3, #1
8010055c:	61fb      	str	r3, [r7, #28]
8010055e:	f107 030c 	add.w	r3, r7, #12
80100562:	4619      	mov	r1, r3
80100564:	6838      	ldr	r0, [r7, #0]
80100566:	f7ff fefd 	bl	80100364 <i2c_transfer>
8010056a:	4603      	mov	r3, r0
8010056c:	f887 3027 	strb.w	r3, [r7, #39]	; 0x27
80100570:	f897 3027 	ldrb.w	r3, [r7, #39]	; 0x27
80100574:	4618      	mov	r0, r3
80100576:	3728      	adds	r7, #40	; 0x28
80100578:	46bd      	mov	sp, r7
8010057a:	bd80      	pop	{r7, pc}

8010057c <i2c_read_one_byte>:
8010057c:	b580      	push	{r7, lr}
8010057e:	b08a      	sub	sp, #40	; 0x28
80100580:	af00      	add	r7, sp, #0
80100582:	4603      	mov	r3, r0
80100584:	603a      	str	r2, [r7, #0]
80100586:	71fb      	strb	r3, [r7, #7]
80100588:	460b      	mov	r3, r1
8010058a:	71bb      	strb	r3, [r7, #6]
8010058c:	2300      	movs	r3, #0
8010058e:	f887 3026 	strb.w	r3, [r7, #38]	; 0x26
80100592:	2300      	movs	r3, #0
80100594:	f887 3027 	strb.w	r3, [r7, #39]	; 0x27
80100598:	79fb      	ldrb	r3, [r7, #7]
8010059a:	733b      	strb	r3, [r7, #12]
8010059c:	2301      	movs	r3, #1
8010059e:	613b      	str	r3, [r7, #16]
801005a0:	79bb      	ldrb	r3, [r7, #6]
801005a2:	617b      	str	r3, [r7, #20]
801005a4:	2301      	movs	r3, #1
801005a6:	763b      	strb	r3, [r7, #24]
801005a8:	f107 0326 	add.w	r3, r7, #38	; 0x26
801005ac:	623b      	str	r3, [r7, #32]
801005ae:	2301      	movs	r3, #1
801005b0:	61fb      	str	r3, [r7, #28]
801005b2:	f107 030c 	add.w	r3, r7, #12
801005b6:	4619      	mov	r1, r3
801005b8:	6838      	ldr	r0, [r7, #0]
801005ba:	f7ff fed3 	bl	80100364 <i2c_transfer>
801005be:	4603      	mov	r3, r0
801005c0:	f887 3027 	strb.w	r3, [r7, #39]	; 0x27
801005c4:	f897 3026 	ldrb.w	r3, [r7, #38]	; 0x26
801005c8:	4618      	mov	r0, r3
801005ca:	3728      	adds	r7, #40	; 0x28
801005cc:	46bd      	mov	sp, r7
801005ce:	bd80      	pop	{r7, pc}

801005d0 <Uart_Init>:
801005d0:	b480      	push	{r7}
801005d2:	af00      	add	r7, sp, #0
801005d4:	f241 5290 	movw	r2, #5520	; 0x1590
801005d8:	f2c8 0210 	movt	r2, #32784	; 0x8010
801005dc:	2384      	movs	r3, #132	; 0x84
801005de:	f2c0 230e 	movt	r3, #526	; 0x20e
801005e2:	6013      	str	r3, [r2, #0]
801005e4:	f241 5294 	movw	r2, #5524	; 0x1594
801005e8:	f2c8 0210 	movt	r2, #32784	; 0x8010
801005ec:	2388      	movs	r3, #136	; 0x88
801005ee:	f2c0 230e 	movt	r3, #526	; 0x20e
801005f2:	6013      	str	r3, [r2, #0]
801005f4:	f241 5394 	movw	r3, #5524	; 0x1594
801005f8:	f2c8 0310 	movt	r3, #32784	; 0x8010
801005fc:	681b      	ldr	r3, [r3, #0]
801005fe:	2200      	movs	r2, #0
80100600:	601a      	str	r2, [r3, #0]
80100602:	f241 5390 	movw	r3, #5520	; 0x1590
80100606:	f2c8 0310 	movt	r3, #32784	; 0x8010
8010060a:	681b      	ldr	r3, [r3, #0]
8010060c:	2200      	movs	r2, #0
8010060e:	601a      	str	r2, [r3, #0]
80100610:	2300      	movs	r3, #0
80100612:	f2c0 2302 	movt	r3, #514	; 0x202
80100616:	2200      	movs	r2, #0
80100618:	f2c0 2202 	movt	r2, #514	; 0x202
8010061c:	f8d2 2080 	ldr.w	r2, [r2, #128]	; 0x80
80100620:	f042 0201 	orr.w	r2, r2, #1
80100624:	f8c3 2080 	str.w	r2, [r3, #128]	; 0x80
80100628:	2200      	movs	r2, #0
8010062a:	f2c0 2202 	movt	r2, #514	; 0x202
8010062e:	2300      	movs	r3, #0
80100630:	f2c0 2302 	movt	r3, #514	; 0x202
80100634:	f8d3 3084 	ldr.w	r3, [r3, #132]	; 0x84
80100638:	f443 4380 	orr.w	r3, r3, #16384	; 0x4000
8010063c:	f043 0326 	orr.w	r3, r3, #38	; 0x26
80100640:	f8c2 3084 	str.w	r3, [r2, #132]	; 0x84
80100644:	2300      	movs	r3, #0
80100646:	f2c0 2302 	movt	r3, #514	; 0x202
8010064a:	2200      	movs	r2, #0
8010064c:	f2c0 2202 	movt	r2, #514	; 0x202
80100650:	f8d2 2088 	ldr.w	r2, [r2, #136]	; 0x88
80100654:	f042 0204 	orr.w	r2, r2, #4
80100658:	f8c3 2088 	str.w	r2, [r3, #136]	; 0x88
8010065c:	2300      	movs	r3, #0
8010065e:	f2c0 2302 	movt	r3, #514	; 0x202
80100662:	f44f 7220 	mov.w	r2, #640	; 0x280
80100666:	f8c3 2090 	str.w	r2, [r3, #144]	; 0x90
8010066a:	2300      	movs	r3, #0
8010066c:	f2c0 2302 	movt	r3, #514	; 0x202
80100670:	2247      	movs	r2, #71	; 0x47
80100672:	f8c3 20a4 	str.w	r2, [r3, #164]	; 0xa4
80100676:	2300      	movs	r3, #0
80100678:	f2c0 2302 	movt	r3, #514	; 0x202
8010067c:	f640 4234 	movw	r2, #3124	; 0xc34
80100680:	f8c3 20a8 	str.w	r2, [r3, #168]	; 0xa8
80100684:	2300      	movs	r3, #0
80100686:	f2c0 2302 	movt	r3, #514	; 0x202
8010068a:	2200      	movs	r2, #0
8010068c:	f2c0 2202 	movt	r2, #514	; 0x202
80100690:	f8d2 2080 	ldr.w	r2, [r2, #128]	; 0x80
80100694:	f042 0201 	orr.w	r2, r2, #1
80100698:	f8c3 2080 	str.w	r2, [r3, #128]	; 0x80
8010069c:	bf00      	nop
8010069e:	46bd      	mov	sp, r7
801006a0:	f85d 7b04 	ldr.w	r7, [sp], #4
801006a4:	4770      	bx	lr

801006a6 <PutChar>:
801006a6:	b480      	push	{r7}
801006a8:	b083      	sub	sp, #12
801006aa:	af00      	add	r7, sp, #0
801006ac:	6078      	str	r0, [r7, #4]
801006ae:	bf00      	nop
801006b0:	2300      	movs	r3, #0
801006b2:	f2c0 2302 	movt	r3, #514	; 0x202
801006b6:	f8d3 3098 	ldr.w	r3, [r3, #152]	; 0x98
801006ba:	f003 0308 	and.w	r3, r3, #8
801006be:	2b00      	cmp	r3, #0
801006c0:	d0f6      	beq.n	801006b0 <PutChar+0xa>
801006c2:	2300      	movs	r3, #0
801006c4:	f2c0 2302 	movt	r3, #514	; 0x202
801006c8:	687a      	ldr	r2, [r7, #4]
801006ca:	b2d2      	uxtb	r2, r2
801006cc:	641a      	str	r2, [r3, #64]	; 0x40
801006ce:	bf00      	nop
801006d0:	370c      	adds	r7, #12
801006d2:	46bd      	mov	sp, r7
801006d4:	f85d 7b04 	ldr.w	r7, [sp], #4
801006d8:	4770      	bx	lr

801006da <GetChar>:
801006da:	b480      	push	{r7}
801006dc:	af00      	add	r7, sp, #0
801006de:	bf00      	nop
801006e0:	2300      	movs	r3, #0
801006e2:	f2c0 2302 	movt	r3, #514	; 0x202
801006e6:	f8d3 3098 	ldr.w	r3, [r3, #152]	; 0x98
801006ea:	f003 0301 	and.w	r3, r3, #1
801006ee:	2b00      	cmp	r3, #0
801006f0:	d0f6      	beq.n	801006e0 <GetChar+0x6>
801006f2:	2300      	movs	r3, #0
801006f4:	f2c0 2302 	movt	r3, #514	; 0x202
801006f8:	681b      	ldr	r3, [r3, #0]
801006fa:	b2db      	uxtb	r3, r3
801006fc:	4618      	mov	r0, r3
801006fe:	46bd      	mov	sp, r7
80100700:	f85d 7b04 	ldr.w	r7, [sp], #4
80100704:	4770      	bx	lr

80100706 <PutStr>:
80100706:	b580      	push	{r7, lr}
80100708:	b082      	sub	sp, #8
8010070a:	af00      	add	r7, sp, #0
8010070c:	6078      	str	r0, [r7, #4]
8010070e:	e007      	b.n	80100720 <PutStr+0x1a>
80100710:	687b      	ldr	r3, [r7, #4]
80100712:	781b      	ldrb	r3, [r3, #0]
80100714:	4618      	mov	r0, r3
80100716:	f7ff ffc6 	bl	801006a6 <PutChar>
8010071a:	687b      	ldr	r3, [r7, #4]
8010071c:	3301      	adds	r3, #1
8010071e:	607b      	str	r3, [r7, #4]
80100720:	687b      	ldr	r3, [r7, #4]
80100722:	781b      	ldrb	r3, [r3, #0]
80100724:	2b00      	cmp	r3, #0
80100726:	d1f3      	bne.n	80100710 <PutStr+0xa>
80100728:	bf00      	nop
8010072a:	3708      	adds	r7, #8
8010072c:	46bd      	mov	sp, r7
8010072e:	bd80      	pop	{r7, pc}

80100730 <raise>:
80100730:	b480      	push	{r7}
80100732:	b083      	sub	sp, #12
80100734:	af00      	add	r7, sp, #0
80100736:	6078      	str	r0, [r7, #4]
80100738:	2300      	movs	r3, #0
8010073a:	4618      	mov	r0, r3
8010073c:	370c      	adds	r7, #12
8010073e:	46bd      	mov	sp, r7
80100740:	f85d 7b04 	ldr.w	r7, [sp], #4
80100744:	4770      	bx	lr

80100746 <IOMUXC_SetPinMux>:
80100746:	b480      	push	{r7}
80100748:	b085      	sub	sp, #20
8010074a:	af00      	add	r7, sp, #0
8010074c:	60f8      	str	r0, [r7, #12]
8010074e:	60b9      	str	r1, [r7, #8]
80100750:	607a      	str	r2, [r7, #4]
80100752:	603b      	str	r3, [r7, #0]
80100754:	68fb      	ldr	r3, [r7, #12]
80100756:	68ba      	ldr	r2, [r7, #8]
80100758:	f002 010f 	and.w	r1, r2, #15
8010075c:	69fa      	ldr	r2, [r7, #28]
8010075e:	0112      	lsls	r2, r2, #4
80100760:	f002 0210 	and.w	r2, r2, #16
80100764:	430a      	orrs	r2, r1
80100766:	601a      	str	r2, [r3, #0]
80100768:	687b      	ldr	r3, [r7, #4]
8010076a:	2b00      	cmp	r3, #0
8010076c:	d004      	beq.n	80100778 <IOMUXC_SetPinMux+0x32>
8010076e:	687b      	ldr	r3, [r7, #4]
80100770:	683a      	ldr	r2, [r7, #0]
80100772:	f002 0207 	and.w	r2, r2, #7
80100776:	601a      	str	r2, [r3, #0]
80100778:	bf00      	nop
8010077a:	3714      	adds	r7, #20
8010077c:	46bd      	mov	sp, r7
8010077e:	f85d 7b04 	ldr.w	r7, [sp], #4
80100782:	4770      	bx	lr

80100784 <IOMUXC_SetPinConfig>:
80100784:	b480      	push	{r7}
80100786:	b085      	sub	sp, #20
80100788:	af00      	add	r7, sp, #0
8010078a:	60f8      	str	r0, [r7, #12]
8010078c:	60b9      	str	r1, [r7, #8]
8010078e:	607a      	str	r2, [r7, #4]
80100790:	603b      	str	r3, [r7, #0]
80100792:	69bb      	ldr	r3, [r7, #24]
80100794:	2b00      	cmp	r3, #0
80100796:	d002      	beq.n	8010079e <IOMUXC_SetPinConfig+0x1a>
80100798:	69bb      	ldr	r3, [r7, #24]
8010079a:	69fa      	ldr	r2, [r7, #28]
8010079c:	601a      	str	r2, [r3, #0]
8010079e:	bf00      	nop
801007a0:	3714      	adds	r7, #20
801007a2:	46bd      	mov	sp, r7
801007a4:	f85d 7b04 	ldr.w	r7, [sp], #4
801007a8:	4770      	bx	lr

801007aa <delay>:
801007aa:	b480      	push	{r7}
801007ac:	b083      	sub	sp, #12
801007ae:	af00      	add	r7, sp, #0
801007b0:	6078      	str	r0, [r7, #4]
801007b2:	bf00      	nop
801007b4:	687b      	ldr	r3, [r7, #4]
801007b6:	1e5a      	subs	r2, r3, #1
801007b8:	607a      	str	r2, [r7, #4]
801007ba:	2b00      	cmp	r3, #0
801007bc:	d1fa      	bne.n	801007b4 <delay+0xa>
801007be:	bf00      	nop
801007c0:	370c      	adds	r7, #12
801007c2:	46bd      	mov	sp, r7
801007c4:	f85d 7b04 	ldr.w	r7, [sp], #4
801007c8:	4770      	bx	lr

801007ca <ap3216c_init_io>:
801007ca:	b580      	push	{r7, lr}
801007cc:	b082      	sub	sp, #8
801007ce:	af02      	add	r7, sp, #8
801007d0:	2301      	movs	r3, #1
801007d2:	9301      	str	r3, [sp, #4]
801007d4:	f44f 7350 	mov.w	r3, #832	; 0x340
801007d8:	f2c0 230e 	movt	r3, #526	; 0x20e
801007dc:	9300      	str	r3, [sp, #0]
801007de:	2301      	movs	r3, #1
801007e0:	f240 52a4 	movw	r2, #1444	; 0x5a4
801007e4:	f2c0 220e 	movt	r2, #526	; 0x20e
801007e8:	2102      	movs	r1, #2
801007ea:	20b4      	movs	r0, #180	; 0xb4
801007ec:	f2c0 200e 	movt	r0, #526	; 0x20e
801007f0:	f7ff ffa9 	bl	80100746 <IOMUXC_SetPinMux>
801007f4:	2301      	movs	r3, #1
801007f6:	9301      	str	r3, [sp, #4]
801007f8:	f44f 7351 	mov.w	r3, #836	; 0x344
801007fc:	f2c0 230e 	movt	r3, #526	; 0x20e
80100800:	9300      	str	r3, [sp, #0]
80100802:	2302      	movs	r3, #2
80100804:	f44f 62b5 	mov.w	r2, #1448	; 0x5a8
80100808:	f2c0 220e 	movt	r2, #526	; 0x20e
8010080c:	2102      	movs	r1, #2
8010080e:	20b8      	movs	r0, #184	; 0xb8
80100810:	f2c0 200e 	movt	r0, #526	; 0x20e
80100814:	f7ff ff97 	bl	80100746 <IOMUXC_SetPinMux>
80100818:	f247 03b0 	movw	r3, #28848	; 0x70b0
8010081c:	9301      	str	r3, [sp, #4]
8010081e:	f44f 7350 	mov.w	r3, #832	; 0x340
80100822:	f2c0 230e 	movt	r3, #526	; 0x20e
80100826:	9300      	str	r3, [sp, #0]
80100828:	2301      	movs	r3, #1
8010082a:	f240 52a4 	movw	r2, #1444	; 0x5a4
8010082e:	f2c0 220e 	movt	r2, #526	; 0x20e
80100832:	2102      	movs	r1, #2
80100834:	20b4      	movs	r0, #180	; 0xb4
80100836:	f2c0 200e 	movt	r0, #526	; 0x20e
8010083a:	f7ff ffa3 	bl	80100784 <IOMUXC_SetPinConfig>
8010083e:	f247 03b0 	movw	r3, #28848	; 0x70b0
80100842:	9301      	str	r3, [sp, #4]
80100844:	f44f 7351 	mov.w	r3, #836	; 0x344
80100848:	f2c0 230e 	movt	r3, #526	; 0x20e
8010084c:	9300      	str	r3, [sp, #0]
8010084e:	2302      	movs	r3, #2
80100850:	f44f 62b5 	mov.w	r2, #1448	; 0x5a8
80100854:	f2c0 220e 	movt	r2, #526	; 0x20e
80100858:	2102      	movs	r1, #2
8010085a:	20b8      	movs	r0, #184	; 0xb8
8010085c:	f2c0 200e 	movt	r0, #526	; 0x20e
80100860:	f7ff ff90 	bl	80100784 <IOMUXC_SetPinConfig>
80100864:	bf00      	nop
80100866:	46bd      	mov	sp, r7
80100868:	bd80      	pop	{r7, pc}

8010086a <ap3216c_read_system_status>:
8010086a:	b580      	push	{r7, lr}
8010086c:	b082      	sub	sp, #8
8010086e:	af00      	add	r7, sp, #0
80100870:	2300      	movs	r3, #0
80100872:	71fb      	strb	r3, [r7, #7]
80100874:	2200      	movs	r2, #0
80100876:	f2c0 221a 	movt	r2, #538	; 0x21a
8010087a:	2100      	movs	r1, #0
8010087c:	201e      	movs	r0, #30
8010087e:	f7ff fe7d 	bl	8010057c <i2c_read_one_byte>
80100882:	4603      	mov	r3, r0
80100884:	71fb      	strb	r3, [r7, #7]
80100886:	79fb      	ldrb	r3, [r7, #7]
80100888:	2b00      	cmp	r3, #0
8010088a:	d102      	bne.n	80100892 <ap3216c_read_system_status+0x28>
8010088c:	79fb      	ldrb	r3, [r7, #7]
8010088e:	2bff      	cmp	r3, #255	; 0xff
80100890:	d001      	beq.n	80100896 <ap3216c_read_system_status+0x2c>
80100892:	2300      	movs	r3, #0
80100894:	e000      	b.n	80100898 <ap3216c_read_system_status+0x2e>
80100896:	2301      	movs	r3, #1
80100898:	4618      	mov	r0, r3
8010089a:	3708      	adds	r7, #8
8010089c:	46bd      	mov	sp, r7
8010089e:	bd80      	pop	{r7, pc}

801008a0 <ap3216c_init>:
801008a0:	b580      	push	{r7, lr}
801008a2:	b082      	sub	sp, #8
801008a4:	af00      	add	r7, sp, #0
801008a6:	2300      	movs	r3, #0
801008a8:	607b      	str	r3, [r7, #4]
801008aa:	f7ff ff8e 	bl	801007ca <ap3216c_init_io>
801008ae:	2000      	movs	r0, #0
801008b0:	f2c0 201a 	movt	r0, #538	; 0x21a
801008b4:	f7ff fbc2 	bl	8010003c <i2c_init>
801008b8:	2300      	movs	r3, #0
801008ba:	f2c0 231a 	movt	r3, #538	; 0x21a
801008be:	2204      	movs	r2, #4
801008c0:	2100      	movs	r1, #0
801008c2:	201e      	movs	r0, #30
801008c4:	f7ff fe2e 	bl	80100524 <i2c_write_one_byte>
801008c8:	f242 7010 	movw	r0, #10000	; 0x2710
801008cc:	f7ff ff6d 	bl	801007aa <delay>
801008d0:	2300      	movs	r3, #0
801008d2:	f2c0 231a 	movt	r3, #538	; 0x21a
801008d6:	2203      	movs	r2, #3
801008d8:	2100      	movs	r1, #0
801008da:	201e      	movs	r0, #30
801008dc:	f7ff fe22 	bl	80100524 <i2c_write_one_byte>
801008e0:	f7ff ffc3 	bl	8010086a <ap3216c_read_system_status>
801008e4:	4603      	mov	r3, r0
801008e6:	4618      	mov	r0, r3
801008e8:	3708      	adds	r7, #8
801008ea:	46bd      	mov	sp, r7
801008ec:	bd80      	pop	{r7, pc}

801008ee <ap3216c_read_ir>:
801008ee:	b580      	push	{r7, lr}
801008f0:	b084      	sub	sp, #16
801008f2:	af00      	add	r7, sp, #0
801008f4:	6078      	str	r0, [r7, #4]
801008f6:	2200      	movs	r2, #0
801008f8:	f2c0 221a 	movt	r2, #538	; 0x21a
801008fc:	210a      	movs	r1, #10
801008fe:	201e      	movs	r0, #30
80100900:	f7ff fe3c 	bl	8010057c <i2c_read_one_byte>
80100904:	4603      	mov	r3, r0
80100906:	73fb      	strb	r3, [r7, #15]
80100908:	2200      	movs	r2, #0
8010090a:	f2c0 221a 	movt	r2, #538	; 0x21a
8010090e:	210b      	movs	r1, #11
80100910:	201e      	movs	r0, #30
80100912:	f7ff fe33 	bl	8010057c <i2c_read_one_byte>
80100916:	4603      	mov	r3, r0
80100918:	73bb      	strb	r3, [r7, #14]
8010091a:	f997 300f 	ldrsb.w	r3, [r7, #15]
8010091e:	2b00      	cmp	r3, #0
80100920:	da03      	bge.n	8010092a <ap3216c_read_ir+0x3c>
80100922:	687b      	ldr	r3, [r7, #4]
80100924:	2200      	movs	r2, #0
80100926:	801a      	strh	r2, [r3, #0]
80100928:	e00d      	b.n	80100946 <ap3216c_read_ir+0x58>
8010092a:	7bbb      	ldrb	r3, [r7, #14]
8010092c:	009b      	lsls	r3, r3, #2
8010092e:	b21a      	sxth	r2, r3
80100930:	7bfb      	ldrb	r3, [r7, #15]
80100932:	b21b      	sxth	r3, r3
80100934:	f003 0303 	and.w	r3, r3, #3
80100938:	b21b      	sxth	r3, r3
8010093a:	4313      	orrs	r3, r2
8010093c:	b21b      	sxth	r3, r3
8010093e:	b29a      	uxth	r2, r3
80100940:	687b      	ldr	r3, [r7, #4]
80100942:	801a      	strh	r2, [r3, #0]
80100944:	bf00      	nop
80100946:	3710      	adds	r7, #16
80100948:	46bd      	mov	sp, r7
8010094a:	bd80      	pop	{r7, pc}

8010094c <ap3216c_read_als>:
8010094c:	b580      	push	{r7, lr}
8010094e:	b084      	sub	sp, #16
80100950:	af00      	add	r7, sp, #0
80100952:	6078      	str	r0, [r7, #4]
80100954:	2200      	movs	r2, #0
80100956:	f2c0 221a 	movt	r2, #538	; 0x21a
8010095a:	210c      	movs	r1, #12
8010095c:	201e      	movs	r0, #30
8010095e:	f7ff fe0d 	bl	8010057c <i2c_read_one_byte>
80100962:	4603      	mov	r3, r0
80100964:	73fb      	strb	r3, [r7, #15]
80100966:	2200      	movs	r2, #0
80100968:	f2c0 221a 	movt	r2, #538	; 0x21a
8010096c:	210d      	movs	r1, #13
8010096e:	201e      	movs	r0, #30
80100970:	f7ff fe04 	bl	8010057c <i2c_read_one_byte>
80100974:	4603      	mov	r3, r0
80100976:	73bb      	strb	r3, [r7, #14]
80100978:	7bbb      	ldrb	r3, [r7, #14]
8010097a:	021b      	lsls	r3, r3, #8
8010097c:	b21a      	sxth	r2, r3
8010097e:	7bfb      	ldrb	r3, [r7, #15]
80100980:	b21b      	sxth	r3, r3
80100982:	4313      	orrs	r3, r2
80100984:	b21b      	sxth	r3, r3
80100986:	b29a      	uxth	r2, r3
80100988:	687b      	ldr	r3, [r7, #4]
8010098a:	801a      	strh	r2, [r3, #0]
8010098c:	bf00      	nop
8010098e:	3710      	adds	r7, #16
80100990:	46bd      	mov	sp, r7
80100992:	bd80      	pop	{r7, pc}

80100994 <ap3216c_read_ps>:
80100994:	b580      	push	{r7, lr}
80100996:	b084      	sub	sp, #16
80100998:	af00      	add	r7, sp, #0
8010099a:	6078      	str	r0, [r7, #4]
8010099c:	2200      	movs	r2, #0
8010099e:	f2c0 221a 	movt	r2, #538	; 0x21a
801009a2:	210e      	movs	r1, #14
801009a4:	201e      	movs	r0, #30
801009a6:	f7ff fde9 	bl	8010057c <i2c_read_one_byte>
801009aa:	4603      	mov	r3, r0
801009ac:	73fb      	strb	r3, [r7, #15]
801009ae:	2200      	movs	r2, #0
801009b0:	f2c0 221a 	movt	r2, #538	; 0x21a
801009b4:	210f      	movs	r1, #15
801009b6:	201e      	movs	r0, #30
801009b8:	f7ff fde0 	bl	8010057c <i2c_read_one_byte>
801009bc:	4603      	mov	r3, r0
801009be:	73bb      	strb	r3, [r7, #14]
801009c0:	7bfb      	ldrb	r3, [r7, #15]
801009c2:	f003 0340 	and.w	r3, r3, #64	; 0x40
801009c6:	2b00      	cmp	r3, #0
801009c8:	d003      	beq.n	801009d2 <ap3216c_read_ps+0x3e>
801009ca:	687b      	ldr	r3, [r7, #4]
801009cc:	2200      	movs	r2, #0
801009ce:	801a      	strh	r2, [r3, #0]
801009d0:	e010      	b.n	801009f4 <ap3216c_read_ps+0x60>
801009d2:	7bbb      	ldrb	r3, [r7, #14]
801009d4:	011b      	lsls	r3, r3, #4
801009d6:	b21b      	sxth	r3, r3
801009d8:	f403 737c 	and.w	r3, r3, #1008	; 0x3f0
801009dc:	b21a      	sxth	r2, r3
801009de:	7bfb      	ldrb	r3, [r7, #15]
801009e0:	b21b      	sxth	r3, r3
801009e2:	f003 030f 	and.w	r3, r3, #15
801009e6:	b21b      	sxth	r3, r3
801009e8:	4313      	orrs	r3, r2
801009ea:	b21b      	sxth	r3, r3
801009ec:	b29a      	uxth	r2, r3
801009ee:	687b      	ldr	r3, [r7, #4]
801009f0:	801a      	strh	r2, [r3, #0]
801009f2:	bf00      	nop
801009f4:	3710      	adds	r7, #16
801009f6:	46bd      	mov	sp, r7
801009f8:	bd80      	pop	{r7, pc}

801009fa <ap3216c_read_data>:
801009fa:	b580      	push	{r7, lr}
801009fc:	b084      	sub	sp, #16
801009fe:	af00      	add	r7, sp, #0
80100a00:	60f8      	str	r0, [r7, #12]
80100a02:	60b9      	str	r1, [r7, #8]
80100a04:	607a      	str	r2, [r7, #4]
80100a06:	68f8      	ldr	r0, [r7, #12]
80100a08:	f7ff ff71 	bl	801008ee <ap3216c_read_ir>
80100a0c:	6878      	ldr	r0, [r7, #4]
80100a0e:	f7ff ff9d 	bl	8010094c <ap3216c_read_als>
80100a12:	68b8      	ldr	r0, [r7, #8]
80100a14:	f7ff ffbe 	bl	80100994 <ap3216c_read_ps>
80100a18:	bf00      	nop
80100a1a:	3710      	adds	r7, #16
80100a1c:	46bd      	mov	sp, r7
80100a1e:	bd80      	pop	{r7, pc}

80100a20 <delay>:
80100a20:	b480      	push	{r7}
80100a22:	b083      	sub	sp, #12
80100a24:	af00      	add	r7, sp, #0
80100a26:	6078      	str	r0, [r7, #4]
80100a28:	bf00      	nop
80100a2a:	687b      	ldr	r3, [r7, #4]
80100a2c:	1e5a      	subs	r2, r3, #1
80100a2e:	607a      	str	r2, [r7, #4]
80100a30:	2b00      	cmp	r3, #0
80100a32:	d1fa      	bne.n	80100a2a <delay+0xa>
80100a34:	bf00      	nop
80100a36:	370c      	adds	r7, #12
80100a38:	46bd      	mov	sp, r7
80100a3a:	f85d 7b04 	ldr.w	r7, [sp], #4
80100a3e:	4770      	bx	lr

80100a40 <main>:
80100a40:	b580      	push	{r7, lr}
80100a42:	b084      	sub	sp, #16
80100a44:	af00      	add	r7, sp, #0
80100a46:	2300      	movs	r3, #0
80100a48:	60fb      	str	r3, [r7, #12]
80100a4a:	f7ff fdc1 	bl	801005d0 <Uart_Init>
80100a4e:	f7ff ff27 	bl	801008a0 <ap3216c_init>
80100a52:	4603      	mov	r3, r0
80100a54:	60fb      	str	r3, [r7, #12]
80100a56:	68fb      	ldr	r3, [r7, #12]
80100a58:	2b00      	cmp	r3, #0
80100a5a:	d006      	beq.n	80100a6a <main+0x2a>
80100a5c:	f241 3024 	movw	r0, #4900	; 0x1324
80100a60:	f2c8 0010 	movt	r0, #32784	; 0x8010
80100a64:	f000 f976 	bl	80100d54 <printf>
80100a68:	e005      	b.n	80100a76 <main+0x36>
80100a6a:	f241 303c 	movw	r0, #4924	; 0x133c
80100a6e:	f2c8 0010 	movt	r0, #32784	; 0x8010
80100a72:	f000 f96f 	bl	80100d54 <printf>
80100a76:	f248 60a0 	movw	r0, #34464	; 0x86a0
80100a7a:	f2c0 0001 	movt	r0, #1
80100a7e:	f7ff ffcf 	bl	80100a20 <delay>
80100a82:	1dba      	adds	r2, r7, #6
80100a84:	f107 0108 	add.w	r1, r7, #8
80100a88:	f107 030a 	add.w	r3, r7, #10
80100a8c:	4618      	mov	r0, r3
80100a8e:	f7ff ffb4 	bl	801009fa <ap3216c_read_data>
80100a92:	897b      	ldrh	r3, [r7, #10]
80100a94:	4619      	mov	r1, r3
80100a96:	893b      	ldrh	r3, [r7, #8]
80100a98:	461a      	mov	r2, r3
80100a9a:	88fb      	ldrh	r3, [r7, #6]
80100a9c:	f241 3050 	movw	r0, #4944	; 0x1350
80100aa0:	f2c8 0010 	movt	r0, #32784	; 0x8010
80100aa4:	f000 f956 	bl	80100d54 <printf>
80100aa8:	e7e5      	b.n	80100a76 <main+0x36>
	...

80100aac <outc>:
80100aac:	b580      	push	{r7, lr}
80100aae:	b082      	sub	sp, #8
80100ab0:	af00      	add	r7, sp, #0
80100ab2:	6078      	str	r0, [r7, #4]
80100ab4:	6878      	ldr	r0, [r7, #4]
80100ab6:	f7ff fdf6 	bl	801006a6 <PutChar>
80100aba:	2300      	movs	r3, #0
80100abc:	4618      	mov	r0, r3
80100abe:	3708      	adds	r7, #8
80100ac0:	46bd      	mov	sp, r7
80100ac2:	bd80      	pop	{r7, pc}

80100ac4 <outs>:
80100ac4:	b580      	push	{r7, lr}
80100ac6:	b082      	sub	sp, #8
80100ac8:	af00      	add	r7, sp, #0
80100aca:	6078      	str	r0, [r7, #4]
80100acc:	e006      	b.n	80100adc <outs+0x18>
80100ace:	687b      	ldr	r3, [r7, #4]
80100ad0:	1c5a      	adds	r2, r3, #1
80100ad2:	607a      	str	r2, [r7, #4]
80100ad4:	781b      	ldrb	r3, [r3, #0]
80100ad6:	4618      	mov	r0, r3
80100ad8:	f7ff fde5 	bl	801006a6 <PutChar>
80100adc:	687b      	ldr	r3, [r7, #4]
80100ade:	781b      	ldrb	r3, [r3, #0]
80100ae0:	2b00      	cmp	r3, #0
80100ae2:	d1f4      	bne.n	80100ace <outs+0xa>
80100ae4:	2300      	movs	r3, #0
80100ae6:	4618      	mov	r0, r3
80100ae8:	3708      	adds	r7, #8
80100aea:	46bd      	mov	sp, r7
80100aec:	bd80      	pop	{r7, pc}

80100aee <out_num>:
80100aee:	b580      	push	{r7, lr}
80100af0:	b098      	sub	sp, #96	; 0x60
80100af2:	af00      	add	r7, sp, #0
80100af4:	60f8      	str	r0, [r7, #12]
80100af6:	60b9      	str	r1, [r7, #8]
80100af8:	603b      	str	r3, [r7, #0]
80100afa:	4613      	mov	r3, r2
80100afc:	71fb      	strb	r3, [r7, #7]
80100afe:	2300      	movs	r3, #0
80100b00:	65fb      	str	r3, [r7, #92]	; 0x5c
80100b02:	f107 0310 	add.w	r3, r7, #16
80100b06:	3340      	adds	r3, #64	; 0x40
80100b08:	65bb      	str	r3, [r7, #88]	; 0x58
80100b0a:	2300      	movs	r3, #0
80100b0c:	657b      	str	r3, [r7, #84]	; 0x54
80100b0e:	2300      	movs	r3, #0
80100b10:	653b      	str	r3, [r7, #80]	; 0x50
80100b12:	6dbb      	ldr	r3, [r7, #88]	; 0x58
80100b14:	3b01      	subs	r3, #1
80100b16:	65bb      	str	r3, [r7, #88]	; 0x58
80100b18:	6dbb      	ldr	r3, [r7, #88]	; 0x58
80100b1a:	2200      	movs	r2, #0
80100b1c:	701a      	strb	r2, [r3, #0]
80100b1e:	68fb      	ldr	r3, [r7, #12]
80100b20:	2b00      	cmp	r3, #0
80100b22:	da03      	bge.n	80100b2c <out_num+0x3e>
80100b24:	68fb      	ldr	r3, [r7, #12]
80100b26:	425b      	negs	r3, r3
80100b28:	65fb      	str	r3, [r7, #92]	; 0x5c
80100b2a:	e001      	b.n	80100b30 <out_num+0x42>
80100b2c:	68fb      	ldr	r3, [r7, #12]
80100b2e:	65fb      	str	r3, [r7, #92]	; 0x5c
80100b30:	6dbb      	ldr	r3, [r7, #88]	; 0x58
80100b32:	3b01      	subs	r3, #1
80100b34:	65bb      	str	r3, [r7, #88]	; 0x58
80100b36:	68ba      	ldr	r2, [r7, #8]
80100b38:	6dfb      	ldr	r3, [r7, #92]	; 0x5c
80100b3a:	4611      	mov	r1, r2
80100b3c:	4618      	mov	r0, r3
80100b3e:	f000 fbdd 	bl	801012fc <__aeabi_uidivmod>
80100b42:	460b      	mov	r3, r1
80100b44:	461a      	mov	r2, r3
80100b46:	f241 4380 	movw	r3, #5248	; 0x1480
80100b4a:	f2c8 0310 	movt	r3, #32784	; 0x8010
80100b4e:	5c9a      	ldrb	r2, [r3, r2]
80100b50:	6dbb      	ldr	r3, [r7, #88]	; 0x58
80100b52:	701a      	strb	r2, [r3, #0]
80100b54:	6d7b      	ldr	r3, [r7, #84]	; 0x54
80100b56:	3301      	adds	r3, #1
80100b58:	657b      	str	r3, [r7, #84]	; 0x54
80100b5a:	68bb      	ldr	r3, [r7, #8]
80100b5c:	4619      	mov	r1, r3
80100b5e:	6df8      	ldr	r0, [r7, #92]	; 0x5c
80100b60:	f000 fa9e 	bl	801010a0 <__aeabi_uidiv>
80100b64:	4603      	mov	r3, r0
80100b66:	65fb      	str	r3, [r7, #92]	; 0x5c
80100b68:	6dfb      	ldr	r3, [r7, #92]	; 0x5c
80100b6a:	2b00      	cmp	r3, #0
80100b6c:	d1e0      	bne.n	80100b30 <out_num+0x42>
80100b6e:	683b      	ldr	r3, [r7, #0]
80100b70:	2b00      	cmp	r3, #0
80100b72:	d014      	beq.n	80100b9e <out_num+0xb0>
80100b74:	6d7a      	ldr	r2, [r7, #84]	; 0x54
80100b76:	683b      	ldr	r3, [r7, #0]
80100b78:	429a      	cmp	r2, r3
80100b7a:	da10      	bge.n	80100b9e <out_num+0xb0>
80100b7c:	683a      	ldr	r2, [r7, #0]
80100b7e:	6d7b      	ldr	r3, [r7, #84]	; 0x54
80100b80:	1ad3      	subs	r3, r2, r3
80100b82:	653b      	str	r3, [r7, #80]	; 0x50
80100b84:	e008      	b.n	80100b98 <out_num+0xaa>
80100b86:	6dbb      	ldr	r3, [r7, #88]	; 0x58
80100b88:	3b01      	subs	r3, #1
80100b8a:	65bb      	str	r3, [r7, #88]	; 0x58
80100b8c:	6dbb      	ldr	r3, [r7, #88]	; 0x58
80100b8e:	79fa      	ldrb	r2, [r7, #7]
80100b90:	701a      	strb	r2, [r3, #0]
80100b92:	6d3b      	ldr	r3, [r7, #80]	; 0x50
80100b94:	3b01      	subs	r3, #1
80100b96:	653b      	str	r3, [r7, #80]	; 0x50
80100b98:	6d3b      	ldr	r3, [r7, #80]	; 0x50
80100b9a:	2b00      	cmp	r3, #0
80100b9c:	d1f3      	bne.n	80100b86 <out_num+0x98>
80100b9e:	68fb      	ldr	r3, [r7, #12]
80100ba0:	2b00      	cmp	r3, #0
80100ba2:	da05      	bge.n	80100bb0 <out_num+0xc2>
80100ba4:	6dbb      	ldr	r3, [r7, #88]	; 0x58
80100ba6:	3b01      	subs	r3, #1
80100ba8:	65bb      	str	r3, [r7, #88]	; 0x58
80100baa:	6dbb      	ldr	r3, [r7, #88]	; 0x58
80100bac:	222d      	movs	r2, #45	; 0x2d
80100bae:	701a      	strb	r2, [r3, #0]
80100bb0:	6db8      	ldr	r0, [r7, #88]	; 0x58
80100bb2:	f7ff ff87 	bl	80100ac4 <outs>
80100bb6:	4603      	mov	r3, r0
80100bb8:	4618      	mov	r0, r3
80100bba:	3760      	adds	r7, #96	; 0x60
80100bbc:	46bd      	mov	sp, r7
80100bbe:	bd80      	pop	{r7, pc}

80100bc0 <my_vprintf>:
80100bc0:	b580      	push	{r7, lr}
80100bc2:	b084      	sub	sp, #16
80100bc4:	af00      	add	r7, sp, #0
80100bc6:	6078      	str	r0, [r7, #4]
80100bc8:	6039      	str	r1, [r7, #0]
80100bca:	2320      	movs	r3, #32
80100bcc:	73fb      	strb	r3, [r7, #15]
80100bce:	2300      	movs	r3, #0
80100bd0:	60bb      	str	r3, [r7, #8]
80100bd2:	e0b5      	b.n	80100d40 <my_vprintf+0x180>
80100bd4:	687b      	ldr	r3, [r7, #4]
80100bd6:	781b      	ldrb	r3, [r3, #0]
80100bd8:	2b25      	cmp	r3, #37	; 0x25
80100bda:	d005      	beq.n	80100be8 <my_vprintf+0x28>
80100bdc:	687b      	ldr	r3, [r7, #4]
80100bde:	781b      	ldrb	r3, [r3, #0]
80100be0:	4618      	mov	r0, r3
80100be2:	f7ff ff63 	bl	80100aac <outc>
80100be6:	e0a8      	b.n	80100d3a <my_vprintf+0x17a>
80100be8:	2320      	movs	r3, #32
80100bea:	73fb      	strb	r3, [r7, #15]
80100bec:	2300      	movs	r3, #0
80100bee:	60bb      	str	r3, [r7, #8]
80100bf0:	687b      	ldr	r3, [r7, #4]
80100bf2:	3301      	adds	r3, #1
80100bf4:	607b      	str	r3, [r7, #4]
80100bf6:	687b      	ldr	r3, [r7, #4]
80100bf8:	781b      	ldrb	r3, [r3, #0]
80100bfa:	2b30      	cmp	r3, #48	; 0x30
80100bfc:	d114      	bne.n	80100c28 <my_vprintf+0x68>
80100bfe:	2330      	movs	r3, #48	; 0x30
80100c00:	73fb      	strb	r3, [r7, #15]
80100c02:	687b      	ldr	r3, [r7, #4]
80100c04:	3301      	adds	r3, #1
80100c06:	607b      	str	r3, [r7, #4]
80100c08:	e00e      	b.n	80100c28 <my_vprintf+0x68>
80100c0a:	68ba      	ldr	r2, [r7, #8]
80100c0c:	4613      	mov	r3, r2
80100c0e:	009b      	lsls	r3, r3, #2
80100c10:	4413      	add	r3, r2
80100c12:	005b      	lsls	r3, r3, #1
80100c14:	60bb      	str	r3, [r7, #8]
80100c16:	687b      	ldr	r3, [r7, #4]
80100c18:	781b      	ldrb	r3, [r3, #0]
80100c1a:	3b30      	subs	r3, #48	; 0x30
80100c1c:	68ba      	ldr	r2, [r7, #8]
80100c1e:	4413      	add	r3, r2
80100c20:	60bb      	str	r3, [r7, #8]
80100c22:	687b      	ldr	r3, [r7, #4]
80100c24:	3301      	adds	r3, #1
80100c26:	607b      	str	r3, [r7, #4]
80100c28:	687b      	ldr	r3, [r7, #4]
80100c2a:	781b      	ldrb	r3, [r3, #0]
80100c2c:	2b2f      	cmp	r3, #47	; 0x2f
80100c2e:	d903      	bls.n	80100c38 <my_vprintf+0x78>
80100c30:	687b      	ldr	r3, [r7, #4]
80100c32:	781b      	ldrb	r3, [r3, #0]
80100c34:	2b39      	cmp	r3, #57	; 0x39
80100c36:	d9e8      	bls.n	80100c0a <my_vprintf+0x4a>
80100c38:	687b      	ldr	r3, [r7, #4]
80100c3a:	781b      	ldrb	r3, [r3, #0]
80100c3c:	3b63      	subs	r3, #99	; 0x63
80100c3e:	2b15      	cmp	r3, #21
80100c40:	d875      	bhi.n	80100d2e <my_vprintf+0x16e>
80100c42:	a201      	add	r2, pc, #4	; (adr r2, 80100c48 <my_vprintf+0x88>)
80100c44:	f852 f023 	ldr.w	pc, [r2, r3, lsl #2]
80100c48:	80100d07 	andshi	r0, r0, r7, lsl #26
80100c4c:	80100ca1 	andshi	r0, r0, r1, lsr #25
80100c50:	80100d2f 	andshi	r0, r0, pc, lsr #26
80100c54:	80100d2f 	andshi	r0, r0, pc, lsr #26
80100c58:	80100d2f 	andshi	r0, r0, pc, lsr #26
80100c5c:	80100d2f 	andshi	r0, r0, pc, lsr #26
80100c60:	80100d2f 	andshi	r0, r0, pc, lsr #26
80100c64:	80100d2f 	andshi	r0, r0, pc, lsr #26
80100c68:	80100d2f 	andshi	r0, r0, pc, lsr #26
80100c6c:	80100d2f 	andshi	r0, r0, pc, lsr #26
80100c70:	80100d2f 	andshi	r0, r0, pc, lsr #26
80100c74:	80100d2f 	andshi	r0, r0, pc, lsr #26
80100c78:	80100cb9 			; <UNDEFINED> instruction: 0x80100cb9
80100c7c:	80100d2f 	andshi	r0, r0, pc, lsr #26
80100c80:	80100d2f 	andshi	r0, r0, pc, lsr #26
80100c84:	80100d2f 	andshi	r0, r0, pc, lsr #26
80100c88:	80100d1b 	andshi	r0, r0, fp, lsl sp
80100c8c:	80100d2f 	andshi	r0, r0, pc, lsr #26
80100c90:	80100cd3 			; <UNDEFINED> instruction: 0x80100cd3
80100c94:	80100d2f 	andshi	r0, r0, pc, lsr #26
80100c98:	80100d2f 	andshi	r0, r0, pc, lsr #26
80100c9c:	80100ced 	andshi	r0, r0, sp, ror #25
80100ca0:	683b      	ldr	r3, [r7, #0]
80100ca2:	3304      	adds	r3, #4
80100ca4:	603b      	str	r3, [r7, #0]
80100ca6:	683b      	ldr	r3, [r7, #0]
80100ca8:	3b04      	subs	r3, #4
80100caa:	6818      	ldr	r0, [r3, #0]
80100cac:	7bfa      	ldrb	r2, [r7, #15]
80100cae:	68bb      	ldr	r3, [r7, #8]
80100cb0:	210a      	movs	r1, #10
80100cb2:	f7ff ff1c 	bl	80100aee <out_num>
80100cb6:	e040      	b.n	80100d3a <my_vprintf+0x17a>
80100cb8:	683b      	ldr	r3, [r7, #0]
80100cba:	3304      	adds	r3, #4
80100cbc:	603b      	str	r3, [r7, #0]
80100cbe:	683b      	ldr	r3, [r7, #0]
80100cc0:	3b04      	subs	r3, #4
80100cc2:	681b      	ldr	r3, [r3, #0]
80100cc4:	4618      	mov	r0, r3
80100cc6:	7bfa      	ldrb	r2, [r7, #15]
80100cc8:	68bb      	ldr	r3, [r7, #8]
80100cca:	2108      	movs	r1, #8
80100ccc:	f7ff ff0f 	bl	80100aee <out_num>
80100cd0:	e033      	b.n	80100d3a <my_vprintf+0x17a>
80100cd2:	683b      	ldr	r3, [r7, #0]
80100cd4:	3304      	adds	r3, #4
80100cd6:	603b      	str	r3, [r7, #0]
80100cd8:	683b      	ldr	r3, [r7, #0]
80100cda:	3b04      	subs	r3, #4
80100cdc:	681b      	ldr	r3, [r3, #0]
80100cde:	4618      	mov	r0, r3
80100ce0:	7bfa      	ldrb	r2, [r7, #15]
80100ce2:	68bb      	ldr	r3, [r7, #8]
80100ce4:	210a      	movs	r1, #10
80100ce6:	f7ff ff02 	bl	80100aee <out_num>
80100cea:	e026      	b.n	80100d3a <my_vprintf+0x17a>
80100cec:	683b      	ldr	r3, [r7, #0]
80100cee:	3304      	adds	r3, #4
80100cf0:	603b      	str	r3, [r7, #0]
80100cf2:	683b      	ldr	r3, [r7, #0]
80100cf4:	3b04      	subs	r3, #4
80100cf6:	681b      	ldr	r3, [r3, #0]
80100cf8:	4618      	mov	r0, r3
80100cfa:	7bfa      	ldrb	r2, [r7, #15]
80100cfc:	68bb      	ldr	r3, [r7, #8]
80100cfe:	2110      	movs	r1, #16
80100d00:	f7ff fef5 	bl	80100aee <out_num>
80100d04:	e019      	b.n	80100d3a <my_vprintf+0x17a>
80100d06:	683b      	ldr	r3, [r7, #0]
80100d08:	3304      	adds	r3, #4
80100d0a:	603b      	str	r3, [r7, #0]
80100d0c:	683b      	ldr	r3, [r7, #0]
80100d0e:	3b04      	subs	r3, #4
80100d10:	681b      	ldr	r3, [r3, #0]
80100d12:	4618      	mov	r0, r3
80100d14:	f7ff feca 	bl	80100aac <outc>
80100d18:	e00f      	b.n	80100d3a <my_vprintf+0x17a>
80100d1a:	683b      	ldr	r3, [r7, #0]
80100d1c:	3304      	adds	r3, #4
80100d1e:	603b      	str	r3, [r7, #0]
80100d20:	683b      	ldr	r3, [r7, #0]
80100d22:	3b04      	subs	r3, #4
80100d24:	681b      	ldr	r3, [r3, #0]
80100d26:	4618      	mov	r0, r3
80100d28:	f7ff fecc 	bl	80100ac4 <outs>
80100d2c:	e005      	b.n	80100d3a <my_vprintf+0x17a>
80100d2e:	687b      	ldr	r3, [r7, #4]
80100d30:	781b      	ldrb	r3, [r3, #0]
80100d32:	4618      	mov	r0, r3
80100d34:	f7ff feba 	bl	80100aac <outc>
80100d38:	bf00      	nop
80100d3a:	687b      	ldr	r3, [r7, #4]
80100d3c:	3301      	adds	r3, #1
80100d3e:	607b      	str	r3, [r7, #4]
80100d40:	687b      	ldr	r3, [r7, #4]
80100d42:	781b      	ldrb	r3, [r3, #0]
80100d44:	2b00      	cmp	r3, #0
80100d46:	f47f af45 	bne.w	80100bd4 <my_vprintf+0x14>
80100d4a:	2300      	movs	r3, #0
80100d4c:	4618      	mov	r0, r3
80100d4e:	3710      	adds	r7, #16
80100d50:	46bd      	mov	sp, r7
80100d52:	bd80      	pop	{r7, pc}

80100d54 <printf>:
80100d54:	b40f      	push	{r0, r1, r2, r3}
80100d56:	b580      	push	{r7, lr}
80100d58:	b082      	sub	sp, #8
80100d5a:	af00      	add	r7, sp, #0
80100d5c:	f107 0314 	add.w	r3, r7, #20
80100d60:	607b      	str	r3, [r7, #4]
80100d62:	693b      	ldr	r3, [r7, #16]
80100d64:	6879      	ldr	r1, [r7, #4]
80100d66:	4618      	mov	r0, r3
80100d68:	f7ff ff2a 	bl	80100bc0 <my_vprintf>
80100d6c:	2300      	movs	r3, #0
80100d6e:	607b      	str	r3, [r7, #4]
80100d70:	2300      	movs	r3, #0
80100d72:	4618      	mov	r0, r3
80100d74:	3708      	adds	r7, #8
80100d76:	46bd      	mov	sp, r7
80100d78:	e8bd 4080 	ldmia.w	sp!, {r7, lr}
80100d7c:	b004      	add	sp, #16
80100d7e:	4770      	bx	lr

80100d80 <my_printf_test>:
80100d80:	b580      	push	{r7, lr}
80100d82:	af00      	add	r7, sp, #0
80100d84:	f241 3068 	movw	r0, #4968	; 0x1368
80100d88:	f2c8 0010 	movt	r0, #32784	; 0x8010
80100d8c:	f7ff ffe2 	bl	80100d54 <printf>
80100d90:	2261      	movs	r2, #97	; 0x61
80100d92:	2141      	movs	r1, #65	; 0x41
80100d94:	f241 3094 	movw	r0, #5012	; 0x1394
80100d98:	f2c8 0010 	movt	r0, #32784	; 0x8010
80100d9c:	f7ff ffda 	bl	80100d54 <printf>
80100da0:	f24e 2140 	movw	r1, #57920	; 0xe240
80100da4:	f2c0 0101 	movt	r1, #1
80100da8:	f241 30b4 	movw	r0, #5044	; 0x13b4
80100dac:	f2c8 0010 	movt	r0, #32784	; 0x8010
80100db0:	f7ff ffd0 	bl	80100d54 <printf>
80100db4:	f44f 51ee 	mov.w	r1, #7616	; 0x1dc0
80100db8:	f6cf 71fe 	movt	r1, #65534	; 0xfffe
80100dbc:	f241 30b4 	movw	r0, #5044	; 0x13b4
80100dc0:	f2c8 0010 	movt	r0, #32784	; 0x8010
80100dc4:	f7ff ffc6 	bl	80100d54 <printf>
80100dc8:	f245 51aa 	movw	r1, #21930	; 0x55aa
80100dcc:	f2c5 51aa 	movt	r1, #21930	; 0x55aa
80100dd0:	f241 30d0 	movw	r0, #5072	; 0x13d0
80100dd4:	f2c8 0010 	movt	r0, #32784	; 0x8010
80100dd8:	f7ff ffbc 	bl	80100d54 <printf>
80100ddc:	f241 31ec 	movw	r1, #5100	; 0x13ec
80100de0:	f2c8 0110 	movt	r1, #32784	; 0x8010
80100de4:	f241 30fc 	movw	r0, #5116	; 0x13fc
80100de8:	f2c8 0010 	movt	r0, #32784	; 0x8010
80100dec:	f7ff ffb2 	bl	80100d54 <printf>
80100df0:	f243 0139 	movw	r1, #12345	; 0x3039
80100df4:	f241 4018 	movw	r0, #5144	; 0x1418
80100df8:	f2c8 0010 	movt	r0, #32784	; 0x8010
80100dfc:	f7ff ffaa 	bl	80100d54 <printf>
80100e00:	f243 0139 	movw	r1, #12345	; 0x3039
80100e04:	f241 4024 	movw	r0, #5156	; 0x1424
80100e08:	f2c8 0010 	movt	r0, #32784	; 0x8010
80100e0c:	f7ff ffa2 	bl	80100d54 <printf>
80100e10:	f242 3145 	movw	r1, #9029	; 0x2345
80100e14:	f2c0 0101 	movt	r1, #1
80100e18:	f241 4030 	movw	r0, #5168	; 0x1430
80100e1c:	f2c8 0010 	movt	r0, #32784	; 0x8010
80100e20:	f7ff ff98 	bl	80100d54 <printf>
80100e24:	f242 3145 	movw	r1, #9029	; 0x2345
80100e28:	f2c0 0101 	movt	r1, #1
80100e2c:	f241 4040 	movw	r0, #5184	; 0x1440
80100e30:	f2c8 0010 	movt	r0, #32784	; 0x8010
80100e34:	f7ff ff8e 	bl	80100d54 <printf>
80100e38:	2101      	movs	r1, #1
80100e3a:	f241 404c 	movw	r0, #5196	; 0x144c
80100e3e:	f2c8 0010 	movt	r0, #32784	; 0x8010
80100e42:	f7ff ff87 	bl	80100d54 <printf>
80100e46:	2101      	movs	r1, #1
80100e48:	f241 405c 	movw	r0, #5212	; 0x145c
80100e4c:	f2c8 0010 	movt	r0, #32784	; 0x8010
80100e50:	f7ff ff80 	bl	80100d54 <printf>
80100e54:	2101      	movs	r1, #1
80100e56:	f241 4068 	movw	r0, #5224	; 0x1468
80100e5a:	f2c8 0010 	movt	r0, #32784	; 0x8010
80100e5e:	f7ff ff79 	bl	80100d54 <printf>
80100e62:	2101      	movs	r1, #1
80100e64:	f241 4074 	movw	r0, #5236	; 0x1474
80100e68:	f2c8 0010 	movt	r0, #32784	; 0x8010
80100e6c:	f7ff ff72 	bl	80100d54 <printf>
80100e70:	2300      	movs	r3, #0
80100e72:	4618      	mov	r0, r3
80100e74:	bd80      	pop	{r7, pc}
80100e76:	bf00      	nop

80100e78 <__toupper>:
80100e78:	b480      	push	{r7}
80100e7a:	b083      	sub	sp, #12
80100e7c:	af00      	add	r7, sp, #0
80100e7e:	4603      	mov	r3, r0
80100e80:	71fb      	strb	r3, [r7, #7]
80100e82:	79fa      	ldrb	r2, [r7, #7]
80100e84:	f241 4390 	movw	r3, #5264	; 0x1490
80100e88:	f2c8 0310 	movt	r3, #32784	; 0x8010
80100e8c:	5c9b      	ldrb	r3, [r3, r2]
80100e8e:	f003 0302 	and.w	r3, r3, #2
80100e92:	2b00      	cmp	r3, #0
80100e94:	d002      	beq.n	80100e9c <__toupper+0x24>
80100e96:	79fb      	ldrb	r3, [r7, #7]
80100e98:	3b20      	subs	r3, #32
80100e9a:	71fb      	strb	r3, [r7, #7]
80100e9c:	79fb      	ldrb	r3, [r7, #7]
80100e9e:	4618      	mov	r0, r3
80100ea0:	370c      	adds	r7, #12
80100ea2:	46bd      	mov	sp, r7
80100ea4:	f85d 7b04 	ldr.w	r7, [sp], #4
80100ea8:	4770      	bx	lr

80100eaa <simple_strtoul>:
80100eaa:	b580      	push	{r7, lr}
80100eac:	b086      	sub	sp, #24
80100eae:	af00      	add	r7, sp, #0
80100eb0:	60f8      	str	r0, [r7, #12]
80100eb2:	60b9      	str	r1, [r7, #8]
80100eb4:	607a      	str	r2, [r7, #4]
80100eb6:	2300      	movs	r3, #0
80100eb8:	617b      	str	r3, [r7, #20]
80100eba:	68fb      	ldr	r3, [r7, #12]
80100ebc:	781b      	ldrb	r3, [r3, #0]
80100ebe:	2b30      	cmp	r3, #48	; 0x30
80100ec0:	d121      	bne.n	80100f06 <simple_strtoul+0x5c>
80100ec2:	68fb      	ldr	r3, [r7, #12]
80100ec4:	3301      	adds	r3, #1
80100ec6:	60fb      	str	r3, [r7, #12]
80100ec8:	68fb      	ldr	r3, [r7, #12]
80100eca:	781b      	ldrb	r3, [r3, #0]
80100ecc:	2b78      	cmp	r3, #120	; 0x78
80100ece:	d003      	beq.n	80100ed8 <simple_strtoul+0x2e>
80100ed0:	68fb      	ldr	r3, [r7, #12]
80100ed2:	781b      	ldrb	r3, [r3, #0]
80100ed4:	2b58      	cmp	r3, #88	; 0x58
80100ed6:	d111      	bne.n	80100efc <simple_strtoul+0x52>
80100ed8:	68fb      	ldr	r3, [r7, #12]
80100eda:	3301      	adds	r3, #1
80100edc:	781b      	ldrb	r3, [r3, #0]
80100ede:	461a      	mov	r2, r3
80100ee0:	f241 4390 	movw	r3, #5264	; 0x1490
80100ee4:	f2c8 0310 	movt	r3, #32784	; 0x8010
80100ee8:	5c9b      	ldrb	r3, [r3, r2]
80100eea:	f003 0344 	and.w	r3, r3, #68	; 0x44
80100eee:	2b00      	cmp	r3, #0
80100ef0:	d004      	beq.n	80100efc <simple_strtoul+0x52>
80100ef2:	2310      	movs	r3, #16
80100ef4:	607b      	str	r3, [r7, #4]
80100ef6:	68fb      	ldr	r3, [r7, #12]
80100ef8:	3301      	adds	r3, #1
80100efa:	60fb      	str	r3, [r7, #12]
80100efc:	687b      	ldr	r3, [r7, #4]
80100efe:	2b00      	cmp	r3, #0
80100f00:	d101      	bne.n	80100f06 <simple_strtoul+0x5c>
80100f02:	2308      	movs	r3, #8
80100f04:	607b      	str	r3, [r7, #4]
80100f06:	687b      	ldr	r3, [r7, #4]
80100f08:	2b00      	cmp	r3, #0
80100f0a:	d10c      	bne.n	80100f26 <simple_strtoul+0x7c>
80100f0c:	230a      	movs	r3, #10
80100f0e:	607b      	str	r3, [r7, #4]
80100f10:	e009      	b.n	80100f26 <simple_strtoul+0x7c>
80100f12:	697b      	ldr	r3, [r7, #20]
80100f14:	687a      	ldr	r2, [r7, #4]
80100f16:	fb02 f203 	mul.w	r2, r2, r3
80100f1a:	693b      	ldr	r3, [r7, #16]
80100f1c:	4413      	add	r3, r2
80100f1e:	617b      	str	r3, [r7, #20]
80100f20:	68fb      	ldr	r3, [r7, #12]
80100f22:	3301      	adds	r3, #1
80100f24:	60fb      	str	r3, [r7, #12]
80100f26:	68fb      	ldr	r3, [r7, #12]
80100f28:	781b      	ldrb	r3, [r3, #0]
80100f2a:	461a      	mov	r2, r3
80100f2c:	f241 4390 	movw	r3, #5264	; 0x1490
80100f30:	f2c8 0310 	movt	r3, #32784	; 0x8010
80100f34:	5c9b      	ldrb	r3, [r3, r2]
80100f36:	f003 0344 	and.w	r3, r3, #68	; 0x44
80100f3a:	2b00      	cmp	r3, #0
80100f3c:	d02b      	beq.n	80100f96 <simple_strtoul+0xec>
80100f3e:	68fb      	ldr	r3, [r7, #12]
80100f40:	781b      	ldrb	r3, [r3, #0]
80100f42:	461a      	mov	r2, r3
80100f44:	f241 4390 	movw	r3, #5264	; 0x1490
80100f48:	f2c8 0310 	movt	r3, #32784	; 0x8010
80100f4c:	5c9b      	ldrb	r3, [r3, r2]
80100f4e:	f003 0304 	and.w	r3, r3, #4
80100f52:	2b00      	cmp	r3, #0
80100f54:	d003      	beq.n	80100f5e <simple_strtoul+0xb4>
80100f56:	68fb      	ldr	r3, [r7, #12]
80100f58:	781b      	ldrb	r3, [r3, #0]
80100f5a:	3b30      	subs	r3, #48	; 0x30
80100f5c:	e016      	b.n	80100f8c <simple_strtoul+0xe2>
80100f5e:	68fb      	ldr	r3, [r7, #12]
80100f60:	781b      	ldrb	r3, [r3, #0]
80100f62:	461a      	mov	r2, r3
80100f64:	f241 4390 	movw	r3, #5264	; 0x1490
80100f68:	f2c8 0310 	movt	r3, #32784	; 0x8010
80100f6c:	5c9b      	ldrb	r3, [r3, r2]
80100f6e:	f003 0302 	and.w	r3, r3, #2
80100f72:	2b00      	cmp	r3, #0
80100f74:	d007      	beq.n	80100f86 <simple_strtoul+0xdc>
80100f76:	68fb      	ldr	r3, [r7, #12]
80100f78:	781b      	ldrb	r3, [r3, #0]
80100f7a:	4618      	mov	r0, r3
80100f7c:	f7ff ff7c 	bl	80100e78 <__toupper>
80100f80:	4603      	mov	r3, r0
80100f82:	3b37      	subs	r3, #55	; 0x37
80100f84:	e002      	b.n	80100f8c <simple_strtoul+0xe2>
80100f86:	68fb      	ldr	r3, [r7, #12]
80100f88:	781b      	ldrb	r3, [r3, #0]
80100f8a:	3b37      	subs	r3, #55	; 0x37
80100f8c:	613b      	str	r3, [r7, #16]
80100f8e:	693a      	ldr	r2, [r7, #16]
80100f90:	687b      	ldr	r3, [r7, #4]
80100f92:	429a      	cmp	r2, r3
80100f94:	d3bd      	bcc.n	80100f12 <simple_strtoul+0x68>
80100f96:	68bb      	ldr	r3, [r7, #8]
80100f98:	2b00      	cmp	r3, #0
80100f9a:	d002      	beq.n	80100fa2 <simple_strtoul+0xf8>
80100f9c:	68bb      	ldr	r3, [r7, #8]
80100f9e:	68fa      	ldr	r2, [r7, #12]
80100fa0:	601a      	str	r2, [r3, #0]
80100fa2:	697b      	ldr	r3, [r7, #20]
80100fa4:	4618      	mov	r0, r3
80100fa6:	3718      	adds	r7, #24
80100fa8:	46bd      	mov	sp, r7
80100faa:	bd80      	pop	{r7, pc}

80100fac <simple_strtol>:
80100fac:	b580      	push	{r7, lr}
80100fae:	b084      	sub	sp, #16
80100fb0:	af00      	add	r7, sp, #0
80100fb2:	60f8      	str	r0, [r7, #12]
80100fb4:	60b9      	str	r1, [r7, #8]
80100fb6:	607a      	str	r2, [r7, #4]
80100fb8:	68fb      	ldr	r3, [r7, #12]
80100fba:	781b      	ldrb	r3, [r3, #0]
80100fbc:	2b2d      	cmp	r3, #45	; 0x2d
80100fbe:	d109      	bne.n	80100fd4 <simple_strtol+0x28>
80100fc0:	68fb      	ldr	r3, [r7, #12]
80100fc2:	3301      	adds	r3, #1
80100fc4:	687a      	ldr	r2, [r7, #4]
80100fc6:	68b9      	ldr	r1, [r7, #8]
80100fc8:	4618      	mov	r0, r3
80100fca:	f7ff ff6e 	bl	80100eaa <simple_strtoul>
80100fce:	4603      	mov	r3, r0
80100fd0:	425b      	negs	r3, r3
80100fd2:	e005      	b.n	80100fe0 <simple_strtol+0x34>
80100fd4:	687a      	ldr	r2, [r7, #4]
80100fd6:	68b9      	ldr	r1, [r7, #8]
80100fd8:	68f8      	ldr	r0, [r7, #12]
80100fda:	f7ff ff66 	bl	80100eaa <simple_strtoul>
80100fde:	4603      	mov	r3, r0
80100fe0:	4618      	mov	r0, r3
80100fe2:	3710      	adds	r7, #16
80100fe4:	46bd      	mov	sp, r7
80100fe6:	bd80      	pop	{r7, pc}

80100fe8 <gets>:
80100fe8:	b580      	push	{r7, lr}
80100fea:	b084      	sub	sp, #16
80100fec:	af00      	add	r7, sp, #0
80100fee:	6078      	str	r0, [r7, #4]
80100ff0:	2300      	movs	r3, #0
80100ff2:	60fb      	str	r3, [r7, #12]
80100ff4:	f7ff fb71 	bl	801006da <GetChar>
80100ff8:	4603      	mov	r3, r0
80100ffa:	72fb      	strb	r3, [r7, #11]
80100ffc:	7afb      	ldrb	r3, [r7, #11]
80100ffe:	4618      	mov	r0, r3
80101000:	f7ff fb51 	bl	801006a6 <PutChar>
80101004:	7afb      	ldrb	r3, [r7, #11]
80101006:	2b0a      	cmp	r3, #10
80101008:	d103      	bne.n	80101012 <gets+0x2a>
8010100a:	200d      	movs	r0, #13
8010100c:	f7ff fb4b 	bl	801006a6 <PutChar>
80101010:	e005      	b.n	8010101e <gets+0x36>
80101012:	7afb      	ldrb	r3, [r7, #11]
80101014:	2b0d      	cmp	r3, #13
80101016:	d102      	bne.n	8010101e <gets+0x36>
80101018:	200a      	movs	r0, #10
8010101a:	f7ff fb44 	bl	801006a6 <PutChar>
8010101e:	7afb      	ldrb	r3, [r7, #11]
80101020:	2b0a      	cmp	r3, #10
80101022:	d002      	beq.n	8010102a <gets+0x42>
80101024:	7afb      	ldrb	r3, [r7, #11]
80101026:	2b0d      	cmp	r3, #13
80101028:	d105      	bne.n	80101036 <gets+0x4e>
8010102a:	68fb      	ldr	r3, [r7, #12]
8010102c:	687a      	ldr	r2, [r7, #4]
8010102e:	4413      	add	r3, r2
80101030:	2200      	movs	r2, #0
80101032:	701a      	strb	r2, [r3, #0]
80101034:	e008      	b.n	80101048 <gets+0x60>
80101036:	68fb      	ldr	r3, [r7, #12]
80101038:	1c5a      	adds	r2, r3, #1
8010103a:	60fa      	str	r2, [r7, #12]
8010103c:	461a      	mov	r2, r3
8010103e:	687b      	ldr	r3, [r7, #4]
80101040:	4413      	add	r3, r2
80101042:	7afa      	ldrb	r2, [r7, #11]
80101044:	701a      	strb	r2, [r3, #0]
80101046:	e7d5      	b.n	80100ff4 <gets+0xc>
80101048:	687b      	ldr	r3, [r7, #4]
8010104a:	4618      	mov	r0, r3
8010104c:	3710      	adds	r7, #16
8010104e:	46bd      	mov	sp, r7
80101050:	bd80      	pop	{r7, pc}

80101052 <get_int>:
80101052:	b580      	push	{r7, lr}
80101054:	b09a      	sub	sp, #104	; 0x68
80101056:	af00      	add	r7, sp, #0
80101058:	1d3b      	adds	r3, r7, #4
8010105a:	4618      	mov	r0, r3
8010105c:	f7ff ffc4 	bl	80100fe8 <gets>
80101060:	1d3b      	adds	r3, r7, #4
80101062:	2200      	movs	r2, #0
80101064:	2100      	movs	r1, #0
80101066:	4618      	mov	r0, r3
80101068:	f7ff ffa0 	bl	80100fac <simple_strtol>
8010106c:	4603      	mov	r3, r0
8010106e:	4618      	mov	r0, r3
80101070:	3768      	adds	r7, #104	; 0x68
80101072:	46bd      	mov	sp, r7
80101074:	bd80      	pop	{r7, pc}

80101076 <get_uint>:
80101076:	b580      	push	{r7, lr}
80101078:	b09a      	sub	sp, #104	; 0x68
8010107a:	af00      	add	r7, sp, #0
8010107c:	1d3b      	adds	r3, r7, #4
8010107e:	4618      	mov	r0, r3
80101080:	f7ff ffb2 	bl	80100fe8 <gets>
80101084:	1d3b      	adds	r3, r7, #4
80101086:	2200      	movs	r2, #0
80101088:	2100      	movs	r1, #0
8010108a:	4618      	mov	r0, r3
8010108c:	f7ff ff0d 	bl	80100eaa <simple_strtoul>
80101090:	4603      	mov	r3, r0
80101092:	4618      	mov	r0, r3
80101094:	3768      	adds	r7, #104	; 0x68
80101096:	46bd      	mov	sp, r7
80101098:	bd80      	pop	{r7, pc}
8010109a:	0000      	movs	r0, r0
8010109c:	0000      	movs	r0, r0
	...

801010a0 <__aeabi_uidiv>:
801010a0:	1e4a      	subs	r2, r1, #1
801010a2:	bf08      	it	eq
801010a4:	4770      	bxeq	lr
801010a6:	f0c0 8124 	bcc.w	801012f2 <__aeabi_uidiv+0x252>
801010aa:	4288      	cmp	r0, r1
801010ac:	f240 8116 	bls.w	801012dc <__aeabi_uidiv+0x23c>
801010b0:	4211      	tst	r1, r2
801010b2:	f000 8117 	beq.w	801012e4 <__aeabi_uidiv+0x244>
801010b6:	fab0 f380 	clz	r3, r0
801010ba:	fab1 f281 	clz	r2, r1
801010be:	eba2 0303 	sub.w	r3, r2, r3
801010c2:	f1c3 031f 	rsb	r3, r3, #31
801010c6:	a204      	add	r2, pc, #16	; (adr r2, 801010d8 <__aeabi_uidiv+0x38>)
801010c8:	eb02 1303 	add.w	r3, r2, r3, lsl #4
801010cc:	f04f 0200 	mov.w	r2, #0
801010d0:	469f      	mov	pc, r3
801010d2:	bf00      	nop
801010d4:	f3af 8000 	nop.w
801010d8:	ebb0 7fc1 	cmp.w	r0, r1, lsl #31
801010dc:	bf00      	nop
801010de:	eb42 0202 	adc.w	r2, r2, r2
801010e2:	bf28      	it	cs
801010e4:	eba0 70c1 	subcs.w	r0, r0, r1, lsl #31
801010e8:	ebb0 7f81 	cmp.w	r0, r1, lsl #30
801010ec:	bf00      	nop
801010ee:	eb42 0202 	adc.w	r2, r2, r2
801010f2:	bf28      	it	cs
801010f4:	eba0 7081 	subcs.w	r0, r0, r1, lsl #30
801010f8:	ebb0 7f41 	cmp.w	r0, r1, lsl #29
801010fc:	bf00      	nop
801010fe:	eb42 0202 	adc.w	r2, r2, r2
80101102:	bf28      	it	cs
80101104:	eba0 7041 	subcs.w	r0, r0, r1, lsl #29
80101108:	ebb0 7f01 	cmp.w	r0, r1, lsl #28
8010110c:	bf00      	nop
8010110e:	eb42 0202 	adc.w	r2, r2, r2
80101112:	bf28      	it	cs
80101114:	eba0 7001 	subcs.w	r0, r0, r1, lsl #28
80101118:	ebb0 6fc1 	cmp.w	r0, r1, lsl #27
8010111c:	bf00      	nop
8010111e:	eb42 0202 	adc.w	r2, r2, r2
80101122:	bf28      	it	cs
80101124:	eba0 60c1 	subcs.w	r0, r0, r1, lsl #27
80101128:	ebb0 6f81 	cmp.w	r0, r1, lsl #26
8010112c:	bf00      	nop
8010112e:	eb42 0202 	adc.w	r2, r2, r2
80101132:	bf28      	it	cs
80101134:	eba0 6081 	subcs.w	r0, r0, r1, lsl #26
80101138:	ebb0 6f41 	cmp.w	r0, r1, lsl #25
8010113c:	bf00      	nop
8010113e:	eb42 0202 	adc.w	r2, r2, r2
80101142:	bf28      	it	cs
80101144:	eba0 6041 	subcs.w	r0, r0, r1, lsl #25
80101148:	ebb0 6f01 	cmp.w	r0, r1, lsl #24
8010114c:	bf00      	nop
8010114e:	eb42 0202 	adc.w	r2, r2, r2
80101152:	bf28      	it	cs
80101154:	eba0 6001 	subcs.w	r0, r0, r1, lsl #24
80101158:	ebb0 5fc1 	cmp.w	r0, r1, lsl #23
8010115c:	bf00      	nop
8010115e:	eb42 0202 	adc.w	r2, r2, r2
80101162:	bf28      	it	cs
80101164:	eba0 50c1 	subcs.w	r0, r0, r1, lsl #23
80101168:	ebb0 5f81 	cmp.w	r0, r1, lsl #22
8010116c:	bf00      	nop
8010116e:	eb42 0202 	adc.w	r2, r2, r2
80101172:	bf28      	it	cs
80101174:	eba0 5081 	subcs.w	r0, r0, r1, lsl #22
80101178:	ebb0 5f41 	cmp.w	r0, r1, lsl #21
8010117c:	bf00      	nop
8010117e:	eb42 0202 	adc.w	r2, r2, r2
80101182:	bf28      	it	cs
80101184:	eba0 5041 	subcs.w	r0, r0, r1, lsl #21
80101188:	ebb0 5f01 	cmp.w	r0, r1, lsl #20
8010118c:	bf00      	nop
8010118e:	eb42 0202 	adc.w	r2, r2, r2
80101192:	bf28      	it	cs
80101194:	eba0 5001 	subcs.w	r0, r0, r1, lsl #20
80101198:	ebb0 4fc1 	cmp.w	r0, r1, lsl #19
8010119c:	bf00      	nop
8010119e:	eb42 0202 	adc.w	r2, r2, r2
801011a2:	bf28      	it	cs
801011a4:	eba0 40c1 	subcs.w	r0, r0, r1, lsl #19
801011a8:	ebb0 4f81 	cmp.w	r0, r1, lsl #18
801011ac:	bf00      	nop
801011ae:	eb42 0202 	adc.w	r2, r2, r2
801011b2:	bf28      	it	cs
801011b4:	eba0 4081 	subcs.w	r0, r0, r1, lsl #18
801011b8:	ebb0 4f41 	cmp.w	r0, r1, lsl #17
801011bc:	bf00      	nop
801011be:	eb42 0202 	adc.w	r2, r2, r2
801011c2:	bf28      	it	cs
801011c4:	eba0 4041 	subcs.w	r0, r0, r1, lsl #17
801011c8:	ebb0 4f01 	cmp.w	r0, r1, lsl #16
801011cc:	bf00      	nop
801011ce:	eb42 0202 	adc.w	r2, r2, r2
801011d2:	bf28      	it	cs
801011d4:	eba0 4001 	subcs.w	r0, r0, r1, lsl #16
801011d8:	ebb0 3fc1 	cmp.w	r0, r1, lsl #15
801011dc:	bf00      	nop
801011de:	eb42 0202 	adc.w	r2, r2, r2
801011e2:	bf28      	it	cs
801011e4:	eba0 30c1 	subcs.w	r0, r0, r1, lsl #15
801011e8:	ebb0 3f81 	cmp.w	r0, r1, lsl #14
801011ec:	bf00      	nop
801011ee:	eb42 0202 	adc.w	r2, r2, r2
801011f2:	bf28      	it	cs
801011f4:	eba0 3081 	subcs.w	r0, r0, r1, lsl #14
801011f8:	ebb0 3f41 	cmp.w	r0, r1, lsl #13
801011fc:	bf00      	nop
801011fe:	eb42 0202 	adc.w	r2, r2, r2
80101202:	bf28      	it	cs
80101204:	eba0 3041 	subcs.w	r0, r0, r1, lsl #13
80101208:	ebb0 3f01 	cmp.w	r0, r1, lsl #12
8010120c:	bf00      	nop
8010120e:	eb42 0202 	adc.w	r2, r2, r2
80101212:	bf28      	it	cs
80101214:	eba0 3001 	subcs.w	r0, r0, r1, lsl #12
80101218:	ebb0 2fc1 	cmp.w	r0, r1, lsl #11
8010121c:	bf00      	nop
8010121e:	eb42 0202 	adc.w	r2, r2, r2
80101222:	bf28      	it	cs
80101224:	eba0 20c1 	subcs.w	r0, r0, r1, lsl #11
80101228:	ebb0 2f81 	cmp.w	r0, r1, lsl #10
8010122c:	bf00      	nop
8010122e:	eb42 0202 	adc.w	r2, r2, r2
80101232:	bf28      	it	cs
80101234:	eba0 2081 	subcs.w	r0, r0, r1, lsl #10
80101238:	ebb0 2f41 	cmp.w	r0, r1, lsl #9
8010123c:	bf00      	nop
8010123e:	eb42 0202 	adc.w	r2, r2, r2
80101242:	bf28      	it	cs
80101244:	eba0 2041 	subcs.w	r0, r0, r1, lsl #9
80101248:	ebb0 2f01 	cmp.w	r0, r1, lsl #8
8010124c:	bf00      	nop
8010124e:	eb42 0202 	adc.w	r2, r2, r2
80101252:	bf28      	it	cs
80101254:	eba0 2001 	subcs.w	r0, r0, r1, lsl #8
80101258:	ebb0 1fc1 	cmp.w	r0, r1, lsl #7
8010125c:	bf00      	nop
8010125e:	eb42 0202 	adc.w	r2, r2, r2
80101262:	bf28      	it	cs
80101264:	eba0 10c1 	subcs.w	r0, r0, r1, lsl #7
80101268:	ebb0 1f81 	cmp.w	r0, r1, lsl #6
8010126c:	bf00      	nop
8010126e:	eb42 0202 	adc.w	r2, r2, r2
80101272:	bf28      	it	cs
80101274:	eba0 1081 	subcs.w	r0, r0, r1, lsl #6
80101278:	ebb0 1f41 	cmp.w	r0, r1, lsl #5
8010127c:	bf00      	nop
8010127e:	eb42 0202 	adc.w	r2, r2, r2
80101282:	bf28      	it	cs
80101284:	eba0 1041 	subcs.w	r0, r0, r1, lsl #5
80101288:	ebb0 1f01 	cmp.w	r0, r1, lsl #4
8010128c:	bf00      	nop
8010128e:	eb42 0202 	adc.w	r2, r2, r2
80101292:	bf28      	it	cs
80101294:	eba0 1001 	subcs.w	r0, r0, r1, lsl #4
80101298:	ebb0 0fc1 	cmp.w	r0, r1, lsl #3
8010129c:	bf00      	nop
8010129e:	eb42 0202 	adc.w	r2, r2, r2
801012a2:	bf28      	it	cs
801012a4:	eba0 00c1 	subcs.w	r0, r0, r1, lsl #3
801012a8:	ebb0 0f81 	cmp.w	r0, r1, lsl #2
801012ac:	bf00      	nop
801012ae:	eb42 0202 	adc.w	r2, r2, r2
801012b2:	bf28      	it	cs
801012b4:	eba0 0081 	subcs.w	r0, r0, r1, lsl #2
801012b8:	ebb0 0f41 	cmp.w	r0, r1, lsl #1
801012bc:	bf00      	nop
801012be:	eb42 0202 	adc.w	r2, r2, r2
801012c2:	bf28      	it	cs
801012c4:	eba0 0041 	subcs.w	r0, r0, r1, lsl #1
801012c8:	ebb0 0f01 	cmp.w	r0, r1
801012cc:	bf00      	nop
801012ce:	eb42 0202 	adc.w	r2, r2, r2
801012d2:	bf28      	it	cs
801012d4:	eba0 0001 	subcs.w	r0, r0, r1
801012d8:	4610      	mov	r0, r2
801012da:	4770      	bx	lr
801012dc:	bf0c      	ite	eq
801012de:	2001      	moveq	r0, #1
801012e0:	2000      	movne	r0, #0
801012e2:	4770      	bx	lr
801012e4:	fab1 f281 	clz	r2, r1
801012e8:	f1c2 021f 	rsb	r2, r2, #31
801012ec:	fa20 f002 	lsr.w	r0, r0, r2
801012f0:	4770      	bx	lr
801012f2:	b108      	cbz	r0, 801012f8 <__aeabi_uidiv+0x258>
801012f4:	f04f 30ff 	mov.w	r0, #4294967295	; 0xffffffff
801012f8:	f000 b80e 	b.w	80101318 <__aeabi_idiv0>

801012fc <__aeabi_uidivmod>:
801012fc:	2900      	cmp	r1, #0
801012fe:	d0f8      	beq.n	801012f2 <__aeabi_uidiv+0x252>
80101300:	e92d 4003 	stmdb	sp!, {r0, r1, lr}
80101304:	f7ff fecc 	bl	801010a0 <__aeabi_uidiv>
80101308:	e8bd 4006 	ldmia.w	sp!, {r1, r2, lr}
8010130c:	fb02 f300 	mul.w	r3, r2, r0
80101310:	eba1 0103 	sub.w	r1, r1, r3
80101314:	4770      	bx	lr
80101316:	bf00      	nop

80101318 <__aeabi_idiv0>:
80101318:	b502      	push	{r1, lr}
8010131a:	f04f 0008 	mov.w	r0, #8
8010131e:	f7ff fa07 	bl	80100730 <raise>
80101322:	bd02      	pop	{r1, pc}

Disassembly of section .rodata:

80101324 <.LC0>:
80101324:	32337061 	eorscc	r7, r3, #97	; 0x61
80101328:	5f633631 	svcpl	0x00633631
8010132c:	74696e69 	strbtvc	r6, [r9], #-3689	; 0xfffff197
80101330:	69616620 	stmdbvs	r1!, {r5, r9, sl, sp, lr}^
80101334:	0d0a216c 	stfeqs	f2, [sl, #-432]	; 0xfffffe50
80101338:	00000000 	andeq	r0, r0, r0

8010133c <.LC1>:
8010133c:	32337061 	eorscc	r7, r3, #97	; 0x61
80101340:	5f633631 	svcpl	0x00633631
80101344:	74696e69 	strbtvc	r6, [r9], #-3689	; 0xfffff197
80101348:	216b6f20 	cmncs	fp, r0, lsr #30
8010134c:	00000d0a 	andeq	r0, r0, sl, lsl #26

80101350 <.LC2>:
80101350:	253d7269 	ldrcs	r7, [sp, #-617]!	; 0xfffffd97
80101354:	73702064 	cmnvc	r0, #100	; 0x64
80101358:	2064253d 	rsbcs	r2, r4, sp, lsr r5
8010135c:	3d736c61 	ldclcc	12, cr6, [r3, #-388]!	; 0xfffffe7c
80101360:	0d0a6425 	cfstrseq	mvf6, [sl, #-148]	; 0xffffff6c
80101364:	00000000 	andeq	r0, r0, r0

80101368 <.LC0>:
80101368:	73696854 	cmnvc	r9, #84, 16	; 0x540000
8010136c:	20736920 	rsbscs	r6, r3, r0, lsr #18
80101370:	2e777777 	mrccs	7, 3, r7, cr7, cr7, {3}
80101374:	61303031 	teqvs	r0, r1, lsr r0
80101378:	6f2e6b73 	svcvs	0x002e6b73
8010137c:	20206772 	eorcs	r6, r0, r2, ror r7
80101380:	5f796d20 	svcpl	0x00796d20
80101384:	6e697270 	mcrvs	2, 3, r7, cr9, cr0, {3}
80101388:	74206674 	strtvc	r6, [r0], #-1652	; 0xfffff98c
8010138c:	0a747365 	beq	81e1e128 <__bss_end+0x1d1cb90>
80101390:	0000000d 	andeq	r0, r0, sp

80101394 <.LC1>:
80101394:	74736574 	ldrbtvc	r6, [r3], #-1396	; 0xfffffa8c
80101398:	61686320 	cmnvs	r8, r0, lsr #6
8010139c:	20202072 	eorcs	r2, r0, r2, ror r0
801013a0:	20202020 	eorcs	r2, r0, r0, lsr #32
801013a4:	20202020 	eorcs	r2, r0, r0, lsr #32
801013a8:	2c63253d 	cfstr64cs	mvdx2, [r3], #-244	; 0xffffff0c
801013ac:	0d0a6325 	stceq	3, cr6, [sl, #-148]	; 0xffffff6c
801013b0:	00000000 	andeq	r0, r0, r0

801013b4 <.LC2>:
801013b4:	74736574 	ldrbtvc	r6, [r3], #-1396	; 0xfffffa8c
801013b8:	63656420 	cmnvs	r5, #32, 8	; 0x20000000
801013bc:	6c616d69 	stclvs	13, cr6, [r1], #-420	; 0xfffffe5c
801013c0:	6d756e20 	ldclvs	14, cr6, [r5, #-128]!	; 0xffffff80
801013c4:	20726562 	rsbscs	r6, r2, r2, ror #10
801013c8:	0a64253d 	beq	81a0a8c4 <__bss_end+0x190932c>
801013cc:	0000000d 	andeq	r0, r0, sp

801013d0 <.LC3>:
801013d0:	74736574 	ldrbtvc	r6, [r3], #-1396	; 0xfffffa8c
801013d4:	78656820 	stmdavc	r5!, {r5, fp, sp, lr}^
801013d8:	20202020 	eorcs	r2, r0, r0, lsr #32
801013dc:	6d756e20 	ldclvs	14, cr6, [r5, #-128]!	; 0xffffff80
801013e0:	20726562 	rsbscs	r6, r2, r2, ror #10
801013e4:	2578303d 	ldrbcs	r3, [r8, #-61]!	; 0xffffffc3
801013e8:	000d0a78 	andeq	r0, sp, r8, ror sl

801013ec <.LC4>:
801013ec:	2e777777 	mrccs	7, 3, r7, cr7, cr7, {3}
801013f0:	61303031 	teqvs	r0, r1, lsr r0
801013f4:	6f2e6b73 	svcvs	0x002e6b73
801013f8:	00006772 	andeq	r6, r0, r2, ror r7

801013fc <.LC5>:
801013fc:	74736574 	ldrbtvc	r6, [r3], #-1396	; 0xfffffa8c
80101400:	72747320 	rsbsvc	r7, r4, #32, 6	; 0x80000000
80101404:	20676e69 	rsbcs	r6, r7, r9, ror #28
80101408:	20202020 	eorcs	r2, r0, r0, lsr #32
8010140c:	20202020 	eorcs	r2, r0, r0, lsr #32
80101410:	0a73253d 	beq	81dca90c <__bss_end+0x1cc9374>
80101414:	0000000d 	andeq	r0, r0, sp

80101418 <.LC6>:
80101418:	3d6d756e 	cfstr64cc	mvdx7, [sp, #-440]!	; 0xfffffe48
8010141c:	64383025 	ldrtvs	r3, [r8], #-37	; 0xffffffdb
80101420:	00000d0a 	andeq	r0, r0, sl, lsl #26

80101424 <.LC7>:
80101424:	3d6d756e 	cfstr64cc	mvdx7, [sp, #-440]!	; 0xfffffe48
80101428:	0a643825 	beq	81a0f4c4 <__bss_end+0x190df2c>
8010142c:	0000000d 	andeq	r0, r0, sp

80101430 <.LC8>:
80101430:	3d6d756e 	cfstr64cc	mvdx7, [sp, #-440]!	; 0xfffffe48
80101434:	30257830 	eorcc	r7, r5, r0, lsr r8
80101438:	0d0a7838 	stceq	8, cr7, [sl, #-224]	; 0xffffff20
8010143c:	00000000 	andeq	r0, r0, r0

80101440 <.LC9>:
80101440:	3d6d756e 	cfstr64cc	mvdx7, [sp, #-440]!	; 0xfffffe48
80101444:	38257830 	stmdacc	r5!, {r4, r5, fp, ip, sp, lr}
80101448:	000d0a78 	andeq	r0, sp, r8, ror sl

8010144c <.LC10>:
8010144c:	3d6d756e 	cfstr64cc	mvdx7, [sp, #-440]!	; 0xfffffe48
80101450:	30257830 	eorcc	r7, r5, r0, lsr r8
80101454:	0d0a7832 	stceq	8, cr7, [sl, #-200]	; 0xffffff38
80101458:	00000000 	andeq	r0, r0, r0

8010145c <.LC11>:
8010145c:	3d6d756e 	cfstr64cc	mvdx7, [sp, #-440]!	; 0xfffffe48
80101460:	32257830 	eorcc	r7, r5, #48, 16	; 0x300000
80101464:	000d0a78 	andeq	r0, sp, r8, ror sl

80101468 <.LC12>:
80101468:	3d6d756e 	cfstr64cc	mvdx7, [sp, #-440]!	; 0xfffffe48
8010146c:	64353025 	ldrtvs	r3, [r5], #-37	; 0xffffffdb
80101470:	00000d0a 	andeq	r0, r0, sl, lsl #26

80101474 <.LC13>:
80101474:	3d6d756e 	cfstr64cc	mvdx7, [sp, #-440]!	; 0xfffffe48
80101478:	0a643525 	beq	81a0e914 <__bss_end+0x190d37c>
8010147c:	Address 0x000000008010147c is out of bounds.


Disassembly of section .data:

80101480 <hex_tab>:
80101480:	33323130 	teqcc	r2, #48, 2
80101484:	37363534 			; <UNDEFINED> instruction: 0x37363534
80101488:	62613938 	rsbvs	r3, r1, #56, 18	; 0xe0000
8010148c:	66656463 	strbtvs	r6, [r5], -r3, ror #8

80101490 <_ctype>:
80101490:	08080808 	stmdaeq	r8, {r3, fp}
80101494:	08080808 	stmdaeq	r8, {r3, fp}
80101498:	28282808 	stmdacs	r8!, {r3, fp, sp}
8010149c:	08082828 	stmdaeq	r8, {r3, r5, fp, sp}
801014a0:	08080808 	stmdaeq	r8, {r3, fp}
801014a4:	08080808 	stmdaeq	r8, {r3, fp}
801014a8:	08080808 	stmdaeq	r8, {r3, fp}
801014ac:	08080808 	stmdaeq	r8, {r3, fp}
801014b0:	101010a0 	andsne	r1, r0, r0, lsr #1
801014b4:	10101010 	andsne	r1, r0, r0, lsl r0
801014b8:	10101010 	andsne	r1, r0, r0, lsl r0
801014bc:	10101010 	andsne	r1, r0, r0, lsl r0
801014c0:	04040404 	streq	r0, [r4], #-1028	; 0xfffffbfc
801014c4:	04040404 	streq	r0, [r4], #-1028	; 0xfffffbfc
801014c8:	10100404 	andsne	r0, r0, r4, lsl #8
801014cc:	10101010 	andsne	r1, r0, r0, lsl r0
801014d0:	41414110 	cmpmi	r1, r0, lsl r1
801014d4:	01414141 	cmpeq	r1, r1, asr #2
801014d8:	01010101 	tsteq	r1, r1, lsl #2
801014dc:	01010101 	tsteq	r1, r1, lsl #2
801014e0:	01010101 	tsteq	r1, r1, lsl #2
801014e4:	01010101 	tsteq	r1, r1, lsl #2
801014e8:	10010101 	andne	r0, r1, r1, lsl #2
801014ec:	10101010 	andsne	r1, r0, r0, lsl r0
801014f0:	42424210 	submi	r4, r2, #16, 4
801014f4:	02424242 	subeq	r4, r2, #536870916	; 0x20000004
801014f8:	02020202 	andeq	r0, r2, #536870912	; 0x20000000
801014fc:	02020202 	andeq	r0, r2, #536870912	; 0x20000000
80101500:	02020202 	andeq	r0, r2, #536870912	; 0x20000000
80101504:	02020202 	andeq	r0, r2, #536870912	; 0x20000000
80101508:	10020202 	andne	r0, r2, r2, lsl #4
8010150c:	08101010 	ldmdaeq	r0, {r4, ip}
	...
80101530:	101010a0 	andsne	r1, r0, r0, lsr #1
80101534:	10101010 	andsne	r1, r0, r0, lsl r0
80101538:	10101010 	andsne	r1, r0, r0, lsl r0
8010153c:	10101010 	andsne	r1, r0, r0, lsl r0
80101540:	10101010 	andsne	r1, r0, r0, lsl r0
80101544:	10101010 	andsne	r1, r0, r0, lsl r0
80101548:	10101010 	andsne	r1, r0, r0, lsl r0
8010154c:	10101010 	andsne	r1, r0, r0, lsl r0
80101550:	01010101 	tsteq	r1, r1, lsl #2
80101554:	01010101 	tsteq	r1, r1, lsl #2
80101558:	01010101 	tsteq	r1, r1, lsl #2
8010155c:	01010101 	tsteq	r1, r1, lsl #2
80101560:	01010101 	tsteq	r1, r1, lsl #2
80101564:	10010101 	andne	r0, r1, r1, lsl #2
80101568:	01010101 	tsteq	r1, r1, lsl #2
8010156c:	02010101 	andeq	r0, r1, #1073741824	; 0x40000000
80101570:	02020202 	andeq	r0, r2, #536870912	; 0x20000000
80101574:	02020202 	andeq	r0, r2, #536870912	; 0x20000000
80101578:	02020202 	andeq	r0, r2, #536870912	; 0x20000000
8010157c:	02020202 	andeq	r0, r2, #536870912	; 0x20000000
80101580:	02020202 	andeq	r0, r2, #536870912	; 0x20000000
80101584:	10020202 	andne	r0, r2, r2, lsl #4
80101588:	02020202 	andeq	r0, r2, #536870912	; 0x20000000
8010158c:	02020202 	andeq	r0, r2, #536870912	; 0x20000000

Disassembly of section .bss:

80101590 <__bss_start>:
80101590:	00000000 	andeq	r0, r0, r0

80101594 <IOMUXC_SW_MUX_CTL_PAD_UART1_RX_DATA>:
80101594:	00000000 	andeq	r0, r0, r0

Disassembly of section .ARM.attributes:

00000000 <.ARM.attributes>:
   0:	00002e41 	andeq	r2, r0, r1, asr #28
   4:	61656100 	cmnvs	r5, r0, lsl #2
   8:	01006962 	tsteq	r0, r2, ror #18
   c:	00000024 	andeq	r0, r0, r4, lsr #32
  10:	412d3705 			; <UNDEFINED> instruction: 0x412d3705
  14:	070a0600 	streq	r0, [sl, -r0, lsl #12]
  18:	09010841 	stmdbeq	r1, {r0, r6, fp}
  1c:	12040a02 	andne	r0, r4, #8192	; 0x2000
  20:	15011404 	strne	r1, [r1, #-1028]	; 0xfffffbfc
  24:	18031701 	stmdane	r3, {r0, r8, r9, sl, ip}
  28:	1c021a01 			; <UNDEFINED> instruction: 0x1c021a01
  2c:	Address 0x000000000000002c is out of bounds.


Disassembly of section .comment:

00000000 <.comment>:
   0:	3a434347 	bcc	10d0d24 <shift+0x10d0d24>
   4:	694c2820 	stmdbvs	ip, {r5, fp, sp}^
   8:	6f72616e 	svcvs	0x0072616e
   c:	43434720 	movtmi	r4, #14112	; 0x3720
  10:	322e3620 	eorcc	r3, lr, #32, 12	; 0x2000000
  14:	3130322d 	teqcc	r0, sp, lsr #4
  18:	31312e36 	teqcc	r1, r6, lsr lr
  1c:	2e362029 	cdpcs	0, 3, cr2, cr6, cr9, {1}
  20:	20312e32 	eorscs	r2, r1, r2, lsr lr
  24:	36313032 			; <UNDEFINED> instruction: 0x36313032
  28:	36313031 			; <UNDEFINED> instruction: 0x36313031
	...

Disassembly of section .debug_line:

00000000 <.debug_line>:
   0:	00000043 	andeq	r0, r0, r3, asr #32
   4:	001e0002 	andseq	r0, lr, r2
   8:	01020000 	mrseq	r0, (UNDEF: 2)
   c:	000d0efb 	strdeq	r0, [sp], -fp
  10:	01010101 	tsteq	r1, r1, lsl #2
  14:	01000000 	mrseq	r0, (UNDEF: 0)
  18:	00010000 	andeq	r0, r1, r0
  1c:	72617473 	rsbvc	r7, r1, #1929379840	; 0x73000000
  20:	00532e74 	subseq	r2, r3, r4, ror lr
  24:	00000000 	andeq	r0, r0, r0
  28:	00020500 	andeq	r0, r2, r0, lsl #10
  2c:	18801000 	stmne	r0, {ip}
  30:	32313030 	eorscc	r3, r1, #48	; 0x30
  34:	2f302f2f 	svccs	0x00302f2f
  38:	03302f2f 	teqeq	r0, #47, 30	; 0xbc
  3c:	0b032e6c 	bleq	cb9f4 <shift+0xcb9f4>
  40:	02022f2e 	andeq	r2, r2, #46, 30	; 0xb8
  44:	58010100 	stmdapl	r1, {r8}
  48:	02000001 	andeq	r0, r0, #1
  4c:	00002f00 	andeq	r2, r0, r0, lsl #30
  50:	fb010200 	blx	4085a <shift+0x4085a>
  54:	01000d0e 	tsteq	r0, lr, lsl #26
  58:	00010101 	andeq	r0, r1, r1, lsl #2
  5c:	00010000 	andeq	r0, r1, r0
  60:	69000100 	stmdbvs	r0, {r8}
  64:	632e6332 			; <UNDEFINED> instruction: 0x632e6332
  68:	00000000 	andeq	r0, r0, r0
  6c:	65707974 	ldrbvs	r7, [r0, #-2420]!	; 0xfffff68c
  70:	0000682e 	andeq	r6, r0, lr, lsr #16
  74:	32690000 	rsbcc	r0, r9, #0
  78:	00682e63 	rsbeq	r2, r8, r3, ror #28
  7c:	00000000 	andeq	r0, r0, r0
  80:	3c020500 	cfstr32cc	mvfx0, [r2], {-0}
  84:	15801000 	strne	r1, [r0]
  88:	834a1203 	movthi	r1, #41475	; 0xa203
  8c:	5a69833d 	bpl	1a60d88 <shift+0x1a60d88>
  90:	8383845a 	orrhi	r8, r3, #1509949440	; 0x5a000000
  94:	22305a30 	eorscs	r5, r0, #48, 20	; 0x30000
  98:	35757669 	ldrbcc	r7, [r5, #-1641]!	; 0xfffff997
  9c:	04020089 	streq	r0, [r2], #-137	; 0xffffff77
  a0:	00740601 	rsbseq	r0, r4, r1, lsl #12
  a4:	2e020402 	cdpcs	4, 0, cr0, cr2, cr2, {0}
  a8:	04040200 	streq	r0, [r4], #-512	; 0xfffffe00
  ac:	04020020 	streq	r0, [r2], #-32	; 0xffffffe0
  b0:	224b0604 	subcs	r0, fp, #4, 12	; 0x400000
  b4:	85424c68 	strbhi	r4, [r2, #-3176]	; 0xfffff398
  b8:	2a3d3d22 	bcs	f4f548 <shift+0xf4f548>
  bc:	7769227a 			; <UNDEFINED> instruction: 0x7769227a
  c0:	01040200 	mrseq	r0, R12_usr
  c4:	75067406 	strvc	r7, [r6, #-1030]	; 0xfffffbfa
  c8:	02008935 	andeq	r8, r0, #868352	; 0xd4000
  cc:	74060104 	strvc	r0, [r6], #-260	; 0xfffffefc
  d0:	02040200 	andeq	r0, r4, #0, 4
  d4:	0402002e 	streq	r0, [r2], #-46	; 0xffffffd2
  d8:	02002004 	andeq	r2, r0, #4
  dc:	4c060404 	cfstrsmi	mvf0, [r6], {4}
  e0:	00686a22 	rsbeq	r6, r8, r2, lsr #20
  e4:	06010402 	streq	r0, [r1], -r2, lsl #8
  e8:	83760620 	cmnhi	r6, #32, 12	; 0x2000000
  ec:	00762283 	rsbseq	r2, r6, r3, lsl #5
  f0:	06010402 	streq	r0, [r1], -r2, lsl #8
  f4:	85750620 	ldrbhi	r0, [r5, #-1568]!	; 0xfffff9e0
  f8:	039e7803 	orrseq	r7, lr, #196608	; 0x30000
  fc:	83236609 			; <UNDEFINED> instruction: 0x83236609
 100:	2f674d3e 	svccs	0x00674d3e
 104:	0402005b 	streq	r0, [r2], #-91	; 0xffffffa5
 108:	06200601 	strteq	r0, [r0], -r1, lsl #12
 10c:	3d858376 	stccc	3, cr8, [r5, #472]	; 0x1d8
 110:	00225b84 	eoreq	r5, r2, r4, lsl #23
 114:	06010402 	streq	r0, [r1], -r2, lsl #8
 118:	84750620 	ldrbthi	r0, [r5], #-1568	; 0xfffff9e0
 11c:	843e3f3e 	ldrthi	r3, [lr], #-3902	; 0xfffff0c2
 120:	03827203 	orreq	r7, r2, #805306368	; 0x30000000
 124:	594d5811 	stmdbpl	sp, {r0, r4, fp, ip, lr}^
 128:	0084412f 	addeq	r4, r4, pc, lsr #2
 12c:	06010402 	streq	r0, [r1], -r2, lsl #8
 130:	00950620 	addseq	r0, r5, r0, lsr #12
 134:	06010402 	streq	r0, [r1], -r2, lsl #8
 138:	304c064a 	subcc	r0, ip, sl, asr #12
 13c:	00403e92 	umaaleq	r3, r0, r2, lr
 140:	06010402 	streq	r0, [r1], -r2, lsl #8
 144:	92770620 	rsbsls	r0, r7, #32, 12	; 0x2000000
 148:	4f403d3e 	svcmi	0x00403d3e
 14c:	00a06885 	adceq	r6, r0, r5, lsl #17
 150:	06010402 	streq	r0, [r1], -r2, lsl #8
 154:	91770620 	cmnls	r7, r0, lsr #12
 158:	003f3d3e 	eorseq	r3, pc, lr, lsr sp	; <UNPREDICTABLE>
 15c:	06010402 	streq	r0, [r1], -r2, lsl #8
 160:	4c3e064a 	ldcmi	6, cr0, [lr], #-296	; 0xfffffed8
 164:	02007583 	andeq	r7, r0, #549453824	; 0x20c00000
 168:	20060104 	andcs	r0, r6, r4, lsl #2
 16c:	3e927706 	cdpcc	7, 9, cr7, cr2, cr6, {0}
 170:	00443d2f 	subeq	r3, r4, pc, lsr #26
 174:	06010402 	streq	r0, [r1], -r2, lsl #8
 178:	864c064a 	strbhi	r0, [ip], -sl, asr #12
 17c:	01040200 	mrseq	r0, R12_usr
 180:	4c064a06 			; <UNDEFINED> instruction: 0x4c064a06
 184:	9f4c2284 	svcls	0x004c2284
 188:	2f2f403d 	svccs	0x002f403d
 18c:	303d2f2f 	eorscc	r2, sp, pc, lsr #30
 190:	834d2f91 	movthi	r2, #57233	; 0xdf91
 194:	2f2f3f3d 	svccs	0x002f3f3d
 198:	303d2f32 	eorscc	r2, sp, r2, lsr pc
 19c:	04022f91 	streq	r2, [r2], #-3985	; 0xfffff06f
 1a0:	71010100 	mrsvc	r0, (UNDEF: 17)
 1a4:	02000000 	andeq	r0, r0, #0
 1a8:	00002700 	andeq	r2, r0, r0, lsl #14
 1ac:	fb010200 	blx	409b6 <shift+0x409b6>
 1b0:	01000d0e 	tsteq	r0, lr, lsl #26
 1b4:	00010101 	andeq	r0, r1, r1, lsl #2
 1b8:	00010000 	andeq	r0, r1, r0
 1bc:	75000100 	strvc	r0, [r0, #-256]	; 0xffffff00
 1c0:	2e747261 	cdpcs	2, 7, cr7, cr4, cr1, {3}
 1c4:	00000063 	andeq	r0, r0, r3, rrx
 1c8:	72617500 	rsbvc	r7, r1, #0, 10
 1cc:	00682e74 	rsbeq	r2, r8, r4, ror lr
 1d0:	00000000 	andeq	r0, r0, r0
 1d4:	d0020500 	andle	r0, r2, r0, lsl #10
 1d8:	03801005 	orreq	r1, r0, #5
 1dc:	83300111 	teqhi	r0, #1073741828	; 0x40000004
 1e0:	03767584 	cmneq	r6, #132, 10	; 0x21000000
 1e4:	03ddba0d 	bicseq	fp, sp, #53248	; 0xd000
 1e8:	6775ba10 			; <UNDEFINED> instruction: 0x6775ba10
 1ec:	0d03bb76 	vstreq	d11, [r3, #-472]	; 0xfffffe28
 1f0:	02004b58 	andeq	r4, r0, #88, 22	; 0x16000
 1f4:	20060104 	andcs	r0, r6, r4, lsl #2
 1f8:	03679106 	cmneq	r7, #-2147483647	; 0x80000001
 1fc:	002f660d 	eoreq	r6, pc, sp, lsl #12
 200:	06010402 	streq	r0, [r1], -r2, lsl #8
 204:	59910620 	ldmibpl	r1, {r5, r9, sl}
 208:	4b580d03 	blmi	160361c <shift+0x160361c>
 20c:	4f395922 	svcmi	0x00395922
 210:	02214b4c 	eoreq	r4, r1, #76, 22	; 0x13000
 214:	01010006 	tsteq	r1, r6
 218:	000000ac 	andeq	r0, r0, ip, lsr #1
 21c:	00400002 	subeq	r0, r0, r2
 220:	01020000 	mrseq	r0, (UNDEF: 2)
 224:	000d0efb 	strdeq	r0, [sp], -fp
 228:	01010101 	tsteq	r1, r1, lsl #2
 22c:	01000000 	mrseq	r0, (UNDEF: 0)
 230:	00010000 	andeq	r0, r1, r0
 234:	65707974 	ldrbvs	r7, [r0, #-2420]!	; 0xfffff68c
 238:	0000682e 	andeq	r6, r0, lr, lsr #16
 23c:	70610000 	rsbvc	r0, r1, r0
 240:	36313233 			; <UNDEFINED> instruction: 0x36313233
 244:	00632e63 	rsbeq	r2, r3, r3, ror #28
 248:	69000000 	stmdbvs	r0, {}	; <UNPREDICTABLE>
 24c:	682e6332 	stmdavs	lr!, {r1, r4, r5, r8, r9, sp, lr}
 250:	00000000 	andeq	r0, r0, r0
 254:	32337061 	eorscc	r7, r3, #97	; 0x61
 258:	2e633631 	mcrcs	6, 3, r3, cr3, cr1, {1}
 25c:	00000068 	andeq	r0, r0, r8, rrx
 260:	05000000 	streq	r0, [r0, #-0]
 264:	10074602 	andne	r4, r7, r2, lsl #12
 268:	01280380 	smlawbeq	r8, r0, r3, r0
 26c:	23812175 	orrcs	r2, r1, #1073741853	; 0x4000001d
 270:	756d5a3e 	strbvc	r5, [sp, #-2622]!	; 0xfffff5c2
 274:	02043e3e 	andeq	r3, r4, #992	; 0x3e0
 278:	4b664803 	blmi	199228c <shift+0x199228c>
 27c:	01040200 	mrseq	r0, R12_usr
 280:	59062006 	stmdbpl	r6, {r1, r2, sp}
 284:	21083e68 	tstcs	r8, r8, ror #28
 288:	2f082108 	svccs	0x00082108
 28c:	3d3e2f08 	ldccc	15, cr2, [lr, #-32]!	; 0xffffffe0
 290:	0200922f 	andeq	r9, r0, #-268435454	; 0xf0000002
 294:	3c060104 	stfccs	f0, [r6], {4}
 298:	23323e06 	teqcs	r2, #6, 28	; 0x60
 29c:	2f313e4c 	svccs	0x00313e4c
 2a0:	844c845b 	strbhi	r8, [ip], #-1115	; 0xfffffba5
 2a4:	914f4d3d 	cmpls	pc, sp, lsr sp	; <UNPREDICTABLE>
 2a8:	243d4c92 	ldrtcs	r4, [sp], #-3218	; 0xfffff36e
 2ac:	4f3f21ca 	svcmi	0x003f21ca
 2b0:	21a09291 	lslcs	r9, r1	; <illegal shifter operand>
 2b4:	92914f3e 	addsls	r4, r1, #62, 30	; 0xf8
 2b8:	f4243d5a 			; <UNDEFINED> instruction: 0xf4243d5a
 2bc:	3d674021 	stclcc	0, cr4, [r7, #-132]!	; 0xffffff7c
 2c0:	02213d3d 	eoreq	r3, r1, #3904	; 0xf40
 2c4:	01010003 	tsteq	r1, r3
 2c8:	00000060 	andeq	r0, r0, r0, rrx
 2cc:	00270002 	eoreq	r0, r7, r2
 2d0:	01020000 	mrseq	r0, (UNDEF: 2)
 2d4:	000d0efb 	strdeq	r0, [sp], -fp
 2d8:	01010101 	tsteq	r1, r1, lsl #2
 2dc:	01000000 	mrseq	r0, (UNDEF: 0)
 2e0:	00010000 	andeq	r0, r1, r0
 2e4:	6e69616d 	powvsez	f6, f1, #5.0
 2e8:	0000632e 	andeq	r6, r0, lr, lsr #6
 2ec:	79740000 	ldmdbvc	r4!, {}^	; <UNPREDICTABLE>
 2f0:	682e6570 	stmdavs	lr!, {r4, r5, r6, r8, sl, sp, lr}
 2f4:	00000000 	andeq	r0, r0, r0
 2f8:	02050000 	andeq	r0, r5, #0
 2fc:	80100a20 	andshi	r0, r0, r0, lsr #20
 300:	4b010d03 	blmi	43714 <shift+0x43714>
 304:	01040200 	mrseq	r0, R12_usr
 308:	59062006 	stmdbpl	r6, {r1, r2, sp}
 30c:	30323d68 	eorscc	r3, r2, r8, ror #26
 310:	00783e4b 	rsbseq	r3, r8, fp, asr #28
 314:	6b010402 	blvs	41324 <shift+0x41324>
 318:	01040200 	mrseq	r0, R12_usr
 31c:	04020068 	streq	r0, [r2], #-104	; 0xffffff98
 320:	02008401 	andeq	r8, r0, #16777216	; 0x1000000
 324:	02a80104 	adceq	r0, r8, #4, 2
 328:	01010001 	tsteq	r1, r1
 32c:	000000c3 	andeq	r0, r0, r3, asr #1
 330:	00220002 	eoreq	r0, r2, r2
 334:	01020000 	mrseq	r0, (UNDEF: 2)
 338:	000d0efb 	strdeq	r0, [sp], -fp
 33c:	01010101 	tsteq	r1, r1, lsl #2
 340:	01000000 	mrseq	r0, (UNDEF: 0)
 344:	00010000 	andeq	r0, r1, r0
 348:	705f796d 	subsvc	r7, pc, sp, ror #18
 34c:	746e6972 	strbtvc	r6, [lr], #-2418	; 0xfffff68e
 350:	00632e66 	rsbeq	r2, r3, r6, ror #28
 354:	00000000 	andeq	r0, r0, r0
 358:	ac020500 	cfstr32ge	mvfx0, [r2], {-0}
 35c:	0380100a 	orreq	r1, r0, #10
 360:	3d4b0115 	stfcce	f0, [fp, #-84]	; 0xffffffac
 364:	214b4d21 	cmpcs	fp, r1, lsr #26
 368:	4d214c73 	stcmi	12, cr4, [r1, #-460]!	; 0xfffffe34
 36c:	4d4b2f83 	stclmi	15, cr2, [fp, #-524]	; 0xfffffdf4
 370:	004d3d68 	subeq	r3, sp, r8, ror #26
 374:	32010402 	andcc	r0, r1, #33554432	; 0x2000000
 378:	01040200 	mrseq	r0, R12_usr
 37c:	02002108 	andeq	r2, r0, #8, 2
 380:	a03d0104 	eorsge	r0, sp, r4, lsl #2
 384:	01040200 	mrseq	r0, R12_usr
 388:	4b063c06 	blmi	18f3a8 <shift+0x18f3a8>
 38c:	03040200 	movweq	r0, #16896	; 0x4200
 390:	04020059 	streq	r0, [r2], #-89	; 0xffffffa7
 394:	02006503 	andeq	r6, r0, #12582912	; 0xc00000
 398:	3c060104 	stfccs	f0, [r6], {4}
 39c:	683d4006 	ldmdavs	sp!, {r1, r2, lr}
 3a0:	2f594f4b 	svccs	0x00594f4b
 3a4:	594b2230 	stmdbpl	fp, {r4, r5, r9, sp}^
 3a8:	3d312f23 	ldccc	15, cr2, [r1, #-140]!	; 0xffffff74
 3ac:	21402f4b 	cmpcs	r0, fp, asr #30
 3b0:	00396767 	eorseq	r6, r9, r7, ror #14
 3b4:	06010402 	streq	r0, [r1], -r2, lsl #8
 3b8:	0250064a 	subseq	r0, r0, #77594624	; 0x4a00000
 3bc:	c9bb1334 	ldmibgt	fp!, {r2, r4, r5, r8, r9, ip}
 3c0:	a19fc9c9 	orrsge	ip, pc, r9, asr #19
 3c4:	205e0359 	subscs	r0, lr, r9, asr r3
 3c8:	01040200 	mrseq	r0, R12_usr
 3cc:	03063c06 	movweq	r3, #27654	; 0x6c06
 3d0:	03215825 			; <UNDEFINED> instruction: 0x03215825
 3d4:	3d4d4a0f 	vstrcc	s9, [sp, #-60]	; 0xffffffc4
 3d8:	03212f59 			; <UNDEFINED> instruction: 0x03212f59
 3dc:	672f740e 	strvs	r7, [pc, -lr, lsl #8]!
 3e0:	9f9f9f83 	svcls	0x009f9f83
 3e4:	9f83839f 	svcls	0x0083839f
 3e8:	7576759f 	ldrbvc	r7, [r6, #-1439]!	; 0xfffffa61
 3ec:	02022176 	andeq	r2, r2, #-2147483619	; 0x8000001d
 3f0:	b1010100 	mrslt	r0, (UNDEF: 17)
 3f4:	02000000 	andeq	r0, r0, #0
 3f8:	00002500 	andeq	r2, r0, r0, lsl #10
 3fc:	fb010200 	blx	40c06 <shift+0x40c06>
 400:	01000d0e 	tsteq	r0, lr, lsl #26
 404:	00010101 	andeq	r0, r1, r1, lsl #2
 408:	00010000 	andeq	r0, r1, r0
 40c:	73000100 	movwvc	r0, #256	; 0x100
 410:	6e697274 	mcrvs	2, 3, r7, cr9, cr4, {3}
 414:	74755f67 	ldrbtvc	r5, [r5], #-3943	; 0xfffff099
 418:	2e736c69 	cdpcs	12, 7, cr6, cr3, cr9, {3}
 41c:	00000063 	andeq	r0, r0, r3, rrx
 420:	05000000 	streq	r0, [r0, #-0]
 424:	100e7802 	andne	r7, lr, r2, lsl #16
 428:	00cd0380 	sbceq	r0, sp, r0, lsl #7
 42c:	3d9f5901 	vldrcc.16	s10, [pc, #2]	; 436 <shift+0x436>	; <UNPREDICTABLE>
 430:	66130321 	ldrvs	r0, [r3], -r1, lsr #6
 434:	3d4b3067 	stclcc	0, cr3, [fp, #-412]	; 0xfffffe64
 438:	02040200 	andeq	r0, r4, #0, 4
 43c:	02004a06 	andeq	r4, r0, #24576	; 0x6000
 440:	064a0304 	strbeq	r0, [sl], -r4, lsl #6
 444:	3d3e2fc9 	ldccc	15, cr2, [lr, #-804]!	; 0xfffffcdc
 448:	22303d31 	eorscs	r3, r0, #3136	; 0xc40
 44c:	02003975 	andeq	r3, r0, #1916928	; 0x1d4000
 450:	ba060104 	blt	180868 <shift+0x180868>
 454:	02040200 	andeq	r0, r4, #0, 4
 458:	040200ba 	streq	r0, [r2], #-186	; 0xffffff46
 45c:	02004a03 	andeq	r4, r0, #12288	; 0x3000
 460:	bb060504 	bllt	181878 <shift+0x181878>
 464:	06040200 	streq	r0, [r4], -r0, lsl #4
 468:	02008206 	andeq	r8, r0, #1610612736	; 0x60000000
 46c:	3b060904 	blcc	182884 <shift+0x182884>
 470:	213d3d5d 	teqcs	sp, sp, asr sp
 474:	674a1003 	strbvs	r1, [sl, -r3]
 478:	03679f4b 	cmneq	r7, #300	; 0x12c
 47c:	334b4a0e 	movtcc	r4, #47630	; 0xba0e
 480:	4b3d4b4d 	blmi	f531bc <shift+0xf531bc>
 484:	02003e3d 	andeq	r3, r0, #976	; 0x3d0
 488:	3c060104 	stfccs	f0, [r6], {4}
 48c:	24593e06 	ldrbcs	r3, [r9], #-3590	; 0xfffff1fa
 490:	03827003 	orreq	r7, r2, #3
 494:	03212014 			; <UNDEFINED> instruction: 0x03212014
 498:	4b3e4a0d 	blmi	f92cd4 <shift+0xf92cd4>
 49c:	4a0d0375 	bmi	341278 <shift+0x341278>
 4a0:	02754b3e 	rsbseq	r4, r5, #63488	; 0xf800
 4a4:	01010004 	tsteq	r1, r4
 4a8:	000000fc 	strdeq	r0, [r0], -ip
 4ac:	00c70002 	sbceq	r0, r7, r2
 4b0:	01020000 	mrseq	r0, (UNDEF: 2)
 4b4:	000d0efb 	strdeq	r0, [sp], -fp
 4b8:	01010101 	tsteq	r1, r1, lsl #2
 4bc:	01000000 	mrseq	r0, (UNDEF: 0)
 4c0:	2f010000 	svccs	0x00010000
 4c4:	656d6f68 	strbvs	r6, [sp, #-3944]!	; 0xfffff098
 4c8:	7763742f 	strbvc	r7, [r3, -pc, lsr #8]!
 4cc:	75622d67 	strbvc	r2, [r2, #-3431]!	; 0xfffff299
 4d0:	73646c69 	cmnvc	r4, #26880	; 0x6900
 4d4:	6576616c 	ldrbvs	r6, [r6, #-364]!	; 0xfffffe94
 4d8:	726f772f 	rsbvc	r7, pc, #12320768	; 0xbc0000
 4dc:	6170736b 	cmnvs	r0, fp, ror #6
 4e0:	742f6563 	strtvc	r6, [pc], #-1379	; 4e8 <shift+0x4e8>
 4e4:	2d677763 	stclcs	7, cr7, [r7, #-396]!	; 0xfffffe74
 4e8:	656b616d 	strbvs	r6, [fp, #-365]!	; 0xfffffe93
 4ec:	6c65722d 	sfmvs	f7, 2, [r5], #-180	; 0xffffff4c
 4f0:	65736165 	ldrbvs	r6, [r3, #-357]!	; 0xfffffe9b
 4f4:	62616c2f 	rsbvs	r6, r1, #12032	; 0x2f00
 4f8:	642f6c65 	strtvs	r6, [pc], #-3173	; 500 <shift+0x500>
 4fc:	656b636f 	strbvs	r6, [fp, #-879]!	; 0xfffffc91
 500:	72742d72 	rsbsvc	r2, r4, #7296	; 0x1c80
 504:	79747375 	ldmdbvc	r4!, {r0, r2, r4, r5, r6, r8, r9, ip, sp, lr}^
 508:	646d612d 	strbtvs	r6, [sp], #-301	; 0xfffffed3
 50c:	742d3436 	strtvc	r3, [sp], #-1078	; 0xfffffbca
 510:	2d677763 	stclcs	7, cr7, [r7, #-396]!	; 0xfffffe74
 514:	6c697562 	cfstr64vs	mvdx7, [r9], #-392	; 0xfffffe78
 518:	61742f64 	cmnvs	r4, r4, ror #30
 51c:	74656772 	strbtvc	r6, [r5], #-1906	; 0xfffff88e
 520:	6d72612f 	ldfvse	f6, [r2, #-188]!	; 0xffffff44
 524:	6e696c2d 	cdpvs	12, 6, cr6, cr9, cr13, {1}
 528:	672d7875 			; <UNDEFINED> instruction: 0x672d7875
 52c:	6165756e 	cmnvs	r5, lr, ror #10
 530:	66686962 	strbtvs	r6, [r8], -r2, ror #18
 534:	616e732f 	cmnvs	lr, pc, lsr #6
 538:	6f687370 	svcvs	0x00687370
 53c:	672f7374 			; <UNDEFINED> instruction: 0x672f7374
 540:	6c2d6363 	stcvs	3, cr6, [sp], #-396	; 0xfffffe74
 544:	72616e69 	rsbvc	r6, r1, #1680	; 0x690
 548:	2e362d6f 	cdpcs	13, 3, cr2, cr6, cr15, {3}
 54c:	30322d32 	eorscc	r2, r2, r2, lsr sp
 550:	312e3631 			; <UNDEFINED> instruction: 0x312e3631
 554:	696c2f31 	stmdbvs	ip!, {r0, r4, r5, r8, r9, sl, fp, sp}^
 558:	63636762 	cmnvs	r3, #25690112	; 0x1880000
 55c:	6e6f632f 	cdpvs	3, 6, cr6, cr15, cr15, {1}
 560:	2f676966 	svccs	0x00676966
 564:	006d7261 	rsbeq	r7, sp, r1, ror #4
 568:	62696c00 	rsbvs	r6, r9, #0, 24
 56c:	6e756631 	mrcvs	6, 3, r6, cr5, cr1, {1}
 570:	532e7363 			; <UNDEFINED> instruction: 0x532e7363
 574:	00000100 	andeq	r0, r0, r0, lsl #2
 578:	02050000 	andeq	r0, r5, #0
 57c:	801010a0 	andshi	r1, r0, r0, lsr #1
 580:	0107e603 	tsteq	r7, r3, lsl #12
 584:	2f212121 	svccs	0x00212121
 588:	30212f21 	eorcc	r2, r1, r1, lsr #30
 58c:	14029102 	strne	r9, [r2], #-258	; 0xfffffefe
 590:	21212221 			; <UNDEFINED> instruction: 0x21212221
 594:	2f4c2221 	svccs	0x004c2221
 598:	58160324 	ldmdapl	r6, {r2, r5, r8, r9}
 59c:	2f2f2121 	svccs	0x002f2121
 5a0:	022f2f2f 	eoreq	r2, pc, #47, 30	; 0xbc
 5a4:	01010001 	tsteq	r1, r1
 5a8:	000000e2 	andeq	r0, r0, r2, ror #1
 5ac:	00c70002 	sbceq	r0, r7, r2
 5b0:	01020000 	mrseq	r0, (UNDEF: 2)
 5b4:	000d0efb 	strdeq	r0, [sp], -fp
 5b8:	01010101 	tsteq	r1, r1, lsl #2
 5bc:	01000000 	mrseq	r0, (UNDEF: 0)
 5c0:	2f010000 	svccs	0x00010000
 5c4:	656d6f68 	strbvs	r6, [sp, #-3944]!	; 0xfffff098
 5c8:	7763742f 	strbvc	r7, [r3, -pc, lsr #8]!
 5cc:	75622d67 	strbvc	r2, [r2, #-3431]!	; 0xfffff299
 5d0:	73646c69 	cmnvc	r4, #26880	; 0x6900
 5d4:	6576616c 	ldrbvs	r6, [r6, #-364]!	; 0xfffffe94
 5d8:	726f772f 	rsbvc	r7, pc, #12320768	; 0xbc0000
 5dc:	6170736b 	cmnvs	r0, fp, ror #6
 5e0:	742f6563 	strtvc	r6, [pc], #-1379	; 5e8 <shift+0x5e8>
 5e4:	2d677763 	stclcs	7, cr7, [r7, #-396]!	; 0xfffffe74
 5e8:	656b616d 	strbvs	r6, [fp, #-365]!	; 0xfffffe93
 5ec:	6c65722d 	sfmvs	f7, 2, [r5], #-180	; 0xffffff4c
 5f0:	65736165 	ldrbvs	r6, [r3, #-357]!	; 0xfffffe9b
 5f4:	62616c2f 	rsbvs	r6, r1, #12032	; 0x2f00
 5f8:	642f6c65 	strtvs	r6, [pc], #-3173	; 600 <shift+0x600>
 5fc:	656b636f 	strbvs	r6, [fp, #-879]!	; 0xfffffc91
 600:	72742d72 	rsbsvc	r2, r4, #7296	; 0x1c80
 604:	79747375 	ldmdbvc	r4!, {r0, r2, r4, r5, r6, r8, r9, ip, sp, lr}^
 608:	646d612d 	strbtvs	r6, [sp], #-301	; 0xfffffed3
 60c:	742d3436 	strtvc	r3, [sp], #-1078	; 0xfffffbca
 610:	2d677763 	stclcs	7, cr7, [r7, #-396]!	; 0xfffffe74
 614:	6c697562 	cfstr64vs	mvdx7, [r9], #-392	; 0xfffffe78
 618:	61742f64 	cmnvs	r4, r4, ror #30
 61c:	74656772 	strbtvc	r6, [r5], #-1906	; 0xfffff88e
 620:	6d72612f 	ldfvse	f6, [r2, #-188]!	; 0xffffff44
 624:	6e696c2d 	cdpvs	12, 6, cr6, cr9, cr13, {1}
 628:	672d7875 			; <UNDEFINED> instruction: 0x672d7875
 62c:	6165756e 	cmnvs	r5, lr, ror #10
 630:	66686962 	strbtvs	r6, [r8], -r2, ror #18
 634:	616e732f 	cmnvs	lr, pc, lsr #6
 638:	6f687370 	svcvs	0x00687370
 63c:	672f7374 			; <UNDEFINED> instruction: 0x672f7374
 640:	6c2d6363 	stcvs	3, cr6, [sp], #-396	; 0xfffffe74
 644:	72616e69 	rsbvc	r6, r1, #1680	; 0x690
 648:	2e362d6f 	cdpcs	13, 3, cr2, cr6, cr15, {3}
 64c:	30322d32 	eorscc	r2, r2, r2, lsr sp
 650:	312e3631 			; <UNDEFINED> instruction: 0x312e3631
 654:	696c2f31 	stmdbvs	ip!, {r0, r4, r5, r8, r9, sl, fp, sp}^
 658:	63636762 	cmnvs	r3, #25690112	; 0x1880000
 65c:	6e6f632f 	cdpvs	3, 6, cr6, cr15, cr15, {1}
 660:	2f676966 	svccs	0x00676966
 664:	006d7261 	rsbeq	r7, sp, r1, ror #4
 668:	62696c00 	rsbvs	r6, r9, #0, 24
 66c:	6e756631 	mrcvs	6, 3, r6, cr5, cr1, {1}
 670:	532e7363 			; <UNDEFINED> instruction: 0x532e7363
 674:	00000100 	andeq	r0, r0, r0, lsl #2
 678:	02050000 	andeq	r0, r5, #0
 67c:	80101318 	andshi	r1, r0, r8, lsl r3
 680:	010ac403 	tsteq	sl, r3, lsl #8
 684:	2f200903 	svccs	0x00200903
 688:	0001022f 	andeq	r0, r1, pc, lsr #4
 68c:	Address 0x000000000000068c is out of bounds.


Disassembly of section .debug_info:

00000000 <.debug_info>:
       0:	00000073 	andeq	r0, r0, r3, ror r0
       4:	00000002 	andeq	r0, r0, r2
       8:	01040000 	mrseq	r0, (UNDEF: 4)
       c:	00000000 	andeq	r0, r0, r0
      10:	80100000 	andshi	r0, r0, r0
      14:	8010003c 	andshi	r0, r0, ip, lsr r0
      18:	72617473 	rsbvc	r7, r1, #1929379840	; 0x73000000
      1c:	00532e74 	subseq	r2, r3, r4, ror lr
      20:	6d6f682f 	stclvs	8, cr6, [pc, #-188]!	; ffffff6c <__bss_end+0x7fefe9d4>
      24:	6f622f65 	svcvs	0x00622f65
      28:	312f6b6f 			; <UNDEFINED> instruction: 0x312f6b6f
      2c:	73613030 	cmnvc	r1, #48	; 0x30
      30:	6d695f6b 	stclvs	15, cr5, [r9, #-428]!	; 0xfffffe54
      34:	6c753678 	ldclvs	6, cr3, [r5], #-480	; 0xfffffe20
      38:	64732d6c 	ldrbtvs	r2, [r3], #-3436	; 0xfffff294
      3c:	6f6e2f6b 	svcvs	0x006e2f6b
      40:	302f736f 	eorcc	r7, pc, pc, ror #6
      44:	655f3230 	ldrbvs	r3, [pc, #-560]	; fffffe1c <__bss_end+0x7fefe884>
      48:	706d6178 	rsbvc	r6, sp, r8, ror r1
      4c:	695f656c 	ldmdbvs	pc, {r2, r3, r5, r6, r8, sl, sp, lr}^	; <UNPREDICTABLE>
      50:	615f6332 	cmpvs	pc, r2, lsr r3	; <UNPREDICTABLE>
      54:	31323370 	teqcc	r2, r0, ror r3
      58:	705f6336 	subsvc	r6, pc, r6, lsr r3	; <UNPREDICTABLE>
      5c:	746e6972 	strbtvc	r6, [lr], #-2418	; 0xfffff68e
      60:	68735f66 	ldmdavs	r3!, {r1, r2, r5, r6, r8, r9, sl, fp, ip, lr}^
      64:	4700776f 	strmi	r7, [r0, -pc, ror #14]
      68:	4120554e 			; <UNDEFINED> instruction: 0x4120554e
      6c:	2e322053 	mrccs	0, 1, r2, cr2, cr3, {2}
      70:	302e3732 	eorcc	r3, lr, r2, lsr r7
      74:	b7800100 	strlt	r0, [r0, r0, lsl #2]
      78:	04000004 	streq	r0, [r0], #-4
      7c:	00001400 	andeq	r1, r0, r0, lsl #8
      80:	9b010400 	blls	41088 <shift+0x41088>
      84:	0c000001 	stceq	0, cr0, [r0], {1}
      88:	0000012e 	andeq	r0, r0, lr, lsr #2
      8c:	000000bd 	strheq	r0, [r0], -sp
      90:	8010003c 	andshi	r0, r0, ip, lsr r0
      94:	00000594 	muleq	r0, r4, r5
      98:	00000047 	andeq	r0, r0, r7, asr #32
      9c:	78060102 	stmdavc	r6, {r1, r8}
      a0:	02000000 	andeq	r0, r0, #0
      a4:	024f0502 	subeq	r0, pc, #8388608	; 0x800000
      a8:	04030000 	streq	r0, [r3], #-0
      ac:	746e6905 	strbtvc	r6, [lr], #-2309	; 0xfffff6fb
      b0:	01930400 	orrseq	r0, r3, r0, lsl #8
      b4:	07020000 	streq	r0, [r2, -r0]
      b8:	0000004f 	andeq	r0, r0, pc, asr #32
      bc:	00003a05 	andeq	r3, r0, r5, lsl #20
      c0:	003a0600 	eorseq	r0, sl, r0, lsl #12
      c4:	01020000 	mrseq	r0, (UNDEF: 2)
      c8:	00007608 	andeq	r7, r0, r8, lsl #12
      cc:	025e0400 	subseq	r0, lr, #0, 8
      d0:	08020000 	stmdaeq	r2, {}	; <UNPREDICTABLE>
      d4:	00000066 	andeq	r0, r0, r6, rrx
      d8:	00005605 	andeq	r5, r0, r5, lsl #12
      dc:	07020200 	streq	r0, [r2, -r0, lsl #4]
      e0:	000000a5 	andeq	r0, r0, r5, lsr #1
      e4:	00028204 	andeq	r8, r2, r4, lsl #4
      e8:	7d090200 	sfmvc	f0, 4, [r9, #-0]
      ec:	05000000 	streq	r0, [r0, #-0]
      f0:	0000006d 	andeq	r0, r0, sp, rrx
      f4:	86070402 	strhi	r0, [r7], -r2, lsl #8
      f8:	02000001 	andeq	r0, r0, #1
      fc:	017c0708 	cmneq	ip, r8, lsl #14
     100:	08020000 	stmdaeq	r2, {}	; <UNPREDICTABLE>
     104:	00022f05 	andeq	r2, r2, r5, lsl #30
     108:	00270700 	eoreq	r0, r7, r0, lsl #14
     10c:	03120000 	tsteq	r2, #0
     110:	00010b26 	andeq	r0, r1, r6, lsr #22
     114:	006c0800 	rsbeq	r0, ip, r0, lsl #16
     118:	27030000 	strcs	r0, [r3, -r0]
     11c:	00000061 	andeq	r0, r0, r1, rrx
     120:	00640800 	rsbeq	r0, r4, r0, lsl #16
     124:	28030000 	stmdacs	r3, {}	; <UNPREDICTABLE>
     128:	0000010b 	andeq	r0, r0, fp, lsl #2
     12c:	02c60802 	sbceq	r0, r6, #131072	; 0x20000
     130:	29030000 	stmdbcs	r3, {}	; <UNPREDICTABLE>
     134:	00000061 	andeq	r0, r0, r1, rrx
     138:	02be0804 	adcseq	r0, lr, #4, 16	; 0x40000
     13c:	2a030000 	bcs	c0144 <shift+0xc0144>
     140:	0000010b 	andeq	r0, r0, fp, lsl #2
     144:	013c0806 	teqeq	ip, r6, lsl #16
     148:	2b030000 	blcs	c0150 <shift+0xc0150>
     14c:	00000061 	andeq	r0, r0, r1, rrx
     150:	01340808 	teqeq	r4, r8, lsl #16
     154:	2c030000 	stccs	0, cr0, [r3], {-0}
     158:	0000010b 	andeq	r0, r0, fp, lsl #2
     15c:	02b9080a 	adcseq	r0, r9, #655360	; 0xa0000
     160:	2d030000 	stccs	0, cr0, [r3, #-0]
     164:	00000061 	andeq	r0, r0, r1, rrx
     168:	02b1080c 	adcseq	r0, r1, #12, 16	; 0xc0000
     16c:	2e030000 	cdpcs	0, 0, cr0, cr3, cr0, {0}
     170:	0000010b 	andeq	r0, r0, fp, lsl #2
     174:	0259080e 	subseq	r0, r9, #917504	; 0xe0000
     178:	2f030000 	svccs	0x00030000
     17c:	00000061 	andeq	r0, r0, r1, rrx
     180:	3a090010 	bcc	2401c8 <shift+0x2401c8>
     184:	1b000000 	blne	18c <shift+0x18c>
     188:	0a000001 	beq	194 <shift+0x194>
     18c:	0000011b 	andeq	r0, r0, fp, lsl r1
     190:	04020001 	streq	r0, [r2], #-1
     194:	00022607 	andeq	r2, r2, r7, lsl #12
     198:	00970400 	addseq	r0, r7, r0, lsl #8
     19c:	30030000 	andcc	r0, r3, r0
     1a0:	00000092 	muleq	r0, r2, r0
     1a4:	0001040b 	andeq	r0, r1, fp, lsl #8
     1a8:	007d0400 	rsbseq	r0, sp, r0, lsl #8
     1ac:	35030000 	strcc	r0, [r3, #-0]
     1b0:	00000150 	andeq	r0, r0, r0, asr r1
     1b4:	00011b0c 	andeq	r1, r1, ip, lsl #22
     1b8:	250c0000 	strcs	r0, [ip, #-0]
     1bc:	01000001 	tsteq	r0, r1
     1c0:	0000510c 	andeq	r5, r0, ip, lsl #2
     1c4:	07000200 	streq	r0, [r0, -r0, lsl #4]
     1c8:	00000000 	andeq	r0, r0, r0
     1cc:	a53f0318 	ldrge	r0, [pc, #-792]!	; fffffebc <__bss_end+0x7fefe924>
     1d0:	08000001 	stmdaeq	r0, {r0}
     1d4:	00000018 	andeq	r0, r0, r8, lsl r0
     1d8:	003a4103 	eorseq	r4, sl, r3, lsl #2
     1dc:	08000000 	stmdaeq	r0, {}	; <UNPREDICTABLE>
     1e0:	0000003e 	andeq	r0, r0, lr, lsr r0
     1e4:	006d4203 	rsbeq	r4, sp, r3, lsl #4
     1e8:	08040000 	stmdaeq	r4, {}	; <UNPREDICTABLE>
     1ec:	0000016f 	andeq	r0, r0, pc, ror #2
     1f0:	006d4303 	rsbeq	r4, sp, r3, lsl #6
     1f4:	08080000 	stmdaeq	r8, {}	; <UNPREDICTABLE>
     1f8:	000002a1 	andeq	r0, r0, r1, lsr #5
     1fc:	003a4403 	eorseq	r4, sl, r3, lsl #8
     200:	080c0000 	stmdaeq	ip, {}	; <UNPREDICTABLE>
     204:	0000023d 	andeq	r0, r0, sp, lsr r2
     208:	00784503 	rsbseq	r4, r8, r3, lsl #10
     20c:	08100000 	ldmdaeq	r0, {}	; <UNPREDICTABLE>
     210:	000000b8 	strheq	r0, [r0], -r8
     214:	01ab4603 			; <UNDEFINED> instruction: 0x01ab4603
     218:	00140000 	andseq	r0, r4, r0
     21c:	003a040d 	eorseq	r0, sl, sp, lsl #8
     220:	a5050000 	strge	r0, [r5, #-0]
     224:	04000001 	streq	r0, [r0], #-1
     228:	00000162 	andeq	r0, r0, r2, ror #2
     22c:	01504703 	cmpeq	r0, r3, lsl #14
     230:	4a0e0000 	bmi	380238 <shift+0x380238>
     234:	01000001 	tsteq	r0, r1
     238:	003a0124 	eorseq	r0, sl, r4, lsr #2
     23c:	057c0000 	ldrbeq	r0, [ip, #-0]!
     240:	00548010 	subseq	r8, r4, r0, lsl r0
     244:	9c010000 	stcls	0, cr0, [r1], {-0}
     248:	00000230 	andeq	r0, r0, r0, lsr r2
     24c:	0000710f 	andeq	r7, r0, pc, lsl #2
     250:	01240100 			; <UNDEFINED> instruction: 0x01240100
     254:	0000003a 	andeq	r0, r0, sl, lsr r0
     258:	10579102 	subsne	r9, r7, r2, lsl #2
     25c:	00676572 	rsbeq	r6, r7, r2, ror r5
     260:	3a012401 	bcc	4926c <shift+0x4926c>
     264:	02000000 	andeq	r0, r0, #0
     268:	410f5691 			; <UNDEFINED> instruction: 0x410f5691
     26c:	01000001 	tsteq	r0, r1
     270:	02300124 	eorseq	r0, r0, #36, 2
     274:	91020000 	mrsls	r0, (UNDEF: 2)
     278:	61761150 	cmnvs	r6, r0, asr r1
     27c:	2601006c 	strcs	r0, [r1], -ip, rrx
     280:	00003a01 	andeq	r3, r0, r1, lsl #20
     284:	76910200 	ldrvc	r0, [r1], r0, lsl #4
     288:	0004e212 	andeq	lr, r4, r2, lsl r2
     28c:	01270100 			; <UNDEFINED> instruction: 0x01270100
     290:	0000003a 	andeq	r0, r0, sl, lsr r0
     294:	12779102 	rsbsne	r9, r7, #-2147483648	; 0x80000000
     298:	0000028f 	andeq	r0, r0, pc, lsl #5
     29c:	b0012801 	andlt	r2, r1, r1, lsl #16
     2a0:	02000001 	andeq	r0, r0, #1
     2a4:	0d005c91 	stceq	12, cr5, [r0, #-580]	; 0xfffffdbc
     2a8:	00012204 	andeq	r2, r1, r4, lsl #4
     2ac:	00840e00 	addeq	r0, r4, r0, lsl #28
     2b0:	12010000 	andne	r0, r1, #0
     2b4:	00003a01 	andeq	r3, r0, r1, lsl #20
     2b8:	10052400 	andne	r2, r5, r0, lsl #8
     2bc:	00005880 	andeq	r5, r0, r0, lsl #17
     2c0:	ba9c0100 	blt	fe7006c8 <__bss_end+0x7e5ff130>
     2c4:	0f000002 	svceq	0x00000002
     2c8:	00000071 	andeq	r0, r0, r1, ror r0
     2cc:	3a011201 	bcc	44ad8 <shift+0x44ad8>
     2d0:	02000000 	andeq	r0, r0, #0
     2d4:	72105791 	andsvc	r5, r0, #38010880	; 0x2440000
     2d8:	01006765 	tsteq	r0, r5, ror #14
     2dc:	003a0112 	eorseq	r0, sl, r2, lsl r1
     2e0:	91020000 	mrsls	r0, (UNDEF: 2)
     2e4:	05940f56 	ldreq	r0, [r4, #3926]	; 0xf56
     2e8:	12010000 	andne	r0, r1, #0
     2ec:	00003a01 	andeq	r3, r0, r1, lsl #20
     2f0:	55910200 	ldrpl	r0, [r1, #512]	; 0x200
     2f4:	0001410f 	andeq	r4, r1, pc, lsl #2
     2f8:	01120100 	tsteq	r2, r0, lsl #2
     2fc:	00000230 	andeq	r0, r0, r0, lsr r2
     300:	12509102 	subsne	r9, r0, #-2147483648	; 0x80000000
     304:	000004e2 	andeq	r0, r0, r2, ror #9
     308:	3a011401 	bcc	45314 <shift+0x45314>
     30c:	02000000 	andeq	r0, r0, #0
     310:	1c127791 	ldcne	7, cr7, [r2], {145}	; 0x91
     314:	01000002 	tsteq	r0, r2
     318:	003a0115 	eorseq	r0, sl, r5, lsl r1
     31c:	91020000 	mrsls	r0, (UNDEF: 2)
     320:	028f1276 	addeq	r1, pc, #1610612743	; 0x60000007
     324:	16010000 	strne	r0, [r1], -r0
     328:	0001b001 	andeq	fp, r1, r1
     32c:	5c910200 	lfmpl	f0, 4, [r1], {0}
     330:	028b1300 	addeq	r1, fp, #0, 6
     334:	b1010000 	mrslt	r0, (UNDEF: 1)
     338:	0000003a 	andeq	r0, r0, sl, lsr r0
     33c:	80100364 	andshi	r0, r0, r4, ror #6
     340:	000001c0 	andeq	r0, r0, r0, asr #3
     344:	030c9c01 	movweq	r9, #52225	; 0xcc01
     348:	41140000 	tstmi	r4, r0
     34c:	01000001 	tsteq	r0, r1
     350:	000230b1 	strheq	r3, [r2], -r1
     354:	6c910200 	lfmvs	f0, 4, [r1], {0}
     358:	00028f14 	andeq	r8, r2, r4, lsl pc
     35c:	0cb10100 	ldfeqs	f0, [r1]
     360:	02000003 	andeq	r0, r0, #3
     364:	5c156891 	ldcpl	8, cr6, [r5], {145}	; 0x91
     368:	01000001 	tsteq	r0, r1
     36c:	00006db3 			; <UNDEFINED> instruction: 0x00006db3
     370:	70910200 	addsvc	r0, r1, r0, lsl #4
     374:	00003e15 	andeq	r3, r0, r5, lsl lr
     378:	6db40100 	ldfvss	f0, [r4]
     37c:	02000000 	andeq	r0, r0, #0
     380:	0d007491 	cfstrseq	mvf7, [r0, #-580]	; 0xfffffdbc
     384:	0001b004 	andeq	fp, r1, r4
     388:	02791600 	rsbseq	r1, r9, #0, 12
     38c:	8c010000 	stchi	0, cr0, [r1], {-0}
     390:	80100294 	mulshi	r0, r4, r2
     394:	000000d0 	ldrdeq	r0, [r0], -r0	; <UNPREDICTABLE>
     398:	03609c01 	cmneq	r0, #256	; 0x100
     39c:	41140000 	tstmi	r4, r0
     3a0:	01000001 	tsteq	r0, r1
     3a4:	0002308c 	andeq	r3, r2, ip, lsl #1
     3a8:	6c910200 	lfmvs	f0, 4, [r1], {0}
     3ac:	0000b814 	andeq	fp, r0, r4, lsl r8
     3b0:	a58c0100 	strge	r0, [ip, #256]	; 0x100
     3b4:	02000001 	andeq	r0, r0, #1
     3b8:	6c176891 	ldcvs	8, cr6, [r7], {145}	; 0x91
     3bc:	01006e65 	tsteq	r0, r5, ror #28
     3c0:	00006d8c 	andeq	r6, r0, ip, lsl #27
     3c4:	64910200 	ldrvs	r0, [r1], #512	; 0x200
     3c8:	00027315 	andeq	r7, r2, r5, lsl r3
     3cc:	458e0100 	strmi	r0, [lr, #256]	; 0x100
     3d0:	02000000 	andeq	r0, r0, #0
     3d4:	16007791 			; <UNDEFINED> instruction: 0x16007791
     3d8:	00000111 	andeq	r0, r0, r1, lsl r1
     3dc:	01e87401 	mvneq	r7, r1, lsl #8
     3e0:	00ac8010 	adceq	r8, ip, r0, lsl r0
     3e4:	9c010000 	stcls	0, cr0, [r1], {-0}
     3e8:	000003a0 	andeq	r0, r0, r0, lsr #7
     3ec:	00014114 	andeq	r4, r1, r4, lsl r1
     3f0:	30740100 	rsbscc	r0, r4, r0, lsl #2
     3f4:	02000002 	andeq	r0, r0, #2
     3f8:	b8147491 	ldmdalt	r4, {r0, r4, r7, sl, ip, sp, lr}
     3fc:	01000000 	mrseq	r0, (UNDEF: 0)
     400:	0003a074 	andeq	sl, r3, r4, ror r0
     404:	70910200 	addsvc	r0, r1, r0, lsl #4
     408:	6e656c17 	mcrvs	12, 3, r6, cr5, cr7, {0}
     40c:	6d740100 	ldfvse	f0, [r4, #-0]
     410:	02000000 	andeq	r0, r0, #0
     414:	0d006c91 	stceq	12, cr6, [r0, #-580]	; 0xfffffdbc
     418:	00004a04 	andeq	r4, r0, r4, lsl #20
     41c:	02101800 	andseq	r1, r0, #0, 16
     420:	5a010000 	bpl	40428 <shift+0x40428>
     424:	0000003a 	andeq	r0, r0, sl, lsr r0
     428:	80100180 	andshi	r0, r0, r0, lsl #3
     42c:	00000068 	andeq	r0, r0, r8, rrx
     430:	03ea9c01 	mvneq	r9, #256	; 0x100
     434:	41140000 	tstmi	r4, r0
     438:	01000001 	tsteq	r0, r1
     43c:	0002305a 	andeq	r3, r2, sl, asr r0
     440:	74910200 	ldrvc	r0, [r1], #512	; 0x200
     444:	00026714 	andeq	r6, r2, r4, lsl r7
     448:	3a5a0100 	bcc	1680850 <shift+0x1680850>
     44c:	02000000 	andeq	r0, r0, #0
     450:	3e147391 	mrccc	3, 0, r7, cr4, cr1, {4}
     454:	01000000 	mrseq	r0, (UNDEF: 0)
     458:	00006d5a 	andeq	r6, r0, sl, asr sp
     45c:	6c910200 	lfmvs	f0, 4, [r1], {0}
     460:	02981800 	addseq	r1, r8, #0, 16
     464:	44010000 	strmi	r0, [r1], #-0
     468:	0000003a 	andeq	r0, r0, sl, lsr r0
     46c:	80100134 	andshi	r0, r0, r4, lsr r1
     470:	0000004c 	andeq	r0, r0, ip, asr #32
     474:	04209c01 	strteq	r9, [r0], #-3073	; 0xfffff3ff
     478:	41140000 	tstmi	r4, r0
     47c:	01000001 	tsteq	r0, r1
     480:	00023044 	andeq	r3, r2, r4, asr #32
     484:	6c910200 	lfmvs	f0, 4, [r1], {0}
     488:	00004715 	andeq	r4, r0, r5, lsl r7
     48c:	56470100 	strbpl	r0, [r7], -r0, lsl #2
     490:	02000000 	andeq	r0, r0, #0
     494:	18007691 	stmdane	r0, {r0, r4, r7, r9, sl, ip, sp, lr}
     498:	00000034 	andeq	r0, r0, r4, lsr r0
     49c:	003a2e01 	eorseq	r2, sl, r1, lsl #28
     4a0:	00da0000 	sbcseq	r0, sl, r0
     4a4:	005a8010 	subseq	r8, sl, r0, lsl r0
     4a8:	9c010000 	stcls	0, cr0, [r1], {-0}
     4ac:	00000464 	andeq	r0, r0, r4, ror #8
     4b0:	00014114 	andeq	r4, r1, r4, lsl r1
     4b4:	302e0100 	eorcc	r0, lr, r0, lsl #2
     4b8:	02000002 	andeq	r0, r0, #2
     4bc:	67147491 			; <UNDEFINED> instruction: 0x67147491
     4c0:	01000002 	tsteq	r0, r2
     4c4:	00003a2e 	andeq	r3, r0, lr, lsr #20
     4c8:	73910200 	orrsvc	r0, r1, #0, 4
     4cc:	00003e14 	andeq	r3, r0, r4, lsl lr
     4d0:	6d2e0100 	stfvss	f0, [lr, #-0]
     4d4:	02000000 	andeq	r0, r0, #0
     4d8:	18006c91 	stmdane	r0, {r0, r4, r7, sl, fp, sp, lr}
     4dc:	00000245 	andeq	r0, r0, r5, asr #4
     4e0:	003a1b01 	eorseq	r1, sl, r1, lsl #22
     4e4:	00760000 	rsbseq	r0, r6, r0
     4e8:	00648010 	rsbeq	r8, r4, r0, lsl r0
     4ec:	9c010000 	stcls	0, cr0, [r1], {-0}
     4f0:	0000049a 	muleq	r0, sl, r4
     4f4:	00014114 	andeq	r4, r1, r4, lsl r1
     4f8:	301b0100 	andscc	r0, fp, r0, lsl #2
     4fc:	02000002 	andeq	r0, r0, #2
     500:	e2147491 	ands	r7, r4, #-1862270976	; 0x91000000
     504:	01000004 	tsteq	r0, r4
     508:	00006d1b 	andeq	r6, r0, fp, lsl sp
     50c:	70910200 	addsvc	r0, r1, r0, lsl #4
     510:	000f1900 	andeq	r1, pc, r0, lsl #18
     514:	03010000 	movweq	r0, #4096	; 0x1000
     518:	8010003c 	andshi	r0, r0, ip, lsr r0
     51c:	0000003a 	andeq	r0, r0, sl, lsr r0
     520:	41149c01 	tstmi	r4, r1, lsl #24
     524:	01000001 	tsteq	r0, r1
     528:	00023003 	andeq	r3, r2, r3
     52c:	74910200 	ldrvc	r0, [r1], #512	; 0x200
     530:	02170000 	andseq	r0, r7, #0
     534:	00040000 	andeq	r0, r4, r0
     538:	0000019b 	muleq	r0, fp, r1
     53c:	019b0104 	orrseq	r0, fp, r4, lsl #2
     540:	360c0000 	strcc	r0, [ip], -r0
     544:	bd000003 	stclt	0, cr0, [r0, #-12]
     548:	d0000000 	andle	r0, r0, r0
     54c:	76801005 	strvc	r1, [r0], r5
     550:	a3000001 	movwge	r0, #1
     554:	02000001 	andeq	r0, r0, #1
     558:	120b02bc 	andne	r0, fp, #188, 4	; 0xc000000b
     55c:	03000001 	movweq	r0, #1
     560:	0000031d 	andeq	r0, r0, sp, lsl r3
     564:	01190c02 	tsteq	r9, r2, lsl #24
     568:	03000000 	movweq	r0, #0
     56c:	00000312 	andeq	r0, r0, r2, lsl r3
     570:	011e0d02 	tsteq	lr, r2, lsl #26
     574:	03040000 	movweq	r0, #16384	; 0x4000
     578:	00000327 	andeq	r0, r0, r7, lsr #6
     57c:	01190e02 	tsteq	r9, r2, lsl #28
     580:	03400000 	movteq	r0, #0
     584:	0000039f 	muleq	r0, pc, r3	; <UNPREDICTABLE>
     588:	011e0f02 	tsteq	lr, r2, lsl #30
     58c:	03440000 	movteq	r0, #16384	; 0x4000
     590:	0000033d 	andeq	r0, r0, sp, lsr r3
     594:	01191002 	tsteq	r9, r2
     598:	03800000 	orreq	r0, r0, #0
     59c:	00000342 	andeq	r0, r0, r2, asr #6
     5a0:	01191102 	tsteq	r9, r2, lsl #2
     5a4:	03840000 	orreq	r0, r4, #0
     5a8:	00000347 	andeq	r0, r0, r7, asr #6
     5ac:	01191202 	tsteq	r9, r2, lsl #4
     5b0:	03880000 	orreq	r0, r8, #0
     5b4:	0000034c 	andeq	r0, r0, ip, asr #6
     5b8:	01191302 	tsteq	r9, r2, lsl #6
     5bc:	038c0000 	orreq	r0, ip, #0
     5c0:	00000322 	andeq	r0, r0, r2, lsr #6
     5c4:	01191402 	tsteq	r9, r2, lsl #8
     5c8:	03900000 	orrseq	r0, r0, #0
     5cc:	000003b4 			; <UNDEFINED> instruction: 0x000003b4
     5d0:	01191502 	tsteq	r9, r2, lsl #10
     5d4:	03940000 	orrseq	r0, r4, #0
     5d8:	000002cb 	andeq	r0, r0, fp, asr #5
     5dc:	01191602 	tsteq	r9, r2, lsl #12
     5e0:	03980000 	orrseq	r0, r8, #0
     5e4:	000002d0 	ldrdeq	r0, [r0], -r0	; <UNPREDICTABLE>
     5e8:	01191702 	tsteq	r9, r2, lsl #14
     5ec:	039c0000 	orrseq	r0, ip, #0
     5f0:	000002dc 	ldrdeq	r0, [r0], -ip
     5f4:	01191802 	tsteq	r9, r2, lsl #16
     5f8:	03a00000 	moveq	r0, #0
     5fc:	00000351 	andeq	r0, r0, r1, asr r3
     600:	01191902 	tsteq	r9, r2, lsl #18
     604:	03a40000 			; <UNDEFINED> instruction: 0x03a40000
     608:	0000032c 	andeq	r0, r0, ip, lsr #6
     60c:	01191a02 	tsteq	r9, r2, lsl #20
     610:	03a80000 			; <UNDEFINED> instruction: 0x03a80000
     614:	0000030d 	andeq	r0, r0, sp, lsl #6
     618:	01191b02 	tsteq	r9, r2, lsl #22
     61c:	03ac0000 			; <UNDEFINED> instruction: 0x03ac0000
     620:	00000356 	andeq	r0, r0, r6, asr r3
     624:	01191c02 	tsteq	r9, r2, lsl #24
     628:	04b00000 	ldrteq	r0, [r0], #0
     62c:	00535455 	subseq	r5, r3, r5, asr r4
     630:	01191d02 	tsteq	r9, r2, lsl #26
     634:	03b40000 			; <UNDEFINED> instruction: 0x03b40000
     638:	00000331 	andeq	r0, r0, r1, lsr r3
     63c:	01191e02 	tsteq	r9, r2, lsl #28
     640:	00b80000 	adcseq	r0, r8, r0
     644:	86070405 	strhi	r0, [r7], -r5, lsl #8
     648:	06000001 	streq	r0, [r0], -r1
     64c:	00000112 	andeq	r0, r0, r2, lsl r1
     650:	00013507 	andeq	r3, r1, r7, lsl #10
     654:	00012e00 	andeq	r2, r1, r0, lsl #28
     658:	012e0800 			; <UNDEFINED> instruction: 0x012e0800
     65c:	003b0000 	eorseq	r0, fp, r0
     660:	26070405 	strcs	r0, [r7], -r5, lsl #8
     664:	05000002 	streq	r0, [r0, #-2]
     668:	00760801 	rsbseq	r0, r6, r1, lsl #16
     66c:	aa090000 	bge	240674 <shift+0x240674>
     670:	02000003 	andeq	r0, r0, #3
     674:	0000251f 	andeq	r2, r0, pc, lsl r5
     678:	02e90a00 	rsceq	r0, r9, #0, 20
     67c:	04010000 	streq	r0, [r1], #-0
     680:	00000158 	andeq	r0, r0, r8, asr r1
     684:	15900305 	ldrne	r0, [r0, #773]	; 0x305
     688:	040b8010 	streq	r8, [fp], #-16
     68c:	00000119 	andeq	r0, r0, r9, lsl r1
     690:	0003740a 	andeq	r7, r3, sl, lsl #8
     694:	58050100 	stmdapl	r5, {r8}
     698:	05000001 	streq	r0, [r0, #-1]
     69c:	10159403 	andsne	r9, r5, r3, lsl #8
     6a0:	03640c80 	cmneq	r4, #128, 24	; 0x8000
     6a4:	77010000 	strvc	r0, [r1, -r0]
     6a8:	00000197 	muleq	r0, r7, r1
     6ac:	80100730 	andshi	r0, r0, r0, lsr r7
     6b0:	00000016 	andeq	r0, r0, r6, lsl r0
     6b4:	01979c01 	orrseq	r9, r7, r1, lsl #24
     6b8:	d50d0000 	strle	r0, [sp, #-0]
     6bc:	01000002 	tsteq	r0, r2
     6c0:	00019777 	andeq	r9, r1, r7, ror r7
     6c4:	74910200 	ldrvc	r0, [r1], #512	; 0x200
     6c8:	05040e00 	streq	r0, [r4, #-3584]	; 0xfffff200
     6cc:	00746e69 	rsbseq	r6, r4, r9, ror #28
     6d0:	0003980f 	andeq	r9, r3, pc, lsl #16
     6d4:	066f0100 	strbteq	r0, [pc], -r0, lsl #2
     6d8:	2a801007 	bcs	fe0046fc <__bss_end+0x7df03164>
     6dc:	01000000 	mrseq	r0, (UNDEF: 0)
     6e0:	0001c09c 	muleq	r1, ip, r0
     6e4:	00731000 	rsbseq	r1, r3, r0
     6e8:	01c06f01 	biceq	r6, r0, r1, lsl #30
     6ec:	91020000 	mrsls	r0, (UNDEF: 2)
     6f0:	040b0074 	streq	r0, [fp], #-116	; 0xffffff8c
     6f4:	000001cd 	andeq	r0, r0, sp, asr #3
     6f8:	7f080105 	svcvc	0x00080105
     6fc:	11000000 	mrsne	r0, (UNDEF: 0)
     700:	000001c6 	andeq	r0, r0, r6, asr #3
     704:	0002e112 	andeq	lr, r2, r2, lsl r1
     708:	355f0100 	ldrbcc	r0, [pc, #-256]	; 610 <shift+0x610>
     70c:	da000001 	ble	718 <shift+0x718>
     710:	2c801006 	stccs	0, cr1, [r0], {6}
     714:	01000000 	mrseq	r0, (UNDEF: 0)
     718:	035c139c 	cmpeq	ip, #156, 6	; 0x70000002
     71c:	4f010000 	svcmi	0x00010000
     720:	801006a6 	andshi	r0, r0, r6, lsr #13
     724:	00000034 	andeq	r0, r0, r4, lsr r0
     728:	02099c01 	andeq	r9, r9, #256	; 0x100
     72c:	63100000 	tstvs	r0, #0
     730:	974f0100 	strbls	r0, [pc, -r0, lsl #2]
     734:	02000001 	andeq	r0, r0, #1
     738:	14007491 	strne	r7, [r0], #-1169	; 0xfffffb6f
     73c:	0000036a 	andeq	r0, r0, sl, ror #6
     740:	05d01101 	ldrbeq	r1, [r0, #257]	; 0x101
     744:	00d68010 	sbcseq	r8, r6, r0, lsl r0
     748:	9c010000 	stcls	0, cr0, [r1], {-0}
     74c:	0003e900 	andeq	lr, r3, r0, lsl #18
     750:	d5000400 	strle	r0, [r0, #-1024]	; 0xfffffc00
     754:	04000002 	streq	r0, [r0], #-2
     758:	00019b01 	andeq	r9, r1, r1, lsl #22
     75c:	04e90c00 	strbteq	r0, [r9], #3072	; 0xc00
     760:	00bd0000 	adcseq	r0, sp, r0
     764:	07460000 	strbeq	r0, [r6, -r0]
     768:	02da8010 	sbcseq	r8, sl, #16
     76c:	02180000 	andseq	r0, r8, #0
     770:	01020000 	mrseq	r0, (UNDEF: 2)
     774:	00007806 	andeq	r7, r0, r6, lsl #16
     778:	05020200 	streq	r0, [r2, #-512]	; 0xfffffe00
     77c:	0000024f 	andeq	r0, r0, pc, asr #4
     780:	69050403 	stmdbvs	r5, {r0, r1, sl}
     784:	0400746e 	streq	r7, [r0], #-1134	; 0xfffffb92
     788:	00000193 	muleq	r0, r3, r1
     78c:	00450701 	subeq	r0, r5, r1, lsl #14
     790:	01020000 	mrseq	r0, (UNDEF: 2)
     794:	00007608 	andeq	r7, r0, r8, lsl #12
     798:	025e0400 	subseq	r0, lr, #0, 8
     79c:	08010000 	stmdaeq	r1, {}	; <UNPREDICTABLE>
     7a0:	0000005c 	andeq	r0, r0, ip, asr r0
     7a4:	00004c05 	andeq	r4, r0, r5, lsl #24
     7a8:	07020200 	streq	r0, [r2, -r0, lsl #4]
     7ac:	000000a5 	andeq	r0, r0, r5, lsr #1
     7b0:	00028204 	andeq	r8, r2, r4, lsl #4
     7b4:	6e090100 	adfvse	f0, f1, f0
     7b8:	02000000 	andeq	r0, r0, #0
     7bc:	01860704 	orreq	r0, r6, r4, lsl #14
     7c0:	6e050000 	cdpvs	0, 0, cr0, cr5, cr0, {0}
     7c4:	02000000 	andeq	r0, r0, #0
     7c8:	017c0708 	cmneq	ip, r8, lsl #14
     7cc:	08020000 	stmdaeq	r2, {}	; <UNPREDICTABLE>
     7d0:	00022f05 	andeq	r2, r2, r5, lsl #30
     7d4:	03d00600 	bicseq	r0, r0, #0, 12
     7d8:	6e040000 	cdpvs	0, 0, cr0, cr4, cr0, {0}
     7dc:	04000000 	streq	r0, [r0], #-0
     7e0:	0000e109 	andeq	lr, r0, r9, lsl #2
     7e4:	05040700 	streq	r0, [r4, #-1792]	; 0xfffff900
     7e8:	07000000 	streq	r0, [r0, -r0]
     7ec:	0000048e 	andeq	r0, r0, lr, lsl #9
     7f0:	04420701 	strbeq	r0, [r2], #-1793	; 0xfffff8ff
     7f4:	07020000 	streq	r0, [r2, -r0]
     7f8:	000003fa 	strdeq	r0, [r0], -sl
     7fc:	04530703 	ldrbeq	r0, [r3], #-1795	; 0xfffff8fd
     800:	07040000 	streq	r0, [r4, -r0]
     804:	000005b2 			; <UNDEFINED> instruction: 0x000005b2
     808:	05d0070a 	ldrbeq	r0, [r0, #1802]	; 0x70a
     80c:	070b0000 	streq	r0, [fp, -r0]
     810:	0000056a 	andeq	r0, r0, sl, ror #10
     814:	042e070c 	strteq	r0, [lr], #-1804	; 0xfffff8f4
     818:	070d0000 	streq	r0, [sp, -r0]
     81c:	0000040c 	andeq	r0, r0, ip, lsl #8
     820:	0472070e 	ldrbteq	r0, [r2], #-1806	; 0xfffff8f2
     824:	070f0000 	streq	r0, [pc, -r0]
     828:	000003b9 			; <UNDEFINED> instruction: 0x000003b9
     82c:	27080010 	smladcs	r8, r0, r0, r0
     830:	12000000 	andne	r0, r0, #0
     834:	015a2603 	cmpeq	sl, r3, lsl #12
     838:	6c090000 	stcvs	0, cr0, [r9], {-0}
     83c:	03000000 	movweq	r0, #0
     840:	00005727 	andeq	r5, r0, r7, lsr #14
     844:	64090000 	strvs	r0, [r9], #-0
     848:	03000000 	movweq	r0, #0
     84c:	00015a28 	andeq	r5, r1, r8, lsr #20
     850:	c6090200 	strgt	r0, [r9], -r0, lsl #4
     854:	03000002 	movweq	r0, #2
     858:	00005729 	andeq	r5, r0, r9, lsr #14
     85c:	be090400 	cfcpyslt	mvf0, mvf9
     860:	03000002 	movweq	r0, #2
     864:	00015a2a 	andeq	r5, r1, sl, lsr #20
     868:	3c090600 	stccc	6, cr0, [r9], {-0}
     86c:	03000001 	movweq	r0, #1
     870:	0000572b 	andeq	r5, r0, fp, lsr #14
     874:	34090800 	strcc	r0, [r9], #-2048	; 0xfffff800
     878:	03000001 	movweq	r0, #1
     87c:	00015a2c 	andeq	r5, r1, ip, lsr #20
     880:	b9090a00 	stmdblt	r9, {r9, fp}
     884:	03000002 	movweq	r0, #2
     888:	0000572d 	andeq	r5, r0, sp, lsr #14
     88c:	b1090c00 	tstlt	r9, r0, lsl #24
     890:	03000002 	movweq	r0, #2
     894:	00015a2e 	andeq	r5, r1, lr, lsr #20
     898:	59090e00 	stmdbpl	r9, {r9, sl, fp}
     89c:	03000002 	movweq	r0, #2
     8a0:	0000572f 	andeq	r5, r0, pc, lsr #14
     8a4:	0a001000 	beq	48ac <shift+0x48ac>
     8a8:	0000003a 	andeq	r0, r0, sl, lsr r0
     8ac:	0000016a 	andeq	r0, r0, sl, ror #2
     8b0:	00016a0b 	andeq	r6, r1, fp, lsl #20
     8b4:	02000100 	andeq	r0, r0, #0, 2
     8b8:	02260704 	eoreq	r0, r6, #4, 14	; 0x100000
     8bc:	97040000 	strls	r0, [r4, -r0]
     8c0:	03000000 	movweq	r0, #0
     8c4:	0000e130 	andeq	lr, r0, r0, lsr r1
     8c8:	05870c00 	streq	r0, [r7, #3072]	; 0xc00
     8cc:	6a020000 	bvs	808d4 <shift+0x808d4>
     8d0:	801009fa 			; <UNDEFINED> instruction: 0x801009fa
     8d4:	00000026 	andeq	r0, r0, r6, lsr #32
     8d8:	01ba9c01 			; <UNDEFINED> instruction: 0x01ba9c01
     8dc:	690d0000 	stmdbvs	sp, {}	; <UNPREDICTABLE>
     8e0:	6a020072 	bvs	80ab0 <shift+0x80ab0>
     8e4:	000001ba 			; <UNDEFINED> instruction: 0x000001ba
     8e8:	0d749102 	ldfeqp	f1, [r4, #-8]!
     8ec:	02007370 	andeq	r7, r0, #112, 6	; 0xc0000001
     8f0:	0001ba6a 	andeq	fp, r1, sl, ror #20
     8f4:	70910200 	addsvc	r0, r1, r0, lsl #4
     8f8:	736c610d 	cmnvc	ip, #1073741827	; 0x40000003
     8fc:	ba6a0200 	blt	1a81104 <shift+0x1a81104>
     900:	02000001 	andeq	r0, r0, #1
     904:	0e006c91 	mcreq	12, 0, r6, cr0, cr1, {4}
     908:	00004c04 	andeq	r4, r0, r4, lsl #24
     90c:	041e0c00 	ldreq	r0, [lr], #-3072	; 0xfffff400
     910:	54020000 	strpl	r0, [r2], #-0
     914:	80100994 	mulshi	r0, r4, r9
     918:	00000066 	andeq	r0, r0, r6, rrx
     91c:	02089c01 	andeq	r9, r8, #256	; 0x100
     920:	700d0000 	andvc	r0, sp, r0
     924:	54020073 	strpl	r0, [r2], #-115	; 0xffffff8d
     928:	000001ba 			; <UNDEFINED> instruction: 0x000001ba
     92c:	0f6c9102 	svceq	0x006c9102
     930:	00000519 	andeq	r0, r0, r9, lsl r5
     934:	003a5602 	eorseq	r5, sl, r2, lsl #12
     938:	91020000 	mrsls	r0, (UNDEF: 2)
     93c:	04850f77 	streq	r0, [r5], #3959	; 0xf77
     940:	57020000 	strpl	r0, [r2, -r0]
     944:	0000003a 	andeq	r0, r0, sl, lsr r0
     948:	10769102 	rsbsne	r9, r6, r2, lsl #2
     94c:	58020069 	stmdapl	r2, {r0, r3, r5, r6}
     950:	0000003a 	andeq	r0, r0, sl, lsr r0
     954:	054a0c00 	strbeq	r0, [sl, #-3072]	; 0xfffff400
     958:	47020000 	strmi	r0, [r2, -r0]
     95c:	8010094c 	andshi	r0, r0, ip, asr #18
     960:	00000048 	andeq	r0, r0, r8, asr #32
     964:	02519c01 	subseq	r9, r1, #256	; 0x100
     968:	610d0000 	mrsvs	r0, (UNDEF: 13)
     96c:	0200736c 	andeq	r7, r0, #108, 6	; 0xb0000001
     970:	0001ba47 	andeq	fp, r1, r7, asr #20
     974:	6c910200 	lfmvs	f0, 4, [r1], {0}
     978:	0004a00f 	andeq	sl, r4, pc
     97c:	3a490200 	bcc	1241184 <shift+0x1241184>
     980:	02000000 	andeq	r0, r0, #0
     984:	7d0f7791 	stcvc	7, cr7, [pc, #-580]	; 748 <shift+0x748>
     988:	02000005 	andeq	r0, r0, #5
     98c:	00003a4a 	andeq	r3, r0, sl, asr #20
     990:	76910200 	ldrvc	r0, [r1], r0, lsl #4
     994:	02006910 	andeq	r6, r0, #16, 18	; 0x40000
     998:	00003a4b 	andeq	r3, r0, fp, asr #20
     99c:	b10c0000 	mrslt	r0, (UNDEF: 12)
     9a0:	02000004 	andeq	r0, r0, #4
     9a4:	1008ee32 	andne	lr, r8, r2, lsr lr
     9a8:	00005e80 	andeq	r5, r0, r0, lsl #29
     9ac:	999c0100 	ldmibls	ip, {r8}
     9b0:	0d000002 	stceq	0, cr0, [r0, #-8]
     9b4:	02007269 	andeq	r7, r0, #-1879048186	; 0x90000006
     9b8:	0001ba32 	andeq	fp, r1, r2, lsr sl
     9bc:	6c910200 	lfmvs	f0, 4, [r1], {0}
     9c0:	0005350f 	andeq	r3, r5, pc, lsl #10
     9c4:	3a340200 	bcc	d011cc <shift+0xd011cc>
     9c8:	02000000 	andeq	r0, r0, #0
     9cc:	990f7791 	stmdbls	pc, {r0, r4, r7, r8, r9, sl, ip, sp, lr}	; <UNPREDICTABLE>
     9d0:	02000005 	andeq	r0, r0, #5
     9d4:	00003a35 	andeq	r3, r0, r5, lsr sl
     9d8:	76910200 	ldrvc	r0, [r1], r0, lsl #4
     9dc:	02006910 	andeq	r6, r0, #16, 18	; 0x40000
     9e0:	00003a36 	andeq	r3, r0, r6, lsr sl
     9e4:	c1110000 	tstgt	r1, r0
     9e8:	02000004 	andeq	r0, r0, #4
     9ec:	00003a1f 	andeq	r3, r0, pc, lsl sl
     9f0:	1008a000 	andne	sl, r8, r0
     9f4:	00004e80 	andeq	r4, r0, r0, lsl #29
     9f8:	c19c0100 	orrsgt	r0, ip, r0, lsl #2
     9fc:	12000002 	andne	r0, r0, #2
     a00:	00746572 	rsbseq	r6, r4, r2, ror r5
     a04:	00332202 	eorseq	r2, r3, r2, lsl #4
     a08:	91020000 	mrsls	r0, (UNDEF: 2)
     a0c:	ce130074 	mrcgt	0, 0, r0, cr3, cr4, {3}
     a10:	02000004 	andeq	r0, r0, #4
     a14:	00003a10 	andeq	r3, r0, r0, lsl sl
     a18:	10086a00 	andne	r6, r8, r0, lsl #20
     a1c:	00003680 	andeq	r3, r0, r0, lsl #13
     a20:	e99c0100 	ldmib	ip, {r8}
     a24:	0f000002 	svceq	0x00000002
     a28:	00000594 	muleq	r0, r4, r5
     a2c:	00451202 	subeq	r1, r5, r2, lsl #4
     a30:	91020000 	mrsls	r0, (UNDEF: 2)
     a34:	a2140077 	andsge	r0, r4, #119	; 0x77
     a38:	02000005 	andeq	r0, r0, #5
     a3c:	1007ca08 	andne	ip, r7, r8, lsl #20
     a40:	0000a080 	andeq	sl, r0, r0, lsl #1
     a44:	159c0100 	ldrne	r0, [ip, #256]	; 0x100
     a48:	00000460 	andeq	r0, r0, r0, ror #8
     a4c:	07aa0402 	streq	r0, [sl, r2, lsl #8]!
     a50:	00208010 	eoreq	r8, r0, r0, lsl r0
     a54:	9c010000 	stcls	0, cr0, [r1], {-0}
     a58:	0000031c 	andeq	r0, r0, ip, lsl r3
     a5c:	0200640d 	andeq	r6, r0, #218103808	; 0xd000000
     a60:	00007504 	andeq	r7, r0, r4, lsl #10
     a64:	74910200 	ldrvc	r0, [r1], #512	; 0x200
     a68:	05211500 	streq	r1, [r1, #-1280]!	; 0xfffffb00
     a6c:	32010000 	andcc	r0, r1, #0
     a70:	80100784 	andshi	r0, r0, r4, lsl #15
     a74:	00000026 	andeq	r0, r0, r6, lsr #32
     a78:	03869c01 	orreq	r9, r6, #256	; 0x100
     a7c:	66160000 	ldrvs	r0, [r6], -r0
     a80:	01000004 	tsteq	r0, r4
     a84:	00006332 	andeq	r6, r0, r2, lsr r3
     a88:	74910200 	ldrvc	r0, [r1], #512	; 0x200
     a8c:	0004a916 	andeq	sl, r4, r6, lsl r9
     a90:	63330100 	teqvs	r3, #0, 2
     a94:	02000000 	andeq	r0, r0, #0
     a98:	e1167091 			; <UNDEFINED> instruction: 0xe1167091
     a9c:	01000003 	tsteq	r0, r3
     aa0:	00006334 	andeq	r6, r0, r4, lsr r3
     aa4:	6c910200 	lfmvs	f0, 4, [r1], {0}
     aa8:	0003ef16 	andeq	lr, r3, r6, lsl pc
     aac:	63350100 	teqvs	r5, #0, 2
     ab0:	02000000 	andeq	r0, r0, #0
     ab4:	5b166891 	blpl	59ad00 <shift+0x59ad00>
     ab8:	01000005 	tsteq	r0, r5
     abc:	00006336 	andeq	r6, r0, r6, lsr r3
     ac0:	00910200 	addseq	r0, r1, r0, lsl #4
     ac4:	0005c416 	andeq	ip, r5, r6, lsl r4
     ac8:	63370100 	teqvs	r7, #0, 2
     acc:	02000000 	andeq	r0, r0, #0
     ad0:	17000491 			; <UNDEFINED> instruction: 0x17000491
     ad4:	000004f3 	strdeq	r0, [r0], -r3
     ad8:	07462301 	strbeq	r2, [r6, -r1, lsl #6]
     adc:	003e8010 	eorseq	r8, lr, r0, lsl r0
     ae0:	9c010000 	stcls	0, cr0, [r1], {-0}
     ae4:	00046616 	andeq	r6, r4, r6, lsl r6
     ae8:	63230100 			; <UNDEFINED> instruction: 0x63230100
     aec:	02000000 	andeq	r0, r0, #0
     af0:	a9167491 	ldmdbge	r6, {r0, r4, r7, sl, ip, sp, lr}
     af4:	01000004 	tsteq	r0, r4
     af8:	00006324 	andeq	r6, r0, r4, lsr #6
     afc:	70910200 	addsvc	r0, r1, r0, lsl #4
     b00:	0003e116 	andeq	lr, r3, r6, lsl r1
     b04:	63250100 			; <UNDEFINED> instruction: 0x63250100
     b08:	02000000 	andeq	r0, r0, #0
     b0c:	ef166c91 	svc	0x00166c91
     b10:	01000003 	tsteq	r0, r3
     b14:	00006326 	andeq	r6, r0, r6, lsr #6
     b18:	68910200 	ldmvs	r1, {r9}
     b1c:	00055b16 	andeq	r5, r5, r6, lsl fp
     b20:	63270100 			; <UNDEFINED> instruction: 0x63270100
     b24:	02000000 	andeq	r0, r0, #0
     b28:	3d160091 	ldccc	0, cr0, [r6, #-580]	; 0xfffffdbc
     b2c:	01000005 	tsteq	r0, r5
     b30:	00006328 	andeq	r6, r0, r8, lsr #6
     b34:	04910200 	ldreq	r0, [r1], #512	; 0x200
     b38:	00df0000 	sbcseq	r0, pc, r0
     b3c:	00040000 	andeq	r0, r4, r0
     b40:	0000043f 	andeq	r0, r0, pc, lsr r4
     b44:	019b0104 	orrseq	r0, fp, r4, lsl #2
     b48:	e80c0000 	stmda	ip, {}	; <UNPREDICTABLE>
     b4c:	bd000005 	stclt	0, cr0, [r0, #-20]	; 0xffffffec
     b50:	20000000 	andcs	r0, r0, r0
     b54:	8a80100a 	bhi	fe004b84 <__bss_end+0x7df035ec>
     b58:	c8000000 	stmdagt	r0, {}	; <UNPREDICTABLE>
     b5c:	02000002 	andeq	r0, r0, #2
     b60:	00780601 	rsbseq	r0, r8, r1, lsl #12
     b64:	02020000 	andeq	r0, r2, #0
     b68:	00024f05 	andeq	r4, r2, r5, lsl #30
     b6c:	05040300 	streq	r0, [r4, #-768]	; 0xfffffd00
     b70:	00746e69 	rsbseq	r6, r4, r9, ror #28
     b74:	76080102 	strvc	r0, [r8], -r2, lsl #2
     b78:	04000000 	streq	r0, [r0], #-0
     b7c:	0000025e 	andeq	r0, r0, lr, asr r2
     b80:	004c0802 	subeq	r0, ip, r2, lsl #16
     b84:	02020000 	andeq	r0, r2, #0
     b88:	0000a507 	andeq	sl, r0, r7, lsl #10
     b8c:	07040200 	streq	r0, [r4, -r0, lsl #4]
     b90:	00000186 	andeq	r0, r0, r6, lsl #3
     b94:	00005305 	andeq	r5, r0, r5, lsl #6
     b98:	07080200 	streq	r0, [r8, -r0, lsl #4]
     b9c:	0000017c 	andeq	r0, r0, ip, ror r1
     ba0:	2f050802 	svccs	0x00050802
     ba4:	02000002 	andeq	r0, r0, #2
     ba8:	02260704 	eoreq	r0, r6, #4, 14	; 0x100000
     bac:	e3060000 	movw	r0, #24576	; 0x6000
     bb0:	01000005 	tsteq	r0, r5
     bb4:	00003311 	andeq	r3, r0, r1, lsl r3
     bb8:	100a4000 	andne	r4, sl, r0
     bbc:	00006a80 	andeq	r6, r0, r0, lsl #21
     bc0:	c49c0100 	ldrgt	r0, [ip], #256	; 0x100
     bc4:	07000000 	streq	r0, [r0, -r0]
     bc8:	00746572 	rsbseq	r6, r4, r2, ror r5
     bcc:	00331301 	eorseq	r1, r3, r1, lsl #6
     bd0:	91020000 	mrsls	r0, (UNDEF: 2)
     bd4:	72690774 	rsbvc	r0, r9, #116, 14	; 0x1d00000
     bd8:	41140100 	tstmi	r4, r0, lsl #2
     bdc:	02000000 	andeq	r0, r0, #0
     be0:	70077291 	mulvc	r7, r1, r2
     be4:	15010073 	strne	r0, [r1, #-115]	; 0xffffff8d
     be8:	00000041 	andeq	r0, r0, r1, asr #32
     bec:	07709102 	ldrbeq	r9, [r0, -r2, lsl #2]!
     bf0:	00736c61 	rsbseq	r6, r3, r1, ror #24
     bf4:	00411601 	subeq	r1, r1, r1, lsl #12
     bf8:	91020000 	mrsls	r0, (UNDEF: 2)
     bfc:	6008006e 	andvs	r0, r8, lr, rrx
     c00:	01000004 	tsteq	r0, r4
     c04:	100a200d 	andne	r2, sl, sp
     c08:	00002080 	andeq	r2, r0, r0, lsl #1
     c0c:	099c0100 	ldmibeq	ip, {r8}
     c10:	0d010064 	stceq	0, cr0, [r1, #-400]	; 0xfffffe70
     c14:	0000005a 	andeq	r0, r0, sl, asr r0
     c18:	00749102 	rsbseq	r9, r4, r2, lsl #2
     c1c:	00021900 	andeq	r1, r2, r0, lsl #18
     c20:	cd000400 	cfstrsgt	mvf0, [r0, #-0]
     c24:	04000004 	streq	r0, [r0], #-4
     c28:	00019b01 	andeq	r9, r1, r1, lsl #22
     c2c:	06280c00 	strteq	r0, [r8], -r0, lsl #24
     c30:	00bd0000 	adcseq	r0, sp, r0
     c34:	0aac0000 	beq	feb00c3c <__bss_end+0x7e9ff6a4>
     c38:	03ca8010 	biceq	r8, sl, #16
     c3c:	032c0000 			; <UNDEFINED> instruction: 0x032c0000
     c40:	04020000 	streq	r0, [r2], #-0
     c44:	00018607 	andeq	r8, r1, r7, lsl #12
     c48:	07040200 	streq	r0, [r4, -r0, lsl #4]
     c4c:	00000226 	andeq	r0, r0, r6, lsr #4
     c50:	76080102 	strvc	r0, [r8], -r2, lsl #2
     c54:	03000000 	movweq	r0, #0
     c58:	00000608 	andeq	r0, r0, r8, lsl #12
     c5c:	00450601 	subeq	r0, r5, r1, lsl #12
     c60:	04040000 	streq	r0, [r4], #-0
     c64:	0000004b 	andeq	r0, r0, fp, asr #32
     c68:	7f080102 	svcvc	0x00080102
     c6c:	05000000 	streq	r0, [r0, #-0]
     c70:	0000004b 	andeq	r0, r0, fp, asr #32
     c74:	00003306 	andeq	r3, r0, r6, lsl #6
     c78:	00006700 	andeq	r6, r0, r0, lsl #14
     c7c:	002c0700 	eoreq	r0, ip, r0, lsl #14
     c80:	000f0000 	andeq	r0, pc, r0
     c84:	00063908 	andeq	r3, r6, r8, lsl #18
     c88:	57110100 	ldrpl	r0, [r1, -r0, lsl #2]
     c8c:	05000000 	streq	r0, [r0, #-0]
     c90:	10148003 	andsne	r8, r4, r3
     c94:	06410980 	strbeq	r0, [r1], -r0, lsl #19
     c98:	92010000 	andls	r0, r1, #0
     c9c:	0000008d 	andeq	r0, r0, sp, lsl #1
     ca0:	80100d80 	andshi	r0, r0, r0, lsl #27
     ca4:	000000f6 	strdeq	r0, [r0], -r6
     ca8:	040a9c01 	streq	r9, [sl], #-3073	; 0xfffff3ff
     cac:	746e6905 	strbtvc	r6, [lr], #-2309	; 0xfffff6fb
     cb0:	06010b00 	streq	r0, [r1], -r0, lsl #22
     cb4:	7d010000 	stcvc	0, cr0, [r1, #-0]
     cb8:	0000008d 	andeq	r0, r0, sp, lsl #1
     cbc:	80100d54 	andshi	r0, r0, r4, asr sp
     cc0:	0000002c 	andeq	r0, r0, ip, lsr #32
     cc4:	00ca9c01 	sbceq	r9, sl, r1, lsl #24
     cc8:	660c0000 	strvs	r0, [ip], -r0
     ccc:	0100746d 	tsteq	r0, sp, ror #8
     cd0:	0000ca7d 	andeq	ip, r0, sp, ror sl
     cd4:	70910200 	addsvc	r0, r1, r0, lsl #4
     cd8:	70610e0d 	rsbvc	r0, r1, sp, lsl #28
     cdc:	3a7f0100 	bcc	1fc10e4 <shift+0x1fc10e4>
     ce0:	02000000 	andeq	r0, r0, #0
     ce4:	04006491 	streq	r6, [r0], #-1169	; 0xfffffb6f
     ce8:	00005204 	andeq	r5, r0, r4, lsl #4
     cec:	05fd0f00 	ldrbeq	r0, [sp, #3840]!	; 0xf00
     cf0:	44010000 	strmi	r0, [r1], #-0
     cf4:	0000008d 	andeq	r0, r0, sp, lsl #1
     cf8:	80100bc0 	andshi	r0, r0, r0, asr #23
     cfc:	00000194 	muleq	r0, r4, r1
     d00:	01219c01 			; <UNDEFINED> instruction: 0x01219c01
     d04:	660c0000 	strvs	r0, [ip], -r0
     d08:	0100746d 	tsteq	r0, sp, ror #8
     d0c:	0000ca44 	andeq	ip, r0, r4, asr #20
     d10:	6c910200 	lfmvs	f0, 4, [r1], {0}
     d14:	0070610c 	rsbseq	r6, r0, ip, lsl #2
     d18:	003a4401 	eorseq	r4, sl, r1, lsl #8
     d1c:	91020000 	mrsls	r0, (UNDEF: 2)
     d20:	06151068 	ldreq	r1, [r5], -r8, rrx
     d24:	46010000 	strmi	r0, [r1], -r0
     d28:	0000004b 	andeq	r0, r0, fp, asr #32
     d2c:	10779102 	rsbsne	r9, r7, r2, lsl #2
     d30:	0000061a 	andeq	r0, r0, sl, lsl r6
     d34:	008d4701 	addeq	r4, sp, r1, lsl #14
     d38:	91020000 	mrsls	r0, (UNDEF: 2)
     d3c:	ef0f0070 	svc	0x000f0070
     d40:	01000005 	tsteq	r0, r5
     d44:	00008d22 	andeq	r8, r0, r2, lsr #26
     d48:	100aee00 	andne	lr, sl, r0, lsl #28
     d4c:	0000d280 	andeq	sp, r0, r0, lsl #5
     d50:	b69c0100 	ldrlt	r0, [ip], r0, lsl #2
     d54:	0c000001 	stceq	0, cr0, [r0], {1}
     d58:	2201006e 	andcs	r0, r1, #110	; 0x6e
     d5c:	000001b6 			; <UNDEFINED> instruction: 0x000001b6
     d60:	7fa49103 	svcvc	0x00a49103
     d64:	00061011 	andeq	r1, r6, r1, lsl r0
     d68:	8d220100 	stfhis	f0, [r2, #-0]
     d6c:	03000000 	movweq	r0, #0
     d70:	117fa091 			; <UNDEFINED> instruction: 0x117fa091
     d74:	00000615 	andeq	r0, r0, r5, lsl r6
     d78:	004b2201 	subeq	r2, fp, r1, lsl #4
     d7c:	91030000 	mrsls	r0, (UNDEF: 3)
     d80:	1a117f9f 	bne	460c04 <shift+0x460c04>
     d84:	01000006 	tsteq	r0, r6
     d88:	00008d22 	andeq	r8, r0, r2, lsr #26
     d8c:	98910300 	ldmls	r1, {r8, r9}
     d90:	006d0e7f 	rsbeq	r0, sp, pc, ror lr
     d94:	01bd2401 			; <UNDEFINED> instruction: 0x01bd2401
     d98:	91020000 	mrsls	r0, (UNDEF: 2)
     d9c:	75620e74 	strbvc	r0, [r2, #-3700]!	; 0xfffff18c
     da0:	25010066 	strcs	r0, [r1, #-102]	; 0xffffff9a
     da4:	000001c4 	andeq	r0, r0, r4, asr #3
     da8:	7fa89103 	svcvc	0x00a89103
     dac:	0100730e 	tsteq	r0, lr, lsl #6
     db0:	00004525 	andeq	r4, r0, r5, lsr #10
     db4:	70910200 	addsvc	r0, r1, r0, lsl #4
     db8:	0005f710 	andeq	pc, r5, r0, lsl r7	; <UNPREDICTABLE>
     dbc:	8d260100 	stfhis	f0, [r6, #-0]
     dc0:	02000000 	andeq	r0, r0, #0
     dc4:	690e6c91 	stmdbvs	lr, {r0, r4, r7, sl, fp, sp, lr}
     dc8:	8d260100 	stfhis	f0, [r6, #-0]
     dcc:	02000000 	andeq	r0, r0, #0
     dd0:	02006891 	andeq	r6, r0, #9502720	; 0x910000
     dd4:	02340504 	eorseq	r0, r4, #4, 10	; 0x1000000
     dd8:	04020000 	streq	r0, [r2], #-0
     ddc:	00018107 	andeq	r8, r1, r7, lsl #2
     de0:	004b0600 	subeq	r0, fp, r0, lsl #12
     de4:	01d40000 	bicseq	r0, r4, r0
     de8:	2c070000 	stccs	0, cr0, [r7], {-0}
     dec:	3f000000 	svccc	0x00000000
     df0:	06340f00 	ldrteq	r0, [r4], -r0, lsl #30
     df4:	1b010000 	blne	40dfc <shift+0x40dfc>
     df8:	0000008d 	andeq	r0, r0, sp, lsl #1
     dfc:	80100ac4 	andshi	r0, r0, r4, asr #21
     e00:	0000002a 	andeq	r0, r0, sl, lsr #32
     e04:	01fa9c01 	mvnseq	r9, r1, lsl #24
     e08:	730c0000 	movwvc	r0, #49152	; 0xc000
     e0c:	ca1b0100 	bgt	6c1214 <shift+0x6c1214>
     e10:	02000000 	andeq	r0, r0, #0
     e14:	12007491 	andne	r7, r0, #-1862270976	; 0x91000000
     e18:	00000623 	andeq	r0, r0, r3, lsr #12
     e1c:	008d1501 	addeq	r1, sp, r1, lsl #10
     e20:	0aac0000 	beq	feb00e28 <__bss_end+0x7e9ff890>
     e24:	00188010 	andseq	r8, r8, r0, lsl r0
     e28:	9c010000 	stcls	0, cr0, [r1], {-0}
     e2c:	0100630c 	tsteq	r0, ip, lsl #6
     e30:	00008d15 	andeq	r8, r0, r5, lsl sp
     e34:	74910200 	ldrvc	r0, [r1], #512	; 0x200
     e38:	01ef0000 	mvneq	r0, r0
     e3c:	00040000 	andeq	r0, r4, r0
     e40:	000005e0 	andeq	r0, r0, r0, ror #11
     e44:	019b0104 	orrseq	r0, fp, r4, lsl #2
     e48:	930c0000 	movwls	r0, #49152	; 0xc000
     e4c:	bd000006 	stclt	0, cr0, [r0, #-24]	; 0xffffffe8
     e50:	78000000 	stmdavc	r0, {}	; <UNPREDICTABLE>
     e54:	2280100e 	addcs	r1, r0, #14
     e58:	f3000002 	vhadd.u8	d0, d0, d2
     e5c:	02000003 	andeq	r0, r0, #3
     e60:	01860704 	orreq	r0, r6, r4, lsl #14
     e64:	04020000 	streq	r0, [r2], #-0
     e68:	00022607 	andeq	r2, r2, r7, lsl #12
     e6c:	08010200 	stmdaeq	r1, {r9}
     e70:	00000076 	andeq	r0, r0, r6, ror r0
     e74:	00003303 	andeq	r3, r0, r3, lsl #6
     e78:	00004a00 	andeq	r4, r0, r0, lsl #20
     e7c:	002c0400 	eoreq	r0, ip, r0, lsl #8
     e80:	00ff0000 	rscseq	r0, pc, r0
     e84:	0006ae05 	andeq	sl, r6, r5, lsl #28
     e88:	3a140100 	bcc	501290 <shift+0x501290>
     e8c:	05000000 	streq	r0, [r0, #-0]
     e90:	10149003 	andsne	r9, r4, r3
     e94:	06580680 	ldrbeq	r0, [r8], -r0, lsl #13
     e98:	d7010000 	strle	r0, [r1, -r0]
     e9c:	00000025 	andeq	r0, r0, r5, lsr #32
     ea0:	80101076 	andshi	r1, r0, r6, ror r0
     ea4:	00000024 	andeq	r0, r0, r4, lsr #32
     ea8:	00849c01 	addeq	r9, r4, r1, lsl #24
     eac:	73070000 	movwvc	r0, #28672	; 0x7000
     eb0:	01007274 	tsteq	r0, r4, ror r2
     eb4:	000084d9 	ldrdeq	r8, [r0], -r9
     eb8:	94910300 	ldrls	r0, [r1], #768	; 0x300
     ebc:	9403007f 	strls	r0, [r3], #-127	; 0xffffff81
     ec0:	94000000 	strls	r0, [r0], #-0
     ec4:	04000000 	streq	r0, [r0], #-0
     ec8:	0000002c 	andeq	r0, r0, ip, lsr #32
     ecc:	01020063 	tsteq	r2, r3, rrx
     ed0:	00007f08 	andeq	r7, r0, r8, lsl #30
     ed4:	00940800 	addseq	r0, r4, r0, lsl #16
     ed8:	50060000 	andpl	r0, r6, r0
     edc:	01000006 	tsteq	r0, r6
     ee0:	0000c9c6 	andeq	ip, r0, r6, asr #19
     ee4:	10105200 	andsne	r5, r0, r0, lsl #4
     ee8:	00002480 	andeq	r2, r0, r0, lsl #9
     eec:	c99c0100 	ldmibgt	ip, {r8}
     ef0:	07000000 	streq	r0, [r0, -r0]
     ef4:	00727473 	rsbseq	r7, r2, r3, ror r4
     ef8:	0084c801 	addeq	ip, r4, r1, lsl #16
     efc:	91030000 	mrsls	r0, (UNDEF: 3)
     f00:	09007f94 	stmdbeq	r0, {r2, r4, r7, r8, r9, sl, fp, ip, sp, lr}
     f04:	6e690504 	cdpvs	5, 6, cr0, cr9, cr4, {0}
     f08:	8e060074 	mcrhi	0, 0, r0, cr6, cr4, {3}
     f0c:	01000006 	tsteq	r0, r6
     f10:	00010e9e 	muleq	r1, lr, lr
     f14:	100fe800 	andne	lr, pc, r0, lsl #16
     f18:	00006a80 	andeq	r6, r0, r0, lsl #21
     f1c:	0e9c0100 	fmleqe	f0, f4, f0
     f20:	0a000001 	beq	f2c <shift+0xf2c>
     f24:	9e010073 	mcrls	0, 0, r0, cr1, cr3, {3}
     f28:	0000010e 	andeq	r0, r0, lr, lsl #2
     f2c:	076c9102 	strbeq	r9, [ip, -r2, lsl #2]!
     f30:	a0010069 	andge	r0, r1, r9, rrx
     f34:	000000c9 	andeq	r0, r0, r9, asr #1
     f38:	07749102 	ldrbeq	r9, [r4, -r2, lsl #2]!
     f3c:	a1010063 	tstge	r1, r3, rrx
     f40:	00000094 	muleq	r0, r4, r0
     f44:	00739102 	rsbseq	r9, r3, r2, lsl #2
     f48:	0094040b 	addseq	r0, r4, fp, lsl #8
     f4c:	76060000 	strvc	r0, [r6], -r0
     f50:	01000006 	tsteq	r0, r6
     f54:	0001578c 	andeq	r5, r1, ip, lsl #15
     f58:	100fac00 	andne	sl, pc, r0, lsl #24
     f5c:	00003c80 	andeq	r3, r0, r0, lsl #25
     f60:	579c0100 	ldrpl	r0, [ip, r0, lsl #2]
     f64:	0a000001 	beq	f70 <shift+0xf70>
     f68:	01007063 	tsteq	r0, r3, rrx
     f6c:	00015e8c 	andeq	r5, r1, ip, lsl #29
     f70:	74910200 	ldrvc	r0, [r1], #512	; 0x200
     f74:	0006a90c 	andeq	sl, r6, ip, lsl #18
     f78:	648c0100 	strvs	r0, [ip], #256	; 0x100
     f7c:	02000001 	andeq	r0, r0, #1
     f80:	100c7091 	mulne	ip, r1, r0
     f84:	01000006 	tsteq	r0, r6
     f88:	0000258c 	andeq	r2, r0, ip, lsl #11
     f8c:	6c910200 	lfmvs	f0, 4, [r1], {0}
     f90:	05040200 	streq	r0, [r4, #-512]	; 0xfffffe00
     f94:	00000234 	andeq	r0, r0, r4, lsr r2
     f98:	009b040b 	addseq	r0, fp, fp, lsl #8
     f9c:	040b0000 	streq	r0, [fp], #-0
     fa0:	0000010e 	andeq	r0, r0, lr, lsl #2
     fa4:	00066106 	andeq	r6, r6, r6, lsl #2
     fa8:	c9640100 	stmdbgt	r4!, {r8}^
     fac:	aa000001 	bge	fb8 <shift+0xfb8>
     fb0:	0280100e 	addeq	r1, r0, #14
     fb4:	01000001 	tsteq	r0, r1
     fb8:	0001c99c 	muleq	r1, ip, r9
     fbc:	70630a00 	rsbvc	r0, r3, r0, lsl #20
     fc0:	5e640100 	powpls	f0, f4, f0
     fc4:	02000001 	andeq	r0, r0, #1
     fc8:	a90c6c91 	stmdbge	ip, {r0, r4, r7, sl, fp, sp, lr}
     fcc:	01000006 	tsteq	r0, r6
     fd0:	00016464 	andeq	r6, r1, r4, ror #8
     fd4:	68910200 	ldmvs	r1, {r9}
     fd8:	0006100c 	andeq	r1, r6, ip
     fdc:	25640100 	strbcs	r0, [r4, #-256]!	; 0xffffff00
     fe0:	02000000 	andeq	r0, r0, #0
     fe4:	a20d6491 	andge	r6, sp, #-1862270976	; 0x91000000
     fe8:	01000006 	tsteq	r0, r6
     fec:	0001c966 	andeq	ip, r1, r6, ror #18
     ff0:	74910200 	ldrvc	r0, [r1], #512	; 0x200
     ff4:	0006700d 	andeq	r7, r6, sp
     ff8:	c9660100 	stmdbgt	r6!, {r8}^
     ffc:	02000001 	andeq	r0, r0, #1
    1000:	02007091 	andeq	r7, r0, #145	; 0x91
    1004:	01810704 	orreq	r0, r1, r4, lsl #14
    1008:	840e0000 	strhi	r0, [lr], #-0
    100c:	01000006 	tsteq	r0, r6
    1010:	0000334d 	andeq	r3, r0, sp, asr #6
    1014:	100e7800 	andne	r7, lr, r0, lsl #16
    1018:	00003280 	andeq	r3, r0, r0, lsl #5
    101c:	0a9c0100 	beq	fe701424 <__bss_end+0x7e5ffe8c>
    1020:	4d010063 	stcmi	0, cr0, [r1, #-396]	; 0xfffffe74
    1024:	00000033 	andeq	r0, r0, r3, lsr r0
    1028:	00779102 	rsbseq	r9, r7, r2, lsl #2
    102c:	0001bb00 	andeq	fp, r1, r0, lsl #22
    1030:	ad000200 	sfmge	f0, 4, [r0, #-0]
    1034:	04000006 	streq	r0, [r0], #-6
    1038:	0004a801 	andeq	sl, r4, r1, lsl #16
    103c:	1010a000 	andsne	sl, r0, r0
    1040:	10131680 	andsne	r1, r3, r0, lsl #13
    1044:	6f682f80 	svcvs	0x00682f80
    1048:	742f656d 	strtvc	r6, [pc], #-1389	; 1050 <shift+0x1050>
    104c:	2d677763 	stclcs	7, cr7, [r7, #-396]!	; 0xfffffe74
    1050:	6c697562 	cfstr64vs	mvdx7, [r9], #-392	; 0xfffffe78
    1054:	616c7364 	cmnvs	ip, r4, ror #6
    1058:	772f6576 			; <UNDEFINED> instruction: 0x772f6576
    105c:	736b726f 	cmnvc	fp, #-268435450	; 0xf0000006
    1060:	65636170 	strbvs	r6, [r3, #-368]!	; 0xfffffe90
    1064:	7763742f 	strbvc	r7, [r3, -pc, lsr #8]!
    1068:	616d2d67 	cmnvs	sp, r7, ror #26
    106c:	722d656b 	eorvc	r6, sp, #448790528	; 0x1ac00000
    1070:	61656c65 	cmnvs	r5, r5, ror #24
    1074:	6c2f6573 	cfstr32vs	mvfx6, [pc], #-460	; eb0 <shift+0xeb0>
    1078:	6c656261 	sfmvs	f6, 2, [r5], #-388	; 0xfffffe7c
    107c:	636f642f 	cmnvs	pc, #788529152	; 0x2f000000
    1080:	2d72656b 	cfldr64cs	mvdx6, [r2, #-428]!	; 0xfffffe54
    1084:	73757274 	cmnvc	r5, #116, 4	; 0x40000007
    1088:	612d7974 			; <UNDEFINED> instruction: 0x612d7974
    108c:	3436646d 	ldrtcc	r6, [r6], #-1133	; 0xfffffb93
    1090:	7763742d 	strbvc	r7, [r3, -sp, lsr #8]!
    1094:	75622d67 	strbvc	r2, [r2, #-3431]!	; 0xfffff299
    1098:	2f646c69 	svccs	0x00646c69
    109c:	67726174 			; <UNDEFINED> instruction: 0x67726174
    10a0:	612f7465 			; <UNDEFINED> instruction: 0x612f7465
    10a4:	6c2d6d72 	stcvs	13, cr6, [sp], #-456	; 0xfffffe38
    10a8:	78756e69 	ldmdavc	r5!, {r0, r3, r5, r6, r9, sl, fp, sp, lr}^
    10ac:	756e672d 	strbvc	r6, [lr, #-1837]!	; 0xfffff8d3
    10b0:	69626165 	stmdbvs	r2!, {r0, r2, r5, r6, r8, sp, lr}^
    10b4:	732f6668 			; <UNDEFINED> instruction: 0x732f6668
    10b8:	7370616e 	cmnvc	r0, #-2147483621	; 0x8000001b
    10bc:	73746f68 	cmnvc	r4, #104, 30	; 0x1a0
    10c0:	6363672f 	cmnvs	r3, #12320768	; 0xbc0000
    10c4:	6e696c2d 	cdpvs	12, 6, cr6, cr9, cr13, {1}
    10c8:	2d6f7261 	sfmcs	f7, 2, [pc, #-388]!	; f4c <shift+0xf4c>
    10cc:	2d322e36 	ldccs	14, cr2, [r2, #-216]!	; 0xffffff28
    10d0:	36313032 			; <UNDEFINED> instruction: 0x36313032
    10d4:	2f31312e 	svccs	0x0031312e
    10d8:	6762696c 	strbvs	r6, [r2, -ip, ror #18]!
    10dc:	632f6363 			; <UNDEFINED> instruction: 0x632f6363
    10e0:	69666e6f 	stmdbvs	r6!, {r0, r1, r2, r3, r5, r6, r9, sl, fp, sp, lr}^
    10e4:	72612f67 	rsbvc	r2, r1, #412	; 0x19c
    10e8:	696c2f6d 	stmdbvs	ip!, {r0, r2, r3, r5, r6, r8, r9, sl, fp, sp}^
    10ec:	75663162 	strbvc	r3, [r6, #-354]!	; 0xfffffe9e
    10f0:	2e73636e 	cdpcs	3, 7, cr6, cr3, cr14, {3}
    10f4:	682f0053 	stmdavs	pc!, {r0, r1, r4, r6}	; <UNPREDICTABLE>
    10f8:	2f656d6f 	svccs	0x00656d6f
    10fc:	67776374 			; <UNDEFINED> instruction: 0x67776374
    1100:	6975622d 	ldmdbvs	r5!, {r0, r2, r3, r5, r9, sp, lr}^
    1104:	6c73646c 	cfldrdvs	mvd6, [r3], #-432	; 0xfffffe50
    1108:	2f657661 	svccs	0x00657661
    110c:	6b726f77 	blvs	1c9cef0 <shift+0x1c9cef0>
    1110:	63617073 	cmnvs	r1, #115	; 0x73
    1114:	63742f65 	cmnvs	r4, #404	; 0x194
    1118:	6d2d6777 	stcvs	7, cr6, [sp, #-476]!	; 0xfffffe24
    111c:	2d656b61 	fstmdbxcs	r5!, {d22-d69}	;@ Deprecated
    1120:	656c6572 	strbvs	r6, [ip, #-1394]!	; 0xfffffa8e
    1124:	2f657361 	svccs	0x00657361
    1128:	6562616c 	strbvs	r6, [r2, #-364]!	; 0xfffffe94
    112c:	6f642f6c 	svcvs	0x00642f6c
    1130:	72656b63 	rsbvc	r6, r5, #101376	; 0x18c00
    1134:	7572742d 	ldrbvc	r7, [r2, #-1069]!	; 0xfffffbd3
    1138:	2d797473 	cfldrdcs	mvd7, [r9, #-460]!	; 0xfffffe34
    113c:	36646d61 	strbtcc	r6, [r4], -r1, ror #26
    1140:	63742d34 	cmnvs	r4, #52, 26	; 0xd00
    1144:	622d6777 	eorvs	r6, sp, #31195136	; 0x1dc0000
    1148:	646c6975 	strbtvs	r6, [ip], #-2421	; 0xfffff68b
    114c:	7261742f 	rsbvc	r7, r1, #788529152	; 0x2f000000
    1150:	2f746567 	svccs	0x00746567
    1154:	2d6d7261 	sfmcs	f7, 2, [sp, #-388]!	; 0xfffffe7c
    1158:	756e696c 	strbvc	r6, [lr, #-2412]!	; 0xfffff694
    115c:	6e672d78 	mcrvs	13, 3, r2, cr7, cr8, {3}
    1160:	62616575 	rsbvs	r6, r1, #490733568	; 0x1d400000
    1164:	2f666869 	svccs	0x00666869
    1168:	6975625f 	ldmdbvs	r5!, {r0, r1, r2, r3, r4, r6, r9, sp, lr}^
    116c:	622f646c 	eorvs	r6, pc, #108, 8	; 0x6c000000
    1170:	646c6975 	strbtvs	r6, [ip], #-2421	; 0xfffff68b
    1174:	38782f73 	ldmdacc	r8!, {r0, r1, r4, r5, r6, r8, r9, sl, fp, sp}^
    1178:	34365f36 	ldrtcc	r5, [r6], #-3894	; 0xfffff0ca
    117c:	6b6e752d 	blvs	1b9e638 <shift+0x1b9e638>
    1180:	6e776f6e 	cdpvs	15, 7, cr6, cr7, cr14, {3}
    1184:	6e696c2d 	cdpvs	12, 6, cr6, cr9, cr13, {1}
    1188:	672d7875 			; <UNDEFINED> instruction: 0x672d7875
    118c:	612f756e 			; <UNDEFINED> instruction: 0x612f756e
    1190:	6c2d6d72 	stcvs	13, cr6, [sp], #-456	; 0xfffffe38
    1194:	78756e69 	ldmdavc	r5!, {r0, r3, r5, r6, r9, sl, fp, sp, lr}^
    1198:	756e672d 	strbvc	r6, [lr, #-1837]!	; 0xfffff8d3
    119c:	69626165 	stmdbvs	r2!, {r0, r2, r5, r6, r8, sp, lr}^
    11a0:	672f6668 	strvs	r6, [pc, -r8, ror #12]!
    11a4:	6c2d6363 	stcvs	3, cr6, [sp], #-396	; 0xfffffe74
    11a8:	72616e69 	rsbvc	r6, r1, #1680	; 0x690
    11ac:	2e362d6f 	cdpcs	13, 3, cr2, cr6, cr15, {3}
    11b0:	30322d32 	eorscc	r2, r2, r2, lsr sp
    11b4:	312e3631 			; <UNDEFINED> instruction: 0x312e3631
    11b8:	74732d31 	ldrbtvc	r2, [r3], #-3377	; 0xfffff2cf
    11bc:	32656761 	rsbcc	r6, r5, #25427968	; 0x1840000
    11c0:	6d72612f 	ldfvse	f6, [r2, #-188]!	; 0xffffff44
    11c4:	6e696c2d 	cdpvs	12, 6, cr6, cr9, cr13, {1}
    11c8:	672d7875 			; <UNDEFINED> instruction: 0x672d7875
    11cc:	6165756e 	cmnvs	r5, lr, ror #10
    11d0:	66686962 	strbtvs	r6, [r8], -r2, ror #18
    11d4:	62696c2f 	rsbvs	r6, r9, #12032	; 0x2f00
    11d8:	00636367 	rsbeq	r6, r3, r7, ror #6
    11dc:	20554e47 	subscs	r4, r5, r7, asr #28
    11e0:	32205341 	eorcc	r5, r0, #67108865	; 0x4000001
    11e4:	2e37322e 	cdpcs	2, 3, cr3, cr7, cr14, {1}
    11e8:	80010030 	andhi	r0, r1, r0, lsr r0
    11ec:	000001bb 			; <UNDEFINED> instruction: 0x000001bb
    11f0:	06c10002 	strbeq	r0, [r1], r2
    11f4:	01040000 	mrseq	r0, (UNDEF: 4)
    11f8:	000005a8 	andeq	r0, r0, r8, lsr #11
    11fc:	80101318 	andshi	r1, r0, r8, lsl r3
    1200:	80101324 	andshi	r1, r0, r4, lsr #6
    1204:	6d6f682f 	stclvs	8, cr6, [pc, #-188]!	; 1150 <shift+0x1150>
    1208:	63742f65 	cmnvs	r4, #404	; 0x194
    120c:	622d6777 	eorvs	r6, sp, #31195136	; 0x1dc0000
    1210:	646c6975 	strbtvs	r6, [ip], #-2421	; 0xfffff68b
    1214:	76616c73 			; <UNDEFINED> instruction: 0x76616c73
    1218:	6f772f65 	svcvs	0x00772f65
    121c:	70736b72 	rsbsvc	r6, r3, r2, ror fp
    1220:	2f656361 	svccs	0x00656361
    1224:	67776374 			; <UNDEFINED> instruction: 0x67776374
    1228:	6b616d2d 	blvs	185c6e4 <shift+0x185c6e4>
    122c:	65722d65 	ldrbvs	r2, [r2, #-3429]!	; 0xfffff29b
    1230:	7361656c 	cmnvc	r1, #108, 10	; 0x1b000000
    1234:	616c2f65 	cmnvs	ip, r5, ror #30
    1238:	2f6c6562 	svccs	0x006c6562
    123c:	6b636f64 	blvs	18dcfd4 <shift+0x18dcfd4>
    1240:	742d7265 	strtvc	r7, [sp], #-613	; 0xfffffd9b
    1244:	74737572 	ldrbtvc	r7, [r3], #-1394	; 0xfffffa8e
    1248:	6d612d79 	stclvs	13, cr2, [r1, #-484]!	; 0xfffffe1c
    124c:	2d343664 	ldccs	6, cr3, [r4, #-400]!	; 0xfffffe70
    1250:	67776374 			; <UNDEFINED> instruction: 0x67776374
    1254:	6975622d 	ldmdbvs	r5!, {r0, r2, r3, r5, r9, sp, lr}^
    1258:	742f646c 	strtvc	r6, [pc], #-1132	; 1260 <shift+0x1260>
    125c:	65677261 	strbvs	r7, [r7, #-609]!	; 0xfffffd9f
    1260:	72612f74 	rsbvc	r2, r1, #116, 30	; 0x1d0
    1264:	696c2d6d 	stmdbvs	ip!, {r0, r2, r3, r5, r6, r8, sl, fp, sp}^
    1268:	2d78756e 	cfldr64cs	mvdx7, [r8, #-440]!	; 0xfffffe48
    126c:	65756e67 	ldrbvs	r6, [r5, #-3687]!	; 0xfffff199
    1270:	68696261 	stmdavs	r9!, {r0, r5, r6, r9, sp, lr}^
    1274:	6e732f66 	cdpvs	15, 7, cr2, cr3, cr6, {3}
    1278:	68737061 	ldmdavs	r3!, {r0, r5, r6, ip, sp, lr}^
    127c:	2f73746f 	svccs	0x0073746f
    1280:	2d636367 	stclcs	3, cr6, [r3, #-412]!	; 0xfffffe64
    1284:	616e696c 	cmnvs	lr, ip, ror #18
    1288:	362d6f72 	qsub16cc	r6, sp, r2
    128c:	322d322e 	eorcc	r3, sp, #-536870910	; 0xe0000002
    1290:	2e363130 	mrccs	1, 1, r3, cr6, cr0, {1}
    1294:	6c2f3131 	stfvss	f3, [pc], #-196	; 11d8 <shift+0x11d8>
    1298:	63676269 	cmnvs	r7, #-1879048186	; 0x90000006
    129c:	6f632f63 	svcvs	0x00632f63
    12a0:	6769666e 	strbvs	r6, [r9, -lr, ror #12]!
    12a4:	6d72612f 	ldfvse	f6, [r2, #-188]!	; 0xffffff44
    12a8:	62696c2f 	rsbvs	r6, r9, #12032	; 0x2f00
    12ac:	6e756631 	mrcvs	6, 3, r6, cr5, cr1, {1}
    12b0:	532e7363 			; <UNDEFINED> instruction: 0x532e7363
    12b4:	6f682f00 	svcvs	0x00682f00
    12b8:	742f656d 	strtvc	r6, [pc], #-1389	; 12c0 <shift+0x12c0>
    12bc:	2d677763 	stclcs	7, cr7, [r7, #-396]!	; 0xfffffe74
    12c0:	6c697562 	cfstr64vs	mvdx7, [r9], #-392	; 0xfffffe78
    12c4:	616c7364 	cmnvs	ip, r4, ror #6
    12c8:	772f6576 			; <UNDEFINED> instruction: 0x772f6576
    12cc:	736b726f 	cmnvc	fp, #-268435450	; 0xf0000006
    12d0:	65636170 	strbvs	r6, [r3, #-368]!	; 0xfffffe90
    12d4:	7763742f 	strbvc	r7, [r3, -pc, lsr #8]!
    12d8:	616d2d67 	cmnvs	sp, r7, ror #26
    12dc:	722d656b 	eorvc	r6, sp, #448790528	; 0x1ac00000
    12e0:	61656c65 	cmnvs	r5, r5, ror #24
    12e4:	6c2f6573 	cfstr32vs	mvfx6, [pc], #-460	; 1120 <shift+0x1120>
    12e8:	6c656261 	sfmvs	f6, 2, [r5], #-388	; 0xfffffe7c
    12ec:	636f642f 	cmnvs	pc, #788529152	; 0x2f000000
    12f0:	2d72656b 	cfldr64cs	mvdx6, [r2, #-428]!	; 0xfffffe54
    12f4:	73757274 	cmnvc	r5, #116, 4	; 0x40000007
    12f8:	612d7974 			; <UNDEFINED> instruction: 0x612d7974
    12fc:	3436646d 	ldrtcc	r6, [r6], #-1133	; 0xfffffb93
    1300:	7763742d 	strbvc	r7, [r3, -sp, lsr #8]!
    1304:	75622d67 	strbvc	r2, [r2, #-3431]!	; 0xfffff299
    1308:	2f646c69 	svccs	0x00646c69
    130c:	67726174 			; <UNDEFINED> instruction: 0x67726174
    1310:	612f7465 			; <UNDEFINED> instruction: 0x612f7465
    1314:	6c2d6d72 	stcvs	13, cr6, [sp], #-456	; 0xfffffe38
    1318:	78756e69 	ldmdavc	r5!, {r0, r3, r5, r6, r9, sl, fp, sp, lr}^
    131c:	756e672d 	strbvc	r6, [lr, #-1837]!	; 0xfffff8d3
    1320:	69626165 	stmdbvs	r2!, {r0, r2, r5, r6, r8, sp, lr}^
    1324:	5f2f6668 	svcpl	0x002f6668
    1328:	6c697562 	cfstr64vs	mvdx7, [r9], #-392	; 0xfffffe78
    132c:	75622f64 	strbvc	r2, [r2, #-3940]!	; 0xfffff09c
    1330:	73646c69 	cmnvc	r4, #26880	; 0x6900
    1334:	3638782f 	ldrtcc	r7, [r8], -pc, lsr #16
    1338:	2d34365f 	ldccs	6, cr3, [r4, #-380]!	; 0xfffffe84
    133c:	6e6b6e75 	mcrvs	14, 3, r6, cr11, cr5, {3}
    1340:	2d6e776f 	stclcs	7, cr7, [lr, #-444]!	; 0xfffffe44
    1344:	756e696c 	strbvc	r6, [lr, #-2412]!	; 0xfffff694
    1348:	6e672d78 	mcrvs	13, 3, r2, cr7, cr8, {3}
    134c:	72612f75 	rsbvc	r2, r1, #468	; 0x1d4
    1350:	696c2d6d 	stmdbvs	ip!, {r0, r2, r3, r5, r6, r8, sl, fp, sp}^
    1354:	2d78756e 	cfldr64cs	mvdx7, [r8, #-440]!	; 0xfffffe48
    1358:	65756e67 	ldrbvs	r6, [r5, #-3687]!	; 0xfffff199
    135c:	68696261 	stmdavs	r9!, {r0, r5, r6, r9, sp, lr}^
    1360:	63672f66 	cmnvs	r7, #408	; 0x198
    1364:	696c2d63 	stmdbvs	ip!, {r0, r1, r5, r6, r8, sl, fp, sp}^
    1368:	6f72616e 	svcvs	0x0072616e
    136c:	322e362d 	eorcc	r3, lr, #47185920	; 0x2d00000
    1370:	3130322d 	teqcc	r0, sp, lsr #4
    1374:	31312e36 	teqcc	r1, r6, lsr lr
    1378:	6174732d 	cmnvs	r4, sp, lsr #6
    137c:	2f326567 	svccs	0x00326567
    1380:	2d6d7261 	sfmcs	f7, 2, [sp, #-388]!	; 0xfffffe7c
    1384:	756e696c 	strbvc	r6, [lr, #-2412]!	; 0xfffff694
    1388:	6e672d78 	mcrvs	13, 3, r2, cr7, cr8, {3}
    138c:	62616575 	rsbvs	r6, r1, #490733568	; 0x1d400000
    1390:	2f666869 	svccs	0x00666869
    1394:	6762696c 	strbvs	r6, [r2, -ip, ror #18]!
    1398:	47006363 	strmi	r6, [r0, -r3, ror #6]
    139c:	4120554e 			; <UNDEFINED> instruction: 0x4120554e
    13a0:	2e322053 	mrccs	0, 1, r2, cr2, cr3, {2}
    13a4:	302e3732 	eorcc	r3, lr, r2, lsr r7
    13a8:	Address 0x00000000000013a8 is out of bounds.


Disassembly of section .debug_abbrev:

00000000 <.debug_abbrev>:
   0:	10001101 	andne	r1, r0, r1, lsl #2
   4:	12011106 	andne	r1, r1, #-2147483647	; 0x80000001
   8:	1b080301 	blne	200c14 <shift+0x200c14>
   c:	13082508 	movwne	r2, #34056	; 0x8508
  10:	00000005 	andeq	r0, r0, r5
  14:	25011101 	strcs	r1, [r1, #-257]	; 0xfffffeff
  18:	030b130e 	movweq	r1, #45838	; 0xb30e
  1c:	110e1b0e 	tstne	lr, lr, lsl #22
  20:	10061201 	andne	r1, r6, r1, lsl #4
  24:	02000017 	andeq	r0, r0, #23
  28:	0b0b0024 	bleq	2c00c0 <shift+0x2c00c0>
  2c:	0e030b3e 	vmoveq.16	d3[0], r0
  30:	24030000 	strcs	r0, [r3], #-0
  34:	3e0b0b00 	vmlacc.f64	d0, d11, d0
  38:	0008030b 	andeq	r0, r8, fp, lsl #6
  3c:	00160400 	andseq	r0, r6, r0, lsl #8
  40:	0b3a0e03 	bleq	e83854 <shift+0xe83854>
  44:	13490b3b 	movtne	r0, #39739	; 0x9b3b
  48:	35050000 	strcc	r0, [r5, #-0]
  4c:	00134900 	andseq	r4, r3, r0, lsl #18
  50:	00260600 	eoreq	r0, r6, r0, lsl #12
  54:	00001349 	andeq	r1, r0, r9, asr #6
  58:	03011307 	movweq	r1, #4871	; 0x1307
  5c:	3a0b0b0e 	bcc	2c2c9c <shift+0x2c2c9c>
  60:	010b3b0b 	tsteq	fp, fp, lsl #22
  64:	08000013 	stmdaeq	r0, {r0, r1, r4}
  68:	0e03000d 	cdpeq	0, 0, cr0, cr3, cr13, {0}
  6c:	0b3b0b3a 	bleq	ec2d5c <shift+0xec2d5c>
  70:	0b381349 	bleq	e04d9c <shift+0xe04d9c>
  74:	01090000 	mrseq	r0, (UNDEF: 9)
  78:	01134901 	tsteq	r3, r1, lsl #18
  7c:	0a000013 	beq	d0 <shift+0xd0>
  80:	13490021 	movtne	r0, #36897	; 0x9021
  84:	00000b2f 	andeq	r0, r0, pc, lsr #22
  88:	0301040b 	movweq	r0, #5131	; 0x140b
  8c:	490b0b0e 	stmdbmi	fp, {r1, r2, r3, r8, r9, fp}
  90:	3b0b3a13 	blcc	2ce8e4 <shift+0x2ce8e4>
  94:	0013010b 	andseq	r0, r3, fp, lsl #2
  98:	00280c00 	eoreq	r0, r8, r0, lsl #24
  9c:	0b1c0e03 	bleq	7038b0 <shift+0x7038b0>
  a0:	0f0d0000 	svceq	0x000d0000
  a4:	490b0b00 	stmdbmi	fp, {r8, r9, fp}
  a8:	0e000013 	mcreq	0, 0, r0, cr0, cr3, {0}
  ac:	193f012e 	ldmdbne	pc!, {r1, r2, r3, r5, r8}	; <UNPREDICTABLE>
  b0:	0b3a0e03 	bleq	e838c4 <shift+0xe838c4>
  b4:	1927053b 	stmdbne	r7!, {r0, r1, r3, r4, r5, r8, sl}
  b8:	01111349 	tsteq	r1, r9, asr #6
  bc:	18400612 	stmdane	r0, {r1, r4, r9, sl}^
  c0:	01194296 			; <UNDEFINED> instruction: 0x01194296
  c4:	0f000013 	svceq	0x00000013
  c8:	0e030005 	cdpeq	0, 0, cr0, cr3, cr5, {0}
  cc:	053b0b3a 	ldreq	r0, [fp, #-2874]!	; 0xfffff4c6
  d0:	18021349 	stmdane	r2, {r0, r3, r6, r8, r9, ip}
  d4:	05100000 	ldreq	r0, [r0, #-0]
  d8:	3a080300 	bcc	200ce0 <shift+0x200ce0>
  dc:	49053b0b 	stmdbmi	r5, {r0, r1, r3, r8, r9, fp, ip, sp}
  e0:	00180213 	andseq	r0, r8, r3, lsl r2
  e4:	00341100 	eorseq	r1, r4, r0, lsl #2
  e8:	0b3a0803 	bleq	e820fc <shift+0xe820fc>
  ec:	1349053b 	movtne	r0, #38203	; 0x953b
  f0:	00001802 	andeq	r1, r0, r2, lsl #16
  f4:	03003412 	movweq	r3, #1042	; 0x412
  f8:	3b0b3a0e 	blcc	2ce938 <shift+0x2ce938>
  fc:	02134905 	andseq	r4, r3, #81920	; 0x14000
 100:	13000018 	movwne	r0, #24
 104:	193f012e 	ldmdbne	pc!, {r1, r2, r3, r5, r8}	; <UNPREDICTABLE>
 108:	0b3a0e03 	bleq	e8391c <shift+0xe8391c>
 10c:	19270b3b 	stmdbne	r7!, {r0, r1, r3, r4, r5, r8, r9, fp}
 110:	01111349 	tsteq	r1, r9, asr #6
 114:	18400612 	stmdane	r0, {r1, r4, r9, sl}^
 118:	01194296 			; <UNDEFINED> instruction: 0x01194296
 11c:	14000013 	strne	r0, [r0], #-19	; 0xffffffed
 120:	0e030005 	cdpeq	0, 0, cr0, cr3, cr5, {0}
 124:	0b3b0b3a 	bleq	ec2e14 <shift+0xec2e14>
 128:	18021349 	stmdane	r2, {r0, r3, r6, r8, r9, ip}
 12c:	34150000 	ldrcc	r0, [r5], #-0
 130:	3a0e0300 	bcc	380d38 <shift+0x380d38>
 134:	490b3b0b 	stmdbmi	fp, {r0, r1, r3, r8, r9, fp, ip, sp}
 138:	00180213 	andseq	r0, r8, r3, lsl r2
 13c:	012e1600 			; <UNDEFINED> instruction: 0x012e1600
 140:	0e03193f 			; <UNDEFINED> instruction: 0x0e03193f
 144:	0b3b0b3a 	bleq	ec2e34 <shift+0xec2e34>
 148:	01111927 	tsteq	r1, r7, lsr #18
 14c:	18400612 	stmdane	r0, {r1, r4, r9, sl}^
 150:	01194296 			; <UNDEFINED> instruction: 0x01194296
 154:	17000013 	smladne	r0, r3, r0, r0
 158:	08030005 	stmdaeq	r3, {r0, r2}
 15c:	0b3b0b3a 	bleq	ec2e4c <shift+0xec2e4c>
 160:	18021349 	stmdane	r2, {r0, r3, r6, r8, r9, ip}
 164:	2e180000 	cdpcs	0, 1, cr0, cr8, cr0, {0}
 168:	03193f01 	tsteq	r9, #1, 30
 16c:	3b0b3a0e 	blcc	2ce9ac <shift+0x2ce9ac>
 170:	4919270b 	ldmdbmi	r9, {r0, r1, r3, r8, r9, sl, sp}
 174:	12011113 	andne	r1, r1, #-1073741820	; 0xc0000004
 178:	97184006 	ldrls	r4, [r8, -r6]
 17c:	13011942 	movwne	r1, #6466	; 0x1942
 180:	2e190000 	cdpcs	0, 1, cr0, cr9, cr0, {0}
 184:	03193f01 	tsteq	r9, #1, 30
 188:	3b0b3a0e 	blcc	2ce9c8 <shift+0x2ce9c8>
 18c:	1119270b 	tstne	r9, fp, lsl #14
 190:	40061201 	andmi	r1, r6, r1, lsl #4
 194:	19429718 	stmdbne	r2, {r3, r4, r8, r9, sl, ip, pc}^
 198:	01000000 	mrseq	r0, (UNDEF: 0)
 19c:	0e250111 	mcreq	1, 1, r0, cr5, cr1, {0}
 1a0:	0e030b13 	vmoveq.32	d3[0], r0
 1a4:	01110e1b 	tsteq	r1, fp, lsl lr
 1a8:	17100612 			; <UNDEFINED> instruction: 0x17100612
 1ac:	13020000 	movwne	r0, #8192	; 0x2000
 1b0:	3a0b0b01 	bcc	2c2dbc <shift+0x2c2dbc>
 1b4:	010b3b0b 	tsteq	fp, fp, lsl #22
 1b8:	03000013 	movweq	r0, #19
 1bc:	0e03000d 	cdpeq	0, 0, cr0, cr3, cr13, {0}
 1c0:	0b3b0b3a 	bleq	ec2eb0 <shift+0xec2eb0>
 1c4:	0b381349 	bleq	e04ef0 <shift+0xe04ef0>
 1c8:	0d040000 	stceq	0, cr0, [r4, #-0]
 1cc:	3a080300 	bcc	200dd4 <shift+0x200dd4>
 1d0:	490b3b0b 	stmdbmi	fp, {r0, r1, r3, r8, r9, fp, ip, sp}
 1d4:	000b3813 	andeq	r3, fp, r3, lsl r8
 1d8:	00240500 	eoreq	r0, r4, r0, lsl #10
 1dc:	0b3e0b0b 	bleq	f82e10 <shift+0xf82e10>
 1e0:	00000e03 	andeq	r0, r0, r3, lsl #28
 1e4:	49003506 	stmdbmi	r0, {r1, r2, r8, sl, ip, sp}
 1e8:	07000013 	smladeq	r0, r3, r0, r0
 1ec:	13490101 	movtne	r0, #37121	; 0x9101
 1f0:	00001301 	andeq	r1, r0, r1, lsl #6
 1f4:	49002108 	stmdbmi	r0, {r3, r8, sp}
 1f8:	000b2f13 	andeq	r2, fp, r3, lsl pc
 1fc:	00160900 	andseq	r0, r6, r0, lsl #18
 200:	0b3a0e03 	bleq	e83a14 <shift+0xe83a14>
 204:	13490b3b 	movtne	r0, #39739	; 0x9b3b
 208:	340a0000 	strcc	r0, [sl], #-0
 20c:	3a0e0300 	bcc	380e14 <shift+0x380e14>
 210:	490b3b0b 	stmdbmi	fp, {r0, r1, r3, r8, r9, fp, ip, sp}
 214:	00180213 	andseq	r0, r8, r3, lsl r2
 218:	000f0b00 	andeq	r0, pc, r0, lsl #22
 21c:	13490b0b 	movtne	r0, #39691	; 0x9b0b
 220:	2e0c0000 	cdpcs	0, 0, cr0, cr12, cr0, {0}
 224:	03193f01 	tsteq	r9, #1, 30
 228:	3b0b3a0e 	blcc	2cea68 <shift+0x2cea68>
 22c:	4919270b 	ldmdbmi	r9, {r0, r1, r3, r8, r9, sl, sp}
 230:	12011113 	andne	r1, r1, #-1073741820	; 0xc0000004
 234:	97184006 	ldrls	r4, [r8, -r6]
 238:	13011942 	movwne	r1, #6466	; 0x1942
 23c:	050d0000 	streq	r0, [sp, #-0]
 240:	3a0e0300 	bcc	380e48 <shift+0x380e48>
 244:	490b3b0b 	stmdbmi	fp, {r0, r1, r3, r8, r9, fp, ip, sp}
 248:	00180213 	andseq	r0, r8, r3, lsl r2
 24c:	00240e00 	eoreq	r0, r4, r0, lsl #28
 250:	0b3e0b0b 	bleq	f82e84 <shift+0xf82e84>
 254:	00000803 	andeq	r0, r0, r3, lsl #16
 258:	3f012e0f 	svccc	0x00012e0f
 25c:	3a0e0319 	bcc	380ec8 <shift+0x380ec8>
 260:	270b3b0b 	strcs	r3, [fp, -fp, lsl #22]
 264:	12011119 	andne	r1, r1, #1073741830	; 0x40000006
 268:	96184006 	ldrls	r4, [r8], -r6
 26c:	13011942 	movwne	r1, #6466	; 0x1942
 270:	05100000 	ldreq	r0, [r0, #-0]
 274:	3a080300 	bcc	200e7c <shift+0x200e7c>
 278:	490b3b0b 	stmdbmi	fp, {r0, r1, r3, r8, r9, fp, ip, sp}
 27c:	00180213 	andseq	r0, r8, r3, lsl r2
 280:	00261100 	eoreq	r1, r6, r0, lsl #2
 284:	00001349 	andeq	r1, r0, r9, asr #6
 288:	3f002e12 	svccc	0x00002e12
 28c:	3a0e0319 	bcc	380ef8 <shift+0x380ef8>
 290:	270b3b0b 	strcs	r3, [fp, -fp, lsl #22]
 294:	11134919 	tstne	r3, r9, lsl r9
 298:	40061201 	andmi	r1, r6, r1, lsl #4
 29c:	19429718 	stmdbne	r2, {r3, r4, r8, r9, sl, ip, pc}^
 2a0:	2e130000 	cdpcs	0, 1, cr0, cr3, cr0, {0}
 2a4:	03193f01 	tsteq	r9, #1, 30
 2a8:	3b0b3a0e 	blcc	2ceae8 <shift+0x2ceae8>
 2ac:	1119270b 	tstne	r9, fp, lsl #14
 2b0:	40061201 	andmi	r1, r6, r1, lsl #4
 2b4:	19429718 	stmdbne	r2, {r3, r4, r8, r9, sl, ip, pc}^
 2b8:	00001301 	andeq	r1, r0, r1, lsl #6
 2bc:	3f002e14 	svccc	0x00002e14
 2c0:	3a0e0319 	bcc	380f2c <shift+0x380f2c>
 2c4:	270b3b0b 	strcs	r3, [fp, -fp, lsl #22]
 2c8:	12011119 	andne	r1, r1, #1073741830	; 0x40000006
 2cc:	97184006 	ldrls	r4, [r8, -r6]
 2d0:	00001942 	andeq	r1, r0, r2, asr #18
 2d4:	01110100 	tsteq	r1, r0, lsl #2
 2d8:	0b130e25 	bleq	4c3b74 <shift+0x4c3b74>
 2dc:	0e1b0e03 	cdpeq	14, 1, cr0, cr11, cr3, {0}
 2e0:	06120111 			; <UNDEFINED> instruction: 0x06120111
 2e4:	00001710 	andeq	r1, r0, r0, lsl r7
 2e8:	0b002402 	bleq	92f8 <shift+0x92f8>
 2ec:	030b3e0b 	movweq	r3, #48651	; 0xbe0b
 2f0:	0300000e 	movweq	r0, #14
 2f4:	0b0b0024 	bleq	2c038c <shift+0x2c038c>
 2f8:	08030b3e 	stmdaeq	r3, {r1, r2, r3, r4, r5, r8, r9, fp}
 2fc:	16040000 	strne	r0, [r4], -r0
 300:	3a0e0300 	bcc	380f08 <shift+0x380f08>
 304:	490b3b0b 	stmdbmi	fp, {r0, r1, r3, r8, r9, fp, ip, sp}
 308:	05000013 	streq	r0, [r0, #-19]	; 0xffffffed
 30c:	13490035 	movtne	r0, #36917	; 0x9035
 310:	04060000 	streq	r0, [r6], #-0
 314:	0b0e0301 	bleq	380f20 <shift+0x380f20>
 318:	3a13490b 	bcc	4d274c <shift+0x4d274c>
 31c:	010b3b0b 	tsteq	fp, fp, lsl #22
 320:	07000013 	smladeq	r0, r3, r0, r0
 324:	0e030028 	cdpeq	0, 0, cr0, cr3, cr8, {1}
 328:	00000b1c 	andeq	r0, r0, ip, lsl fp
 32c:	03011308 	movweq	r1, #4872	; 0x1308
 330:	3a0b0b0e 	bcc	2c2f70 <shift+0x2c2f70>
 334:	010b3b0b 	tsteq	fp, fp, lsl #22
 338:	09000013 	stmdbeq	r0, {r0, r1, r4}
 33c:	0e03000d 	cdpeq	0, 0, cr0, cr3, cr13, {0}
 340:	0b3b0b3a 	bleq	ec3030 <shift+0xec3030>
 344:	0b381349 	bleq	e05070 <shift+0xe05070>
 348:	010a0000 	mrseq	r0, (UNDEF: 10)
 34c:	01134901 	tsteq	r3, r1, lsl #18
 350:	0b000013 	bleq	3a4 <shift+0x3a4>
 354:	13490021 	movtne	r0, #36897	; 0x9021
 358:	00000b2f 	andeq	r0, r0, pc, lsr #22
 35c:	3f012e0c 	svccc	0x00012e0c
 360:	3a0e0319 	bcc	380fcc <shift+0x380fcc>
 364:	270b3b0b 	strcs	r3, [fp, -fp, lsl #22]
 368:	12011119 	andne	r1, r1, #1073741830	; 0x40000006
 36c:	96184006 	ldrls	r4, [r8], -r6
 370:	13011942 	movwne	r1, #6466	; 0x1942
 374:	050d0000 	streq	r0, [sp, #-0]
 378:	3a080300 	bcc	200f80 <shift+0x200f80>
 37c:	490b3b0b 	stmdbmi	fp, {r0, r1, r3, r8, r9, fp, ip, sp}
 380:	00180213 	andseq	r0, r8, r3, lsl r2
 384:	000f0e00 	andeq	r0, pc, r0, lsl #28
 388:	13490b0b 	movtne	r0, #39691	; 0x9b0b
 38c:	340f0000 	strcc	r0, [pc], #-0	; 394 <shift+0x394>
 390:	3a0e0300 	bcc	380f98 <shift+0x380f98>
 394:	490b3b0b 	stmdbmi	fp, {r0, r1, r3, r8, r9, fp, ip, sp}
 398:	00180213 	andseq	r0, r8, r3, lsl r2
 39c:	00341000 	eorseq	r1, r4, r0
 3a0:	0b3a0803 	bleq	e823b4 <shift+0xe823b4>
 3a4:	13490b3b 	movtne	r0, #39739	; 0x9b3b
 3a8:	2e110000 	cdpcs	0, 1, cr0, cr1, cr0, {0}
 3ac:	03193f01 	tsteq	r9, #1, 30
 3b0:	3b0b3a0e 	blcc	2cebf0 <shift+0x2cebf0>
 3b4:	4919270b 	ldmdbmi	r9, {r0, r1, r3, r8, r9, sl, sp}
 3b8:	12011113 	andne	r1, r1, #-1073741820	; 0xc0000004
 3bc:	96184006 	ldrls	r4, [r8], -r6
 3c0:	13011942 	movwne	r1, #6466	; 0x1942
 3c4:	34120000 	ldrcc	r0, [r2], #-0
 3c8:	3a080300 	bcc	200fd0 <shift+0x200fd0>
 3cc:	490b3b0b 	stmdbmi	fp, {r0, r1, r3, r8, r9, fp, ip, sp}
 3d0:	00180213 	andseq	r0, r8, r3, lsl r2
 3d4:	012e1300 			; <UNDEFINED> instruction: 0x012e1300
 3d8:	0b3a0e03 	bleq	e83bec <shift+0xe83bec>
 3dc:	13490b3b 	movtne	r0, #39739	; 0x9b3b
 3e0:	06120111 			; <UNDEFINED> instruction: 0x06120111
 3e4:	42961840 	addsmi	r1, r6, #64, 16	; 0x400000
 3e8:	00130119 	andseq	r0, r3, r9, lsl r1
 3ec:	002e1400 	eoreq	r1, lr, r0, lsl #8
 3f0:	0b3a0e03 	bleq	e83c04 <shift+0xe83c04>
 3f4:	01110b3b 	tsteq	r1, fp, lsr fp
 3f8:	18400612 	stmdane	r0, {r1, r4, r9, sl}^
 3fc:	00194296 	mulseq	r9, r6, r2
 400:	012e1500 			; <UNDEFINED> instruction: 0x012e1500
 404:	0b3a0e03 	bleq	e83c18 <shift+0xe83c18>
 408:	19270b3b 	stmdbne	r7!, {r0, r1, r3, r4, r5, r8, r9, fp}
 40c:	06120111 			; <UNDEFINED> instruction: 0x06120111
 410:	42971840 	addsmi	r1, r7, #64, 16	; 0x400000
 414:	00130119 	andseq	r0, r3, r9, lsl r1
 418:	00051600 	andeq	r1, r5, r0, lsl #12
 41c:	0b3a0e03 	bleq	e83c30 <shift+0xe83c30>
 420:	13490b3b 	movtne	r0, #39739	; 0x9b3b
 424:	00001802 	andeq	r1, r0, r2, lsl #16
 428:	03012e17 	movweq	r2, #7703	; 0x1e17
 42c:	3b0b3a0e 	blcc	2cec6c <shift+0x2cec6c>
 430:	1119270b 	tstne	r9, fp, lsl #14
 434:	40061201 	andmi	r1, r6, r1, lsl #4
 438:	19429718 	stmdbne	r2, {r3, r4, r8, r9, sl, ip, pc}^
 43c:	01000000 	mrseq	r0, (UNDEF: 0)
 440:	0e250111 	mcreq	1, 1, r0, cr5, cr1, {0}
 444:	0e030b13 	vmoveq.32	d3[0], r0
 448:	01110e1b 	tsteq	r1, fp, lsl lr
 44c:	17100612 			; <UNDEFINED> instruction: 0x17100612
 450:	24020000 	strcs	r0, [r2], #-0
 454:	3e0b0b00 	vmlacc.f64	d0, d11, d0
 458:	000e030b 	andeq	r0, lr, fp, lsl #6
 45c:	00240300 	eoreq	r0, r4, r0, lsl #6
 460:	0b3e0b0b 	bleq	f83094 <shift+0xf83094>
 464:	00000803 	andeq	r0, r0, r3, lsl #16
 468:	03001604 	movweq	r1, #1540	; 0x604
 46c:	3b0b3a0e 	blcc	2cecac <shift+0x2cecac>
 470:	0013490b 	andseq	r4, r3, fp, lsl #18
 474:	00350500 	eorseq	r0, r5, r0, lsl #10
 478:	00001349 	andeq	r1, r0, r9, asr #6
 47c:	3f012e06 	svccc	0x00012e06
 480:	3a0e0319 	bcc	3810ec <shift+0x3810ec>
 484:	490b3b0b 	stmdbmi	fp, {r0, r1, r3, r8, r9, fp, ip, sp}
 488:	12011113 	andne	r1, r1, #-1073741820	; 0xc0000004
 48c:	96184006 	ldrls	r4, [r8], -r6
 490:	13011942 	movwne	r1, #6466	; 0x1942
 494:	34070000 	strcc	r0, [r7], #-0
 498:	3a080300 	bcc	2010a0 <shift+0x2010a0>
 49c:	490b3b0b 	stmdbmi	fp, {r0, r1, r3, r8, r9, fp, ip, sp}
 4a0:	00180213 	andseq	r0, r8, r3, lsl r2
 4a4:	012e0800 			; <UNDEFINED> instruction: 0x012e0800
 4a8:	0e03193f 			; <UNDEFINED> instruction: 0x0e03193f
 4ac:	0b3b0b3a 	bleq	ec319c <shift+0xec319c>
 4b0:	01111927 	tsteq	r1, r7, lsr #18
 4b4:	18400612 	stmdane	r0, {r1, r4, r9, sl}^
 4b8:	00194297 	mulseq	r9, r7, r2
 4bc:	00050900 	andeq	r0, r5, r0, lsl #18
 4c0:	0b3a0803 	bleq	e824d4 <shift+0xe824d4>
 4c4:	13490b3b 	movtne	r0, #39739	; 0x9b3b
 4c8:	00001802 	andeq	r1, r0, r2, lsl #16
 4cc:	01110100 	tsteq	r1, r0, lsl #2
 4d0:	0b130e25 	bleq	4c3d6c <shift+0x4c3d6c>
 4d4:	0e1b0e03 	cdpeq	14, 1, cr0, cr11, cr3, {0}
 4d8:	06120111 			; <UNDEFINED> instruction: 0x06120111
 4dc:	00001710 	andeq	r1, r0, r0, lsl r7
 4e0:	0b002402 	bleq	94f0 <shift+0x94f0>
 4e4:	030b3e0b 	movweq	r3, #48651	; 0xbe0b
 4e8:	0300000e 	movweq	r0, #14
 4ec:	0e030016 	mcreq	0, 0, r0, cr3, cr6, {0}
 4f0:	0b3b0b3a 	bleq	ec31e0 <shift+0xec31e0>
 4f4:	00001349 	andeq	r1, r0, r9, asr #6
 4f8:	0b000f04 	bleq	4110 <shift+0x4110>
 4fc:	0013490b 	andseq	r4, r3, fp, lsl #18
 500:	00260500 	eoreq	r0, r6, r0, lsl #10
 504:	00001349 	andeq	r1, r0, r9, asr #6
 508:	49010106 	stmdbmi	r1, {r1, r2, r8}
 50c:	00130113 	andseq	r0, r3, r3, lsl r1
 510:	00210700 	eoreq	r0, r1, r0, lsl #14
 514:	0b2f1349 	bleq	bc5240 <shift+0xbc5240>
 518:	34080000 	strcc	r0, [r8], #-0
 51c:	3a0e0300 	bcc	381124 <shift+0x381124>
 520:	490b3b0b 	stmdbmi	fp, {r0, r1, r3, r8, r9, fp, ip, sp}
 524:	02193f13 	andseq	r3, r9, #19, 30	; 0x4c
 528:	09000018 	stmdbeq	r0, {r3, r4}
 52c:	193f002e 	ldmdbne	pc!, {r1, r2, r3, r5}	; <UNPREDICTABLE>
 530:	0b3a0e03 	bleq	e83d44 <shift+0xe83d44>
 534:	19270b3b 	stmdbne	r7!, {r0, r1, r3, r4, r5, r8, r9, fp}
 538:	01111349 	tsteq	r1, r9, asr #6
 53c:	18400612 	stmdane	r0, {r1, r4, r9, sl}^
 540:	00194296 	mulseq	r9, r6, r2
 544:	00240a00 	eoreq	r0, r4, r0, lsl #20
 548:	0b3e0b0b 	bleq	f8317c <shift+0xf8317c>
 54c:	00000803 	andeq	r0, r0, r3, lsl #16
 550:	3f012e0b 	svccc	0x00012e0b
 554:	3a0e0319 	bcc	3811c0 <shift+0x3811c0>
 558:	270b3b0b 	strcs	r3, [fp, -fp, lsl #22]
 55c:	11134919 	tstne	r3, r9, lsl r9
 560:	40061201 	andmi	r1, r6, r1, lsl #4
 564:	19429618 	stmdbne	r2, {r3, r4, r9, sl, ip, pc}^
 568:	00001301 	andeq	r1, r0, r1, lsl #6
 56c:	0300050c 	movweq	r0, #1292	; 0x50c
 570:	3b0b3a08 	blcc	2ced98 <shift+0x2ced98>
 574:	0213490b 	andseq	r4, r3, #180224	; 0x2c000
 578:	0d000018 	stceq	0, cr0, [r0, #-96]	; 0xffffffa0
 57c:	00000018 	andeq	r0, r0, r8, lsl r0
 580:	0300340e 	movweq	r3, #1038	; 0x40e
 584:	3b0b3a08 	blcc	2cedac <shift+0x2cedac>
 588:	0213490b 	andseq	r4, r3, #180224	; 0x2c000
 58c:	0f000018 	svceq	0x00000018
 590:	0e03012e 	adfeqsp	f0, f3, #0.5
 594:	0b3b0b3a 	bleq	ec3284 <shift+0xec3284>
 598:	13491927 	movtne	r1, #39207	; 0x9927
 59c:	06120111 			; <UNDEFINED> instruction: 0x06120111
 5a0:	42961840 	addsmi	r1, r6, #64, 16	; 0x400000
 5a4:	00130119 	andseq	r0, r3, r9, lsl r1
 5a8:	00341000 	eorseq	r1, r4, r0
 5ac:	0b3a0e03 	bleq	e83dc0 <shift+0xe83dc0>
 5b0:	13490b3b 	movtne	r0, #39739	; 0x9b3b
 5b4:	00001802 	andeq	r1, r0, r2, lsl #16
 5b8:	03000511 	movweq	r0, #1297	; 0x511
 5bc:	3b0b3a0e 	blcc	2cedfc <shift+0x2cedfc>
 5c0:	0213490b 	andseq	r4, r3, #180224	; 0x2c000
 5c4:	12000018 	andne	r0, r0, #24
 5c8:	0e03012e 	adfeqsp	f0, f3, #0.5
 5cc:	0b3b0b3a 	bleq	ec32bc <shift+0xec32bc>
 5d0:	13491927 	movtne	r1, #39207	; 0x9927
 5d4:	06120111 			; <UNDEFINED> instruction: 0x06120111
 5d8:	42961840 	addsmi	r1, r6, #64, 16	; 0x400000
 5dc:	00000019 	andeq	r0, r0, r9, lsl r0
 5e0:	25011101 	strcs	r1, [r1, #-257]	; 0xfffffeff
 5e4:	030b130e 	movweq	r1, #45838	; 0xb30e
 5e8:	110e1b0e 	tstne	lr, lr, lsl #22
 5ec:	10061201 	andne	r1, r6, r1, lsl #4
 5f0:	02000017 	andeq	r0, r0, #23
 5f4:	0b0b0024 	bleq	2c068c <shift+0x2c068c>
 5f8:	0e030b3e 	vmoveq.16	d3[0], r0
 5fc:	01030000 	mrseq	r0, (UNDEF: 3)
 600:	01134901 	tsteq	r3, r1, lsl #18
 604:	04000013 	streq	r0, [r0], #-19	; 0xffffffed
 608:	13490021 	movtne	r0, #36897	; 0x9021
 60c:	00000b2f 	andeq	r0, r0, pc, lsr #22
 610:	03003405 	movweq	r3, #1029	; 0x405
 614:	3b0b3a0e 	blcc	2cee54 <shift+0x2cee54>
 618:	3f13490b 	svccc	0x0013490b
 61c:	00180219 	andseq	r0, r8, r9, lsl r2
 620:	012e0600 			; <UNDEFINED> instruction: 0x012e0600
 624:	0e03193f 			; <UNDEFINED> instruction: 0x0e03193f
 628:	0b3b0b3a 	bleq	ec3318 <shift+0xec3318>
 62c:	13491927 	movtne	r1, #39207	; 0x9927
 630:	06120111 			; <UNDEFINED> instruction: 0x06120111
 634:	42961840 	addsmi	r1, r6, #64, 16	; 0x400000
 638:	00130119 	andseq	r0, r3, r9, lsl r1
 63c:	00340700 	eorseq	r0, r4, r0, lsl #14
 640:	0b3a0803 	bleq	e82654 <shift+0xe82654>
 644:	13490b3b 	movtne	r0, #39739	; 0x9b3b
 648:	00001802 	andeq	r1, r0, r2, lsl #16
 64c:	49002608 	stmdbmi	r0, {r3, r9, sl, sp}
 650:	09000013 	stmdbeq	r0, {r0, r1, r4}
 654:	0b0b0024 	bleq	2c06ec <shift+0x2c06ec>
 658:	08030b3e 	stmdaeq	r3, {r1, r2, r3, r4, r5, r8, r9, fp}
 65c:	050a0000 	streq	r0, [sl, #-0]
 660:	3a080300 	bcc	201268 <shift+0x201268>
 664:	490b3b0b 	stmdbmi	fp, {r0, r1, r3, r8, r9, fp, ip, sp}
 668:	00180213 	andseq	r0, r8, r3, lsl r2
 66c:	000f0b00 	andeq	r0, pc, r0, lsl #22
 670:	13490b0b 	movtne	r0, #39691	; 0x9b0b
 674:	050c0000 	streq	r0, [ip, #-0]
 678:	3a0e0300 	bcc	381280 <shift+0x381280>
 67c:	490b3b0b 	stmdbmi	fp, {r0, r1, r3, r8, r9, fp, ip, sp}
 680:	00180213 	andseq	r0, r8, r3, lsl r2
 684:	00340d00 	eorseq	r0, r4, r0, lsl #26
 688:	0b3a0e03 	bleq	e83e9c <shift+0xe83e9c>
 68c:	13490b3b 	movtne	r0, #39739	; 0x9b3b
 690:	00001802 	andeq	r1, r0, r2, lsl #16
 694:	03012e0e 	movweq	r2, #7694	; 0x1e0e
 698:	3b0b3a0e 	blcc	2ceed8 <shift+0x2ceed8>
 69c:	4919270b 	ldmdbmi	r9, {r0, r1, r3, r8, r9, sl, sp}
 6a0:	12011113 	andne	r1, r1, #-1073741820	; 0xc0000004
 6a4:	97184006 	ldrls	r4, [r8, -r6]
 6a8:	00001942 	andeq	r1, r0, r2, asr #18
 6ac:	00110100 	andseq	r0, r1, r0, lsl #2
 6b0:	01110610 	tsteq	r1, r0, lsl r6
 6b4:	08030112 	stmdaeq	r3, {r1, r4, r8}
 6b8:	0825081b 	stmdaeq	r5!, {r0, r1, r3, r4, fp}
 6bc:	00000513 	andeq	r0, r0, r3, lsl r5
 6c0:	00110100 	andseq	r0, r1, r0, lsl #2
 6c4:	01110610 	tsteq	r1, r0, lsl r6
 6c8:	08030112 	stmdaeq	r3, {r1, r4, r8}
 6cc:	0825081b 	stmdaeq	r5!, {r0, r1, r3, r4, fp}
 6d0:	00000513 	andeq	r0, r0, r3, lsl r5
	...

Disassembly of section .debug_aranges:

00000000 <.debug_aranges>:
   0:	0000001c 	andeq	r0, r0, ip, lsl r0
   4:	00000002 	andeq	r0, r0, r2
   8:	00040000 	andeq	r0, r4, r0
   c:	00000000 	andeq	r0, r0, r0
  10:	80100000 	andshi	r0, r0, r0
  14:	0000003c 	andeq	r0, r0, ip, lsr r0
	...
  20:	0000001c 	andeq	r0, r0, ip, lsl r0
  24:	00770002 	rsbseq	r0, r7, r2
  28:	00040000 	andeq	r0, r4, r0
  2c:	00000000 	andeq	r0, r0, r0
  30:	8010003c 	andshi	r0, r0, ip, lsr r0
  34:	00000594 	muleq	r0, r4, r5
	...
  40:	0000001c 	andeq	r0, r0, ip, lsl r0
  44:	05320002 	ldreq	r0, [r2, #-2]!
  48:	00040000 	andeq	r0, r4, r0
  4c:	00000000 	andeq	r0, r0, r0
  50:	801005d0 			; <UNDEFINED> instruction: 0x801005d0
  54:	00000176 	andeq	r0, r0, r6, ror r1
	...
  60:	0000001c 	andeq	r0, r0, ip, lsl r0
  64:	074d0002 	strbeq	r0, [sp, -r2]
  68:	00040000 	andeq	r0, r4, r0
  6c:	00000000 	andeq	r0, r0, r0
  70:	80100746 	andshi	r0, r0, r6, asr #14
  74:	000002da 	ldrdeq	r0, [r0], -sl
	...
  80:	0000001c 	andeq	r0, r0, ip, lsl r0
  84:	0b3a0002 	bleq	e80094 <shift+0xe80094>
  88:	00040000 	andeq	r0, r4, r0
  8c:	00000000 	andeq	r0, r0, r0
  90:	80100a20 	andshi	r0, r0, r0, lsr #20
  94:	0000008a 	andeq	r0, r0, sl, lsl #1
	...
  a0:	0000001c 	andeq	r0, r0, ip, lsl r0
  a4:	0c1d0002 	ldceq	0, cr0, [sp], {2}
  a8:	00040000 	andeq	r0, r4, r0
  ac:	00000000 	andeq	r0, r0, r0
  b0:	80100aac 	andshi	r0, r0, ip, lsr #21
  b4:	000003ca 	andeq	r0, r0, sl, asr #7
	...
  c0:	0000001c 	andeq	r0, r0, ip, lsl r0
  c4:	0e3a0002 	cdpeq	0, 3, cr0, cr10, cr2, {0}
  c8:	00040000 	andeq	r0, r4, r0
  cc:	00000000 	andeq	r0, r0, r0
  d0:	80100e78 	andshi	r0, r0, r8, ror lr
  d4:	00000222 	andeq	r0, r0, r2, lsr #4
	...
  e0:	0000001c 	andeq	r0, r0, ip, lsl r0
  e4:	102d0002 	eorne	r0, sp, r2
  e8:	00040000 	andeq	r0, r4, r0
  ec:	00000000 	andeq	r0, r0, r0
  f0:	801010a0 	andshi	r1, r0, r0, lsr #1
  f4:	00000276 	andeq	r0, r0, r6, ror r2
	...
 100:	0000001c 	andeq	r0, r0, ip, lsl r0
 104:	11ec0002 	mvnne	r0, r2
 108:	00040000 	andeq	r0, r4, r0
 10c:	00000000 	andeq	r0, r0, r0
 110:	80101318 	andshi	r1, r0, r8, lsl r3
 114:	0000000c 	andeq	r0, r0, ip
	...

Disassembly of section .debug_str:

00000000 <.debug_str>:
   0:	49676174 	stmdbmi	r7!, {r2, r4, r5, r6, r8, sp, lr}^
   4:	72546332 	subsvc	r6, r4, #-939524096	; 0xc8000000
   8:	66736e61 	ldrbtvs	r6, [r3], -r1, ror #28
   c:	69007265 	stmdbvs	r0, {r0, r2, r5, r6, r9, ip, sp, lr}
  10:	695f6332 	ldmdbvs	pc, {r1, r4, r5, r8, r9, sp, lr}^	; <UNPREDICTABLE>
  14:	0074696e 	rsbseq	r6, r4, lr, ror #18
  18:	6c536375 	mrrcvs	3, 7, r6, r3, cr5
  1c:	41657661 	cmnmi	r5, r1, ror #12
  20:	65726464 	ldrbvs	r6, [r2, #-1124]!	; 0xfffffb9c
  24:	74007373 	strvc	r7, [r0], #-883	; 0xfffffc8d
  28:	65526761 	ldrbvs	r6, [r2, #-1889]	; 0xfffff89f
  2c:	74736967 	ldrbtvc	r6, [r3], #-2407	; 0xfffff699
  30:	00737265 	rsbseq	r7, r3, r5, ror #4
  34:	5f633269 	svcpl	0x00633269
  38:	72617473 	rsbvc	r7, r1, #1929379840	; 0x73000000
  3c:	6c750074 	ldclvs	0, cr0, [r5], #-464	; 0xfffffe30
  40:	6f63704f 	svcvs	0x0063704f
  44:	75006564 	strvc	r6, [r0, #-1380]	; 0xfffffa9c
  48:	6d695473 	cfstrdvs	mvd5, [r9, #-460]!	; 0xfffffe34
  4c:	74756f65 	ldrbtvc	r6, [r5], #-3941	; 0xfffff09b
  50:	43324900 	teqmi	r2, #0, 18
  54:	4e4f445f 	mcrmi	4, 2, r4, cr15, cr15, {2}
  58:	4948544f 	stmdbmi	r8, {r0, r1, r2, r3, r6, sl, ip, lr}^
  5c:	425f474e 	subsmi	r4, pc, #20447232	; 0x1380000
  60:	004c4c55 	subeq	r4, ip, r5, asr ip
  64:	65736552 	ldrbvs	r6, [r3, #-1362]!	; 0xfffffaae
  68:	64657672 	strbtvs	r7, [r5], #-1650	; 0xfffff98e
  6c:	52444149 	subpl	r4, r4, #1073741842	; 0x40000012
  70:	64646100 	strbtvs	r6, [r4], #-256	; 0xffffff00
  74:	6e750072 	mrcvs	0, 3, r0, cr5, cr2, {3}
  78:	6e676973 			; <UNDEFINED> instruction: 0x6e676973
  7c:	63206465 			; <UNDEFINED> instruction: 0x63206465
  80:	00726168 	rsbseq	r6, r2, r8, ror #2
  84:	5f633269 	svcpl	0x00633269
  88:	74697277 	strbtvc	r7, [r9], #-631	; 0xfffffd89
  8c:	6e6f5f65 	cdpvs	15, 6, cr5, cr15, cr5, {3}
  90:	79625f65 	stmdbvc	r2!, {r0, r2, r5, r6, r8, r9, sl, fp, ip, lr}^
  94:	49006574 	stmdbmi	r0, {r2, r4, r5, r6, r8, sl, sp, lr}
  98:	525f4332 	subspl	r4, pc, #-939524096	; 0xc8000000
  9c:	53494745 	movtpl	r4, #38725	; 0x9745
  a0:	53524554 	cmppl	r2, #84, 10	; 0x15000000
  a4:	6f687300 	svcvs	0x00687300
  a8:	75207472 	strvc	r7, [r0, #-1138]!	; 0xfffffb8e
  ac:	6769736e 	strbvs	r7, [r9, -lr, ror #6]!
  b0:	2064656e 	rsbcs	r6, r4, lr, ror #10
  b4:	00746e69 	rsbseq	r6, r4, r9, ror #28
  b8:	66756270 			; <UNDEFINED> instruction: 0x66756270
  bc:	6f682f00 	svcvs	0x00682f00
  c0:	622f656d 	eorvs	r6, pc, #457179136	; 0x1b400000
  c4:	2f6b6f6f 	svccs	0x006b6f6f
  c8:	61303031 	teqvs	r0, r1, lsr r0
  cc:	695f6b73 	ldmdbvs	pc, {r0, r1, r4, r5, r6, r8, r9, fp, sp, lr}^	; <UNPREDICTABLE>
  d0:	7536786d 	ldrvc	r7, [r6, #-2157]!	; 0xfffff793
  d4:	732d6c6c 			; <UNDEFINED> instruction: 0x732d6c6c
  d8:	6e2f6b64 	vnmulvs.f64	d6, d15, d20
  dc:	2f736f6f 	svccs	0x00736f6f
  e0:	5f323030 	svcpl	0x00323030
  e4:	6d617865 	stclvs	8, cr7, [r1, #-404]!	; 0xfffffe6c
  e8:	5f656c70 	svcpl	0x00656c70
  ec:	5f633269 	svcpl	0x00633269
  f0:	32337061 	eorscc	r7, r3, #97	; 0x61
  f4:	5f633631 	svcpl	0x00633631
  f8:	6e697270 	mcrvs	2, 3, r7, cr9, cr0, {3}
  fc:	735f6674 	cmpvc	pc, #116, 12	; 0x7400000
 100:	00776f68 	rsbseq	r6, r7, r8, ror #30
 104:	32496e65 	subcc	r6, r9, #1616	; 0x650
 108:	504f5f43 	subpl	r5, pc, r3, asr #30
 10c:	45444f43 	strbmi	r4, [r4, #-3907]	; 0xfffff0bd
 110:	63326900 	teqvs	r2, #0, 18
 114:	6972775f 	ldmdbvs	r2!, {r0, r1, r2, r3, r4, r6, r8, r9, sl, ip, sp, lr}^
 118:	49006574 	stmdbmi	r0, {r2, r4, r5, r6, r8, sl, sp, lr}
 11c:	575f4332 	smmlarpl	pc, r2, r3, r4	; <UNPREDICTABLE>
 120:	45544952 	ldrbmi	r4, [r4, #-2386]	; 0xfffff6ae
 124:	43324900 	teqmi	r2, #0, 18
 128:	4145525f 	cmpmi	r5, pc, asr r2
 12c:	32690044 	rsbcc	r0, r9, #68	; 0x44
 130:	00632e63 	rsbeq	r2, r3, r3, ror #28
 134:	65736552 	ldrbvs	r6, [r3, #-1362]!	; 0xfffffaae
 138:	64657672 	strbtvs	r7, [r5], #-1650	; 0xfffff98e
 13c:	52433249 	subpl	r3, r3, #-1879048188	; 0x90000004
 140:	43324900 	teqmi	r2, #0, 18
 144:	5341425f 	movtpl	r4, #4703	; 0x125f
 148:	32690045 	rsbcc	r0, r9, #69	; 0x45
 14c:	65725f63 	ldrbvs	r5, [r2, #-3939]!	; 0xfffff09d
 150:	6f5f6461 	svcvs	0x005f6461
 154:	625f656e 	subsvs	r6, pc, #461373440	; 0x1b800000
 158:	00657479 	rsbeq	r7, r5, r9, ror r4
 15c:	65526c75 	ldrbvs	r6, [r2, #-3189]	; 0xfffff38b
 160:	32490074 	subcc	r0, r9, #116	; 0x74
 164:	52545f43 	subspl	r5, r4, #268	; 0x10c
 168:	46534e41 	ldrbmi	r4, [r3], -r1, asr #28
 16c:	75005245 	strvc	r5, [r0, #-581]	; 0xfffffdbb
 170:	6275536c 	rsbsvs	r5, r5, #108, 6	; 0xb0000001
 174:	72646441 	rsbvc	r6, r4, #1090519040	; 0x41000000
 178:	00737365 	rsbseq	r7, r3, r5, ror #6
 17c:	676e6f6c 	strbvs	r6, [lr, -ip, ror #30]!
 180:	6e6f6c20 	cdpvs	12, 6, cr6, cr15, cr0, {1}
 184:	6e752067 	cdpvs	0, 7, cr2, cr5, cr7, {3}
 188:	6e676973 			; <UNDEFINED> instruction: 0x6e676973
 18c:	69206465 	stmdbvs	r0!, {r0, r2, r5, r6, sl, sp, lr}
 190:	7500746e 	strvc	r7, [r0, #-1134]	; 0xfffffb92
 194:	38746e69 	ldmdacc	r4!, {r0, r3, r5, r6, r9, sl, fp, sp, lr}^
 198:	4700745f 	smlsdmi	r0, pc, r4, r7	; <UNPREDICTABLE>
 19c:	4320554e 			; <UNDEFINED> instruction: 0x4320554e
 1a0:	36203131 			; <UNDEFINED> instruction: 0x36203131
 1a4:	312e322e 			; <UNDEFINED> instruction: 0x312e322e
 1a8:	31303220 	teqcc	r0, r0, lsr #4
 1ac:	31303136 	teqcc	r0, r6, lsr r1
 1b0:	6d2d2036 	stcvs	0, cr2, [sp, #-216]!	; 0xffffff28
 1b4:	68637261 	stmdavs	r3!, {r0, r5, r6, r9, ip, sp, lr}^
 1b8:	6d72613d 	ldfvse	f6, [r2, #-244]!	; 0xffffff0c
 1bc:	612d3776 			; <UNDEFINED> instruction: 0x612d3776
 1c0:	746d2d20 	strbtvc	r2, [sp], #-3360	; 0xfffff2e0
 1c4:	3d656e75 	stclcc	14, cr6, [r5, #-468]!	; 0xfffffe2c
 1c8:	74726f63 	ldrbtvc	r6, [r2], #-3939	; 0xfffff09d
 1cc:	612d7865 			; <UNDEFINED> instruction: 0x612d7865
 1d0:	6d2d2039 	stcvs	0, cr2, [sp, #-228]!	; 0xffffff1c
 1d4:	616f6c66 	cmnvs	pc, r6, ror #24
 1d8:	62612d74 	rsbvs	r2, r1, #116, 26	; 0x1d00
 1dc:	61683d69 	cmnvs	r8, r9, ror #26
 1e0:	2d206472 	cfstrscs	mvf6, [r0, #-456]!	; 0xfffffe38
 1e4:	7570666d 	ldrbvc	r6, [r0, #-1645]!	; 0xfffff993
 1e8:	7066763d 	rsbvc	r7, r6, sp, lsr r6
 1ec:	642d3376 	strtvs	r3, [sp], #-886	; 0xfffffc8a
 1f0:	2d203631 	stccs	6, cr3, [r0, #-196]!	; 0xffffff3c
 1f4:	7568746d 	strbvc	r7, [r8, #-1133]!	; 0xfffffb93
 1f8:	2d20626d 	sfmcs	f6, 4, [r0, #-436]!	; 0xfffffe4c
 1fc:	736c746d 	cmnvc	ip, #1828716544	; 0x6d000000
 200:	6169642d 	cmnvs	r9, sp, lsr #8
 204:	7463656c 	strbtvc	r6, [r3], #-1388	; 0xfffffa94
 208:	756e673d 	strbvc	r6, [lr, #-1853]!	; 0xfffff8c3
 20c:	00672d20 	rsbeq	r2, r7, r0, lsr #26
 210:	5f633269 	svcpl	0x00633269
 214:	74736572 	ldrbtvc	r6, [r3], #-1394	; 0xfffffa8e
 218:	00747261 	rsbseq	r7, r4, r1, ror #4
 21c:	74697277 	strbtvc	r7, [r9], #-631	; 0xfffffd89
 220:	74616465 	strbtvc	r6, [r1], #-1125	; 0xfffffb9b
 224:	69730061 	ldmdbvs	r3!, {r0, r5, r6}^
 228:	7974657a 	ldmdbvc	r4!, {r1, r3, r4, r5, r6, r8, sl, sp, lr}^
 22c:	6c006570 	cfstr32vs	mvfx6, [r0], {112}	; 0x70
 230:	20676e6f 	rsbcs	r6, r7, pc, ror #28
 234:	676e6f6c 	strbvs	r6, [lr, -ip, ror #30]!
 238:	746e6920 	strbtvc	r6, [lr], #-2336	; 0xfffff6e0
 23c:	4c6c7500 	cfstr64mi	mvdx7, [ip], #-0
 240:	68746e65 	ldmdavs	r4!, {r0, r2, r5, r6, r9, sl, fp, sp, lr}^
 244:	63326900 	teqvs	r2, #0, 18
 248:	6568635f 	strbvs	r6, [r8, #-863]!	; 0xfffffca1
 24c:	73006b63 	movwvc	r6, #2915	; 0xb63
 250:	74726f68 	ldrbtvc	r6, [r2], #-3944	; 0xfffff098
 254:	746e6920 	strbtvc	r6, [lr], #-2336	; 0xfffff6e0
 258:	44324900 	ldrtmi	r4, [r2], #-2304	; 0xfffff700
 25c:	69750052 	ldmdbvs	r5!, {r1, r4, r6}^
 260:	3631746e 	ldrtcc	r7, [r1], -lr, ror #8
 264:	7500745f 	strvc	r7, [r0, #-1119]	; 0xfffffba1
 268:	616c5363 	cmnvs	ip, r3, ror #6
 26c:	64416576 	strbvs	r6, [r1], #-1398	; 0xfffffa8a
 270:	64007264 	strvs	r7, [r0], #-612	; 0xfffffd9c
 274:	796d6d75 	stmdbvc	sp!, {r0, r2, r4, r5, r6, r8, sl, fp, sp, lr}^
 278:	63326900 	teqvs	r2, #0, 18
 27c:	6165725f 	cmnvs	r5, pc, asr r2
 280:	69750064 	ldmdbvs	r5!, {r2, r5, r6}^
 284:	3233746e 	eorscc	r7, r3, #1845493760	; 0x6e000000
 288:	6900745f 	stmdbvs	r0, {r0, r1, r2, r3, r4, r6, sl, ip, sp, lr}
 28c:	745f6332 	ldrbvc	r6, [pc], #-818	; 294 <shift+0x294>
 290:	736e6172 	cmnvc	lr, #-2147483620	; 0x8000001c
 294:	00726566 	rsbseq	r6, r2, r6, ror #10
 298:	5f633269 	svcpl	0x00633269
 29c:	706f7473 	rsbvc	r7, pc, r3, ror r4	; <UNPREDICTABLE>
 2a0:	536c7500 	cmnpl	ip, #0, 10
 2a4:	64416275 	strbvs	r6, [r1], #-629	; 0xfffffd8b
 2a8:	73657264 	cmnvc	r5, #100, 4	; 0x40000006
 2ac:	6e654c73 	mcrvs	12, 3, r4, cr5, cr3, {3}
 2b0:	73655200 	cmnvc	r5, #0, 4
 2b4:	65767265 	ldrbvs	r7, [r6, #-613]!	; 0xfffffd9b
 2b8:	53324964 	teqpl	r2, #100, 18	; 0x190000
 2bc:	65520052 	ldrbvs	r0, [r2, #-82]	; 0xffffffae
 2c0:	76726573 			; <UNDEFINED> instruction: 0x76726573
 2c4:	46496465 	strbmi	r6, [r9], -r5, ror #8
 2c8:	55005244 	strpl	r5, [r0, #-580]	; 0xfffffdbc
 2cc:	00325253 	eorseq	r5, r2, r3, asr r2
 2d0:	43534555 	cmpmi	r3, #356515840	; 0x15400000
 2d4:	67697300 	strbvs	r7, [r9, -r0, lsl #6]!
 2d8:	006d756e 	rsbeq	r7, sp, lr, ror #10
 2dc:	4d495455 	cfstrdmi	mvd5, [r9, #-340]	; 0xfffffeac
 2e0:	74654700 	strbtvc	r4, [r5], #-1792	; 0xfffff900
 2e4:	72616843 	rsbvc	r6, r1, #4390912	; 0x430000
 2e8:	4d4f4900 	vstrmi.16	s9, [pc, #-0]	; 2f0 <shift+0x2f0>	; <UNPREDICTABLE>
 2ec:	5f435855 	svcpl	0x00435855
 2f0:	4d5f5753 	ldclmi	7, cr5, [pc, #-332]	; 1ac <shift+0x1ac>
 2f4:	435f5855 	cmpmi	pc, #5570560	; 0x550000
 2f8:	505f4c54 	subspl	r4, pc, r4, asr ip	; <UNPREDICTABLE>
 2fc:	555f4441 	ldrbpl	r4, [pc, #-1089]	; fffffec3 <__bss_end+0x7fefe92b>
 300:	31545241 	cmpcc	r4, r1, asr #4
 304:	5f58545f 	svcpl	0x0058545f
 308:	41544144 	cmpmi	r4, r4, asr #2
 30c:	52425500 	subpl	r5, r2, #0, 10
 310:	45520043 	ldrbmi	r0, [r2, #-67]	; 0xffffffbd
 314:	56524553 			; <UNDEFINED> instruction: 0x56524553
 318:	305f4445 	subscc	r4, pc, r5, asr #8
 31c:	58525500 	ldmdapl	r2, {r8, sl, ip, lr}^
 320:	46550044 	ldrbmi	r0, [r5], -r4, asr #32
 324:	55005243 	strpl	r5, [r0, #-579]	; 0xfffffdbd
 328:	00445854 	subeq	r5, r4, r4, asr r8
 32c:	524d4255 	subpl	r4, sp, #1342177285	; 0x50000005
 330:	434d5500 	movtmi	r5, #54528	; 0xd500
 334:	61750052 	cmnvs	r5, r2, asr r0
 338:	632e7472 			; <UNDEFINED> instruction: 0x632e7472
 33c:	52435500 	subpl	r5, r3, #0, 10
 340:	43550031 	cmpmi	r5, #49	; 0x31
 344:	55003252 	strpl	r3, [r0, #-594]	; 0xfffffdae
 348:	00335243 	eorseq	r5, r3, r3, asr #4
 34c:	34524355 	ldrbcc	r4, [r2], #-853	; 0xfffffcab
 350:	49425500 	stmdbmi	r2, {r8, sl, ip, lr}^
 354:	4e4f0052 	mcrmi	0, 2, r0, cr15, cr2, {2}
 358:	00534d45 	subseq	r4, r3, r5, asr #26
 35c:	43747550 	cmnmi	r4, #80, 10	; 0x14000000
 360:	00726168 	rsbseq	r6, r2, r8, ror #2
 364:	73696172 	cmnvc	r9, #-2147483620	; 0x8000001c
 368:	61550065 	cmpvs	r5, r5, rrx
 36c:	495f7472 	ldmdbmi	pc, {r1, r4, r5, r6, sl, ip, sp, lr}^	; <UNPREDICTABLE>
 370:	0074696e 	rsbseq	r6, r4, lr, ror #18
 374:	554d4f49 	strbpl	r4, [sp, #-3913]	; 0xfffff0b7
 378:	535f4358 	cmppl	pc, #88, 6	; 0x60000001
 37c:	554d5f57 	strbpl	r5, [sp, #-3927]	; 0xfffff0a9
 380:	54435f58 	strbpl	r5, [r3], #-3928	; 0xfffff0a8
 384:	41505f4c 	cmpmi	r0, ip, asr #30
 388:	41555f44 	cmpmi	r5, r4, asr #30
 38c:	5f315452 	svcpl	0x00315452
 390:	445f5852 	ldrbmi	r5, [pc], #-2130	; 398 <shift+0x398>
 394:	00415441 	subeq	r5, r1, r1, asr #8
 398:	53747550 	cmnpl	r4, #80, 10	; 0x14000000
 39c:	52007274 	andpl	r7, r0, #116, 4	; 0x40000007
 3a0:	52455345 	subpl	r5, r5, #335544321	; 0x14000001
 3a4:	5f444556 	svcpl	0x00444556
 3a8:	41550031 	cmpmi	r5, r1, lsr r0
 3ac:	545f5452 	ldrbpl	r5, [pc], #-1106	; 3b4 <shift+0x3b4>
 3b0:	00657079 	rsbeq	r7, r5, r9, ror r0
 3b4:	31525355 	cmpcc	r2, r5, asr r3
 3b8:	33504100 	cmpcc	r0, #0, 2
 3bc:	43363132 	teqmi	r6, #-2147483636	; 0x8000000c
 3c0:	4e4f445f 	mcrmi	4, 2, r4, cr15, cr15, {2}
 3c4:	4948544f 	stmdbmi	r8, {r0, r1, r2, r3, r6, sl, ip, lr}^
 3c8:	425f474e 	subsmi	r4, pc, #20447232	; 0x1380000
 3cc:	004c4c55 	subeq	r4, ip, r5, asr ip
 3d0:	50416e65 	subpl	r6, r1, r5, ror #28
 3d4:	36313233 			; <UNDEFINED> instruction: 0x36313233
 3d8:	504f5f43 	subpl	r5, pc, r3, asr #30
 3dc:	45444f43 	strbmi	r4, [r4, #-3907]	; 0xfffff0bd
 3e0:	706e6900 	rsbvc	r6, lr, r0, lsl #18
 3e4:	65527475 	ldrbvs	r7, [r2, #-1141]	; 0xfffffb8b
 3e8:	74736967 	ldrbtvc	r6, [r3], #-2407	; 0xfffff699
 3ec:	69007265 	stmdbvs	r0, {r0, r2, r5, r6, r9, ip, sp, lr}
 3f0:	7475706e 	ldrbtvc	r7, [r5], #-110	; 0xffffff92
 3f4:	73696144 	cmnvc	r9, #68, 2
 3f8:	50410079 	subpl	r0, r1, r9, ror r0
 3fc:	36313233 			; <UNDEFINED> instruction: 0x36313233
 400:	54535f43 	ldrbpl	r5, [r3], #-3907	; 0xfffff0bd
 404:	5f545241 	svcpl	0x00545241
 408:	004c4c41 	subeq	r4, ip, r1, asr #24
 40c:	32335041 	eorscc	r5, r3, #65	; 0x41
 410:	5f433631 	svcpl	0x00433631
 414:	41445350 	cmpmi	r4, r0, asr r3
 418:	4f4c4154 	svcmi	0x004c4154
 41c:	70610057 	rsbvc	r0, r1, r7, asr r0
 420:	36313233 			; <UNDEFINED> instruction: 0x36313233
 424:	65725f63 	ldrbvs	r5, [r2, #-3939]!	; 0xfffff09d
 428:	705f6461 	subsvc	r6, pc, r1, ror #8
 42c:	50410073 	subpl	r0, r1, r3, ror r0
 430:	36313233 			; <UNDEFINED> instruction: 0x36313233
 434:	4c415f43 	mcrrmi	15, 4, r5, r1, cr3
 438:	54414453 	strbpl	r4, [r1], #-1107	; 0xfffffbad
 43c:	47494841 	strbmi	r4, [r9, -r1, asr #16]
 440:	50410048 	subpl	r0, r1, r8, asr #32
 444:	36313233 			; <UNDEFINED> instruction: 0x36313233
 448:	4e495f43 	cdpmi	15, 4, cr5, cr9, cr3, {2}
 44c:	454c4354 	strbmi	r4, [ip, #-852]	; 0xfffffcac
 450:	41005241 	tstmi	r0, r1, asr #4
 454:	31323350 	teqcc	r2, r0, asr r3
 458:	495f4336 	ldmdbmi	pc, {r1, r2, r4, r5, r8, r9, lr}^	; <UNPREDICTABLE>
 45c:	0054494e 	subseq	r4, r4, lr, asr #18
 460:	616c6564 	cmnvs	ip, r4, ror #10
 464:	756d0079 	strbvc	r0, [sp, #-121]!	; 0xffffff87
 468:	67655278 			; <UNDEFINED> instruction: 0x67655278
 46c:	65747369 	ldrbvs	r7, [r4, #-873]!	; 0xfffffc97
 470:	50410072 	subpl	r0, r1, r2, ror r0
 474:	36313233 			; <UNDEFINED> instruction: 0x36313233
 478:	53505f43 	cmppl	r0, #268	; 0x10c
 47c:	41544144 	cmpmi	r4, r4, asr #2
 480:	48474948 	stmdami	r7, {r3, r6, r8, fp, lr}^
 484:	50637500 	rsbpl	r7, r3, r0, lsl #10
 488:	67694873 			; <UNDEFINED> instruction: 0x67694873
 48c:	50410068 	subpl	r0, r1, r8, rrx
 490:	36313233 			; <UNDEFINED> instruction: 0x36313233
 494:	4e495f43 	cdpmi	15, 4, cr5, cr9, cr3, {2}
 498:	41545354 	cmpmi	r4, r4, asr r3
 49c:	00535554 	subseq	r5, r3, r4, asr r5
 4a0:	6c416375 	mcrrvs	3, 7, r6, r1, cr5
 4a4:	776f4c73 			; <UNDEFINED> instruction: 0x776f4c73
 4a8:	78756d00 	ldmdavc	r5!, {r8, sl, fp, sp, lr}^
 4ac:	65646f4d 	strbvs	r6, [r4, #-3917]!	; 0xfffff0b3
 4b0:	33706100 	cmncc	r0, #0, 2
 4b4:	63363132 	teqvs	r6, #-2147483636	; 0x8000000c
 4b8:	6165725f 	cmnvs	r5, pc, asr r2
 4bc:	72695f64 	rsbvc	r5, r9, #100, 30	; 0x190
 4c0:	33706100 	cmncc	r0, #0, 2
 4c4:	63363132 	teqvs	r6, #-2147483636	; 0x8000000c
 4c8:	696e695f 	stmdbvs	lr!, {r0, r1, r2, r3, r4, r6, r8, fp, sp, lr}^
 4cc:	70610074 	rsbvc	r0, r1, r4, ror r0
 4d0:	36313233 			; <UNDEFINED> instruction: 0x36313233
 4d4:	65725f63 	ldrbvs	r5, [r2, #-3939]!	; 0xfffff09d
 4d8:	735f6461 	cmpvc	pc, #1627389952	; 0x61000000
 4dc:	65747379 	ldrbvs	r7, [r4, #-889]!	; 0xfffffc87
 4e0:	74735f6d 	ldrbtvc	r5, [r3], #-3949	; 0xfffff093
 4e4:	73757461 	cmnvc	r5, #1627389952	; 0x61000000
 4e8:	33706100 	cmncc	r0, #0, 2
 4ec:	63363132 	teqvs	r6, #-2147483636	; 0x8000000c
 4f0:	4900632e 	stmdbmi	r0, {r1, r2, r3, r5, r8, r9, sp, lr}
 4f4:	58554d4f 	ldmdapl	r5, {r0, r1, r2, r3, r6, r8, sl, fp, lr}^
 4f8:	65535f43 	ldrbvs	r5, [r3, #-3907]	; 0xfffff0bd
 4fc:	6e695074 	mcrvs	0, 3, r5, cr9, cr4, {3}
 500:	0078754d 	rsbseq	r7, r8, sp, asr #10
 504:	32335041 	eorscc	r5, r3, #65	; 0x41
 508:	5f433631 	svcpl	0x00433631
 50c:	54535953 	ldrbpl	r5, [r3], #-2387	; 0xfffff6ad
 510:	4f434d45 	svcmi	0x00434d45
 514:	4749464e 	strbmi	r4, [r9, -lr, asr #12]
 518:	50637500 	rsbpl	r7, r3, r0, lsl #10
 51c:	776f4c73 			; <UNDEFINED> instruction: 0x776f4c73
 520:	4d4f4900 	vstrmi.16	s9, [pc, #-0]	; 528 <shift+0x528>	; <UNPREDICTABLE>
 524:	5f435855 	svcpl	0x00435855
 528:	50746553 	rsbspl	r6, r4, r3, asr r5
 52c:	6f436e69 	svcvs	0x00436e69
 530:	6769666e 	strbvs	r6, [r9, -lr, ror #12]!
 534:	49637500 	stmdbmi	r3!, {r8, sl, ip, sp, lr}^
 538:	776f4c72 			; <UNDEFINED> instruction: 0x776f4c72
 53c:	706e6900 	rsbvc	r6, lr, r0, lsl #18
 540:	6e4f7475 	mcrvs	4, 2, r7, cr15, cr5, {3}
 544:	6c656966 			; <UNDEFINED> instruction: 0x6c656966
 548:	70610064 	rsbvc	r0, r1, r4, rrx
 54c:	36313233 			; <UNDEFINED> instruction: 0x36313233
 550:	65725f63 	ldrbvs	r5, [r2, #-3939]!	; 0xfffff09d
 554:	615f6461 	cmpvs	pc, r1, ror #8
 558:	6300736c 	movwvs	r7, #876	; 0x36c
 55c:	69666e6f 	stmdbvs	r6!, {r0, r1, r2, r3, r5, r6, r9, sl, fp, sp, lr}^
 560:	67655267 	strbvs	r5, [r5, -r7, ror #4]!
 564:	65747369 	ldrbvs	r7, [r4, #-873]!	; 0xfffffc97
 568:	50410072 	subpl	r0, r1, r2, ror r0
 56c:	36313233 			; <UNDEFINED> instruction: 0x36313233
 570:	4c415f43 	mcrrmi	15, 4, r5, r1, cr3
 574:	54414453 	strbpl	r4, [r1], #-1107	; 0xfffffbad
 578:	574f4c41 	strbpl	r4, [pc, -r1, asr #24]
 57c:	41637500 	cmnmi	r3, r0, lsl #10
 580:	6948736c 	stmdbvs	r8, {r2, r3, r5, r6, r8, r9, ip, sp, lr}^
 584:	61006867 	tstvs	r0, r7, ror #16
 588:	31323370 	teqcc	r2, r0, ror r3
 58c:	725f6336 	subsvc	r6, pc, #-671088640	; 0xd8000000
 590:	5f646165 	svcpl	0x00646165
 594:	61746164 	cmnvs	r4, r4, ror #2
 598:	49637500 	stmdbmi	r3!, {r8, sl, ip, sp, lr}^
 59c:	67694872 			; <UNDEFINED> instruction: 0x67694872
 5a0:	70610068 	rsbvc	r0, r1, r8, rrx
 5a4:	36313233 			; <UNDEFINED> instruction: 0x36313233
 5a8:	6e695f63 	cdpvs	15, 6, cr5, cr9, cr3, {3}
 5ac:	695f7469 	ldmdbvs	pc, {r0, r3, r5, r6, sl, ip, sp, lr}^	; <UNPREDICTABLE>
 5b0:	5041006f 	subpl	r0, r1, pc, rrx
 5b4:	36313233 			; <UNDEFINED> instruction: 0x36313233
 5b8:	52495f43 	subpl	r5, r9, #268	; 0x10c
 5bc:	41544144 	cmpmi	r4, r4, asr #2
 5c0:	00574f4c 	subseq	r4, r7, ip, asr #30
 5c4:	666e6f63 	strbtvs	r6, [lr], -r3, ror #30
 5c8:	61566769 	cmpvs	r6, r9, ror #14
 5cc:	0065756c 	rsbeq	r7, r5, ip, ror #10
 5d0:	32335041 	eorscc	r5, r3, #65	; 0x41
 5d4:	5f433631 	svcpl	0x00433631
 5d8:	41445249 	cmpmi	r4, r9, asr #4
 5dc:	49484154 	stmdbmi	r8, {r2, r4, r6, r8, lr}^
 5e0:	6d004847 	stcvs	8, cr4, [r0, #-284]	; 0xfffffee4
 5e4:	006e6961 	rsbeq	r6, lr, r1, ror #18
 5e8:	6e69616d 	powvsez	f6, f1, #5.0
 5ec:	6f00632e 	svcvs	0x0000632e
 5f0:	6e5f7475 	mrcvs	4, 2, r7, cr15, cr5, {3}
 5f4:	63006d75 	movwvs	r6, #3445	; 0xd75
 5f8:	746e756f 	strbtvc	r7, [lr], #-1391	; 0xfffffa91
 5fc:	5f796d00 	svcpl	0x00796d00
 600:	69727076 	ldmdbvs	r2!, {r1, r2, r4, r5, r6, ip, sp, lr}^
 604:	0066746e 	rsbeq	r7, r6, lr, ror #8
 608:	6c5f6176 	ldfvse	f6, [pc], {118}	; 0x76
 60c:	00747369 	rsbseq	r7, r4, r9, ror #6
 610:	65736162 	ldrbvs	r6, [r3, #-354]!	; 0xfffffe9e
 614:	61656c00 	cmnvs	r5, r0, lsl #24
 618:	616d0064 	cmnvs	sp, r4, rrx
 61c:	64697778 	strbtvs	r7, [r9], #-1912	; 0xfffff888
 620:	6f006874 	svcvs	0x00006874
 624:	00637475 	rsbeq	r7, r3, r5, ror r4
 628:	705f796d 	subsvc	r7, pc, sp, ror #18
 62c:	746e6972 	strbtvc	r6, [lr], #-2418	; 0xfffff68e
 630:	00632e66 	rsbeq	r2, r3, r6, ror #28
 634:	7374756f 	cmnvc	r4, #465567744	; 0x1bc00000
 638:	78656800 	stmdavc	r5!, {fp, sp, lr}^
 63c:	6261745f 	rsbvs	r7, r1, #1593835520	; 0x5f000000
 640:	5f796d00 	svcpl	0x00796d00
 644:	6e697270 	mcrvs	2, 3, r7, cr9, cr0, {3}
 648:	745f6674 	ldrbvc	r6, [pc], #-1652	; 650 <shift+0x650>
 64c:	00747365 	rsbseq	r7, r4, r5, ror #6
 650:	5f746567 	svcpl	0x00746567
 654:	00746e69 	rsbseq	r6, r4, r9, ror #28
 658:	5f746567 	svcpl	0x00746567
 65c:	746e6975 	strbtvc	r6, [lr], #-2421	; 0xfffff68b
 660:	6d697300 	stclvs	3, cr7, [r9, #-0]
 664:	5f656c70 	svcpl	0x00656c70
 668:	74727473 	ldrbtvc	r7, [r2], #-1139	; 0xfffffb8d
 66c:	006c756f 	rsbeq	r7, ip, pc, ror #10
 670:	756c6176 	strbvc	r6, [ip, #-374]!	; 0xfffffe8a
 674:	69730065 	ldmdbvs	r3!, {r0, r2, r5, r6}^
 678:	656c706d 	strbvs	r7, [ip, #-109]!	; 0xffffff93
 67c:	7274735f 	rsbsvc	r7, r4, #2080374785	; 0x7c000001
 680:	006c6f74 	rsbeq	r6, ip, r4, ror pc
 684:	6f745f5f 	svcvs	0x00745f5f
 688:	65707075 	ldrbvs	r7, [r0, #-117]!	; 0xffffff8b
 68c:	65670072 	strbvs	r0, [r7, #-114]!	; 0xffffff8e
 690:	73007374 	movwvc	r7, #884	; 0x374
 694:	6e697274 	mcrvs	2, 3, r7, cr9, cr4, {3}
 698:	74755f67 	ldrbtvc	r5, [r5], #-3943	; 0xfffff099
 69c:	2e736c69 	cdpcs	12, 7, cr6, cr3, cr9, {3}
 6a0:	65720063 	ldrbvs	r0, [r2, #-99]!	; 0xffffff9d
 6a4:	746c7573 	strbtvc	r7, [ip], #-1395	; 0xfffffa8d
 6a8:	646e6500 	strbtvs	r6, [lr], #-1280	; 0xfffffb00
 6ac:	635f0070 	cmpvs	pc, #112	; 0x70
 6b0:	65707974 	ldrbvs	r7, [r0, #-2420]!	; 0xfffff68c
	...

Disassembly of section .debug_frame:

00000000 <.debug_frame>:
   0:	0000000c 	andeq	r0, r0, ip
   4:	ffffffff 			; <UNDEFINED> instruction: 0xffffffff
   8:	7c020001 	stcvc	0, cr0, [r2], {1}
   c:	000d0c0e 	andeq	r0, sp, lr, lsl #24
  10:	00000024 	andeq	r0, r0, r4, lsr #32
  14:	00000000 	andeq	r0, r0, r0
  18:	8010003c 	andshi	r0, r0, ip, lsr r0
  1c:	0000003a 	andeq	r0, r0, sl, lsr r0
  20:	87040e41 	strhi	r0, [r4, -r1, asr #28]
  24:	100e4101 	andne	r4, lr, r1, lsl #2
  28:	56070d41 	strpl	r0, [r7], -r1, asr #26
  2c:	0d41040e 	cfstrdeq	mvd0, [r1, #-56]	; 0xffffffc8
  30:	0ec7420d 	cdpeq	2, 12, cr4, cr7, cr13, {0}
  34:	00000000 	andeq	r0, r0, r0
  38:	00000024 	andeq	r0, r0, r4, lsr #32
  3c:	00000000 	andeq	r0, r0, r0
  40:	80100076 	andshi	r0, r0, r6, ror r0
  44:	00000064 	andeq	r0, r0, r4, rrx
  48:	87040e41 	strhi	r0, [r4, -r1, asr #28]
  4c:	100e4101 	andne	r4, lr, r1, lsl #2
  50:	6b070d41 	blvs	1c355c <shift+0x1c355c>
  54:	0d41040e 	cfstrdeq	mvd0, [r1, #-56]	; 0xffffffc8
  58:	0ec7420d 	cdpeq	2, 12, cr4, cr7, cr13, {0}
  5c:	00000000 	andeq	r0, r0, r0
  60:	00000024 	andeq	r0, r0, r4, lsr #32
  64:	00000000 	andeq	r0, r0, r0
  68:	801000da 	ldrsbhi	r0, [r0], -sl
  6c:	0000005a 	andeq	r0, r0, sl, asr r0
  70:	87040e41 	strhi	r0, [r4, -r1, asr #28]
  74:	180e4101 	stmdane	lr, {r0, r8, lr}
  78:	66070d41 	strvs	r0, [r7], -r1, asr #26
  7c:	0d41040e 	cfstrdeq	mvd0, [r1, #-56]	; 0xffffffc8
  80:	0ec7420d 	cdpeq	2, 12, cr4, cr7, cr13, {0}
  84:	00000000 	andeq	r0, r0, r0
  88:	00000024 	andeq	r0, r0, r4, lsr #32
  8c:	00000000 	andeq	r0, r0, r0
  90:	80100134 	andshi	r0, r0, r4, lsr r1
  94:	0000004c 	andeq	r0, r0, ip, asr #32
  98:	87040e41 	strhi	r0, [r4, -r1, asr #28]
  9c:	180e4101 	stmdane	lr, {r0, r8, lr}
  a0:	5f070d41 	svcpl	0x00070d41
  a4:	0d41040e 	cfstrdeq	mvd0, [r1, #-56]	; 0xffffffc8
  a8:	0ec7420d 	cdpeq	2, 12, cr4, cr7, cr13, {0}
  ac:	00000000 	andeq	r0, r0, r0
  b0:	00000024 	andeq	r0, r0, r4, lsr #32
  b4:	00000000 	andeq	r0, r0, r0
  b8:	80100180 	andshi	r0, r0, r0, lsl #3
  bc:	00000068 	andeq	r0, r0, r8, rrx
  c0:	87040e41 	strhi	r0, [r4, -r1, asr #28]
  c4:	180e4101 	stmdane	lr, {r0, r8, lr}
  c8:	6d070d41 	stcvs	13, cr0, [r7, #-260]	; 0xfffffefc
  cc:	0d41040e 	cfstrdeq	mvd0, [r1, #-56]	; 0xffffffc8
  d0:	0ec7420d 	cdpeq	2, 12, cr4, cr7, cr13, {0}
  d4:	00000000 	andeq	r0, r0, r0
  d8:	00000020 	andeq	r0, r0, r0, lsr #32
  dc:	00000000 	andeq	r0, r0, r0
  e0:	801001e8 	andshi	r0, r0, r8, ror #3
  e4:	000000ac 	andeq	r0, r0, ip, lsr #1
  e8:	87080e41 	strhi	r0, [r8, -r1, asr #28]
  ec:	41018e02 	tstmi	r1, r2, lsl #28
  f0:	0d41180e 	stcleq	8, cr1, [r1, #-56]	; 0xffffffc8
  f4:	0e510207 	cdpeq	2, 5, cr0, cr1, cr7, {0}
  f8:	0d0d4108 	stfeqs	f4, [sp, #-32]	; 0xffffffe0
  fc:	00000020 	andeq	r0, r0, r0, lsr #32
 100:	00000000 	andeq	r0, r0, r0
 104:	80100294 	mulshi	r0, r4, r2
 108:	000000d0 	ldrdeq	r0, [r0], -r0	; <UNPREDICTABLE>
 10c:	87080e41 	strhi	r0, [r8, -r1, asr #28]
 110:	41018e02 	tstmi	r1, r2, lsl #28
 114:	0d41200e 	stcleq	0, cr2, [r1, #-56]	; 0xffffffc8
 118:	0e630207 	cdpeq	2, 6, cr0, cr3, cr7, {0}
 11c:	0d0d4108 	stfeqs	f4, [sp, #-32]	; 0xffffffe0
 120:	00000020 	andeq	r0, r0, r0, lsr #32
 124:	00000000 	andeq	r0, r0, r0
 128:	80100364 	andshi	r0, r0, r4, ror #6
 12c:	000001c0 	andeq	r0, r0, r0, asr #3
 130:	87080e41 	strhi	r0, [r8, -r1, asr #28]
 134:	41018e02 	tstmi	r1, r2, lsl #28
 138:	0d41180e 	stcleq	8, cr1, [r1, #-56]	; 0xffffffc8
 13c:	0edb0207 	cdpeq	2, 13, cr0, cr11, cr7, {0}
 140:	0d0d4108 	stfeqs	f4, [sp, #-32]	; 0xffffffe0
 144:	00000020 	andeq	r0, r0, r0, lsr #32
 148:	00000000 	andeq	r0, r0, r0
 14c:	80100524 	andshi	r0, r0, r4, lsr #10
 150:	00000058 	andeq	r0, r0, r8, asr r0
 154:	87080e41 	strhi	r0, [r8, -r1, asr #28]
 158:	41018e02 	tstmi	r1, r2, lsl #28
 15c:	0d41300e 	stcleq	0, cr3, [r1, #-56]	; 0xffffffc8
 160:	080e6707 	stmdaeq	lr, {r0, r1, r2, r8, r9, sl, sp, lr}
 164:	000d0d41 	andeq	r0, sp, r1, asr #26
 168:	00000020 	andeq	r0, r0, r0, lsr #32
 16c:	00000000 	andeq	r0, r0, r0
 170:	8010057c 	andshi	r0, r0, ip, ror r5
 174:	00000054 	andeq	r0, r0, r4, asr r0
 178:	87080e41 	strhi	r0, [r8, -r1, asr #28]
 17c:	41018e02 	tstmi	r1, r2, lsl #28
 180:	0d41300e 	stcleq	0, cr3, [r1, #-56]	; 0xffffffc8
 184:	080e6507 	stmdaeq	lr, {r0, r1, r2, r8, sl, sp, lr}
 188:	000d0d41 	andeq	r0, sp, r1, asr #26
 18c:	0000000c 	andeq	r0, r0, ip
 190:	ffffffff 			; <UNDEFINED> instruction: 0xffffffff
 194:	7c020001 	stcvc	0, cr0, [r2], {1}
 198:	000d0c0e 	andeq	r0, sp, lr, lsl #24
 19c:	0000001c 	andeq	r0, r0, ip, lsl r0
 1a0:	0000018c 	andeq	r0, r0, ip, lsl #3
 1a4:	801005d0 			; <UNDEFINED> instruction: 0x801005d0
 1a8:	000000d6 	ldrdeq	r0, [r0], -r6
 1ac:	87040e41 	strhi	r0, [r4, -r1, asr #28]
 1b0:	070d4101 	streq	r4, [sp, -r1, lsl #2]
 1b4:	0d0d6602 	stceq	6, cr6, [sp, #-8]
 1b8:	000ec742 	andeq	ip, lr, r2, asr #14
 1bc:	00000024 	andeq	r0, r0, r4, lsr #32
 1c0:	0000018c 	andeq	r0, r0, ip, lsl #3
 1c4:	801006a6 	andshi	r0, r0, r6, lsr #13
 1c8:	00000034 	andeq	r0, r0, r4, lsr r0
 1cc:	87040e41 	strhi	r0, [r4, -r1, asr #28]
 1d0:	100e4101 	andne	r4, lr, r1, lsl #2
 1d4:	53070d41 	movwpl	r0, #32065	; 0x7d41
 1d8:	0d41040e 	cfstrdeq	mvd0, [r1, #-56]	; 0xffffffc8
 1dc:	0ec7420d 	cdpeq	2, 12, cr4, cr7, cr13, {0}
 1e0:	00000000 	andeq	r0, r0, r0
 1e4:	0000001c 	andeq	r0, r0, ip, lsl r0
 1e8:	0000018c 	andeq	r0, r0, ip, lsl #3
 1ec:	801006da 			; <UNDEFINED> instruction: 0x801006da
 1f0:	0000002c 	andeq	r0, r0, ip, lsr #32
 1f4:	87040e41 	strhi	r0, [r4, -r1, asr #28]
 1f8:	070d4101 	streq	r4, [sp, -r1, lsl #2]
 1fc:	420d0d51 	andmi	r0, sp, #5184	; 0x1440
 200:	00000ec7 	andeq	r0, r0, r7, asr #29
 204:	00000020 	andeq	r0, r0, r0, lsr #32
 208:	0000018c 	andeq	r0, r0, ip, lsl #3
 20c:	80100706 	andshi	r0, r0, r6, lsl #14
 210:	0000002a 	andeq	r0, r0, sl, lsr #32
 214:	87080e41 	strhi	r0, [r8, -r1, asr #28]
 218:	41018e02 	tstmi	r1, r2, lsl #28
 21c:	0d41100e 	stcleq	0, cr1, [r1, #-56]	; 0xffffffc8
 220:	080e5007 	stmdaeq	lr, {r0, r1, r2, ip, lr}
 224:	000d0d41 	andeq	r0, sp, r1, asr #26
 228:	00000024 	andeq	r0, r0, r4, lsr #32
 22c:	0000018c 	andeq	r0, r0, ip, lsl #3
 230:	80100730 	andshi	r0, r0, r0, lsr r7
 234:	00000016 	andeq	r0, r0, r6, lsl r0
 238:	87040e41 	strhi	r0, [r4, -r1, asr #28]
 23c:	100e4101 	andne	r4, lr, r1, lsl #2
 240:	44070d41 	strmi	r0, [r7], #-3393	; 0xfffff2bf
 244:	0d41040e 	cfstrdeq	mvd0, [r1, #-56]	; 0xffffffc8
 248:	0ec7420d 	cdpeq	2, 12, cr4, cr7, cr13, {0}
 24c:	00000000 	andeq	r0, r0, r0
 250:	0000000c 	andeq	r0, r0, ip
 254:	ffffffff 			; <UNDEFINED> instruction: 0xffffffff
 258:	7c020001 	stcvc	0, cr0, [r2], {1}
 25c:	000d0c0e 	andeq	r0, sp, lr, lsl #24
 260:	00000024 	andeq	r0, r0, r4, lsr #32
 264:	00000250 	andeq	r0, r0, r0, asr r2
 268:	80100746 	andshi	r0, r0, r6, asr #14
 26c:	0000003e 	andeq	r0, r0, lr, lsr r0
 270:	87040e41 	strhi	r0, [r4, -r1, asr #28]
 274:	180e4101 	stmdane	lr, {r0, r8, lr}
 278:	58070d41 	stmdapl	r7, {r0, r6, r8, sl, fp}
 27c:	0d41040e 	cfstrdeq	mvd0, [r1, #-56]	; 0xffffffc8
 280:	0ec7420d 	cdpeq	2, 12, cr4, cr7, cr13, {0}
 284:	00000000 	andeq	r0, r0, r0
 288:	00000024 	andeq	r0, r0, r4, lsr #32
 28c:	00000250 	andeq	r0, r0, r0, asr r2
 290:	80100784 	andshi	r0, r0, r4, lsl #15
 294:	00000026 	andeq	r0, r0, r6, lsr #32
 298:	87040e41 	strhi	r0, [r4, -r1, asr #28]
 29c:	180e4101 	stmdane	lr, {r0, r8, lr}
 2a0:	4c070d41 	stcmi	13, cr0, [r7], {65}	; 0x41
 2a4:	0d41040e 	cfstrdeq	mvd0, [r1, #-56]	; 0xffffffc8
 2a8:	0ec7420d 	cdpeq	2, 12, cr4, cr7, cr13, {0}
 2ac:	00000000 	andeq	r0, r0, r0
 2b0:	00000024 	andeq	r0, r0, r4, lsr #32
 2b4:	00000250 	andeq	r0, r0, r0, asr r2
 2b8:	801007aa 	andshi	r0, r0, sl, lsr #15
 2bc:	00000020 	andeq	r0, r0, r0, lsr #32
 2c0:	87040e41 	strhi	r0, [r4, -r1, asr #28]
 2c4:	100e4101 	andne	r4, lr, r1, lsl #2
 2c8:	49070d41 	stmdbmi	r7, {r0, r6, r8, sl, fp}
 2cc:	0d41040e 	cfstrdeq	mvd0, [r1, #-56]	; 0xffffffc8
 2d0:	0ec7420d 	cdpeq	2, 12, cr4, cr7, cr13, {0}
 2d4:	00000000 	andeq	r0, r0, r0
 2d8:	00000020 	andeq	r0, r0, r0, lsr #32
 2dc:	00000250 	andeq	r0, r0, r0, asr r2
 2e0:	801007ca 	andshi	r0, r0, sl, asr #15
 2e4:	000000a0 	andeq	r0, r0, r0, lsr #1
 2e8:	87080e41 	strhi	r0, [r8, -r1, asr #28]
 2ec:	41018e02 	tstmi	r1, r2, lsl #28
 2f0:	0c41100e 	mcrreq	0, 0, r1, r1, cr14
 2f4:	4c020807 	stcmi	8, cr0, [r2], {7}
 2f8:	00000d0d 	andeq	r0, r0, sp, lsl #26
 2fc:	00000020 	andeq	r0, r0, r0, lsr #32
 300:	00000250 	andeq	r0, r0, r0, asr r2
 304:	8010086a 	andshi	r0, r0, sl, ror #16
 308:	00000036 	andeq	r0, r0, r6, lsr r0
 30c:	87080e41 	strhi	r0, [r8, -r1, asr #28]
 310:	41018e02 	tstmi	r1, r2, lsl #28
 314:	0d41100e 	stcleq	0, cr1, [r1, #-56]	; 0xffffffc8
 318:	080e5607 	stmdaeq	lr, {r0, r1, r2, r9, sl, ip, lr}
 31c:	000d0d41 	andeq	r0, sp, r1, asr #26
 320:	00000020 	andeq	r0, r0, r0, lsr #32
 324:	00000250 	andeq	r0, r0, r0, asr r2
 328:	801008a0 	andshi	r0, r0, r0, lsr #17
 32c:	0000004e 	andeq	r0, r0, lr, asr #32
 330:	87080e41 	strhi	r0, [r8, -r1, asr #28]
 334:	41018e02 	tstmi	r1, r2, lsl #28
 338:	0d41100e 	stcleq	0, cr1, [r1, #-56]	; 0xffffffc8
 33c:	080e6207 	stmdaeq	lr, {r0, r1, r2, r9, sp, lr}
 340:	000d0d41 	andeq	r0, sp, r1, asr #26
 344:	00000020 	andeq	r0, r0, r0, lsr #32
 348:	00000250 	andeq	r0, r0, r0, asr r2
 34c:	801008ee 	andshi	r0, r0, lr, ror #17
 350:	0000005e 	andeq	r0, r0, lr, asr r0
 354:	87080e41 	strhi	r0, [r8, -r1, asr #28]
 358:	41018e02 	tstmi	r1, r2, lsl #28
 35c:	0d41180e 	stcleq	8, cr1, [r1, #-56]	; 0xffffffc8
 360:	080e6a07 	stmdaeq	lr, {r0, r1, r2, r9, fp, sp, lr}
 364:	000d0d41 	andeq	r0, sp, r1, asr #26
 368:	00000020 	andeq	r0, r0, r0, lsr #32
 36c:	00000250 	andeq	r0, r0, r0, asr r2
 370:	8010094c 	andshi	r0, r0, ip, asr #18
 374:	00000048 	andeq	r0, r0, r8, asr #32
 378:	87080e41 	strhi	r0, [r8, -r1, asr #28]
 37c:	41018e02 	tstmi	r1, r2, lsl #28
 380:	0d41180e 	stcleq	8, cr1, [r1, #-56]	; 0xffffffc8
 384:	080e5f07 	stmdaeq	lr, {r0, r1, r2, r8, r9, sl, fp, ip, lr}
 388:	000d0d41 	andeq	r0, sp, r1, asr #26
 38c:	00000020 	andeq	r0, r0, r0, lsr #32
 390:	00000250 	andeq	r0, r0, r0, asr r2
 394:	80100994 	mulshi	r0, r4, r9
 398:	00000066 	andeq	r0, r0, r6, rrx
 39c:	87080e41 	strhi	r0, [r8, -r1, asr #28]
 3a0:	41018e02 	tstmi	r1, r2, lsl #28
 3a4:	0d41180e 	stcleq	8, cr1, [r1, #-56]	; 0xffffffc8
 3a8:	080e6e07 	stmdaeq	lr, {r0, r1, r2, r9, sl, fp, sp, lr}
 3ac:	000d0d41 	andeq	r0, sp, r1, asr #26
 3b0:	00000020 	andeq	r0, r0, r0, lsr #32
 3b4:	00000250 	andeq	r0, r0, r0, asr r2
 3b8:	801009fa 			; <UNDEFINED> instruction: 0x801009fa
 3bc:	00000026 	andeq	r0, r0, r6, lsr #32
 3c0:	87080e41 	strhi	r0, [r8, -r1, asr #28]
 3c4:	41018e02 	tstmi	r1, r2, lsl #28
 3c8:	0d41180e 	stcleq	8, cr1, [r1, #-56]	; 0xffffffc8
 3cc:	080e4e07 	stmdaeq	lr, {r0, r1, r2, r9, sl, fp, lr}
 3d0:	000d0d41 	andeq	r0, sp, r1, asr #26
 3d4:	0000000c 	andeq	r0, r0, ip
 3d8:	ffffffff 			; <UNDEFINED> instruction: 0xffffffff
 3dc:	7c020001 	stcvc	0, cr0, [r2], {1}
 3e0:	000d0c0e 	andeq	r0, sp, lr, lsl #24
 3e4:	00000024 	andeq	r0, r0, r4, lsr #32
 3e8:	000003d4 	ldrdeq	r0, [r0], -r4
 3ec:	80100a20 	andshi	r0, r0, r0, lsr #20
 3f0:	00000020 	andeq	r0, r0, r0, lsr #32
 3f4:	87040e41 	strhi	r0, [r4, -r1, asr #28]
 3f8:	100e4101 	andne	r4, lr, r1, lsl #2
 3fc:	49070d41 	stmdbmi	r7, {r0, r6, r8, sl, fp}
 400:	0d41040e 	cfstrdeq	mvd0, [r1, #-56]	; 0xffffffc8
 404:	0ec7420d 	cdpeq	2, 12, cr4, cr7, cr13, {0}
 408:	00000000 	andeq	r0, r0, r0
 40c:	0000001c 	andeq	r0, r0, ip, lsl r0
 410:	000003d4 	ldrdeq	r0, [r0], -r4
 414:	80100a40 	andshi	r0, r0, r0, asr #20
 418:	0000006a 	andeq	r0, r0, sl, rrx
 41c:	87080e41 	strhi	r0, [r8, -r1, asr #28]
 420:	41018e02 	tstmi	r1, r2, lsl #28
 424:	0d41180e 	stcleq	8, cr1, [r1, #-56]	; 0xffffffc8
 428:	00000007 	andeq	r0, r0, r7
 42c:	0000000c 	andeq	r0, r0, ip
 430:	ffffffff 			; <UNDEFINED> instruction: 0xffffffff
 434:	7c020001 	stcvc	0, cr0, [r2], {1}
 438:	000d0c0e 	andeq	r0, sp, lr, lsl #24
 43c:	00000020 	andeq	r0, r0, r0, lsr #32
 440:	0000042c 	andeq	r0, r0, ip, lsr #8
 444:	80100aac 	andshi	r0, r0, ip, lsr #21
 448:	00000018 	andeq	r0, r0, r8, lsl r0
 44c:	87080e41 	strhi	r0, [r8, -r1, asr #28]
 450:	41018e02 	tstmi	r1, r2, lsl #28
 454:	0d41100e 	stcleq	0, cr1, [r1, #-56]	; 0xffffffc8
 458:	080e4707 	stmdaeq	lr, {r0, r1, r2, r8, r9, sl, lr}
 45c:	000d0d41 	andeq	r0, sp, r1, asr #26
 460:	00000020 	andeq	r0, r0, r0, lsr #32
 464:	0000042c 	andeq	r0, r0, ip, lsr #8
 468:	80100ac4 	andshi	r0, r0, r4, asr #21
 46c:	0000002a 	andeq	r0, r0, sl, lsr #32
 470:	87080e41 	strhi	r0, [r8, -r1, asr #28]
 474:	41018e02 	tstmi	r1, r2, lsl #28
 478:	0d41100e 	stcleq	0, cr1, [r1, #-56]	; 0xffffffc8
 47c:	080e5007 	stmdaeq	lr, {r0, r1, r2, ip, lr}
 480:	000d0d41 	andeq	r0, sp, r1, asr #26
 484:	00000020 	andeq	r0, r0, r0, lsr #32
 488:	0000042c 	andeq	r0, r0, ip, lsr #8
 48c:	80100aee 	andshi	r0, r0, lr, ror #21
 490:	000000d2 	ldrdeq	r0, [r0], -r2
 494:	87080e41 	strhi	r0, [r8, -r1, asr #28]
 498:	41018e02 	tstmi	r1, r2, lsl #28
 49c:	0d41680e 	stcleq	8, cr6, [r1, #-56]	; 0xffffffc8
 4a0:	0e640207 	cdpeq	2, 6, cr0, cr4, cr7, {0}
 4a4:	0d0d4108 	stfeqs	f4, [sp, #-32]	; 0xffffffe0
 4a8:	00000020 	andeq	r0, r0, r0, lsr #32
 4ac:	0000042c 	andeq	r0, r0, ip, lsr #8
 4b0:	80100bc0 	andshi	r0, r0, r0, asr #23
 4b4:	00000194 	muleq	r0, r4, r1
 4b8:	87080e41 	strhi	r0, [r8, -r1, asr #28]
 4bc:	41018e02 	tstmi	r1, r2, lsl #28
 4c0:	0d41180e 	stcleq	8, cr1, [r1, #-56]	; 0xffffffc8
 4c4:	0ec50207 	cdpeq	2, 12, cr0, cr5, cr7, {0}
 4c8:	0d0d4108 	stfeqs	f4, [sp, #-32]	; 0xffffffe0
 4cc:	00000038 	andeq	r0, r0, r8, lsr r0
 4d0:	0000042c 	andeq	r0, r0, ip, lsr #8
 4d4:	80100d54 	andshi	r0, r0, r4, asr sp
 4d8:	0000002c 	andeq	r0, r0, ip, lsr #32
 4dc:	80100e41 	andshi	r0, r0, r1, asr #28
 4e0:	82038104 	andhi	r8, r3, #4, 2
 4e4:	41018302 	tstmi	r1, r2, lsl #6
 4e8:	0687180e 	streq	r1, [r7], lr, lsl #16
 4ec:	0e41058e 	cdpeq	5, 4, cr0, cr1, cr14, {4}
 4f0:	070d4120 	streq	r4, [sp, -r0, lsr #2]
 4f4:	41180e4d 	tstmi	r8, sp, asr #28
 4f8:	ce420d0d 	cdpgt	13, 4, cr0, cr2, cr13, {0}
 4fc:	41100ec7 	tstmi	r0, r7, asr #29
 500:	c0c1c2c3 	sbcgt	ip, r1, r3, asr #5
 504:	0000000e 	andeq	r0, r0, lr
 508:	00000018 	andeq	r0, r0, r8, lsl r0
 50c:	0000042c 	andeq	r0, r0, ip, lsr #8
 510:	80100d80 	andshi	r0, r0, r0, lsl #27
 514:	000000f6 	strdeq	r0, [r0], -r6
 518:	87080e41 	strhi	r0, [r8, -r1, asr #28]
 51c:	41018e02 	tstmi	r1, r2, lsl #28
 520:	0000070d 	andeq	r0, r0, sp, lsl #14
 524:	0000000c 	andeq	r0, r0, ip
 528:	ffffffff 			; <UNDEFINED> instruction: 0xffffffff
 52c:	7c020001 	stcvc	0, cr0, [r2], {1}
 530:	000d0c0e 	andeq	r0, sp, lr, lsl #24
 534:	00000024 	andeq	r0, r0, r4, lsr #32
 538:	00000524 	andeq	r0, r0, r4, lsr #10
 53c:	80100e78 	andshi	r0, r0, r8, ror lr
 540:	00000032 	andeq	r0, r0, r2, lsr r0
 544:	87040e41 	strhi	r0, [r4, -r1, asr #28]
 548:	100e4101 	andne	r4, lr, r1, lsl #2
 54c:	52070d41 	andpl	r0, r7, #4160	; 0x1040
 550:	0d41040e 	cfstrdeq	mvd0, [r1, #-56]	; 0xffffffc8
 554:	0ec7420d 	cdpeq	2, 12, cr4, cr7, cr13, {0}
 558:	00000000 	andeq	r0, r0, r0
 55c:	00000020 	andeq	r0, r0, r0, lsr #32
 560:	00000524 	andeq	r0, r0, r4, lsr #10
 564:	80100eaa 	andshi	r0, r0, sl, lsr #29
 568:	00000102 	andeq	r0, r0, r2, lsl #2
 56c:	87080e41 	strhi	r0, [r8, -r1, asr #28]
 570:	41018e02 	tstmi	r1, r2, lsl #28
 574:	0d41200e 	stcleq	0, cr2, [r1, #-56]	; 0xffffffc8
 578:	0e7c0207 	cdpeq	2, 7, cr0, cr12, cr7, {0}
 57c:	0d0d4108 	stfeqs	f4, [sp, #-32]	; 0xffffffe0
 580:	00000020 	andeq	r0, r0, r0, lsr #32
 584:	00000524 	andeq	r0, r0, r4, lsr #10
 588:	80100fac 	andshi	r0, r0, ip, lsr #31
 58c:	0000003c 	andeq	r0, r0, ip, lsr r0
 590:	87080e41 	strhi	r0, [r8, -r1, asr #28]
 594:	41018e02 	tstmi	r1, r2, lsl #28
 598:	0d41180e 	stcleq	8, cr1, [r1, #-56]	; 0xffffffc8
 59c:	080e5907 	stmdaeq	lr, {r0, r1, r2, r8, fp, ip, lr}
 5a0:	000d0d41 	andeq	r0, sp, r1, asr #26
 5a4:	00000020 	andeq	r0, r0, r0, lsr #32
 5a8:	00000524 	andeq	r0, r0, r4, lsr #10
 5ac:	80100fe8 	andshi	r0, r0, r8, ror #31
 5b0:	0000006a 	andeq	r0, r0, sl, rrx
 5b4:	87080e41 	strhi	r0, [r8, -r1, asr #28]
 5b8:	41018e02 	tstmi	r1, r2, lsl #28
 5bc:	0d41180e 	stcleq	8, cr1, [r1, #-56]	; 0xffffffc8
 5c0:	080e7007 	stmdaeq	lr, {r0, r1, r2, ip, sp, lr}
 5c4:	000d0d41 	andeq	r0, sp, r1, asr #26
 5c8:	00000020 	andeq	r0, r0, r0, lsr #32
 5cc:	00000524 	andeq	r0, r0, r4, lsr #10
 5d0:	80101052 	andshi	r1, r0, r2, asr r0
 5d4:	00000024 	andeq	r0, r0, r4, lsr #32
 5d8:	87080e41 	strhi	r0, [r8, -r1, asr #28]
 5dc:	41018e02 	tstmi	r1, r2, lsl #28
 5e0:	0d41700e 	stcleq	0, cr7, [r1, #-56]	; 0xffffffc8
 5e4:	080e4d07 	stmdaeq	lr, {r0, r1, r2, r8, sl, fp, lr}
 5e8:	000d0d41 	andeq	r0, sp, r1, asr #26
 5ec:	00000020 	andeq	r0, r0, r0, lsr #32
 5f0:	00000524 	andeq	r0, r0, r4, lsr #10
 5f4:	80101076 	andshi	r1, r0, r6, ror r0
 5f8:	00000024 	andeq	r0, r0, r4, lsr #32
 5fc:	87080e41 	strhi	r0, [r8, -r1, asr #28]
 600:	41018e02 	tstmi	r1, r2, lsl #28
 604:	0d41700e 	stcleq	0, cr7, [r1, #-56]	; 0xffffffc8
 608:	080e4d07 	stmdaeq	lr, {r0, r1, r2, r8, sl, fp, lr}
 60c:	000d0d41 	andeq	r0, sp, r1, asr #26
 610:	0000000c 	andeq	r0, r0, ip
 614:	ffffffff 			; <UNDEFINED> instruction: 0xffffffff
 618:	7c010001 	stcvc	0, cr0, [r1], {1}
 61c:	000d0c0e 	andeq	r0, sp, lr, lsl #24
 620:	0000000c 	andeq	r0, r0, ip
 624:	00000610 	andeq	r0, r0, r0, lsl r6
 628:	801010a1 	andshi	r1, r0, r1, lsr #1
 62c:	0000025c 	andeq	r0, r0, ip, asr r2
 630:	0000000c 	andeq	r0, r0, ip
 634:	ffffffff 			; <UNDEFINED> instruction: 0xffffffff
 638:	7c010001 	stcvc	0, cr0, [r1], {1}
 63c:	000d0c0e 	andeq	r0, sp, lr, lsl #24
 640:	00000014 	andeq	r0, r0, r4, lsl r0
 644:	00000630 	andeq	r0, r0, r0, lsr r6
 648:	80101319 	andshi	r1, r0, r9, lsl r3
 64c:	0000000c 	andeq	r0, r0, ip
 650:	0e018e42 	cdpeq	14, 0, cr8, cr1, cr2, {2}
 654:	00000008 	andeq	r0, r0, r8
