
i2c_eeprom.elf:     file format elf32-littlearm


Disassembly of section .text:

82000000 <_start>:
82000000:	e59ff114 	ldr	pc, [pc, #276]	; 8200011c <clean+0x14>
82000004:	e59ff114 	ldr	pc, [pc, #276]	; 82000120 <clean+0x18>
82000008:	e59ff114 	ldr	pc, [pc, #276]	; 82000124 <clean+0x1c>
8200000c:	ea000039 	b	820000f8 <halt>
82000010:	ea000038 	b	820000f8 <halt>
82000014:	00000000 	andeq	r0, r0, r0
82000018:	e59ff108 	ldr	pc, [pc, #264]	; 82000128 <clean+0x20>
8200001c:	ea000035 	b	820000f8 <halt>

82000020 <Undefined_Handler>:
82000020:	e92d5fff 	push	{r0, r1, r2, r3, r4, r5, r6, r7, r8, r9, sl, fp, ip, lr}
82000024:	e10f0000 	mrs	r0, CPSR
82000028:	e59f10fc 	ldr	r1, [pc, #252]	; 8200012c <clean+0x24>
8200002c:	fa000190 	blx	82000674 <printException>
82000030:	e8fd9fff 	ldm	sp!, {r0, r1, r2, r3, r4, r5, r6, r7, r8, r9, sl, fp, ip, pc}^

82000034 <und_string>:
82000034:	65646e75 	strbvs	r6, [r4, #-3701]!	; 0xfffff18b
82000038:	656e6966 	strbvs	r6, [lr, #-2406]!	; 0xfffff69a
8200003c:	6e692064 	cdpvs	0, 6, cr2, cr9, cr4, {3}
82000040:	75727473 	ldrbvc	r7, [r2, #-1139]!	; 0xfffffb8d
82000044:	6f697463 	svcvs	0x00697463
82000048:	7865206e 	stmdavc	r5!, {r1, r2, r3, r5, r6, sp}^
8200004c:	74706563 	ldrbtvc	r6, [r0], #-1379	; 0xfffffa9d
82000050:	006e6f69 	rsbeq	r6, lr, r9, ror #30

82000054 <SVC_Handler>:
82000054:	e92d5fff 	push	{r0, r1, r2, r3, r4, r5, r6, r7, r8, r9, sl, fp, ip, lr}
82000058:	e1a0400e 	mov	r4, lr
8200005c:	e10f0000 	mrs	r0, CPSR
82000060:	e59f10c8 	ldr	r1, [pc, #200]	; 82000130 <clean+0x28>
82000064:	fa000182 	blx	82000674 <printException>
82000068:	e2440004 	sub	r0, r4, #4
8200006c:	fb00018b 	blx	820006a2 <printSWIVal>
82000070:	e8fd9fff 	ldm	sp!, {r0, r1, r2, r3, r4, r5, r6, r7, r8, r9, sl, fp, ip, pc}^

82000074 <swi_string>:
82000074:	20697773 	rsbcs	r7, r9, r3, ror r7
82000078:	65637865 	strbvs	r7, [r3, #-2149]!	; 0xfffff79b
8200007c:	6f697470 	svcvs	0x00697470
82000080:	0000006e 	andeq	r0, r0, lr, rrx

82000084 <IRQ_Handler>:
82000084:	e24ee004 	sub	lr, lr, #4
82000088:	e92d5fff 	push	{r0, r1, r2, r3, r4, r5, r6, r7, r8, r9, sl, fp, ip, lr}
8200008c:	fa00046f 	blx	82001250 <handle_irq_c>
82000090:	e8fd9fff 	ldm	sp!, {r0, r1, r2, r3, r4, r5, r6, r7, r8, r9, sl, fp, ip, pc}^

82000094 <Reset_Handler>:
82000094:	ee110f10 	mrc	15, 0, r0, cr1, cr0, {0}
82000098:	e3c00a02 	bic	r0, r0, #8192	; 0x2000
8200009c:	e3c00a01 	bic	r0, r0, #4096	; 0x1000
820000a0:	e3c00004 	bic	r0, r0, #4
820000a4:	e3c00004 	bic	r0, r0, #4
820000a8:	e3c00b02 	bic	r0, r0, #2048	; 0x800
820000ac:	e3c00001 	bic	r0, r0, #1
820000b0:	ee010f10 	mcr	15, 0, r0, cr1, cr0, {0}
820000b4:	f102001b 	cps	#27
820000b8:	e59fd074 	ldr	sp, [pc, #116]	; 82000134 <clean+0x2c>
820000bc:	f1020012 	cps	#18
820000c0:	e59fd070 	ldr	sp, [pc, #112]	; 82000138 <clean+0x30>
820000c4:	f1020013 	cps	#19
820000c8:	e59fd06c 	ldr	sp, [pc, #108]	; 8200013c <clean+0x34>
820000cc:	e59f006c 	ldr	r0, [pc, #108]	; 82000140 <clean+0x38>
820000d0:	ee0c0f10 	mcr	15, 0, r0, cr12, cr0, {0}
820000d4:	eb000008 	bl	820000fc <clean_bss>
820000d8:	fb000195 	blx	82000736 <system_init>
820000dc:	f1080080 	cpsie	i

820000e0 <und_code>:
820000e0:	deadc0de 	mcrle	0, 5, ip, cr13, cr14, {6}

820000e4 <swi_code>:
820000e4:	ef000123 	svc	0x00000123
820000e8:	ee9f0f10 	mrc	15, 4, r0, cr15, cr0, {0}
820000ec:	e59f103c 	ldr	r1, [pc, #60]	; 82000130 <clean+0x28>
820000f0:	fa00015f 	blx	82000674 <printException>
820000f4:	fa0001a9 	blx	820007a0 <main>

820000f8 <halt>:
820000f8:	eafffffe 	b	820000f8 <halt>

820000fc <clean_bss>:
820000fc:	e59f1040 	ldr	r1, [pc, #64]	; 82000144 <clean+0x3c>
82000100:	e59f2040 	ldr	r2, [pc, #64]	; 82000148 <clean+0x40>
82000104:	e3a03000 	mov	r3, #0

82000108 <clean>:
82000108:	e1510002 	cmp	r1, r2
8200010c:	b5813000 	strlt	r3, [r1]
82000110:	e2811004 	add	r1, r1, #4
82000114:	bafffffb 	blt	82000108 <clean>
82000118:	e1a0f00e 	mov	pc, lr
8200011c:	82000094 	andhi	r0, r0, #148	; 0x94
82000120:	82000020 	andhi	r0, r0, #32
82000124:	82000054 	andhi	r0, r0, #84	; 0x54
82000128:	82000084 	andhi	r0, r0, #132	; 0x84
8200012c:	82000034 	andhi	r0, r0, #52	; 0x34
82000130:	82000074 	andhi	r0, r0, #116	; 0x74
82000134:	80300000 	eorshi	r0, r0, r0
82000138:	80400000 	subhi	r0, r0, r0
8200013c:	80200000 	eorhi	r0, r0, r0
82000140:	82000000 	andhi	r0, r0, #0
82000144:	82002420 	andhi	r2, r0, #32, 8	; 0x20000000
82000148:	82002fe0 	andhi	r2, r0, #224, 30	; 0x380

8200014c <IOMUXC_SetPinMux>:
8200014c:	b480      	push	{r7}
8200014e:	b085      	sub	sp, #20
82000150:	af00      	add	r7, sp, #0
82000152:	60f8      	str	r0, [r7, #12]
82000154:	60b9      	str	r1, [r7, #8]
82000156:	607a      	str	r2, [r7, #4]
82000158:	603b      	str	r3, [r7, #0]
8200015a:	68fb      	ldr	r3, [r7, #12]
8200015c:	68ba      	ldr	r2, [r7, #8]
8200015e:	f002 010f 	and.w	r1, r2, #15
82000162:	69fa      	ldr	r2, [r7, #28]
82000164:	0112      	lsls	r2, r2, #4
82000166:	f002 0210 	and.w	r2, r2, #16
8200016a:	430a      	orrs	r2, r1
8200016c:	601a      	str	r2, [r3, #0]
8200016e:	687b      	ldr	r3, [r7, #4]
82000170:	2b00      	cmp	r3, #0
82000172:	d004      	beq.n	8200017e <IOMUXC_SetPinMux+0x32>
82000174:	687b      	ldr	r3, [r7, #4]
82000176:	683a      	ldr	r2, [r7, #0]
82000178:	f002 0207 	and.w	r2, r2, #7
8200017c:	601a      	str	r2, [r3, #0]
8200017e:	bf00      	nop
82000180:	3714      	adds	r7, #20
82000182:	46bd      	mov	sp, r7
82000184:	f85d 7b04 	ldr.w	r7, [sp], #4
82000188:	4770      	bx	lr

8200018a <IOMUXC_SetPinConfig>:
8200018a:	b480      	push	{r7}
8200018c:	b085      	sub	sp, #20
8200018e:	af00      	add	r7, sp, #0
82000190:	60f8      	str	r0, [r7, #12]
82000192:	60b9      	str	r1, [r7, #8]
82000194:	607a      	str	r2, [r7, #4]
82000196:	603b      	str	r3, [r7, #0]
82000198:	69bb      	ldr	r3, [r7, #24]
8200019a:	2b00      	cmp	r3, #0
8200019c:	d002      	beq.n	820001a4 <IOMUXC_SetPinConfig+0x1a>
8200019e:	69bb      	ldr	r3, [r7, #24]
820001a0:	69fa      	ldr	r2, [r7, #28]
820001a2:	601a      	str	r2, [r3, #0]
820001a4:	bf00      	nop
820001a6:	3714      	adds	r7, #20
820001a8:	46bd      	mov	sp, r7
820001aa:	f85d 7b04 	ldr.w	r7, [sp], #4
820001ae:	4770      	bx	lr

820001b0 <init_pins>:
820001b0:	b580      	push	{r7, lr}
820001b2:	b082      	sub	sp, #8
820001b4:	af02      	add	r7, sp, #8
820001b6:	2300      	movs	r3, #0
820001b8:	9301      	str	r3, [sp, #4]
820001ba:	2358      	movs	r3, #88	; 0x58
820001bc:	f2c0 2329 	movt	r3, #553	; 0x229
820001c0:	9300      	str	r3, [sp, #0]
820001c2:	2300      	movs	r3, #0
820001c4:	2200      	movs	r2, #0
820001c6:	2105      	movs	r1, #5
820001c8:	2014      	movs	r0, #20
820001ca:	f2c0 2029 	movt	r0, #553	; 0x229
820001ce:	f7ff ffbd 	bl	8200014c <IOMUXC_SetPinMux>
820001d2:	2309      	movs	r3, #9
820001d4:	f2c0 0301 	movt	r3, #1
820001d8:	9301      	str	r3, [sp, #4]
820001da:	2358      	movs	r3, #88	; 0x58
820001dc:	f2c0 2329 	movt	r3, #553	; 0x229
820001e0:	9300      	str	r3, [sp, #0]
820001e2:	2300      	movs	r3, #0
820001e4:	2200      	movs	r2, #0
820001e6:	2105      	movs	r1, #5
820001e8:	2014      	movs	r0, #20
820001ea:	f2c0 2029 	movt	r0, #553	; 0x229
820001ee:	f7ff ffcc 	bl	8200018a <IOMUXC_SetPinConfig>
820001f2:	2300      	movs	r3, #0
820001f4:	9301      	str	r3, [sp, #4]
820001f6:	f44f 7345 	mov.w	r3, #788	; 0x314
820001fa:	f2c0 230e 	movt	r3, #526	; 0x20e
820001fe:	9300      	str	r3, [sp, #0]
82000200:	2303      	movs	r3, #3
82000202:	f240 6224 	movw	r2, #1572	; 0x624
82000206:	f2c0 220e 	movt	r2, #526	; 0x20e
8200020a:	2100      	movs	r1, #0
8200020c:	2088      	movs	r0, #136	; 0x88
8200020e:	f2c0 200e 	movt	r0, #526	; 0x20e
82000212:	f7ff ff9b 	bl	8200014c <IOMUXC_SetPinMux>
82000216:	f241 0390 	movw	r3, #4240	; 0x1090
8200021a:	9301      	str	r3, [sp, #4]
8200021c:	f44f 7345 	mov.w	r3, #788	; 0x314
82000220:	f2c0 230e 	movt	r3, #526	; 0x20e
82000224:	9300      	str	r3, [sp, #0]
82000226:	2303      	movs	r3, #3
82000228:	f240 6224 	movw	r2, #1572	; 0x624
8200022c:	f2c0 220e 	movt	r2, #526	; 0x20e
82000230:	2100      	movs	r1, #0
82000232:	2088      	movs	r0, #136	; 0x88
82000234:	f2c0 200e 	movt	r0, #526	; 0x20e
82000238:	f7ff ffa7 	bl	8200018a <IOMUXC_SetPinConfig>
8200023c:	2300      	movs	r3, #0
8200023e:	9301      	str	r3, [sp, #4]
82000240:	f44f 7344 	mov.w	r3, #784	; 0x310
82000244:	f2c0 230e 	movt	r3, #526	; 0x20e
82000248:	9300      	str	r3, [sp, #0]
8200024a:	2300      	movs	r3, #0
8200024c:	2200      	movs	r2, #0
8200024e:	2100      	movs	r1, #0
82000250:	2084      	movs	r0, #132	; 0x84
82000252:	f2c0 200e 	movt	r0, #526	; 0x20e
82000256:	f7ff ff79 	bl	8200014c <IOMUXC_SetPinMux>
8200025a:	f241 0390 	movw	r3, #4240	; 0x1090
8200025e:	9301      	str	r3, [sp, #4]
82000260:	f44f 7344 	mov.w	r3, #784	; 0x310
82000264:	f2c0 230e 	movt	r3, #526	; 0x20e
82000268:	9300      	str	r3, [sp, #0]
8200026a:	2300      	movs	r3, #0
8200026c:	2200      	movs	r2, #0
8200026e:	2100      	movs	r1, #0
82000270:	2084      	movs	r0, #132	; 0x84
82000272:	f2c0 200e 	movt	r0, #526	; 0x20e
82000276:	f7ff ff88 	bl	8200018a <IOMUXC_SetPinConfig>
8200027a:	2308      	movs	r3, #8
8200027c:	9301      	str	r3, [sp, #4]
8200027e:	f44f 638c 	mov.w	r3, #1120	; 0x460
82000282:	f2c0 230e 	movt	r3, #526	; 0x20e
82000286:	9300      	str	r3, [sp, #0]
82000288:	2300      	movs	r3, #0
8200028a:	2200      	movs	r2, #0
8200028c:	2108      	movs	r1, #8
8200028e:	f44f 70ea 	mov.w	r0, #468	; 0x1d4
82000292:	f2c0 200e 	movt	r0, #526	; 0x20e
82000296:	f7ff ff59 	bl	8200014c <IOMUXC_SetPinMux>
8200029a:	2308      	movs	r3, #8
8200029c:	9301      	str	r3, [sp, #4]
8200029e:	f240 4364 	movw	r3, #1124	; 0x464
820002a2:	f2c0 230e 	movt	r3, #526	; 0x20e
820002a6:	9300      	str	r3, [sp, #0]
820002a8:	2303      	movs	r3, #3
820002aa:	f240 624c 	movw	r2, #1612	; 0x64c
820002ae:	f2c0 220e 	movt	r2, #526	; 0x20e
820002b2:	2108      	movs	r1, #8
820002b4:	f44f 70ec 	mov.w	r0, #472	; 0x1d8
820002b8:	f2c0 200e 	movt	r0, #526	; 0x20e
820002bc:	f7ff ff46 	bl	8200014c <IOMUXC_SetPinMux>
820002c0:	f241 03b0 	movw	r3, #4272	; 0x10b0
820002c4:	9301      	str	r3, [sp, #4]
820002c6:	f44f 638c 	mov.w	r3, #1120	; 0x460
820002ca:	f2c0 230e 	movt	r3, #526	; 0x20e
820002ce:	9300      	str	r3, [sp, #0]
820002d0:	2300      	movs	r3, #0
820002d2:	2200      	movs	r2, #0
820002d4:	2108      	movs	r1, #8
820002d6:	f44f 70ea 	mov.w	r0, #468	; 0x1d4
820002da:	f2c0 200e 	movt	r0, #526	; 0x20e
820002de:	f7ff ff54 	bl	8200018a <IOMUXC_SetPinConfig>
820002e2:	f241 03b0 	movw	r3, #4272	; 0x10b0
820002e6:	9301      	str	r3, [sp, #4]
820002e8:	f240 4364 	movw	r3, #1124	; 0x464
820002ec:	f2c0 230e 	movt	r3, #526	; 0x20e
820002f0:	9300      	str	r3, [sp, #0]
820002f2:	2303      	movs	r3, #3
820002f4:	f240 624c 	movw	r2, #1612	; 0x64c
820002f8:	f2c0 220e 	movt	r2, #526	; 0x20e
820002fc:	2108      	movs	r1, #8
820002fe:	f44f 70ec 	mov.w	r0, #472	; 0x1d8
82000302:	f2c0 200e 	movt	r0, #526	; 0x20e
82000306:	f7ff ff40 	bl	8200018a <IOMUXC_SetPinConfig>
8200030a:	2300      	movs	r3, #0
8200030c:	9301      	str	r3, [sp, #4]
8200030e:	2350      	movs	r3, #80	; 0x50
82000310:	f2c0 2329 	movt	r3, #553	; 0x229
82000314:	9300      	str	r3, [sp, #0]
82000316:	2300      	movs	r3, #0
82000318:	2200      	movs	r2, #0
8200031a:	2105      	movs	r1, #5
8200031c:	200c      	movs	r0, #12
8200031e:	f2c0 2029 	movt	r0, #553	; 0x229
82000322:	f7ff ff13 	bl	8200014c <IOMUXC_SetPinMux>
82000326:	f241 03b0 	movw	r3, #4272	; 0x10b0
8200032a:	f2c0 0301 	movt	r3, #1
8200032e:	9301      	str	r3, [sp, #4]
82000330:	2350      	movs	r3, #80	; 0x50
82000332:	f2c0 2329 	movt	r3, #553	; 0x229
82000336:	9300      	str	r3, [sp, #0]
82000338:	2300      	movs	r3, #0
8200033a:	2200      	movs	r2, #0
8200033c:	2105      	movs	r1, #5
8200033e:	200c      	movs	r0, #12
82000340:	f2c0 2029 	movt	r0, #553	; 0x229
82000344:	f7ff ff21 	bl	8200018a <IOMUXC_SetPinConfig>
82000348:	2300      	movs	r3, #0
8200034a:	9301      	str	r3, [sp, #4]
8200034c:	f240 433c 	movw	r3, #1084	; 0x43c
82000350:	f2c0 230e 	movt	r3, #526	; 0x20e
82000354:	9300      	str	r3, [sp, #0]
82000356:	2300      	movs	r3, #0
82000358:	2200      	movs	r2, #0
8200035a:	2105      	movs	r1, #5
8200035c:	f44f 70d8 	mov.w	r0, #432	; 0x1b0
82000360:	f2c0 200e 	movt	r0, #526	; 0x20e
82000364:	f7ff fef2 	bl	8200014c <IOMUXC_SetPinMux>
82000368:	f241 03b0 	movw	r3, #4272	; 0x10b0
8200036c:	f2c0 0301 	movt	r3, #1
82000370:	9301      	str	r3, [sp, #4]
82000372:	f240 433c 	movw	r3, #1084	; 0x43c
82000376:	f2c0 230e 	movt	r3, #526	; 0x20e
8200037a:	9300      	str	r3, [sp, #0]
8200037c:	2300      	movs	r3, #0
8200037e:	2200      	movs	r2, #0
82000380:	2105      	movs	r1, #5
82000382:	f44f 70d8 	mov.w	r0, #432	; 0x1b0
82000386:	f2c0 200e 	movt	r0, #526	; 0x20e
8200038a:	f7ff fefe 	bl	8200018a <IOMUXC_SetPinConfig>
8200038e:	bf00      	nop
82000390:	46bd      	mov	sp, r7
82000392:	bd80      	pop	{r7, pc}

82000394 <delay>:
82000394:	b480      	push	{r7}
82000396:	b083      	sub	sp, #12
82000398:	af00      	add	r7, sp, #0
8200039a:	6078      	str	r0, [r7, #4]
8200039c:	bf00      	nop
8200039e:	687b      	ldr	r3, [r7, #4]
820003a0:	1e5a      	subs	r2, r3, #1
820003a2:	607a      	str	r2, [r7, #4]
820003a4:	2b00      	cmp	r3, #0
820003a6:	d1fa      	bne.n	8200039e <delay+0xa>
820003a8:	bf00      	nop
820003aa:	370c      	adds	r7, #12
820003ac:	46bd      	mov	sp, r7
820003ae:	f85d 7b04 	ldr.w	r7, [sp], #4
820003b2:	4770      	bx	lr

820003b4 <boot_clk_gate_init>:
820003b4:	b480      	push	{r7}
820003b6:	af00      	add	r7, sp, #0
820003b8:	f44f 4380 	mov.w	r3, #16384	; 0x4000
820003bc:	f2c0 230c 	movt	r3, #524	; 0x20c
820003c0:	f04f 32ff 	mov.w	r2, #4294967295	; 0xffffffff
820003c4:	669a      	str	r2, [r3, #104]	; 0x68
820003c6:	f44f 4380 	mov.w	r3, #16384	; 0x4000
820003ca:	f2c0 230c 	movt	r3, #524	; 0x20c
820003ce:	f04f 32ff 	mov.w	r2, #4294967295	; 0xffffffff
820003d2:	66da      	str	r2, [r3, #108]	; 0x6c
820003d4:	f44f 4380 	mov.w	r3, #16384	; 0x4000
820003d8:	f2c0 230c 	movt	r3, #524	; 0x20c
820003dc:	f04f 32ff 	mov.w	r2, #4294967295	; 0xffffffff
820003e0:	671a      	str	r2, [r3, #112]	; 0x70
820003e2:	f44f 4380 	mov.w	r3, #16384	; 0x4000
820003e6:	f2c0 230c 	movt	r3, #524	; 0x20c
820003ea:	f04f 32ff 	mov.w	r2, #4294967295	; 0xffffffff
820003ee:	675a      	str	r2, [r3, #116]	; 0x74
820003f0:	f44f 4380 	mov.w	r3, #16384	; 0x4000
820003f4:	f2c0 230c 	movt	r3, #524	; 0x20c
820003f8:	f04f 32ff 	mov.w	r2, #4294967295	; 0xffffffff
820003fc:	679a      	str	r2, [r3, #120]	; 0x78
820003fe:	f44f 4380 	mov.w	r3, #16384	; 0x4000
82000402:	f2c0 230c 	movt	r3, #524	; 0x20c
82000406:	f04f 32ff 	mov.w	r2, #4294967295	; 0xffffffff
8200040a:	67da      	str	r2, [r3, #124]	; 0x7c
8200040c:	f44f 4380 	mov.w	r3, #16384	; 0x4000
82000410:	f2c0 230c 	movt	r3, #524	; 0x20c
82000414:	f04f 32ff 	mov.w	r2, #4294967295	; 0xffffffff
82000418:	f8c3 2080 	str.w	r2, [r3, #128]	; 0x80
8200041c:	bf00      	nop
8200041e:	46bd      	mov	sp, r7
82000420:	f85d 7b04 	ldr.w	r7, [sp], #4
82000424:	4770      	bx	lr

82000426 <boot_clk_init>:
82000426:	b480      	push	{r7}
82000428:	af00      	add	r7, sp, #0
8200042a:	f44f 4380 	mov.w	r3, #16384	; 0x4000
8200042e:	f2c0 230c 	movt	r3, #524	; 0x20c
82000432:	68db      	ldr	r3, [r3, #12]
82000434:	f003 0304 	and.w	r3, r3, #4
82000438:	2b00      	cmp	r3, #0
8200043a:	d117      	bne.n	8200046c <boot_clk_init+0x46>
8200043c:	f44f 4380 	mov.w	r3, #16384	; 0x4000
82000440:	f2c0 230c 	movt	r3, #524	; 0x20c
82000444:	f44f 4280 	mov.w	r2, #16384	; 0x4000
82000448:	f2c0 220c 	movt	r2, #524	; 0x20c
8200044c:	68d2      	ldr	r2, [r2, #12]
8200044e:	f422 7280 	bic.w	r2, r2, #256	; 0x100
82000452:	60da      	str	r2, [r3, #12]
82000454:	f44f 4380 	mov.w	r3, #16384	; 0x4000
82000458:	f2c0 230c 	movt	r3, #524	; 0x20c
8200045c:	f44f 4280 	mov.w	r2, #16384	; 0x4000
82000460:	f2c0 220c 	movt	r2, #524	; 0x20c
82000464:	68d2      	ldr	r2, [r2, #12]
82000466:	f042 0204 	orr.w	r2, r2, #4
8200046a:	60da      	str	r2, [r3, #12]
8200046c:	f44f 4300 	mov.w	r3, #32768	; 0x8000
82000470:	f2c0 230c 	movt	r3, #524	; 0x20c
82000474:	f242 0258 	movw	r2, #8280	; 0x2058
82000478:	601a      	str	r2, [r3, #0]
8200047a:	f44f 4380 	mov.w	r3, #16384	; 0x4000
8200047e:	f2c0 230c 	movt	r3, #524	; 0x20c
82000482:	f44f 4280 	mov.w	r2, #16384	; 0x4000
82000486:	f2c0 220c 	movt	r2, #524	; 0x20c
8200048a:	68d2      	ldr	r2, [r2, #12]
8200048c:	f022 0204 	bic.w	r2, r2, #4
82000490:	60da      	str	r2, [r3, #12]
82000492:	f44f 4380 	mov.w	r3, #16384	; 0x4000
82000496:	f2c0 230c 	movt	r3, #524	; 0x20c
8200049a:	2201      	movs	r2, #1
8200049c:	611a      	str	r2, [r3, #16]
8200049e:	f44f 4300 	mov.w	r3, #32768	; 0x8000
820004a2:	f2c0 230c 	movt	r3, #524	; 0x20c
820004a6:	f44f 4200 	mov.w	r2, #32768	; 0x8000
820004aa:	f2c0 220c 	movt	r2, #524	; 0x20c
820004ae:	f8d2 2100 	ldr.w	r2, [r2, #256]	; 0x100
820004b2:	f002 32c0 	and.w	r2, r2, #3233857728	; 0xc0c0c0c0
820004b6:	f8c3 2100 	str.w	r2, [r3, #256]	; 0x100
820004ba:	f44f 4200 	mov.w	r2, #32768	; 0x8000
820004be:	f2c0 220c 	movt	r2, #524	; 0x20c
820004c2:	f44f 4300 	mov.w	r3, #32768	; 0x8000
820004c6:	f2c0 230c 	movt	r3, #524	; 0x20c
820004ca:	f8d3 1100 	ldr.w	r1, [r3, #256]	; 0x100
820004ce:	f241 031b 	movw	r3, #4123	; 0x101b
820004d2:	f2c3 0318 	movt	r3, #12312	; 0x3018
820004d6:	430b      	orrs	r3, r1
820004d8:	f8c2 3100 	str.w	r3, [r2, #256]	; 0x100
820004dc:	f44f 4300 	mov.w	r3, #32768	; 0x8000
820004e0:	f2c0 230c 	movt	r3, #524	; 0x20c
820004e4:	f44f 4200 	mov.w	r2, #32768	; 0x8000
820004e8:	f2c0 220c 	movt	r2, #524	; 0x20c
820004ec:	f8d2 20f0 	ldr.w	r2, [r2, #240]	; 0xf0
820004f0:	f002 32c0 	and.w	r2, r2, #3233857728	; 0xc0c0c0c0
820004f4:	f8c3 20f0 	str.w	r2, [r3, #240]	; 0xf0
820004f8:	f44f 4200 	mov.w	r2, #32768	; 0x8000
820004fc:	f2c0 220c 	movt	r2, #524	; 0x20c
82000500:	f44f 4300 	mov.w	r3, #32768	; 0x8000
82000504:	f2c0 230c 	movt	r3, #524	; 0x20c
82000508:	f8d3 10f0 	ldr.w	r1, [r3, #240]	; 0xf0
8200050c:	f241 030c 	movw	r3, #4108	; 0x100c
82000510:	f2c1 3311 	movt	r3, #4881	; 0x1311
82000514:	430b      	orrs	r3, r1
82000516:	f8c2 30f0 	str.w	r3, [r2, #240]	; 0xf0
8200051a:	f44f 4380 	mov.w	r3, #16384	; 0x4000
8200051e:	f2c0 230c 	movt	r3, #524	; 0x20c
82000522:	f44f 4280 	mov.w	r2, #16384	; 0x4000
82000526:	f2c0 220c 	movt	r2, #524	; 0x20c
8200052a:	6992      	ldr	r2, [r2, #24]
8200052c:	f422 02d8 	bic.w	r2, r2, #7077888	; 0x6c0000
82000530:	619a      	str	r2, [r3, #24]
82000532:	f44f 4380 	mov.w	r3, #16384	; 0x4000
82000536:	f2c0 230c 	movt	r3, #524	; 0x20c
8200053a:	f44f 4280 	mov.w	r2, #16384	; 0x4000
8200053e:	f2c0 220c 	movt	r2, #524	; 0x20c
82000542:	6992      	ldr	r2, [r2, #24]
82000544:	f442 1210 	orr.w	r2, r2, #2359296	; 0x240000
82000548:	619a      	str	r2, [r3, #24]
8200054a:	f44f 4380 	mov.w	r3, #16384	; 0x4000
8200054e:	f2c0 230c 	movt	r3, #524	; 0x20c
82000552:	f44f 4280 	mov.w	r2, #16384	; 0x4000
82000556:	f2c0 220c 	movt	r2, #524	; 0x20c
8200055a:	6952      	ldr	r2, [r2, #20]
8200055c:	f022 62c0 	bic.w	r2, r2, #100663296	; 0x6000000
82000560:	615a      	str	r2, [r3, #20]
82000562:	f44f 4380 	mov.w	r3, #16384	; 0x4000
82000566:	f2c0 230c 	movt	r3, #524	; 0x20c
8200056a:	f44f 4280 	mov.w	r2, #16384	; 0x4000
8200056e:	f2c0 220c 	movt	r2, #524	; 0x20c
82000572:	6952      	ldr	r2, [r2, #20]
82000574:	615a      	str	r2, [r3, #20]
82000576:	f44f 4280 	mov.w	r2, #16384	; 0x4000
8200057a:	f2c0 220c 	movt	r2, #524	; 0x20c
8200057e:	f44f 4380 	mov.w	r3, #16384	; 0x4000
82000582:	f2c0 230c 	movt	r3, #524	; 0x20c
82000586:	695b      	ldr	r3, [r3, #20]
82000588:	f423 23e0 	bic.w	r3, r3, #458752	; 0x70000
8200058c:	f423 7340 	bic.w	r3, r3, #768	; 0x300
82000590:	6153      	str	r3, [r2, #20]
82000592:	f44f 4280 	mov.w	r2, #16384	; 0x4000
82000596:	f2c0 220c 	movt	r2, #524	; 0x20c
8200059a:	f44f 4380 	mov.w	r3, #16384	; 0x4000
8200059e:	f2c0 230c 	movt	r3, #524	; 0x20c
820005a2:	695b      	ldr	r3, [r3, #20]
820005a4:	f443 3380 	orr.w	r3, r3, #65536	; 0x10000
820005a8:	f443 7380 	orr.w	r3, r3, #256	; 0x100
820005ac:	6153      	str	r3, [r2, #20]
820005ae:	f44f 4280 	mov.w	r2, #16384	; 0x4000
820005b2:	f2c0 220c 	movt	r2, #524	; 0x20c
820005b6:	f44f 4380 	mov.w	r3, #16384	; 0x4000
820005ba:	f2c0 230c 	movt	r3, #524	; 0x20c
820005be:	695b      	ldr	r3, [r3, #20]
820005c0:	f023 5360 	bic.w	r3, r3, #939524096	; 0x38000000
820005c4:	f023 0387 	bic.w	r3, r3, #135	; 0x87
820005c8:	6153      	str	r3, [r2, #20]
820005ca:	f44f 4380 	mov.w	r3, #16384	; 0x4000
820005ce:	f2c0 230c 	movt	r3, #524	; 0x20c
820005d2:	f44f 4280 	mov.w	r2, #16384	; 0x4000
820005d6:	f2c0 220c 	movt	r2, #524	; 0x20c
820005da:	6952      	ldr	r2, [r2, #20]
820005dc:	615a      	str	r2, [r3, #20]
820005de:	bf00      	nop
820005e0:	f44f 4380 	mov.w	r3, #16384	; 0x4000
820005e4:	f2c0 230c 	movt	r3, #524	; 0x20c
820005e8:	6c9b      	ldr	r3, [r3, #72]	; 0x48
820005ea:	f003 032f 	and.w	r3, r3, #47	; 0x2f
820005ee:	2b00      	cmp	r3, #0
820005f0:	d1f6      	bne.n	820005e0 <boot_clk_init+0x1ba>
820005f2:	f44f 4380 	mov.w	r3, #16384	; 0x4000
820005f6:	f2c0 230c 	movt	r3, #524	; 0x20c
820005fa:	f44f 4280 	mov.w	r2, #16384	; 0x4000
820005fe:	f2c0 220c 	movt	r2, #524	; 0x20c
82000602:	68d2      	ldr	r2, [r2, #12]
82000604:	f022 0201 	bic.w	r2, r2, #1
82000608:	60da      	str	r2, [r3, #12]
8200060a:	f44f 4380 	mov.w	r3, #16384	; 0x4000
8200060e:	f2c0 230c 	movt	r3, #524	; 0x20c
82000612:	f44f 4280 	mov.w	r2, #16384	; 0x4000
82000616:	f2c0 220c 	movt	r2, #524	; 0x20c
8200061a:	6a52      	ldr	r2, [r2, #36]	; 0x24
8200061c:	f022 0240 	bic.w	r2, r2, #64	; 0x40
82000620:	625a      	str	r2, [r3, #36]	; 0x24
82000622:	f44f 4380 	mov.w	r3, #16384	; 0x4000
82000626:	f2c0 230c 	movt	r3, #524	; 0x20c
8200062a:	f44f 4280 	mov.w	r2, #16384	; 0x4000
8200062e:	f2c0 220c 	movt	r2, #524	; 0x20c
82000632:	6a52      	ldr	r2, [r2, #36]	; 0x24
82000634:	f022 023f 	bic.w	r2, r2, #63	; 0x3f
82000638:	625a      	str	r2, [r3, #36]	; 0x24
8200063a:	f44f 4380 	mov.w	r3, #16384	; 0x4000
8200063e:	f2c0 230c 	movt	r3, #524	; 0x20c
82000642:	f44f 4280 	mov.w	r2, #16384	; 0x4000
82000646:	f2c0 220c 	movt	r2, #524	; 0x20c
8200064a:	69d2      	ldr	r2, [r2, #28]
8200064c:	f022 0240 	bic.w	r2, r2, #64	; 0x40
82000650:	61da      	str	r2, [r3, #28]
82000652:	f44f 4380 	mov.w	r3, #16384	; 0x4000
82000656:	f2c0 230c 	movt	r3, #524	; 0x20c
8200065a:	f44f 4280 	mov.w	r2, #16384	; 0x4000
8200065e:	f2c0 220c 	movt	r2, #524	; 0x20c
82000662:	69d2      	ldr	r2, [r2, #28]
82000664:	f022 023f 	bic.w	r2, r2, #63	; 0x3f
82000668:	61da      	str	r2, [r3, #28]
8200066a:	bf00      	nop
8200066c:	46bd      	mov	sp, r7
8200066e:	f85d 7b04 	ldr.w	r7, [sp], #4
82000672:	4770      	bx	lr

82000674 <printException>:
82000674:	b580      	push	{r7, lr}
82000676:	b082      	sub	sp, #8
82000678:	af00      	add	r7, sp, #0
8200067a:	6078      	str	r0, [r7, #4]
8200067c:	6039      	str	r1, [r7, #0]
8200067e:	6879      	ldr	r1, [r7, #4]
82000680:	f242 108c 	movw	r0, #8588	; 0x218c
82000684:	f2c8 2000 	movt	r0, #33280	; 0x8200
82000688:	f000 fcdb 	bl	82001042 <printf>
8200068c:	6839      	ldr	r1, [r7, #0]
8200068e:	f242 10a8 	movw	r0, #8616	; 0x21a8
82000692:	f2c8 2000 	movt	r0, #33280	; 0x8200
82000696:	f000 fcd4 	bl	82001042 <printf>
8200069a:	bf00      	nop
8200069c:	3708      	adds	r7, #8
8200069e:	46bd      	mov	sp, r7
820006a0:	bd80      	pop	{r7, pc}

820006a2 <printSWIVal>:
820006a2:	b580      	push	{r7, lr}
820006a4:	b082      	sub	sp, #8
820006a6:	af00      	add	r7, sp, #0
820006a8:	6078      	str	r0, [r7, #4]
820006aa:	687b      	ldr	r3, [r7, #4]
820006ac:	681b      	ldr	r3, [r3, #0]
820006ae:	f023 437f 	bic.w	r3, r3, #4278190080	; 0xff000000
820006b2:	4619      	mov	r1, r3
820006b4:	f242 10b0 	movw	r0, #8624	; 0x21b0
820006b8:	f2c8 2000 	movt	r0, #33280	; 0x8200
820006bc:	f000 fcc1 	bl	82001042 <printf>
820006c0:	bf00      	nop
820006c2:	3708      	adds	r7, #8
820006c4:	46bd      	mov	sp, r7
820006c6:	bd80      	pop	{r7, pc}

820006c8 <key_irq_init>:
820006c8:	b480      	push	{r7}
820006ca:	af00      	add	r7, sp, #0
820006cc:	f44f 4340 	mov.w	r3, #49152	; 0xc000
820006d0:	f2c0 230a 	movt	r3, #522	; 0x20a
820006d4:	f44f 4240 	mov.w	r2, #49152	; 0xc000
820006d8:	f2c0 220a 	movt	r2, #522	; 0x20a
820006dc:	69d2      	ldr	r2, [r2, #28]
820006de:	f042 0202 	orr.w	r2, r2, #2
820006e2:	61da      	str	r2, [r3, #28]
820006e4:	f44f 4340 	mov.w	r3, #49152	; 0xc000
820006e8:	f2c0 230a 	movt	r3, #522	; 0x20a
820006ec:	f44f 4240 	mov.w	r2, #49152	; 0xc000
820006f0:	f2c0 220a 	movt	r2, #522	; 0x20a
820006f4:	6952      	ldr	r2, [r2, #20]
820006f6:	f042 0202 	orr.w	r2, r2, #2
820006fa:	615a      	str	r2, [r3, #20]
820006fc:	f44f 4300 	mov.w	r3, #32768	; 0x8000
82000700:	f2c0 230a 	movt	r3, #522	; 0x20a
82000704:	f44f 4200 	mov.w	r2, #32768	; 0x8000
82000708:	f2c0 220a 	movt	r2, #522	; 0x20a
8200070c:	69d2      	ldr	r2, [r2, #28]
8200070e:	f442 4280 	orr.w	r2, r2, #16384	; 0x4000
82000712:	61da      	str	r2, [r3, #28]
82000714:	f44f 4300 	mov.w	r3, #32768	; 0x8000
82000718:	f2c0 230a 	movt	r3, #522	; 0x20a
8200071c:	f44f 4200 	mov.w	r2, #32768	; 0x8000
82000720:	f2c0 220a 	movt	r2, #522	; 0x20a
82000724:	6952      	ldr	r2, [r2, #20]
82000726:	f442 4280 	orr.w	r2, r2, #16384	; 0x4000
8200072a:	615a      	str	r2, [r3, #20]
8200072c:	bf00      	nop
8200072e:	46bd      	mov	sp, r7
82000730:	f85d 7b04 	ldr.w	r7, [sp], #4
82000734:	4770      	bx	lr

82000736 <system_init>:
82000736:	b580      	push	{r7, lr}
82000738:	af00      	add	r7, sp, #0
8200073a:	f7ff fd39 	bl	820001b0 <init_pins>
8200073e:	f000 fd1e 	bl	8200117e <gic_init>
82000742:	f000 f8d5 	bl	820008f0 <led_gpio_init>
82000746:	2000      	movs	r0, #0
82000748:	f000 f8e5 	bl	82000916 <led_ctl>
8200074c:	f7ff fe32 	bl	820003b4 <boot_clk_gate_init>
82000750:	f7ff fe69 	bl	82000426 <boot_clk_init>
82000754:	f242 10dc 	movw	r0, #8668	; 0x21dc
82000758:	f2c8 2000 	movt	r0, #33280	; 0x8200
8200075c:	f000 fae4 	bl	82000d28 <puts>
82000760:	f7ff ffb2 	bl	820006c8 <key_irq_init>
82000764:	206a      	movs	r0, #106	; 0x6a
82000766:	f000 fd45 	bl	820011f4 <gic_enable_irq>
8200076a:	2068      	movs	r0, #104	; 0x68
8200076c:	f000 fd42 	bl	820011f4 <gic_enable_irq>
82000770:	2058      	movs	r0, #88	; 0x58
82000772:	f000 fd3f 	bl	820011f4 <gic_enable_irq>
82000776:	203a      	movs	r0, #58	; 0x3a
82000778:	f000 fd3c 	bl	820011f4 <gic_enable_irq>
8200077c:	2031      	movs	r0, #49	; 0x31
8200077e:	f000 fd39 	bl	820011f4 <gic_enable_irq>
82000782:	f44f 4234 	mov.w	r2, #46080	; 0xb400
82000786:	f2c0 42c4 	movt	r2, #1220	; 0x4c4
8200078a:	f44f 31e1 	mov.w	r1, #115200	; 0x1c200
8200078e:	2000      	movs	r0, #0
82000790:	f2c0 2002 	movt	r0, #514	; 0x202
82000794:	f000 fa3f 	bl	82000c16 <uart_init>
82000798:	f000 ff7e 	bl	82001698 <AT24CXX_Init>
8200079c:	bf00      	nop
8200079e:	bd80      	pop	{r7, pc}

820007a0 <main>:
820007a0:	b5b0      	push	{r4, r5, r7, lr}
820007a2:	b090      	sub	sp, #64	; 0x40
820007a4:	af00      	add	r7, sp, #0
820007a6:	2300      	movs	r3, #0
820007a8:	87fb      	strh	r3, [r7, #62]	; 0x3e
820007aa:	f242 2368 	movw	r3, #8808	; 0x2268
820007ae:	f2c8 2300 	movt	r3, #33280	; 0x8200
820007b2:	f107 0428 	add.w	r4, r7, #40	; 0x28
820007b6:	461d      	mov	r5, r3
820007b8:	cd0f      	ldmia	r5!, {r0, r1, r2, r3}
820007ba:	c40f      	stmia	r4!, {r0, r1, r2, r3}
820007bc:	682b      	ldr	r3, [r5, #0]
820007be:	6023      	str	r3, [r4, #0]
820007c0:	f242 237c 	movw	r3, #8828	; 0x227c
820007c4:	f2c8 2300 	movt	r3, #33280	; 0x8200
820007c8:	f107 0414 	add.w	r4, r7, #20
820007cc:	461d      	mov	r5, r3
820007ce:	cd0f      	ldmia	r5!, {r0, r1, r2, r3}
820007d0:	c40f      	stmia	r4!, {r0, r1, r2, r3}
820007d2:	682b      	ldr	r3, [r5, #0]
820007d4:	6023      	str	r3, [r4, #0]
820007d6:	f107 0314 	add.w	r3, r7, #20
820007da:	2214      	movs	r2, #20
820007dc:	4619      	mov	r1, r3
820007de:	200a      	movs	r0, #10
820007e0:	f000 ffff 	bl	820017e2 <AT24CXX_Write>
820007e4:	463b      	mov	r3, r7
820007e6:	2214      	movs	r2, #20
820007e8:	4619      	mov	r1, r3
820007ea:	200a      	movs	r0, #10
820007ec:	f000 ffd5 	bl	8200179a <AT24CXX_Read>
820007f0:	463b      	mov	r3, r7
820007f2:	4619      	mov	r1, r3
820007f4:	f242 10ec 	movw	r0, #8684	; 0x21ec
820007f8:	f2c8 2000 	movt	r0, #33280	; 0x8200
820007fc:	f000 fc21 	bl	82001042 <printf>
82000800:	f242 4323 	movw	r3, #9251	; 0x2423
82000804:	f2c8 2300 	movt	r3, #33280	; 0x8200
82000808:	2200      	movs	r2, #0
8200080a:	701a      	strb	r2, [r3, #0]
8200080c:	f242 4322 	movw	r3, #9250	; 0x2422
82000810:	f2c8 2300 	movt	r3, #33280	; 0x8200
82000814:	2200      	movs	r2, #0
82000816:	701a      	strb	r2, [r3, #0]
82000818:	f242 4323 	movw	r3, #9251	; 0x2423
8200081c:	f2c8 2300 	movt	r3, #33280	; 0x8200
82000820:	781b      	ldrb	r3, [r3, #0]
82000822:	2b00      	cmp	r3, #0
82000824:	d01a      	beq.n	8200085c <main+0xbc>
82000826:	f242 4323 	movw	r3, #9251	; 0x2423
8200082a:	f2c8 2300 	movt	r3, #33280	; 0x8200
8200082e:	2200      	movs	r2, #0
82000830:	701a      	strb	r2, [r3, #0]
82000832:	f242 2008 	movw	r0, #8712	; 0x2208
82000836:	f2c8 2000 	movt	r0, #33280	; 0x8200
8200083a:	f000 fc02 	bl	82001042 <printf>
8200083e:	463b      	mov	r3, r7
82000840:	2214      	movs	r2, #20
82000842:	4619      	mov	r1, r3
82000844:	2000      	movs	r0, #0
82000846:	f000 ffa8 	bl	8200179a <AT24CXX_Read>
8200084a:	463b      	mov	r3, r7
8200084c:	4619      	mov	r1, r3
8200084e:	f242 10ec 	movw	r0, #8684	; 0x21ec
82000852:	f2c8 2000 	movt	r0, #33280	; 0x8200
82000856:	f000 fbf4 	bl	82001042 <printf>
8200085a:	e01f      	b.n	8200089c <main+0xfc>
8200085c:	f242 4322 	movw	r3, #9250	; 0x2422
82000860:	f2c8 2300 	movt	r3, #33280	; 0x8200
82000864:	781b      	ldrb	r3, [r3, #0]
82000866:	2b00      	cmp	r3, #0
82000868:	d018      	beq.n	8200089c <main+0xfc>
8200086a:	f242 4322 	movw	r3, #9250	; 0x2422
8200086e:	f2c8 2300 	movt	r3, #33280	; 0x8200
82000872:	2200      	movs	r2, #0
82000874:	701a      	strb	r2, [r3, #0]
82000876:	f242 2028 	movw	r0, #8744	; 0x2228
8200087a:	f2c8 2000 	movt	r0, #33280	; 0x8200
8200087e:	f000 fbe0 	bl	82001042 <printf>
82000882:	f107 0328 	add.w	r3, r7, #40	; 0x28
82000886:	2214      	movs	r2, #20
82000888:	4619      	mov	r1, r3
8200088a:	2000      	movs	r0, #0
8200088c:	f000 ffa9 	bl	820017e2 <AT24CXX_Write>
82000890:	f242 2048 	movw	r0, #8776	; 0x2248
82000894:	f2c8 2000 	movt	r0, #33280	; 0x8200
82000898:	f000 fbd3 	bl	82001042 <printf>
8200089c:	8ffb      	ldrh	r3, [r7, #62]	; 0x3e
8200089e:	2b00      	cmp	r3, #0
820008a0:	d00c      	beq.n	820008bc <main+0x11c>
820008a2:	f44f 4340 	mov.w	r3, #49152	; 0xc000
820008a6:	f2c0 230a 	movt	r3, #522	; 0x20a
820008aa:	f44f 4240 	mov.w	r2, #49152	; 0xc000
820008ae:	f2c0 220a 	movt	r2, #522	; 0x20a
820008b2:	6812      	ldr	r2, [r2, #0]
820008b4:	f022 0208 	bic.w	r2, r2, #8
820008b8:	601a      	str	r2, [r3, #0]
820008ba:	e00b      	b.n	820008d4 <main+0x134>
820008bc:	f44f 4340 	mov.w	r3, #49152	; 0xc000
820008c0:	f2c0 230a 	movt	r3, #522	; 0x20a
820008c4:	f44f 4240 	mov.w	r2, #49152	; 0xc000
820008c8:	f2c0 220a 	movt	r2, #522	; 0x20a
820008cc:	6812      	ldr	r2, [r2, #0]
820008ce:	f042 0208 	orr.w	r2, r2, #8
820008d2:	601a      	str	r2, [r3, #0]
820008d4:	8ffb      	ldrh	r3, [r7, #62]	; 0x3e
820008d6:	2b00      	cmp	r3, #0
820008d8:	bf0c      	ite	eq
820008da:	2301      	moveq	r3, #1
820008dc:	2300      	movne	r3, #0
820008de:	b2db      	uxtb	r3, r3
820008e0:	87fb      	strh	r3, [r7, #62]	; 0x3e
820008e2:	f244 2040 	movw	r0, #16960	; 0x4240
820008e6:	f2c0 000f 	movt	r0, #15
820008ea:	f000 fe14 	bl	82001516 <gpt2_chan1_delay_us>
820008ee:	e793      	b.n	82000818 <main+0x78>

820008f0 <led_gpio_init>:
820008f0:	b480      	push	{r7}
820008f2:	af00      	add	r7, sp, #0
820008f4:	f44f 4340 	mov.w	r3, #49152	; 0xc000
820008f8:	f2c0 230a 	movt	r3, #522	; 0x20a
820008fc:	f44f 4240 	mov.w	r2, #49152	; 0xc000
82000900:	f2c0 220a 	movt	r2, #522	; 0x20a
82000904:	6852      	ldr	r2, [r2, #4]
82000906:	f042 0208 	orr.w	r2, r2, #8
8200090a:	605a      	str	r2, [r3, #4]
8200090c:	bf00      	nop
8200090e:	46bd      	mov	sp, r7
82000910:	f85d 7b04 	ldr.w	r7, [sp], #4
82000914:	4770      	bx	lr

82000916 <led_ctl>:
82000916:	b480      	push	{r7}
82000918:	b083      	sub	sp, #12
8200091a:	af00      	add	r7, sp, #0
8200091c:	6078      	str	r0, [r7, #4]
8200091e:	687b      	ldr	r3, [r7, #4]
82000920:	2b00      	cmp	r3, #0
82000922:	d00c      	beq.n	8200093e <led_ctl+0x28>
82000924:	f44f 4340 	mov.w	r3, #49152	; 0xc000
82000928:	f2c0 230a 	movt	r3, #522	; 0x20a
8200092c:	f44f 4240 	mov.w	r2, #49152	; 0xc000
82000930:	f2c0 220a 	movt	r2, #522	; 0x20a
82000934:	6812      	ldr	r2, [r2, #0]
82000936:	f022 0208 	bic.w	r2, r2, #8
8200093a:	601a      	str	r2, [r3, #0]
8200093c:	e00b      	b.n	82000956 <led_ctl+0x40>
8200093e:	f44f 4340 	mov.w	r3, #49152	; 0xc000
82000942:	f2c0 230a 	movt	r3, #522	; 0x20a
82000946:	f44f 4240 	mov.w	r2, #49152	; 0xc000
8200094a:	f2c0 220a 	movt	r2, #522	; 0x20a
8200094e:	6812      	ldr	r2, [r2, #0]
82000950:	f042 0208 	orr.w	r2, r2, #8
82000954:	601a      	str	r2, [r3, #0]
82000956:	bf00      	nop
82000958:	370c      	adds	r7, #12
8200095a:	46bd      	mov	sp, r7
8200095c:	f85d 7b04 	ldr.w	r7, [sp], #4
82000960:	4770      	bx	lr
	...

82000964 <UART_SetBaudRate>:
82000964:	b590      	push	{r4, r7, lr}
82000966:	b093      	sub	sp, #76	; 0x4c
82000968:	af00      	add	r7, sp, #0
8200096a:	60f8      	str	r0, [r7, #12]
8200096c:	60b9      	str	r1, [r7, #8]
8200096e:	607a      	str	r2, [r7, #4]
82000970:	2300      	movs	r3, #0
82000972:	647b      	str	r3, [r7, #68]	; 0x44
82000974:	2300      	movs	r3, #0
82000976:	643b      	str	r3, [r7, #64]	; 0x40
82000978:	2300      	movs	r3, #0
8200097a:	63fb      	str	r3, [r7, #60]	; 0x3c
8200097c:	2300      	movs	r3, #0
8200097e:	63bb      	str	r3, [r7, #56]	; 0x38
82000980:	2301      	movs	r3, #1
82000982:	62bb      	str	r3, [r7, #40]	; 0x28
82000984:	f04f 0300 	mov.w	r3, #0
82000988:	f04f 0400 	mov.w	r4, #0
8200098c:	e9c7 3408 	strd	r3, r4, [r7, #32]
82000990:	f04f 0300 	mov.w	r3, #0
82000994:	f04f 0400 	mov.w	r4, #0
82000998:	e9c7 340c 	strd	r3, r4, [r7, #48]	; 0x30
8200099c:	2300      	movs	r3, #0
8200099e:	62fb      	str	r3, [r7, #44]	; 0x2c
820009a0:	687b      	ldr	r3, [r7, #4]
820009a2:	647b      	str	r3, [r7, #68]	; 0x44
820009a4:	68bb      	ldr	r3, [r7, #8]
820009a6:	011b      	lsls	r3, r3, #4
820009a8:	643b      	str	r3, [r7, #64]	; 0x40
820009aa:	2301      	movs	r3, #1
820009ac:	63fb      	str	r3, [r7, #60]	; 0x3c
820009ae:	e00a      	b.n	820009c6 <UART_SetBaudRate+0x62>
820009b0:	6c3b      	ldr	r3, [r7, #64]	; 0x40
820009b2:	63fb      	str	r3, [r7, #60]	; 0x3c
820009b4:	6c7b      	ldr	r3, [r7, #68]	; 0x44
820009b6:	6c39      	ldr	r1, [r7, #64]	; 0x40
820009b8:	4618      	mov	r0, r3
820009ba:	f001 fb2f 	bl	8200201c <__aeabi_uidivmod>
820009be:	460b      	mov	r3, r1
820009c0:	643b      	str	r3, [r7, #64]	; 0x40
820009c2:	6bfb      	ldr	r3, [r7, #60]	; 0x3c
820009c4:	647b      	str	r3, [r7, #68]	; 0x44
820009c6:	6c3b      	ldr	r3, [r7, #64]	; 0x40
820009c8:	2b00      	cmp	r3, #0
820009ca:	d1f1      	bne.n	820009b0 <UART_SetBaudRate+0x4c>
820009cc:	6bf9      	ldr	r1, [r7, #60]	; 0x3c
820009ce:	6878      	ldr	r0, [r7, #4]
820009d0:	f001 f9f6 	bl	82001dc0 <__aeabi_uidiv>
820009d4:	4603      	mov	r3, r0
820009d6:	647b      	str	r3, [r7, #68]	; 0x44
820009d8:	68bb      	ldr	r3, [r7, #8]
820009da:	011b      	lsls	r3, r3, #4
820009dc:	6bf9      	ldr	r1, [r7, #60]	; 0x3c
820009de:	4618      	mov	r0, r3
820009e0:	f001 f9ee 	bl	82001dc0 <__aeabi_uidiv>
820009e4:	4603      	mov	r3, r0
820009e6:	643b      	str	r3, [r7, #64]	; 0x40
820009e8:	6c7a      	ldr	r2, [r7, #68]	; 0x44
820009ea:	f64f 73f9 	movw	r3, #65529	; 0xfff9
820009ee:	f2c0 0306 	movt	r3, #6
820009f2:	429a      	cmp	r2, r3
820009f4:	d803      	bhi.n	820009fe <UART_SetBaudRate+0x9a>
820009f6:	6c3b      	ldr	r3, [r7, #64]	; 0x40
820009f8:	f5b3 3f80 	cmp.w	r3, #65536	; 0x10000
820009fc:	d334      	bcc.n	82000a68 <UART_SetBaudRate+0x104>
820009fe:	6c7b      	ldr	r3, [r7, #68]	; 0x44
82000a00:	1e5a      	subs	r2, r3, #1
82000a02:	f646 53b9 	movw	r3, #28089	; 0x6db9
82000a06:	f2c2 4393 	movt	r3, #9363	; 0x2493
82000a0a:	fba2 3403 	umull	r3, r4, r2, r3
82000a0e:	1b12      	subs	r2, r2, r4
82000a10:	0852      	lsrs	r2, r2, #1
82000a12:	1913      	adds	r3, r2, r4
82000a14:	0c9b      	lsrs	r3, r3, #18
82000a16:	3301      	adds	r3, #1
82000a18:	61fb      	str	r3, [r7, #28]
82000a1a:	6c3b      	ldr	r3, [r7, #64]	; 0x40
82000a1c:	1e5a      	subs	r2, r3, #1
82000a1e:	f248 0301 	movw	r3, #32769	; 0x8001
82000a22:	f2c8 0300 	movt	r3, #32768	; 0x8000
82000a26:	fba2 3403 	umull	r3, r4, r2, r3
82000a2a:	0be3      	lsrs	r3, r4, #15
82000a2c:	3301      	adds	r3, #1
82000a2e:	61bb      	str	r3, [r7, #24]
82000a30:	69ba      	ldr	r2, [r7, #24]
82000a32:	69fb      	ldr	r3, [r7, #28]
82000a34:	4293      	cmp	r3, r2
82000a36:	bf38      	it	cc
82000a38:	4613      	movcc	r3, r2
82000a3a:	617b      	str	r3, [r7, #20]
82000a3c:	6979      	ldr	r1, [r7, #20]
82000a3e:	6c78      	ldr	r0, [r7, #68]	; 0x44
82000a40:	f001 f9be 	bl	82001dc0 <__aeabi_uidiv>
82000a44:	4603      	mov	r3, r0
82000a46:	647b      	str	r3, [r7, #68]	; 0x44
82000a48:	6979      	ldr	r1, [r7, #20]
82000a4a:	6c38      	ldr	r0, [r7, #64]	; 0x40
82000a4c:	f001 f9b8 	bl	82001dc0 <__aeabi_uidiv>
82000a50:	4603      	mov	r3, r0
82000a52:	643b      	str	r3, [r7, #64]	; 0x40
82000a54:	6c7b      	ldr	r3, [r7, #68]	; 0x44
82000a56:	2b00      	cmp	r3, #0
82000a58:	d101      	bne.n	82000a5e <UART_SetBaudRate+0xfa>
82000a5a:	2301      	movs	r3, #1
82000a5c:	647b      	str	r3, [r7, #68]	; 0x44
82000a5e:	6c3b      	ldr	r3, [r7, #64]	; 0x40
82000a60:	2b00      	cmp	r3, #0
82000a62:	d101      	bne.n	82000a68 <UART_SetBaudRate+0x104>
82000a64:	2301      	movs	r3, #1
82000a66:	643b      	str	r3, [r7, #64]	; 0x40
82000a68:	6c7b      	ldr	r3, [r7, #68]	; 0x44
82000a6a:	1e5a      	subs	r2, r3, #1
82000a6c:	f248 0301 	movw	r3, #32769	; 0x8001
82000a70:	f2c8 0300 	movt	r3, #32768	; 0x8000
82000a74:	fba2 3403 	umull	r3, r4, r2, r3
82000a78:	0be3      	lsrs	r3, r4, #15
82000a7a:	3301      	adds	r3, #1
82000a7c:	62bb      	str	r3, [r7, #40]	; 0x28
82000a7e:	6abb      	ldr	r3, [r7, #40]	; 0x28
82000a80:	3b01      	subs	r3, #1
82000a82:	2b06      	cmp	r3, #6
82000a84:	d825      	bhi.n	82000ad2 <UART_SetBaudRate+0x16e>
82000a86:	a201      	add	r2, pc, #4	; (adr r2, 82000a8c <UART_SetBaudRate+0x128>)
82000a88:	f852 f023 	ldr.w	pc, [r2, r3, lsl #2]
82000a8c:	82000aa9 	andhi	r0, r0, #692224	; 0xa9000
82000a90:	82000aaf 	andhi	r0, r0, #716800	; 0xaf000
82000a94:	82000ab5 	andhi	r0, r0, #741376	; 0xb5000
82000a98:	82000abb 	andhi	r0, r0, #765952	; 0xbb000
82000a9c:	82000ac1 	andhi	r0, r0, #790528	; 0xc1000
82000aa0:	82000ac7 	andhi	r0, r0, #815104	; 0xc7000
82000aa4:	82000acd 	andhi	r0, r0, #839680	; 0xcd000
82000aa8:	2305      	movs	r3, #5
82000aaa:	63bb      	str	r3, [r7, #56]	; 0x38
82000aac:	e014      	b.n	82000ad8 <UART_SetBaudRate+0x174>
82000aae:	2304      	movs	r3, #4
82000ab0:	63bb      	str	r3, [r7, #56]	; 0x38
82000ab2:	e011      	b.n	82000ad8 <UART_SetBaudRate+0x174>
82000ab4:	2303      	movs	r3, #3
82000ab6:	63bb      	str	r3, [r7, #56]	; 0x38
82000ab8:	e00e      	b.n	82000ad8 <UART_SetBaudRate+0x174>
82000aba:	2302      	movs	r3, #2
82000abc:	63bb      	str	r3, [r7, #56]	; 0x38
82000abe:	e00b      	b.n	82000ad8 <UART_SetBaudRate+0x174>
82000ac0:	2301      	movs	r3, #1
82000ac2:	63bb      	str	r3, [r7, #56]	; 0x38
82000ac4:	e008      	b.n	82000ad8 <UART_SetBaudRate+0x174>
82000ac6:	2300      	movs	r3, #0
82000ac8:	63bb      	str	r3, [r7, #56]	; 0x38
82000aca:	e005      	b.n	82000ad8 <UART_SetBaudRate+0x174>
82000acc:	2306      	movs	r3, #6
82000ace:	63bb      	str	r3, [r7, #56]	; 0x38
82000ad0:	e002      	b.n	82000ad8 <UART_SetBaudRate+0x174>
82000ad2:	2305      	movs	r3, #5
82000ad4:	63bb      	str	r3, [r7, #56]	; 0x38
82000ad6:	bf00      	nop
82000ad8:	687b      	ldr	r3, [r7, #4]
82000ada:	f04f 0400 	mov.w	r4, #0
82000ade:	e9c7 340c 	strd	r3, r4, [r7, #48]	; 0x30
82000ae2:	6c7b      	ldr	r3, [r7, #68]	; 0x44
82000ae4:	011b      	lsls	r3, r3, #4
82000ae6:	62fb      	str	r3, [r7, #44]	; 0x2c
82000ae8:	2301      	movs	r3, #1
82000aea:	63fb      	str	r3, [r7, #60]	; 0x3c
82000aec:	e012      	b.n	82000b14 <UART_SetBaudRate+0x1b0>
82000aee:	6afb      	ldr	r3, [r7, #44]	; 0x2c
82000af0:	63fb      	str	r3, [r7, #60]	; 0x3c
82000af2:	6afb      	ldr	r3, [r7, #44]	; 0x2c
82000af4:	f04f 0400 	mov.w	r4, #0
82000af8:	e9d7 010c 	ldrd	r0, r1, [r7, #48]	; 0x30
82000afc:	461a      	mov	r2, r3
82000afe:	4623      	mov	r3, r4
82000b00:	f001 fa9a 	bl	82002038 <__aeabi_uldivmod>
82000b04:	461c      	mov	r4, r3
82000b06:	4613      	mov	r3, r2
82000b08:	62fb      	str	r3, [r7, #44]	; 0x2c
82000b0a:	6bfb      	ldr	r3, [r7, #60]	; 0x3c
82000b0c:	f04f 0400 	mov.w	r4, #0
82000b10:	e9c7 340c 	strd	r3, r4, [r7, #48]	; 0x30
82000b14:	6afb      	ldr	r3, [r7, #44]	; 0x2c
82000b16:	2b00      	cmp	r3, #0
82000b18:	d1e9      	bne.n	82000aee <UART_SetBaudRate+0x18a>
82000b1a:	6bf9      	ldr	r1, [r7, #60]	; 0x3c
82000b1c:	6878      	ldr	r0, [r7, #4]
82000b1e:	f001 f94f 	bl	82001dc0 <__aeabi_uidiv>
82000b22:	4603      	mov	r3, r0
82000b24:	f04f 0400 	mov.w	r4, #0
82000b28:	e9c7 340c 	strd	r3, r4, [r7, #48]	; 0x30
82000b2c:	6c7b      	ldr	r3, [r7, #68]	; 0x44
82000b2e:	011b      	lsls	r3, r3, #4
82000b30:	6bf9      	ldr	r1, [r7, #60]	; 0x3c
82000b32:	4618      	mov	r0, r3
82000b34:	f001 f944 	bl	82001dc0 <__aeabi_uidiv>
82000b38:	4603      	mov	r3, r0
82000b3a:	62fb      	str	r3, [r7, #44]	; 0x2c
82000b3c:	6c3b      	ldr	r3, [r7, #64]	; 0x40
82000b3e:	f04f 0400 	mov.w	r4, #0
82000b42:	6b3a      	ldr	r2, [r7, #48]	; 0x30
82000b44:	fb04 f102 	mul.w	r1, r4, r2
82000b48:	6b7a      	ldr	r2, [r7, #52]	; 0x34
82000b4a:	fb03 f202 	mul.w	r2, r3, r2
82000b4e:	440a      	add	r2, r1
82000b50:	6b39      	ldr	r1, [r7, #48]	; 0x30
82000b52:	fba1 0103 	umull	r0, r1, r1, r3
82000b56:	1853      	adds	r3, r2, r1
82000b58:	4619      	mov	r1, r3
82000b5a:	6afb      	ldr	r3, [r7, #44]	; 0x2c
82000b5c:	f04f 0400 	mov.w	r4, #0
82000b60:	461a      	mov	r2, r3
82000b62:	4623      	mov	r3, r4
82000b64:	f001 fa68 	bl	82002038 <__aeabi_uldivmod>
82000b68:	4603      	mov	r3, r0
82000b6a:	460c      	mov	r4, r1
82000b6c:	e9c7 3408 	strd	r3, r4, [r7, #32]
82000b70:	68bb      	ldr	r3, [r7, #8]
82000b72:	f04f 0400 	mov.w	r4, #0
82000b76:	e9d7 1208 	ldrd	r1, r2, [r7, #32]
82000b7a:	42a2      	cmp	r2, r4
82000b7c:	bf08      	it	eq
82000b7e:	4299      	cmpeq	r1, r3
82000b80:	d308      	bcc.n	82000b94 <UART_SetBaudRate+0x230>
82000b82:	68bb      	ldr	r3, [r7, #8]
82000b84:	f04f 0400 	mov.w	r4, #0
82000b88:	e9d7 1208 	ldrd	r1, r2, [r7, #32]
82000b8c:	1acb      	subs	r3, r1, r3
82000b8e:	eb62 0404 	sbc.w	r4, r2, r4
82000b92:	e008      	b.n	82000ba6 <UART_SetBaudRate+0x242>
82000b94:	68bb      	ldr	r3, [r7, #8]
82000b96:	4619      	mov	r1, r3
82000b98:	f04f 0200 	mov.w	r2, #0
82000b9c:	e9d7 3408 	ldrd	r3, r4, [r7, #32]
82000ba0:	1acb      	subs	r3, r1, r3
82000ba2:	eb62 0404 	sbc.w	r4, r2, r4
82000ba6:	e9c7 3408 	strd	r3, r4, [r7, #32]
82000baa:	68fb      	ldr	r3, [r7, #12]
82000bac:	f8d3 3090 	ldr.w	r3, [r3, #144]	; 0x90
82000bb0:	f423 7260 	bic.w	r2, r3, #896	; 0x380
82000bb4:	68fb      	ldr	r3, [r7, #12]
82000bb6:	f8c3 2090 	str.w	r2, [r3, #144]	; 0x90
82000bba:	68fb      	ldr	r3, [r7, #12]
82000bbc:	f8d3 2090 	ldr.w	r2, [r3, #144]	; 0x90
82000bc0:	6bbb      	ldr	r3, [r7, #56]	; 0x38
82000bc2:	01db      	lsls	r3, r3, #7
82000bc4:	f403 7360 	and.w	r3, r3, #896	; 0x380
82000bc8:	431a      	orrs	r2, r3
82000bca:	68fb      	ldr	r3, [r7, #12]
82000bcc:	f8c3 2090 	str.w	r2, [r3, #144]	; 0x90
82000bd0:	6c3b      	ldr	r3, [r7, #64]	; 0x40
82000bd2:	3b01      	subs	r3, #1
82000bd4:	b29a      	uxth	r2, r3
82000bd6:	68fb      	ldr	r3, [r7, #12]
82000bd8:	f8c3 20a4 	str.w	r2, [r3, #164]	; 0xa4
82000bdc:	6ab9      	ldr	r1, [r7, #40]	; 0x28
82000bde:	6c78      	ldr	r0, [r7, #68]	; 0x44
82000be0:	f001 f8ee 	bl	82001dc0 <__aeabi_uidiv>
82000be4:	4603      	mov	r3, r0
82000be6:	3b01      	subs	r3, #1
82000be8:	b29a      	uxth	r2, r3
82000bea:	68fb      	ldr	r3, [r7, #12]
82000bec:	f8c3 20a8 	str.w	r2, [r3, #168]	; 0xa8
82000bf0:	6abb      	ldr	r3, [r7, #40]	; 0x28
82000bf2:	f44f 727a 	mov.w	r2, #1000	; 0x3e8
82000bf6:	fb02 f303 	mul.w	r3, r2, r3
82000bfa:	4619      	mov	r1, r3
82000bfc:	6878      	ldr	r0, [r7, #4]
82000bfe:	f001 f8df 	bl	82001dc0 <__aeabi_uidiv>
82000c02:	4603      	mov	r3, r0
82000c04:	f023 427f 	bic.w	r2, r3, #4278190080	; 0xff000000
82000c08:	68fb      	ldr	r3, [r7, #12]
82000c0a:	f8c3 20b0 	str.w	r2, [r3, #176]	; 0xb0
82000c0e:	bf00      	nop
82000c10:	374c      	adds	r7, #76	; 0x4c
82000c12:	46bd      	mov	sp, r7
82000c14:	bd90      	pop	{r4, r7, pc}

82000c16 <uart_init>:
82000c16:	b580      	push	{r7, lr}
82000c18:	b084      	sub	sp, #16
82000c1a:	af00      	add	r7, sp, #0
82000c1c:	60f8      	str	r0, [r7, #12]
82000c1e:	60b9      	str	r1, [r7, #8]
82000c20:	607a      	str	r2, [r7, #4]
82000c22:	68fb      	ldr	r3, [r7, #12]
82000c24:	f8d3 3080 	ldr.w	r3, [r3, #128]	; 0x80
82000c28:	f023 0201 	bic.w	r2, r3, #1
82000c2c:	68fb      	ldr	r3, [r7, #12]
82000c2e:	f8c3 2080 	str.w	r2, [r3, #128]	; 0x80
82000c32:	68fb      	ldr	r3, [r7, #12]
82000c34:	f8d3 3084 	ldr.w	r3, [r3, #132]	; 0x84
82000c38:	f023 0201 	bic.w	r2, r3, #1
82000c3c:	68fb      	ldr	r3, [r7, #12]
82000c3e:	f8c3 2084 	str.w	r2, [r3, #132]	; 0x84
82000c42:	bf00      	nop
82000c44:	68fb      	ldr	r3, [r7, #12]
82000c46:	f8d3 3084 	ldr.w	r3, [r3, #132]	; 0x84
82000c4a:	f003 0301 	and.w	r3, r3, #1
82000c4e:	2b00      	cmp	r3, #0
82000c50:	d0f8      	beq.n	82000c44 <uart_init+0x2e>
82000c52:	68fb      	ldr	r3, [r7, #12]
82000c54:	2200      	movs	r2, #0
82000c56:	f8c3 2080 	str.w	r2, [r3, #128]	; 0x80
82000c5a:	68fb      	ldr	r3, [r7, #12]
82000c5c:	f8d3 3080 	ldr.w	r3, [r3, #128]	; 0x80
82000c60:	f423 4280 	bic.w	r2, r3, #16384	; 0x4000
82000c64:	68fb      	ldr	r3, [r7, #12]
82000c66:	f8c3 2080 	str.w	r2, [r3, #128]	; 0x80
82000c6a:	68fb      	ldr	r3, [r7, #12]
82000c6c:	2200      	movs	r2, #0
82000c6e:	f8c3 2084 	str.w	r2, [r3, #132]	; 0x84
82000c72:	68fb      	ldr	r3, [r7, #12]
82000c74:	f8d3 3084 	ldr.w	r3, [r3, #132]	; 0x84
82000c78:	f443 4380 	orr.w	r3, r3, #16384	; 0x4000
82000c7c:	f043 0326 	orr.w	r3, r3, #38	; 0x26
82000c80:	68fa      	ldr	r2, [r7, #12]
82000c82:	f8c2 3084 	str.w	r3, [r2, #132]	; 0x84
82000c86:	68fb      	ldr	r3, [r7, #12]
82000c88:	f8d3 3088 	ldr.w	r3, [r3, #136]	; 0x88
82000c8c:	f043 0204 	orr.w	r2, r3, #4
82000c90:	68fb      	ldr	r3, [r7, #12]
82000c92:	f8c3 2088 	str.w	r2, [r3, #136]	; 0x88
82000c96:	68fb      	ldr	r3, [r7, #12]
82000c98:	f8d3 308c 	ldr.w	r3, [r3, #140]	; 0x8c
82000c9c:	f043 0201 	orr.w	r2, r3, #1
82000ca0:	68fb      	ldr	r3, [r7, #12]
82000ca2:	f8c3 208c 	str.w	r2, [r3, #140]	; 0x8c
82000ca6:	687a      	ldr	r2, [r7, #4]
82000ca8:	68b9      	ldr	r1, [r7, #8]
82000caa:	68f8      	ldr	r0, [r7, #12]
82000cac:	f7ff fe5a 	bl	82000964 <UART_SetBaudRate>
82000cb0:	68fb      	ldr	r3, [r7, #12]
82000cb2:	f8d3 3080 	ldr.w	r3, [r3, #128]	; 0x80
82000cb6:	f043 0201 	orr.w	r2, r3, #1
82000cba:	68fb      	ldr	r3, [r7, #12]
82000cbc:	f8c3 2080 	str.w	r2, [r3, #128]	; 0x80
82000cc0:	bf00      	nop
82000cc2:	3710      	adds	r7, #16
82000cc4:	46bd      	mov	sp, r7
82000cc6:	bd80      	pop	{r7, pc}

82000cc8 <putchar>:
82000cc8:	b480      	push	{r7}
82000cca:	b083      	sub	sp, #12
82000ccc:	af00      	add	r7, sp, #0
82000cce:	6078      	str	r0, [r7, #4]
82000cd0:	bf00      	nop
82000cd2:	2300      	movs	r3, #0
82000cd4:	f2c0 2302 	movt	r3, #514	; 0x202
82000cd8:	f8d3 3098 	ldr.w	r3, [r3, #152]	; 0x98
82000cdc:	f003 0308 	and.w	r3, r3, #8
82000ce0:	2b00      	cmp	r3, #0
82000ce2:	d0f6      	beq.n	82000cd2 <putchar+0xa>
82000ce4:	2300      	movs	r3, #0
82000ce6:	f2c0 2302 	movt	r3, #514	; 0x202
82000cea:	687a      	ldr	r2, [r7, #4]
82000cec:	b2d2      	uxtb	r2, r2
82000cee:	641a      	str	r2, [r3, #64]	; 0x40
82000cf0:	bf00      	nop
82000cf2:	370c      	adds	r7, #12
82000cf4:	46bd      	mov	sp, r7
82000cf6:	f85d 7b04 	ldr.w	r7, [sp], #4
82000cfa:	4770      	bx	lr

82000cfc <getchar>:
82000cfc:	b480      	push	{r7}
82000cfe:	af00      	add	r7, sp, #0
82000d00:	bf00      	nop
82000d02:	2300      	movs	r3, #0
82000d04:	f2c0 2302 	movt	r3, #514	; 0x202
82000d08:	f8d3 3098 	ldr.w	r3, [r3, #152]	; 0x98
82000d0c:	f003 0301 	and.w	r3, r3, #1
82000d10:	2b00      	cmp	r3, #0
82000d12:	d0f6      	beq.n	82000d02 <getchar+0x6>
82000d14:	2300      	movs	r3, #0
82000d16:	f2c0 2302 	movt	r3, #514	; 0x202
82000d1a:	681b      	ldr	r3, [r3, #0]
82000d1c:	b2db      	uxtb	r3, r3
82000d1e:	4618      	mov	r0, r3
82000d20:	46bd      	mov	sp, r7
82000d22:	f85d 7b04 	ldr.w	r7, [sp], #4
82000d26:	4770      	bx	lr

82000d28 <puts>:
82000d28:	b580      	push	{r7, lr}
82000d2a:	b082      	sub	sp, #8
82000d2c:	af00      	add	r7, sp, #0
82000d2e:	6078      	str	r0, [r7, #4]
82000d30:	e007      	b.n	82000d42 <puts+0x1a>
82000d32:	687b      	ldr	r3, [r7, #4]
82000d34:	781b      	ldrb	r3, [r3, #0]
82000d36:	4618      	mov	r0, r3
82000d38:	f7ff ffc6 	bl	82000cc8 <putchar>
82000d3c:	687b      	ldr	r3, [r7, #4]
82000d3e:	3301      	adds	r3, #1
82000d40:	607b      	str	r3, [r7, #4]
82000d42:	687b      	ldr	r3, [r7, #4]
82000d44:	781b      	ldrb	r3, [r3, #0]
82000d46:	2b00      	cmp	r3, #0
82000d48:	d1f3      	bne.n	82000d32 <puts+0xa>
82000d4a:	bf00      	nop
82000d4c:	3708      	adds	r7, #8
82000d4e:	46bd      	mov	sp, r7
82000d50:	bd80      	pop	{r7, pc}
82000d52:	bf00      	nop

82000d54 <raise>:
82000d54:	b480      	push	{r7}
82000d56:	b083      	sub	sp, #12
82000d58:	af00      	add	r7, sp, #0
82000d5a:	6078      	str	r0, [r7, #4]
82000d5c:	2300      	movs	r3, #0
82000d5e:	4618      	mov	r0, r3
82000d60:	370c      	adds	r7, #12
82000d62:	46bd      	mov	sp, r7
82000d64:	f85d 7b04 	ldr.w	r7, [sp], #4
82000d68:	4770      	bx	lr
	...

82000d6c <outc>:
82000d6c:	b580      	push	{r7, lr}
82000d6e:	b082      	sub	sp, #8
82000d70:	af00      	add	r7, sp, #0
82000d72:	6078      	str	r0, [r7, #4]
82000d74:	6878      	ldr	r0, [r7, #4]
82000d76:	f7ff ffa7 	bl	82000cc8 <putchar>
82000d7a:	2300      	movs	r3, #0
82000d7c:	4618      	mov	r0, r3
82000d7e:	3708      	adds	r7, #8
82000d80:	46bd      	mov	sp, r7
82000d82:	bd80      	pop	{r7, pc}

82000d84 <outs>:
82000d84:	b580      	push	{r7, lr}
82000d86:	b082      	sub	sp, #8
82000d88:	af00      	add	r7, sp, #0
82000d8a:	6078      	str	r0, [r7, #4]
82000d8c:	e006      	b.n	82000d9c <outs+0x18>
82000d8e:	687b      	ldr	r3, [r7, #4]
82000d90:	1c5a      	adds	r2, r3, #1
82000d92:	607a      	str	r2, [r7, #4]
82000d94:	781b      	ldrb	r3, [r3, #0]
82000d96:	4618      	mov	r0, r3
82000d98:	f7ff ff96 	bl	82000cc8 <putchar>
82000d9c:	687b      	ldr	r3, [r7, #4]
82000d9e:	781b      	ldrb	r3, [r3, #0]
82000da0:	2b00      	cmp	r3, #0
82000da2:	d1f4      	bne.n	82000d8e <outs+0xa>
82000da4:	2300      	movs	r3, #0
82000da6:	4618      	mov	r0, r3
82000da8:	3708      	adds	r7, #8
82000daa:	46bd      	mov	sp, r7
82000dac:	bd80      	pop	{r7, pc}

82000dae <out_num>:
82000dae:	b590      	push	{r4, r7, lr}
82000db0:	b099      	sub	sp, #100	; 0x64
82000db2:	af00      	add	r7, sp, #0
82000db4:	e9c7 0102 	strd	r0, r1, [r7, #8]
82000db8:	607a      	str	r2, [r7, #4]
82000dba:	70fb      	strb	r3, [r7, #3]
82000dbc:	2300      	movs	r3, #0
82000dbe:	65fb      	str	r3, [r7, #92]	; 0x5c
82000dc0:	f107 0310 	add.w	r3, r7, #16
82000dc4:	3340      	adds	r3, #64	; 0x40
82000dc6:	65bb      	str	r3, [r7, #88]	; 0x58
82000dc8:	2300      	movs	r3, #0
82000dca:	657b      	str	r3, [r7, #84]	; 0x54
82000dcc:	2300      	movs	r3, #0
82000dce:	653b      	str	r3, [r7, #80]	; 0x50
82000dd0:	6dbb      	ldr	r3, [r7, #88]	; 0x58
82000dd2:	3b01      	subs	r3, #1
82000dd4:	65bb      	str	r3, [r7, #88]	; 0x58
82000dd6:	6dbb      	ldr	r3, [r7, #88]	; 0x58
82000dd8:	2200      	movs	r2, #0
82000dda:	701a      	strb	r2, [r3, #0]
82000ddc:	e9d7 3402 	ldrd	r3, r4, [r7, #8]
82000de0:	2b00      	cmp	r3, #0
82000de2:	f174 0300 	sbcs.w	r3, r4, #0
82000de6:	da03      	bge.n	82000df0 <out_num+0x42>
82000de8:	68bb      	ldr	r3, [r7, #8]
82000dea:	425b      	negs	r3, r3
82000dec:	65fb      	str	r3, [r7, #92]	; 0x5c
82000dee:	e001      	b.n	82000df4 <out_num+0x46>
82000df0:	68bb      	ldr	r3, [r7, #8]
82000df2:	65fb      	str	r3, [r7, #92]	; 0x5c
82000df4:	6dbb      	ldr	r3, [r7, #88]	; 0x58
82000df6:	3b01      	subs	r3, #1
82000df8:	65bb      	str	r3, [r7, #88]	; 0x58
82000dfa:	687a      	ldr	r2, [r7, #4]
82000dfc:	6dfb      	ldr	r3, [r7, #92]	; 0x5c
82000dfe:	4611      	mov	r1, r2
82000e00:	4618      	mov	r0, r3
82000e02:	f001 f90b 	bl	8200201c <__aeabi_uidivmod>
82000e06:	460b      	mov	r3, r1
82000e08:	461a      	mov	r2, r3
82000e0a:	f242 4310 	movw	r3, #9232	; 0x2410
82000e0e:	f2c8 2300 	movt	r3, #33280	; 0x8200
82000e12:	5c9a      	ldrb	r2, [r3, r2]
82000e14:	6dbb      	ldr	r3, [r7, #88]	; 0x58
82000e16:	701a      	strb	r2, [r3, #0]
82000e18:	6d7b      	ldr	r3, [r7, #84]	; 0x54
82000e1a:	3301      	adds	r3, #1
82000e1c:	657b      	str	r3, [r7, #84]	; 0x54
82000e1e:	687b      	ldr	r3, [r7, #4]
82000e20:	4619      	mov	r1, r3
82000e22:	6df8      	ldr	r0, [r7, #92]	; 0x5c
82000e24:	f000 ffcc 	bl	82001dc0 <__aeabi_uidiv>
82000e28:	4603      	mov	r3, r0
82000e2a:	65fb      	str	r3, [r7, #92]	; 0x5c
82000e2c:	6dfb      	ldr	r3, [r7, #92]	; 0x5c
82000e2e:	2b00      	cmp	r3, #0
82000e30:	d1e0      	bne.n	82000df4 <out_num+0x46>
82000e32:	6f3b      	ldr	r3, [r7, #112]	; 0x70
82000e34:	2b00      	cmp	r3, #0
82000e36:	d014      	beq.n	82000e62 <out_num+0xb4>
82000e38:	6d7a      	ldr	r2, [r7, #84]	; 0x54
82000e3a:	6f3b      	ldr	r3, [r7, #112]	; 0x70
82000e3c:	429a      	cmp	r2, r3
82000e3e:	da10      	bge.n	82000e62 <out_num+0xb4>
82000e40:	6f3a      	ldr	r2, [r7, #112]	; 0x70
82000e42:	6d7b      	ldr	r3, [r7, #84]	; 0x54
82000e44:	1ad3      	subs	r3, r2, r3
82000e46:	653b      	str	r3, [r7, #80]	; 0x50
82000e48:	e008      	b.n	82000e5c <out_num+0xae>
82000e4a:	6dbb      	ldr	r3, [r7, #88]	; 0x58
82000e4c:	3b01      	subs	r3, #1
82000e4e:	65bb      	str	r3, [r7, #88]	; 0x58
82000e50:	6dbb      	ldr	r3, [r7, #88]	; 0x58
82000e52:	78fa      	ldrb	r2, [r7, #3]
82000e54:	701a      	strb	r2, [r3, #0]
82000e56:	6d3b      	ldr	r3, [r7, #80]	; 0x50
82000e58:	3b01      	subs	r3, #1
82000e5a:	653b      	str	r3, [r7, #80]	; 0x50
82000e5c:	6d3b      	ldr	r3, [r7, #80]	; 0x50
82000e5e:	2b00      	cmp	r3, #0
82000e60:	d1f3      	bne.n	82000e4a <out_num+0x9c>
82000e62:	e9d7 3402 	ldrd	r3, r4, [r7, #8]
82000e66:	2b00      	cmp	r3, #0
82000e68:	f174 0300 	sbcs.w	r3, r4, #0
82000e6c:	da05      	bge.n	82000e7a <out_num+0xcc>
82000e6e:	6dbb      	ldr	r3, [r7, #88]	; 0x58
82000e70:	3b01      	subs	r3, #1
82000e72:	65bb      	str	r3, [r7, #88]	; 0x58
82000e74:	6dbb      	ldr	r3, [r7, #88]	; 0x58
82000e76:	222d      	movs	r2, #45	; 0x2d
82000e78:	701a      	strb	r2, [r3, #0]
82000e7a:	6db8      	ldr	r0, [r7, #88]	; 0x58
82000e7c:	f7ff ff82 	bl	82000d84 <outs>
82000e80:	4603      	mov	r3, r0
82000e82:	4618      	mov	r0, r3
82000e84:	3764      	adds	r7, #100	; 0x64
82000e86:	46bd      	mov	sp, r7
82000e88:	bd90      	pop	{r4, r7, pc}

82000e8a <my_vprintf>:
82000e8a:	b580      	push	{r7, lr}
82000e8c:	b086      	sub	sp, #24
82000e8e:	af02      	add	r7, sp, #8
82000e90:	6078      	str	r0, [r7, #4]
82000e92:	6039      	str	r1, [r7, #0]
82000e94:	2320      	movs	r3, #32
82000e96:	72fb      	strb	r3, [r7, #11]
82000e98:	2300      	movs	r3, #0
82000e9a:	60fb      	str	r3, [r7, #12]
82000e9c:	e0c7      	b.n	8200102e <my_vprintf+0x1a4>
82000e9e:	687b      	ldr	r3, [r7, #4]
82000ea0:	781b      	ldrb	r3, [r3, #0]
82000ea2:	2b25      	cmp	r3, #37	; 0x25
82000ea4:	d005      	beq.n	82000eb2 <my_vprintf+0x28>
82000ea6:	687b      	ldr	r3, [r7, #4]
82000ea8:	781b      	ldrb	r3, [r3, #0]
82000eaa:	4618      	mov	r0, r3
82000eac:	f7ff ff5e 	bl	82000d6c <outc>
82000eb0:	e0ba      	b.n	82001028 <my_vprintf+0x19e>
82000eb2:	687b      	ldr	r3, [r7, #4]
82000eb4:	3301      	adds	r3, #1
82000eb6:	607b      	str	r3, [r7, #4]
82000eb8:	687b      	ldr	r3, [r7, #4]
82000eba:	781b      	ldrb	r3, [r3, #0]
82000ebc:	2b30      	cmp	r3, #48	; 0x30
82000ebe:	d104      	bne.n	82000eca <my_vprintf+0x40>
82000ec0:	2330      	movs	r3, #48	; 0x30
82000ec2:	72fb      	strb	r3, [r7, #11]
82000ec4:	687b      	ldr	r3, [r7, #4]
82000ec6:	3301      	adds	r3, #1
82000ec8:	607b      	str	r3, [r7, #4]
82000eca:	2320      	movs	r3, #32
82000ecc:	72fb      	strb	r3, [r7, #11]
82000ece:	2300      	movs	r3, #0
82000ed0:	60fb      	str	r3, [r7, #12]
82000ed2:	e00e      	b.n	82000ef2 <my_vprintf+0x68>
82000ed4:	68fa      	ldr	r2, [r7, #12]
82000ed6:	4613      	mov	r3, r2
82000ed8:	009b      	lsls	r3, r3, #2
82000eda:	4413      	add	r3, r2
82000edc:	005b      	lsls	r3, r3, #1
82000ede:	60fb      	str	r3, [r7, #12]
82000ee0:	687b      	ldr	r3, [r7, #4]
82000ee2:	781b      	ldrb	r3, [r3, #0]
82000ee4:	3b30      	subs	r3, #48	; 0x30
82000ee6:	68fa      	ldr	r2, [r7, #12]
82000ee8:	4413      	add	r3, r2
82000eea:	60fb      	str	r3, [r7, #12]
82000eec:	687b      	ldr	r3, [r7, #4]
82000eee:	3301      	adds	r3, #1
82000ef0:	607b      	str	r3, [r7, #4]
82000ef2:	687b      	ldr	r3, [r7, #4]
82000ef4:	781b      	ldrb	r3, [r3, #0]
82000ef6:	2b2f      	cmp	r3, #47	; 0x2f
82000ef8:	d903      	bls.n	82000f02 <my_vprintf+0x78>
82000efa:	687b      	ldr	r3, [r7, #4]
82000efc:	781b      	ldrb	r3, [r3, #0]
82000efe:	2b39      	cmp	r3, #57	; 0x39
82000f00:	d9e8      	bls.n	82000ed4 <my_vprintf+0x4a>
82000f02:	687b      	ldr	r3, [r7, #4]
82000f04:	781b      	ldrb	r3, [r3, #0]
82000f06:	3b63      	subs	r3, #99	; 0x63
82000f08:	2b15      	cmp	r3, #21
82000f0a:	f200 8087 	bhi.w	8200101c <my_vprintf+0x192>
82000f0e:	a201      	add	r2, pc, #4	; (adr r2, 82000f14 <my_vprintf+0x8a>)
82000f10:	f852 f023 	ldr.w	pc, [r2, r3, lsl #2]
82000f14:	82000ff5 	andhi	r0, r0, #980	; 0x3d4
82000f18:	82000f6d 	andhi	r0, r0, #436	; 0x1b4
82000f1c:	8200101d 	andhi	r1, r0, #29
82000f20:	8200101d 	andhi	r1, r0, #29
82000f24:	8200101d 	andhi	r1, r0, #29
82000f28:	8200101d 	andhi	r1, r0, #29
82000f2c:	8200101d 	andhi	r1, r0, #29
82000f30:	8200101d 	andhi	r1, r0, #29
82000f34:	8200101d 	andhi	r1, r0, #29
82000f38:	8200101d 	andhi	r1, r0, #29
82000f3c:	8200101d 	andhi	r1, r0, #29
82000f40:	8200101d 	andhi	r1, r0, #29
82000f44:	82000f8f 	andhi	r0, r0, #572	; 0x23c
82000f48:	8200101d 	andhi	r1, r0, #29
82000f4c:	8200101d 	andhi	r1, r0, #29
82000f50:	8200101d 	andhi	r1, r0, #29
82000f54:	82001009 	andhi	r1, r0, #9
82000f58:	8200101d 	andhi	r1, r0, #29
82000f5c:	82000fb1 	andhi	r0, r0, #708	; 0x2c4
82000f60:	8200101d 	andhi	r1, r0, #29
82000f64:	8200101d 	andhi	r1, r0, #29
82000f68:	82000fd3 	andhi	r0, r0, #844	; 0x34c
82000f6c:	683b      	ldr	r3, [r7, #0]
82000f6e:	3304      	adds	r3, #4
82000f70:	603b      	str	r3, [r7, #0]
82000f72:	683b      	ldr	r3, [r7, #0]
82000f74:	3b04      	subs	r3, #4
82000f76:	681b      	ldr	r3, [r3, #0]
82000f78:	4618      	mov	r0, r3
82000f7a:	ea4f 71e0 	mov.w	r1, r0, asr #31
82000f7e:	7afa      	ldrb	r2, [r7, #11]
82000f80:	68fb      	ldr	r3, [r7, #12]
82000f82:	9300      	str	r3, [sp, #0]
82000f84:	4613      	mov	r3, r2
82000f86:	220a      	movs	r2, #10
82000f88:	f7ff ff11 	bl	82000dae <out_num>
82000f8c:	e04c      	b.n	82001028 <my_vprintf+0x19e>
82000f8e:	683b      	ldr	r3, [r7, #0]
82000f90:	3304      	adds	r3, #4
82000f92:	603b      	str	r3, [r7, #0]
82000f94:	683b      	ldr	r3, [r7, #0]
82000f96:	3b04      	subs	r3, #4
82000f98:	681b      	ldr	r3, [r3, #0]
82000f9a:	4618      	mov	r0, r3
82000f9c:	f04f 0100 	mov.w	r1, #0
82000fa0:	7afa      	ldrb	r2, [r7, #11]
82000fa2:	68fb      	ldr	r3, [r7, #12]
82000fa4:	9300      	str	r3, [sp, #0]
82000fa6:	4613      	mov	r3, r2
82000fa8:	2208      	movs	r2, #8
82000faa:	f7ff ff00 	bl	82000dae <out_num>
82000fae:	e03b      	b.n	82001028 <my_vprintf+0x19e>
82000fb0:	683b      	ldr	r3, [r7, #0]
82000fb2:	3304      	adds	r3, #4
82000fb4:	603b      	str	r3, [r7, #0]
82000fb6:	683b      	ldr	r3, [r7, #0]
82000fb8:	3b04      	subs	r3, #4
82000fba:	681b      	ldr	r3, [r3, #0]
82000fbc:	4618      	mov	r0, r3
82000fbe:	f04f 0100 	mov.w	r1, #0
82000fc2:	7afa      	ldrb	r2, [r7, #11]
82000fc4:	68fb      	ldr	r3, [r7, #12]
82000fc6:	9300      	str	r3, [sp, #0]
82000fc8:	4613      	mov	r3, r2
82000fca:	220a      	movs	r2, #10
82000fcc:	f7ff feef 	bl	82000dae <out_num>
82000fd0:	e02a      	b.n	82001028 <my_vprintf+0x19e>
82000fd2:	683b      	ldr	r3, [r7, #0]
82000fd4:	3304      	adds	r3, #4
82000fd6:	603b      	str	r3, [r7, #0]
82000fd8:	683b      	ldr	r3, [r7, #0]
82000fda:	3b04      	subs	r3, #4
82000fdc:	681b      	ldr	r3, [r3, #0]
82000fde:	4618      	mov	r0, r3
82000fe0:	f04f 0100 	mov.w	r1, #0
82000fe4:	7afa      	ldrb	r2, [r7, #11]
82000fe6:	68fb      	ldr	r3, [r7, #12]
82000fe8:	9300      	str	r3, [sp, #0]
82000fea:	4613      	mov	r3, r2
82000fec:	2210      	movs	r2, #16
82000fee:	f7ff fede 	bl	82000dae <out_num>
82000ff2:	e019      	b.n	82001028 <my_vprintf+0x19e>
82000ff4:	683b      	ldr	r3, [r7, #0]
82000ff6:	3304      	adds	r3, #4
82000ff8:	603b      	str	r3, [r7, #0]
82000ffa:	683b      	ldr	r3, [r7, #0]
82000ffc:	3b04      	subs	r3, #4
82000ffe:	681b      	ldr	r3, [r3, #0]
82001000:	4618      	mov	r0, r3
82001002:	f7ff feb3 	bl	82000d6c <outc>
82001006:	e00f      	b.n	82001028 <my_vprintf+0x19e>
82001008:	683b      	ldr	r3, [r7, #0]
8200100a:	3304      	adds	r3, #4
8200100c:	603b      	str	r3, [r7, #0]
8200100e:	683b      	ldr	r3, [r7, #0]
82001010:	3b04      	subs	r3, #4
82001012:	681b      	ldr	r3, [r3, #0]
82001014:	4618      	mov	r0, r3
82001016:	f7ff feb5 	bl	82000d84 <outs>
8200101a:	e005      	b.n	82001028 <my_vprintf+0x19e>
8200101c:	687b      	ldr	r3, [r7, #4]
8200101e:	781b      	ldrb	r3, [r3, #0]
82001020:	4618      	mov	r0, r3
82001022:	f7ff fea3 	bl	82000d6c <outc>
82001026:	bf00      	nop
82001028:	687b      	ldr	r3, [r7, #4]
8200102a:	3301      	adds	r3, #1
8200102c:	607b      	str	r3, [r7, #4]
8200102e:	687b      	ldr	r3, [r7, #4]
82001030:	781b      	ldrb	r3, [r3, #0]
82001032:	2b00      	cmp	r3, #0
82001034:	f47f af33 	bne.w	82000e9e <my_vprintf+0x14>
82001038:	2300      	movs	r3, #0
8200103a:	4618      	mov	r0, r3
8200103c:	3710      	adds	r7, #16
8200103e:	46bd      	mov	sp, r7
82001040:	bd80      	pop	{r7, pc}

82001042 <printf>:
82001042:	b40f      	push	{r0, r1, r2, r3}
82001044:	b580      	push	{r7, lr}
82001046:	b082      	sub	sp, #8
82001048:	af00      	add	r7, sp, #0
8200104a:	f107 0314 	add.w	r3, r7, #20
8200104e:	607b      	str	r3, [r7, #4]
82001050:	693b      	ldr	r3, [r7, #16]
82001052:	6879      	ldr	r1, [r7, #4]
82001054:	4618      	mov	r0, r3
82001056:	f7ff ff18 	bl	82000e8a <my_vprintf>
8200105a:	2300      	movs	r3, #0
8200105c:	607b      	str	r3, [r7, #4]
8200105e:	2300      	movs	r3, #0
82001060:	4618      	mov	r0, r3
82001062:	3708      	adds	r7, #8
82001064:	46bd      	mov	sp, r7
82001066:	e8bd 4080 	ldmia.w	sp!, {r7, lr}
8200106a:	b004      	add	sp, #16
8200106c:	4770      	bx	lr

8200106e <my_printf_test>:
8200106e:	b580      	push	{r7, lr}
82001070:	af00      	add	r7, sp, #0
82001072:	f242 2090 	movw	r0, #8848	; 0x2290
82001076:	f2c8 2000 	movt	r0, #33280	; 0x8200
8200107a:	f7ff ffe2 	bl	82001042 <printf>
8200107e:	2261      	movs	r2, #97	; 0x61
82001080:	2141      	movs	r1, #65	; 0x41
82001082:	f242 20bc 	movw	r0, #8892	; 0x22bc
82001086:	f2c8 2000 	movt	r0, #33280	; 0x8200
8200108a:	f7ff ffda 	bl	82001042 <printf>
8200108e:	f24e 2140 	movw	r1, #57920	; 0xe240
82001092:	f2c0 0101 	movt	r1, #1
82001096:	f242 20dc 	movw	r0, #8924	; 0x22dc
8200109a:	f2c8 2000 	movt	r0, #33280	; 0x8200
8200109e:	f7ff ffd0 	bl	82001042 <printf>
820010a2:	f44f 51ee 	mov.w	r1, #7616	; 0x1dc0
820010a6:	f6cf 71fe 	movt	r1, #65534	; 0xfffe
820010aa:	f242 20dc 	movw	r0, #8924	; 0x22dc
820010ae:	f2c8 2000 	movt	r0, #33280	; 0x8200
820010b2:	f7ff ffc6 	bl	82001042 <printf>
820010b6:	f245 51aa 	movw	r1, #21930	; 0x55aa
820010ba:	f2c5 51aa 	movt	r1, #21930	; 0x55aa
820010be:	f242 20f8 	movw	r0, #8952	; 0x22f8
820010c2:	f2c8 2000 	movt	r0, #33280	; 0x8200
820010c6:	f7ff ffbc 	bl	82001042 <printf>
820010ca:	f242 3114 	movw	r1, #8980	; 0x2314
820010ce:	f2c8 2100 	movt	r1, #33280	; 0x8200
820010d2:	f242 3024 	movw	r0, #8996	; 0x2324
820010d6:	f2c8 2000 	movt	r0, #33280	; 0x8200
820010da:	f7ff ffb2 	bl	82001042 <printf>
820010de:	f243 0139 	movw	r1, #12345	; 0x3039
820010e2:	f242 3040 	movw	r0, #9024	; 0x2340
820010e6:	f2c8 2000 	movt	r0, #33280	; 0x8200
820010ea:	f7ff ffaa 	bl	82001042 <printf>
820010ee:	f243 0139 	movw	r1, #12345	; 0x3039
820010f2:	f242 304c 	movw	r0, #9036	; 0x234c
820010f6:	f2c8 2000 	movt	r0, #33280	; 0x8200
820010fa:	f7ff ffa2 	bl	82001042 <printf>
820010fe:	f242 3145 	movw	r1, #9029	; 0x2345
82001102:	f2c0 0101 	movt	r1, #1
82001106:	f242 3058 	movw	r0, #9048	; 0x2358
8200110a:	f2c8 2000 	movt	r0, #33280	; 0x8200
8200110e:	f7ff ff98 	bl	82001042 <printf>
82001112:	f242 3145 	movw	r1, #9029	; 0x2345
82001116:	f2c0 0101 	movt	r1, #1
8200111a:	f242 3068 	movw	r0, #9064	; 0x2368
8200111e:	f2c8 2000 	movt	r0, #33280	; 0x8200
82001122:	f7ff ff8e 	bl	82001042 <printf>
82001126:	2101      	movs	r1, #1
82001128:	f242 3074 	movw	r0, #9076	; 0x2374
8200112c:	f2c8 2000 	movt	r0, #33280	; 0x8200
82001130:	f7ff ff87 	bl	82001042 <printf>
82001134:	2101      	movs	r1, #1
82001136:	f242 3084 	movw	r0, #9092	; 0x2384
8200113a:	f2c8 2000 	movt	r0, #33280	; 0x8200
8200113e:	f7ff ff80 	bl	82001042 <printf>
82001142:	2101      	movs	r1, #1
82001144:	f242 3090 	movw	r0, #9104	; 0x2390
82001148:	f2c8 2000 	movt	r0, #33280	; 0x8200
8200114c:	f7ff ff79 	bl	82001042 <printf>
82001150:	2101      	movs	r1, #1
82001152:	f242 309c 	movw	r0, #9116	; 0x239c
82001156:	f2c8 2000 	movt	r0, #33280	; 0x8200
8200115a:	f7ff ff72 	bl	82001042 <printf>
8200115e:	2300      	movs	r3, #0
82001160:	4618      	mov	r0, r3
82001162:	bd80      	pop	{r7, pc}

82001164 <get_gic_base>:
82001164:	b480      	push	{r7}
82001166:	b083      	sub	sp, #12
82001168:	af00      	add	r7, sp, #0
8200116a:	ee9f 3f10 	mrc	15, 4, r3, cr15, cr0, {0}
8200116e:	607b      	str	r3, [r7, #4]
82001170:	687b      	ldr	r3, [r7, #4]
82001172:	4618      	mov	r0, r3
82001174:	370c      	adds	r7, #12
82001176:	46bd      	mov	sp, r7
82001178:	f85d 7b04 	ldr.w	r7, [sp], #4
8200117c:	4770      	bx	lr

8200117e <gic_init>:
8200117e:	b580      	push	{r7, lr}
82001180:	b084      	sub	sp, #16
82001182:	af00      	add	r7, sp, #0
82001184:	f7ff ffee 	bl	82001164 <get_gic_base>
82001188:	60b8      	str	r0, [r7, #8]
8200118a:	68bb      	ldr	r3, [r7, #8]
8200118c:	f503 5380 	add.w	r3, r3, #4096	; 0x1000
82001190:	3304      	adds	r3, #4
82001192:	681b      	ldr	r3, [r3, #0]
82001194:	f003 031f 	and.w	r3, r3, #31
82001198:	3301      	adds	r3, #1
8200119a:	607b      	str	r3, [r7, #4]
8200119c:	2300      	movs	r3, #0
8200119e:	60fb      	str	r3, [r7, #12]
820011a0:	e00a      	b.n	820011b8 <gic_init+0x3a>
820011a2:	68bb      	ldr	r3, [r7, #8]
820011a4:	68fa      	ldr	r2, [r7, #12]
820011a6:	f502 628c 	add.w	r2, r2, #1120	; 0x460
820011aa:	f04f 31ff 	mov.w	r1, #4294967295	; 0xffffffff
820011ae:	f843 1022 	str.w	r1, [r3, r2, lsl #2]
820011b2:	68fb      	ldr	r3, [r7, #12]
820011b4:	3301      	adds	r3, #1
820011b6:	60fb      	str	r3, [r7, #12]
820011b8:	68fa      	ldr	r2, [r7, #12]
820011ba:	687b      	ldr	r3, [r7, #4]
820011bc:	429a      	cmp	r2, r3
820011be:	d3f0      	bcc.n	820011a2 <gic_init+0x24>
820011c0:	68bb      	ldr	r3, [r7, #8]
820011c2:	f503 5300 	add.w	r3, r3, #8192	; 0x2000
820011c6:	3304      	adds	r3, #4
820011c8:	22f8      	movs	r2, #248	; 0xf8
820011ca:	601a      	str	r2, [r3, #0]
820011cc:	68bb      	ldr	r3, [r7, #8]
820011ce:	f503 5300 	add.w	r3, r3, #8192	; 0x2000
820011d2:	3308      	adds	r3, #8
820011d4:	2202      	movs	r2, #2
820011d6:	601a      	str	r2, [r3, #0]
820011d8:	68bb      	ldr	r3, [r7, #8]
820011da:	f503 5380 	add.w	r3, r3, #4096	; 0x1000
820011de:	2201      	movs	r2, #1
820011e0:	601a      	str	r2, [r3, #0]
820011e2:	68bb      	ldr	r3, [r7, #8]
820011e4:	f503 5300 	add.w	r3, r3, #8192	; 0x2000
820011e8:	2201      	movs	r2, #1
820011ea:	601a      	str	r2, [r3, #0]
820011ec:	bf00      	nop
820011ee:	3710      	adds	r7, #16
820011f0:	46bd      	mov	sp, r7
820011f2:	bd80      	pop	{r7, pc}

820011f4 <gic_enable_irq>:
820011f4:	b580      	push	{r7, lr}
820011f6:	b084      	sub	sp, #16
820011f8:	af00      	add	r7, sp, #0
820011fa:	6078      	str	r0, [r7, #4]
820011fc:	f7ff ffb2 	bl	82001164 <get_gic_base>
82001200:	60f8      	str	r0, [r7, #12]
82001202:	687b      	ldr	r3, [r7, #4]
82001204:	115a      	asrs	r2, r3, #5
82001206:	687b      	ldr	r3, [r7, #4]
82001208:	f003 031f 	and.w	r3, r3, #31
8200120c:	2101      	movs	r1, #1
8200120e:	4099      	lsls	r1, r3
82001210:	68fb      	ldr	r3, [r7, #12]
82001212:	f502 6288 	add.w	r2, r2, #1088	; 0x440
82001216:	f843 1022 	str.w	r1, [r3, r2, lsl #2]
8200121a:	bf00      	nop
8200121c:	3710      	adds	r7, #16
8200121e:	46bd      	mov	sp, r7
82001220:	bd80      	pop	{r7, pc}

82001222 <gic_disable_irq>:
82001222:	b580      	push	{r7, lr}
82001224:	b084      	sub	sp, #16
82001226:	af00      	add	r7, sp, #0
82001228:	6078      	str	r0, [r7, #4]
8200122a:	f7ff ff9b 	bl	82001164 <get_gic_base>
8200122e:	60f8      	str	r0, [r7, #12]
82001230:	687b      	ldr	r3, [r7, #4]
82001232:	115a      	asrs	r2, r3, #5
82001234:	687b      	ldr	r3, [r7, #4]
82001236:	f003 031f 	and.w	r3, r3, #31
8200123a:	2101      	movs	r1, #1
8200123c:	4099      	lsls	r1, r3
8200123e:	68fb      	ldr	r3, [r7, #12]
82001240:	f502 628c 	add.w	r2, r2, #1120	; 0x460
82001244:	f843 1022 	str.w	r1, [r3, r2, lsl #2]
82001248:	bf00      	nop
8200124a:	3710      	adds	r7, #16
8200124c:	46bd      	mov	sp, r7
8200124e:	bd80      	pop	{r7, pc}

82001250 <handle_irq_c>:
82001250:	b580      	push	{r7, lr}
82001252:	b084      	sub	sp, #16
82001254:	af00      	add	r7, sp, #0
82001256:	f7ff ff85 	bl	82001164 <get_gic_base>
8200125a:	60f8      	str	r0, [r7, #12]
8200125c:	68fb      	ldr	r3, [r7, #12]
8200125e:	f503 5300 	add.w	r3, r3, #8192	; 0x2000
82001262:	330c      	adds	r3, #12
82001264:	681b      	ldr	r3, [r3, #0]
82001266:	60bb      	str	r3, [r7, #8]
82001268:	68bb      	ldr	r3, [r7, #8]
8200126a:	2b58      	cmp	r3, #88	; 0x58
8200126c:	f000 80e1 	beq.w	82001432 <handle_irq_c+0x1e2>
82001270:	2b58      	cmp	r3, #88	; 0x58
82001272:	dc05      	bgt.n	82001280 <handle_irq_c+0x30>
82001274:	2b31      	cmp	r3, #49	; 0x31
82001276:	d05c      	beq.n	82001332 <handle_irq_c+0xe2>
82001278:	2b3a      	cmp	r3, #58	; 0x3a
8200127a:	f000 80c3 	beq.w	82001404 <handle_irq_c+0x1b4>
8200127e:	e109      	b.n	82001494 <handle_irq_c+0x244>
82001280:	2b68      	cmp	r3, #104	; 0x68
82001282:	d02c      	beq.n	820012de <handle_irq_c+0x8e>
82001284:	2b6a      	cmp	r3, #106	; 0x6a
82001286:	d000      	beq.n	8200128a <handle_irq_c+0x3a>
82001288:	e104      	b.n	82001494 <handle_irq_c+0x244>
8200128a:	f44f 4340 	mov.w	r3, #49152	; 0xc000
8200128e:	f2c0 230a 	movt	r3, #522	; 0x20a
82001292:	681b      	ldr	r3, [r3, #0]
82001294:	085b      	lsrs	r3, r3, #1
82001296:	f003 0301 	and.w	r3, r3, #1
8200129a:	2b00      	cmp	r3, #0
8200129c:	d00c      	beq.n	820012b8 <handle_irq_c+0x68>
8200129e:	f242 4322 	movw	r3, #9250	; 0x2422
820012a2:	f2c8 2300 	movt	r3, #33280	; 0x8200
820012a6:	2201      	movs	r2, #1
820012a8:	701a      	strb	r2, [r3, #0]
820012aa:	f242 30a8 	movw	r0, #9128	; 0x23a8
820012ae:	f2c8 2000 	movt	r0, #33280	; 0x8200
820012b2:	f7ff fec6 	bl	82001042 <printf>
820012b6:	e005      	b.n	820012c4 <handle_irq_c+0x74>
820012b8:	f242 30bc 	movw	r0, #9148	; 0x23bc
820012bc:	f2c8 2000 	movt	r0, #33280	; 0x8200
820012c0:	f7ff febf 	bl	82001042 <printf>
820012c4:	f44f 4340 	mov.w	r3, #49152	; 0xc000
820012c8:	f2c0 230a 	movt	r3, #522	; 0x20a
820012cc:	f44f 4240 	mov.w	r2, #49152	; 0xc000
820012d0:	f2c0 220a 	movt	r2, #522	; 0x20a
820012d4:	6992      	ldr	r2, [r2, #24]
820012d6:	f042 0202 	orr.w	r2, r2, #2
820012da:	619a      	str	r2, [r3, #24]
820012dc:	e0da      	b.n	82001494 <handle_irq_c+0x244>
820012de:	f44f 4300 	mov.w	r3, #32768	; 0x8000
820012e2:	f2c0 230a 	movt	r3, #522	; 0x20a
820012e6:	681b      	ldr	r3, [r3, #0]
820012e8:	0b9b      	lsrs	r3, r3, #14
820012ea:	f003 0301 	and.w	r3, r3, #1
820012ee:	2b00      	cmp	r3, #0
820012f0:	d00c      	beq.n	8200130c <handle_irq_c+0xbc>
820012f2:	f242 4323 	movw	r3, #9251	; 0x2423
820012f6:	f2c8 2300 	movt	r3, #33280	; 0x8200
820012fa:	2201      	movs	r2, #1
820012fc:	701a      	strb	r2, [r3, #0]
820012fe:	f242 30d0 	movw	r0, #9168	; 0x23d0
82001302:	f2c8 2000 	movt	r0, #33280	; 0x8200
82001306:	f7ff fe9c 	bl	82001042 <printf>
8200130a:	e005      	b.n	82001318 <handle_irq_c+0xc8>
8200130c:	f242 30e4 	movw	r0, #9188	; 0x23e4
82001310:	f2c8 2000 	movt	r0, #33280	; 0x8200
82001314:	f7ff fe95 	bl	82001042 <printf>
82001318:	f44f 4300 	mov.w	r3, #32768	; 0x8000
8200131c:	f2c0 230a 	movt	r3, #522	; 0x20a
82001320:	f44f 4200 	mov.w	r2, #32768	; 0x8000
82001324:	f2c0 220a 	movt	r2, #522	; 0x20a
82001328:	6992      	ldr	r2, [r2, #24]
8200132a:	f442 4280 	orr.w	r2, r2, #16384	; 0x4000
8200132e:	619a      	str	r2, [r3, #24]
82001330:	e0b0      	b.n	82001494 <handle_irq_c+0x244>
82001332:	bf00      	nop
82001334:	f44f 4340 	mov.w	r3, #49152	; 0xc000
82001338:	f2c0 231f 	movt	r3, #543	; 0x21f
8200133c:	f8d3 3098 	ldr.w	r3, [r3, #152]	; 0x98
82001340:	f003 0301 	and.w	r3, r3, #1
82001344:	2b00      	cmp	r3, #0
82001346:	d0f5      	beq.n	82001334 <handle_irq_c+0xe4>
82001348:	f44f 4340 	mov.w	r3, #49152	; 0xc000
8200134c:	f2c0 231f 	movt	r3, #543	; 0x21f
82001350:	681b      	ldr	r3, [r3, #0]
82001352:	71fb      	strb	r3, [r7, #7]
82001354:	f242 4320 	movw	r3, #9248	; 0x2420
82001358:	f2c8 2300 	movt	r3, #33280	; 0x8200
8200135c:	881b      	ldrh	r3, [r3, #0]
8200135e:	b21b      	sxth	r3, r3
82001360:	2b00      	cmp	r3, #0
82001362:	db40      	blt.n	820013e6 <handle_irq_c+0x196>
82001364:	f242 4320 	movw	r3, #9248	; 0x2420
82001368:	f2c8 2300 	movt	r3, #33280	; 0x8200
8200136c:	881b      	ldrh	r3, [r3, #0]
8200136e:	f5b3 7f7a 	cmp.w	r3, #1000	; 0x3e8
82001372:	d229      	bcs.n	820013c8 <handle_irq_c+0x178>
82001374:	2300      	movs	r3, #0
82001376:	f2c0 230d 	movt	r3, #525	; 0x20d
8200137a:	2200      	movs	r2, #0
8200137c:	60da      	str	r2, [r3, #12]
8200137e:	f242 4320 	movw	r3, #9248	; 0x2420
82001382:	f2c8 2300 	movt	r3, #33280	; 0x8200
82001386:	881b      	ldrh	r3, [r3, #0]
82001388:	2b00      	cmp	r3, #0
8200138a:	d109      	bne.n	820013a0 <handle_irq_c+0x150>
8200138c:	2300      	movs	r3, #0
8200138e:	f2c0 230d 	movt	r3, #525	; 0x20d
82001392:	2200      	movs	r2, #0
82001394:	f2c0 220d 	movt	r2, #525	; 0x20d
82001398:	6812      	ldr	r2, [r2, #0]
8200139a:	f042 0201 	orr.w	r2, r2, #1
8200139e:	601a      	str	r2, [r3, #0]
820013a0:	f242 4320 	movw	r3, #9248	; 0x2420
820013a4:	f2c8 2300 	movt	r3, #33280	; 0x8200
820013a8:	881a      	ldrh	r2, [r3, #0]
820013aa:	1c53      	adds	r3, r2, #1
820013ac:	b299      	uxth	r1, r3
820013ae:	f242 4320 	movw	r3, #9248	; 0x2420
820013b2:	f2c8 2300 	movt	r3, #33280	; 0x8200
820013b6:	8019      	strh	r1, [r3, #0]
820013b8:	4611      	mov	r1, r2
820013ba:	f242 4328 	movw	r3, #9256	; 0x2428
820013be:	f2c8 2300 	movt	r3, #33280	; 0x8200
820013c2:	79fa      	ldrb	r2, [r7, #7]
820013c4:	545a      	strb	r2, [r3, r1]
820013c6:	e00e      	b.n	820013e6 <handle_irq_c+0x196>
820013c8:	f242 4320 	movw	r3, #9248	; 0x2420
820013cc:	f2c8 2300 	movt	r3, #33280	; 0x8200
820013d0:	881b      	ldrh	r3, [r3, #0]
820013d2:	ea6f 4343 	mvn.w	r3, r3, lsl #17
820013d6:	ea6f 4353 	mvn.w	r3, r3, lsr #17
820013da:	b29a      	uxth	r2, r3
820013dc:	f242 4320 	movw	r3, #9248	; 0x2420
820013e0:	f2c8 2300 	movt	r3, #33280	; 0x8200
820013e4:	801a      	strh	r2, [r3, #0]
820013e6:	f44f 4340 	mov.w	r3, #49152	; 0xc000
820013ea:	f2c0 231f 	movt	r3, #543	; 0x21f
820013ee:	f44f 4240 	mov.w	r2, #49152	; 0xc000
820013f2:	f2c0 221f 	movt	r2, #543	; 0x21f
820013f6:	f8d2 2094 	ldr.w	r2, [r2, #148]	; 0x94
820013fa:	f442 7200 	orr.w	r2, r2, #512	; 0x200
820013fe:	f8c3 2094 	str.w	r2, [r3, #148]	; 0x94
82001402:	e047      	b.n	82001494 <handle_irq_c+0x244>
82001404:	bf00      	nop
82001406:	2300      	movs	r3, #0
82001408:	f2c0 2302 	movt	r3, #514	; 0x202
8200140c:	f8d3 3098 	ldr.w	r3, [r3, #152]	; 0x98
82001410:	f003 0301 	and.w	r3, r3, #1
82001414:	2b00      	cmp	r3, #0
82001416:	d0f6      	beq.n	82001406 <handle_irq_c+0x1b6>
82001418:	2300      	movs	r3, #0
8200141a:	f2c0 2302 	movt	r3, #514	; 0x202
8200141e:	2200      	movs	r2, #0
82001420:	f2c0 2202 	movt	r2, #514	; 0x202
82001424:	f8d2 2094 	ldr.w	r2, [r2, #148]	; 0x94
82001428:	f442 7200 	orr.w	r2, r2, #512	; 0x200
8200142c:	f8c3 2094 	str.w	r2, [r3, #148]	; 0x94
82001430:	e030      	b.n	82001494 <handle_irq_c+0x244>
82001432:	2300      	movs	r3, #0
82001434:	f2c0 230d 	movt	r3, #525	; 0x20d
82001438:	685b      	ldr	r3, [r3, #4]
8200143a:	f003 0301 	and.w	r3, r3, #1
8200143e:	2b00      	cmp	r3, #0
82001440:	d01d      	beq.n	8200147e <handle_irq_c+0x22e>
82001442:	f242 4320 	movw	r3, #9248	; 0x2420
82001446:	f2c8 2300 	movt	r3, #33280	; 0x8200
8200144a:	881b      	ldrh	r3, [r3, #0]
8200144c:	ea6f 4343 	mvn.w	r3, r3, lsl #17
82001450:	ea6f 4353 	mvn.w	r3, r3, lsr #17
82001454:	b29a      	uxth	r2, r3
82001456:	f242 4320 	movw	r3, #9248	; 0x2420
8200145a:	f2c8 2300 	movt	r3, #33280	; 0x8200
8200145e:	801a      	strh	r2, [r3, #0]
82001460:	2300      	movs	r3, #0
82001462:	f2c0 230d 	movt	r3, #525	; 0x20d
82001466:	2200      	movs	r2, #0
82001468:	60da      	str	r2, [r3, #12]
8200146a:	2300      	movs	r3, #0
8200146c:	f2c0 230d 	movt	r3, #525	; 0x20d
82001470:	2200      	movs	r2, #0
82001472:	f2c0 220d 	movt	r2, #525	; 0x20d
82001476:	6812      	ldr	r2, [r2, #0]
82001478:	f022 0201 	bic.w	r2, r2, #1
8200147c:	601a      	str	r2, [r3, #0]
8200147e:	2300      	movs	r3, #0
82001480:	f2c0 230d 	movt	r3, #525	; 0x20d
82001484:	2200      	movs	r2, #0
82001486:	f2c0 220d 	movt	r2, #525	; 0x20d
8200148a:	6852      	ldr	r2, [r2, #4]
8200148c:	f042 0201 	orr.w	r2, r2, #1
82001490:	605a      	str	r2, [r3, #4]
82001492:	bf00      	nop
82001494:	68ba      	ldr	r2, [r7, #8]
82001496:	68fb      	ldr	r3, [r7, #12]
82001498:	f503 5300 	add.w	r3, r3, #8192	; 0x2000
8200149c:	3310      	adds	r3, #16
8200149e:	601a      	str	r2, [r3, #0]
820014a0:	bf00      	nop
820014a2:	3710      	adds	r7, #16
820014a4:	46bd      	mov	sp, r7
820014a6:	bd80      	pop	{r7, pc}

820014a8 <gpt_init>:
820014a8:	b480      	push	{r7}
820014aa:	b083      	sub	sp, #12
820014ac:	af00      	add	r7, sp, #0
820014ae:	6078      	str	r0, [r7, #4]
820014b0:	687b      	ldr	r3, [r7, #4]
820014b2:	681b      	ldr	r3, [r3, #0]
820014b4:	f443 4200 	orr.w	r2, r3, #32768	; 0x8000
820014b8:	687b      	ldr	r3, [r7, #4]
820014ba:	601a      	str	r2, [r3, #0]
820014bc:	bf00      	nop
820014be:	687b      	ldr	r3, [r7, #4]
820014c0:	681b      	ldr	r3, [r3, #0]
820014c2:	0bdb      	lsrs	r3, r3, #15
820014c4:	f003 0301 	and.w	r3, r3, #1
820014c8:	2b00      	cmp	r3, #0
820014ca:	d1f8      	bne.n	820014be <gpt_init+0x16>
820014cc:	687b      	ldr	r3, [r7, #4]
820014ce:	226a      	movs	r2, #106	; 0x6a
820014d0:	601a      	str	r2, [r3, #0]
820014d2:	687b      	ldr	r3, [r7, #4]
820014d4:	2200      	movs	r2, #0
820014d6:	605a      	str	r2, [r3, #4]
820014d8:	687a      	ldr	r2, [r7, #4]
820014da:	f44f 53a4 	mov.w	r3, #5248	; 0x1480
820014de:	f2c0 33ef 	movt	r3, #1007	; 0x3ef
820014e2:	6113      	str	r3, [r2, #16]
820014e4:	687b      	ldr	r3, [r7, #4]
820014e6:	2201      	movs	r2, #1
820014e8:	60da      	str	r2, [r3, #12]
820014ea:	bf00      	nop
820014ec:	370c      	adds	r7, #12
820014ee:	46bd      	mov	sp, r7
820014f0:	f85d 7b04 	ldr.w	r7, [sp], #4
820014f4:	4770      	bx	lr

820014f6 <gpt_run>:
820014f6:	b480      	push	{r7}
820014f8:	b083      	sub	sp, #12
820014fa:	af00      	add	r7, sp, #0
820014fc:	6078      	str	r0, [r7, #4]
820014fe:	687b      	ldr	r3, [r7, #4]
82001500:	681b      	ldr	r3, [r3, #0]
82001502:	f043 0201 	orr.w	r2, r3, #1
82001506:	687b      	ldr	r3, [r7, #4]
82001508:	601a      	str	r2, [r3, #0]
8200150a:	bf00      	nop
8200150c:	370c      	adds	r7, #12
8200150e:	46bd      	mov	sp, r7
82001510:	f85d 7b04 	ldr.w	r7, [sp], #4
82001514:	4770      	bx	lr

82001516 <gpt2_chan1_delay_us>:
82001516:	b480      	push	{r7}
82001518:	b085      	sub	sp, #20
8200151a:	af00      	add	r7, sp, #0
8200151c:	6078      	str	r0, [r7, #4]
8200151e:	687a      	ldr	r2, [r7, #4]
82001520:	4613      	mov	r3, r2
82001522:	015b      	lsls	r3, r3, #5
82001524:	4413      	add	r3, r2
82001526:	005b      	lsls	r3, r3, #1
82001528:	60fb      	str	r3, [r7, #12]
8200152a:	f44f 4300 	mov.w	r3, #32768	; 0x8000
8200152e:	f2c0 230e 	movt	r3, #526	; 0x20e
82001532:	f44f 4200 	mov.w	r2, #32768	; 0x8000
82001536:	f2c0 220e 	movt	r2, #526	; 0x20e
8200153a:	6812      	ldr	r2, [r2, #0]
8200153c:	f442 4200 	orr.w	r2, r2, #32768	; 0x8000
82001540:	601a      	str	r2, [r3, #0]
82001542:	bf00      	nop
82001544:	f44f 4300 	mov.w	r3, #32768	; 0x8000
82001548:	f2c0 230e 	movt	r3, #526	; 0x20e
8200154c:	681b      	ldr	r3, [r3, #0]
8200154e:	0bdb      	lsrs	r3, r3, #15
82001550:	f003 0301 	and.w	r3, r3, #1
82001554:	2b00      	cmp	r3, #0
82001556:	d1f5      	bne.n	82001544 <gpt2_chan1_delay_us+0x2e>
82001558:	f44f 4300 	mov.w	r3, #32768	; 0x8000
8200155c:	f2c0 230e 	movt	r3, #526	; 0x20e
82001560:	226a      	movs	r2, #106	; 0x6a
82001562:	601a      	str	r2, [r3, #0]
82001564:	f44f 4300 	mov.w	r3, #32768	; 0x8000
82001568:	f2c0 230e 	movt	r3, #526	; 0x20e
8200156c:	2200      	movs	r2, #0
8200156e:	605a      	str	r2, [r3, #4]
82001570:	f44f 4300 	mov.w	r3, #32768	; 0x8000
82001574:	f2c0 230e 	movt	r3, #526	; 0x20e
82001578:	68fa      	ldr	r2, [r7, #12]
8200157a:	611a      	str	r2, [r3, #16]
8200157c:	f44f 4300 	mov.w	r3, #32768	; 0x8000
82001580:	f2c0 230e 	movt	r3, #526	; 0x20e
82001584:	2201      	movs	r2, #1
82001586:	60da      	str	r2, [r3, #12]
82001588:	f44f 4300 	mov.w	r3, #32768	; 0x8000
8200158c:	f2c0 230e 	movt	r3, #526	; 0x20e
82001590:	f44f 4200 	mov.w	r2, #32768	; 0x8000
82001594:	f2c0 220e 	movt	r2, #526	; 0x20e
82001598:	6812      	ldr	r2, [r2, #0]
8200159a:	f042 0201 	orr.w	r2, r2, #1
8200159e:	601a      	str	r2, [r3, #0]
820015a0:	bf00      	nop
820015a2:	f44f 4300 	mov.w	r3, #32768	; 0x8000
820015a6:	f2c0 230e 	movt	r3, #526	; 0x20e
820015aa:	689b      	ldr	r3, [r3, #8]
820015ac:	f003 0301 	and.w	r3, r3, #1
820015b0:	2b00      	cmp	r3, #0
820015b2:	d0f6      	beq.n	820015a2 <gpt2_chan1_delay_us+0x8c>
820015b4:	f44f 4300 	mov.w	r3, #32768	; 0x8000
820015b8:	f2c0 230e 	movt	r3, #526	; 0x20e
820015bc:	f44f 4200 	mov.w	r2, #32768	; 0x8000
820015c0:	f2c0 220e 	movt	r2, #526	; 0x20e
820015c4:	6812      	ldr	r2, [r2, #0]
820015c6:	f022 0201 	bic.w	r2, r2, #1
820015ca:	601a      	str	r2, [r3, #0]
820015cc:	f44f 4300 	mov.w	r3, #32768	; 0x8000
820015d0:	f2c0 230e 	movt	r3, #526	; 0x20e
820015d4:	2201      	movs	r2, #1
820015d6:	609a      	str	r2, [r3, #8]
820015d8:	bf00      	nop
820015da:	3714      	adds	r7, #20
820015dc:	46bd      	mov	sp, r7
820015de:	f85d 7b04 	ldr.w	r7, [sp], #4
820015e2:	4770      	bx	lr

820015e4 <timer1_init>:
820015e4:	b480      	push	{r7}
820015e6:	b083      	sub	sp, #12
820015e8:	af00      	add	r7, sp, #0
820015ea:	6078      	str	r0, [r7, #4]
820015ec:	6039      	str	r1, [r7, #0]
820015ee:	687b      	ldr	r3, [r7, #4]
820015f0:	f3c3 030b 	ubfx	r3, r3, #0, #12
820015f4:	607b      	str	r3, [r7, #4]
820015f6:	2300      	movs	r3, #0
820015f8:	f2c0 230d 	movt	r3, #525	; 0x20d
820015fc:	2200      	movs	r2, #0
820015fe:	601a      	str	r2, [r3, #0]
82001600:	2200      	movs	r2, #0
82001602:	f2c0 220d 	movt	r2, #525	; 0x20d
82001606:	687b      	ldr	r3, [r7, #4]
82001608:	011b      	lsls	r3, r3, #4
8200160a:	f043 7380 	orr.w	r3, r3, #16777216	; 0x1000000
8200160e:	f043 030e 	orr.w	r3, r3, #14
82001612:	6013      	str	r3, [r2, #0]
82001614:	2300      	movs	r3, #0
82001616:	f2c0 230d 	movt	r3, #525	; 0x20d
8200161a:	683a      	ldr	r2, [r7, #0]
8200161c:	609a      	str	r2, [r3, #8]
8200161e:	2300      	movs	r3, #0
82001620:	f2c0 230d 	movt	r3, #525	; 0x20d
82001624:	2200      	movs	r2, #0
82001626:	60da      	str	r2, [r3, #12]
82001628:	bf00      	nop
8200162a:	370c      	adds	r7, #12
8200162c:	46bd      	mov	sp, r7
8200162e:	f85d 7b04 	ldr.w	r7, [sp], #4
82001632:	4770      	bx	lr

82001634 <IOMUXC_SetPinMux>:
82001634:	b480      	push	{r7}
82001636:	b085      	sub	sp, #20
82001638:	af00      	add	r7, sp, #0
8200163a:	60f8      	str	r0, [r7, #12]
8200163c:	60b9      	str	r1, [r7, #8]
8200163e:	607a      	str	r2, [r7, #4]
82001640:	603b      	str	r3, [r7, #0]
82001642:	68fb      	ldr	r3, [r7, #12]
82001644:	68ba      	ldr	r2, [r7, #8]
82001646:	f002 010f 	and.w	r1, r2, #15
8200164a:	69fa      	ldr	r2, [r7, #28]
8200164c:	0112      	lsls	r2, r2, #4
8200164e:	f002 0210 	and.w	r2, r2, #16
82001652:	430a      	orrs	r2, r1
82001654:	601a      	str	r2, [r3, #0]
82001656:	687b      	ldr	r3, [r7, #4]
82001658:	2b00      	cmp	r3, #0
8200165a:	d004      	beq.n	82001666 <IOMUXC_SetPinMux+0x32>
8200165c:	687b      	ldr	r3, [r7, #4]
8200165e:	683a      	ldr	r2, [r7, #0]
82001660:	f002 0207 	and.w	r2, r2, #7
82001664:	601a      	str	r2, [r3, #0]
82001666:	bf00      	nop
82001668:	3714      	adds	r7, #20
8200166a:	46bd      	mov	sp, r7
8200166c:	f85d 7b04 	ldr.w	r7, [sp], #4
82001670:	4770      	bx	lr

82001672 <IOMUXC_SetPinConfig>:
82001672:	b480      	push	{r7}
82001674:	b085      	sub	sp, #20
82001676:	af00      	add	r7, sp, #0
82001678:	60f8      	str	r0, [r7, #12]
8200167a:	60b9      	str	r1, [r7, #8]
8200167c:	607a      	str	r2, [r7, #4]
8200167e:	603b      	str	r3, [r7, #0]
82001680:	69bb      	ldr	r3, [r7, #24]
82001682:	2b00      	cmp	r3, #0
82001684:	d002      	beq.n	8200168c <IOMUXC_SetPinConfig+0x1a>
82001686:	69bb      	ldr	r3, [r7, #24]
82001688:	69fa      	ldr	r2, [r7, #28]
8200168a:	601a      	str	r2, [r3, #0]
8200168c:	bf00      	nop
8200168e:	3714      	adds	r7, #20
82001690:	46bd      	mov	sp, r7
82001692:	f85d 7b04 	ldr.w	r7, [sp], #4
82001696:	4770      	bx	lr

82001698 <AT24CXX_Init>:
82001698:	b580      	push	{r7, lr}
8200169a:	b082      	sub	sp, #8
8200169c:	af02      	add	r7, sp, #8
8200169e:	2301      	movs	r3, #1
820016a0:	9301      	str	r3, [sp, #4]
820016a2:	f44f 7350 	mov.w	r3, #832	; 0x340
820016a6:	f2c0 230e 	movt	r3, #526	; 0x20e
820016aa:	9300      	str	r3, [sp, #0]
820016ac:	2301      	movs	r3, #1
820016ae:	f240 52a4 	movw	r2, #1444	; 0x5a4
820016b2:	f2c0 220e 	movt	r2, #526	; 0x20e
820016b6:	2102      	movs	r1, #2
820016b8:	20b4      	movs	r0, #180	; 0xb4
820016ba:	f2c0 200e 	movt	r0, #526	; 0x20e
820016be:	f7ff ffb9 	bl	82001634 <IOMUXC_SetPinMux>
820016c2:	2301      	movs	r3, #1
820016c4:	9301      	str	r3, [sp, #4]
820016c6:	f44f 7351 	mov.w	r3, #836	; 0x344
820016ca:	f2c0 230e 	movt	r3, #526	; 0x20e
820016ce:	9300      	str	r3, [sp, #0]
820016d0:	2302      	movs	r3, #2
820016d2:	f44f 62b5 	mov.w	r2, #1448	; 0x5a8
820016d6:	f2c0 220e 	movt	r2, #526	; 0x20e
820016da:	2102      	movs	r1, #2
820016dc:	20b8      	movs	r0, #184	; 0xb8
820016de:	f2c0 200e 	movt	r0, #526	; 0x20e
820016e2:	f7ff ffa7 	bl	82001634 <IOMUXC_SetPinMux>
820016e6:	f247 03b0 	movw	r3, #28848	; 0x70b0
820016ea:	9301      	str	r3, [sp, #4]
820016ec:	f44f 7350 	mov.w	r3, #832	; 0x340
820016f0:	f2c0 230e 	movt	r3, #526	; 0x20e
820016f4:	9300      	str	r3, [sp, #0]
820016f6:	2301      	movs	r3, #1
820016f8:	f240 52a4 	movw	r2, #1444	; 0x5a4
820016fc:	f2c0 220e 	movt	r2, #526	; 0x20e
82001700:	2102      	movs	r1, #2
82001702:	20b4      	movs	r0, #180	; 0xb4
82001704:	f2c0 200e 	movt	r0, #526	; 0x20e
82001708:	f7ff ffb3 	bl	82001672 <IOMUXC_SetPinConfig>
8200170c:	f247 03b0 	movw	r3, #28848	; 0x70b0
82001710:	9301      	str	r3, [sp, #4]
82001712:	f44f 7351 	mov.w	r3, #836	; 0x344
82001716:	f2c0 230e 	movt	r3, #526	; 0x20e
8200171a:	9300      	str	r3, [sp, #0]
8200171c:	2302      	movs	r3, #2
8200171e:	f44f 62b5 	mov.w	r2, #1448	; 0x5a8
82001722:	f2c0 220e 	movt	r2, #526	; 0x20e
82001726:	2102      	movs	r1, #2
82001728:	20b8      	movs	r0, #184	; 0xb8
8200172a:	f2c0 200e 	movt	r0, #526	; 0x20e
8200172e:	f7ff ffa0 	bl	82001672 <IOMUXC_SetPinConfig>
82001732:	2000      	movs	r0, #0
82001734:	f2c0 201a 	movt	r0, #538	; 0x21a
82001738:	f000 f876 	bl	82001828 <i2c_init>
8200173c:	bf00      	nop
8200173e:	46bd      	mov	sp, r7
82001740:	bd80      	pop	{r7, pc}

82001742 <AT24CXX_Check>:
82001742:	b580      	push	{r7, lr}
82001744:	b082      	sub	sp, #8
82001746:	af00      	add	r7, sp, #0
82001748:	2200      	movs	r2, #0
8200174a:	f2c0 221a 	movt	r2, #538	; 0x21a
8200174e:	21ff      	movs	r1, #255	; 0xff
82001750:	2050      	movs	r0, #80	; 0x50
82001752:	f000 fb09 	bl	82001d68 <i2c_read_one_byte>
82001756:	4603      	mov	r3, r0
82001758:	71fb      	strb	r3, [r7, #7]
8200175a:	79fb      	ldrb	r3, [r7, #7]
8200175c:	2b11      	cmp	r3, #17
8200175e:	d101      	bne.n	82001764 <AT24CXX_Check+0x22>
82001760:	2300      	movs	r3, #0
82001762:	e016      	b.n	82001792 <AT24CXX_Check+0x50>
82001764:	2300      	movs	r3, #0
82001766:	f2c0 231a 	movt	r3, #538	; 0x21a
8200176a:	2211      	movs	r2, #17
8200176c:	21ff      	movs	r1, #255	; 0xff
8200176e:	2050      	movs	r0, #80	; 0x50
82001770:	f000 face 	bl	82001d10 <i2c_write_one_byte>
82001774:	2200      	movs	r2, #0
82001776:	f2c0 221a 	movt	r2, #538	; 0x21a
8200177a:	21ff      	movs	r1, #255	; 0xff
8200177c:	2050      	movs	r0, #80	; 0x50
8200177e:	f000 faf3 	bl	82001d68 <i2c_read_one_byte>
82001782:	4603      	mov	r3, r0
82001784:	71fb      	strb	r3, [r7, #7]
82001786:	79fb      	ldrb	r3, [r7, #7]
82001788:	2b11      	cmp	r3, #17
8200178a:	d101      	bne.n	82001790 <AT24CXX_Check+0x4e>
8200178c:	2300      	movs	r3, #0
8200178e:	e000      	b.n	82001792 <AT24CXX_Check+0x50>
82001790:	2301      	movs	r3, #1
82001792:	4618      	mov	r0, r3
82001794:	3708      	adds	r7, #8
82001796:	46bd      	mov	sp, r7
82001798:	bd80      	pop	{r7, pc}

8200179a <AT24CXX_Read>:
8200179a:	b590      	push	{r4, r7, lr}
8200179c:	b085      	sub	sp, #20
8200179e:	af00      	add	r7, sp, #0
820017a0:	60f8      	str	r0, [r7, #12]
820017a2:	60b9      	str	r1, [r7, #8]
820017a4:	607a      	str	r2, [r7, #4]
820017a6:	e013      	b.n	820017d0 <AT24CXX_Read+0x36>
820017a8:	68bc      	ldr	r4, [r7, #8]
820017aa:	1c63      	adds	r3, r4, #1
820017ac:	60bb      	str	r3, [r7, #8]
820017ae:	68fb      	ldr	r3, [r7, #12]
820017b0:	1c5a      	adds	r2, r3, #1
820017b2:	60fa      	str	r2, [r7, #12]
820017b4:	b2db      	uxtb	r3, r3
820017b6:	2200      	movs	r2, #0
820017b8:	f2c0 221a 	movt	r2, #538	; 0x21a
820017bc:	4619      	mov	r1, r3
820017be:	2050      	movs	r0, #80	; 0x50
820017c0:	f000 fad2 	bl	82001d68 <i2c_read_one_byte>
820017c4:	4603      	mov	r3, r0
820017c6:	7023      	strb	r3, [r4, #0]
820017c8:	f241 3088 	movw	r0, #5000	; 0x1388
820017cc:	f7ff fea3 	bl	82001516 <gpt2_chan1_delay_us>
820017d0:	687b      	ldr	r3, [r7, #4]
820017d2:	1e5a      	subs	r2, r3, #1
820017d4:	607a      	str	r2, [r7, #4]
820017d6:	2b00      	cmp	r3, #0
820017d8:	d1e6      	bne.n	820017a8 <AT24CXX_Read+0xe>
820017da:	bf00      	nop
820017dc:	3714      	adds	r7, #20
820017de:	46bd      	mov	sp, r7
820017e0:	bd90      	pop	{r4, r7, pc}

820017e2 <AT24CXX_Write>:
820017e2:	b580      	push	{r7, lr}
820017e4:	b084      	sub	sp, #16
820017e6:	af00      	add	r7, sp, #0
820017e8:	60f8      	str	r0, [r7, #12]
820017ea:	60b9      	str	r1, [r7, #8]
820017ec:	607a      	str	r2, [r7, #4]
820017ee:	e012      	b.n	82001816 <AT24CXX_Write+0x34>
820017f0:	68fb      	ldr	r3, [r7, #12]
820017f2:	1c5a      	adds	r2, r3, #1
820017f4:	60fa      	str	r2, [r7, #12]
820017f6:	b2d9      	uxtb	r1, r3
820017f8:	68bb      	ldr	r3, [r7, #8]
820017fa:	781a      	ldrb	r2, [r3, #0]
820017fc:	2300      	movs	r3, #0
820017fe:	f2c0 231a 	movt	r3, #538	; 0x21a
82001802:	2050      	movs	r0, #80	; 0x50
82001804:	f000 fa84 	bl	82001d10 <i2c_write_one_byte>
82001808:	f242 7010 	movw	r0, #10000	; 0x2710
8200180c:	f7ff fe83 	bl	82001516 <gpt2_chan1_delay_us>
82001810:	68bb      	ldr	r3, [r7, #8]
82001812:	3301      	adds	r3, #1
82001814:	60bb      	str	r3, [r7, #8]
82001816:	687b      	ldr	r3, [r7, #4]
82001818:	1e5a      	subs	r2, r3, #1
8200181a:	607a      	str	r2, [r7, #4]
8200181c:	2b00      	cmp	r3, #0
8200181e:	d1e7      	bne.n	820017f0 <AT24CXX_Write+0xe>
82001820:	bf00      	nop
82001822:	3710      	adds	r7, #16
82001824:	46bd      	mov	sp, r7
82001826:	bd80      	pop	{r7, pc}

82001828 <i2c_init>:
82001828:	b480      	push	{r7}
8200182a:	b083      	sub	sp, #12
8200182c:	af00      	add	r7, sp, #0
8200182e:	6078      	str	r0, [r7, #4]
82001830:	687b      	ldr	r3, [r7, #4]
82001832:	891b      	ldrh	r3, [r3, #8]
82001834:	b29b      	uxth	r3, r3
82001836:	f023 0380 	bic.w	r3, r3, #128	; 0x80
8200183a:	b29a      	uxth	r2, r3
8200183c:	687b      	ldr	r3, [r7, #4]
8200183e:	811a      	strh	r2, [r3, #8]
82001840:	687b      	ldr	r3, [r7, #4]
82001842:	2237      	movs	r2, #55	; 0x37
82001844:	809a      	strh	r2, [r3, #4]
82001846:	687b      	ldr	r3, [r7, #4]
82001848:	891b      	ldrh	r3, [r3, #8]
8200184a:	b29b      	uxth	r3, r3
8200184c:	f043 0380 	orr.w	r3, r3, #128	; 0x80
82001850:	b29a      	uxth	r2, r3
82001852:	687b      	ldr	r3, [r7, #4]
82001854:	811a      	strh	r2, [r3, #8]
82001856:	bf00      	nop
82001858:	370c      	adds	r7, #12
8200185a:	46bd      	mov	sp, r7
8200185c:	f85d 7b04 	ldr.w	r7, [sp], #4
82001860:	4770      	bx	lr

82001862 <i2c_check>:
82001862:	b480      	push	{r7}
82001864:	b083      	sub	sp, #12
82001866:	af00      	add	r7, sp, #0
82001868:	6078      	str	r0, [r7, #4]
8200186a:	6039      	str	r1, [r7, #0]
8200186c:	683b      	ldr	r3, [r7, #0]
8200186e:	f003 0310 	and.w	r3, r3, #16
82001872:	2b00      	cmp	r3, #0
82001874:	d019      	beq.n	820018aa <i2c_check+0x48>
82001876:	687b      	ldr	r3, [r7, #4]
82001878:	899b      	ldrh	r3, [r3, #12]
8200187a:	b29b      	uxth	r3, r3
8200187c:	f023 0310 	bic.w	r3, r3, #16
82001880:	b29a      	uxth	r2, r3
82001882:	687b      	ldr	r3, [r7, #4]
82001884:	819a      	strh	r2, [r3, #12]
82001886:	687b      	ldr	r3, [r7, #4]
82001888:	891b      	ldrh	r3, [r3, #8]
8200188a:	b29b      	uxth	r3, r3
8200188c:	f023 0380 	bic.w	r3, r3, #128	; 0x80
82001890:	b29a      	uxth	r2, r3
82001892:	687b      	ldr	r3, [r7, #4]
82001894:	811a      	strh	r2, [r3, #8]
82001896:	687b      	ldr	r3, [r7, #4]
82001898:	891b      	ldrh	r3, [r3, #8]
8200189a:	b29b      	uxth	r3, r3
8200189c:	f043 0380 	orr.w	r3, r3, #128	; 0x80
820018a0:	b29a      	uxth	r2, r3
820018a2:	687b      	ldr	r3, [r7, #4]
820018a4:	811a      	strh	r2, [r3, #8]
820018a6:	2305      	movs	r3, #5
820018a8:	e007      	b.n	820018ba <i2c_check+0x58>
820018aa:	683b      	ldr	r3, [r7, #0]
820018ac:	f003 0301 	and.w	r3, r3, #1
820018b0:	2b00      	cmp	r3, #0
820018b2:	d001      	beq.n	820018b8 <i2c_check+0x56>
820018b4:	2304      	movs	r3, #4
820018b6:	e000      	b.n	820018ba <i2c_check+0x58>
820018b8:	2300      	movs	r3, #0
820018ba:	4618      	mov	r0, r3
820018bc:	370c      	adds	r7, #12
820018be:	46bd      	mov	sp, r7
820018c0:	f85d 7b04 	ldr.w	r7, [sp], #4
820018c4:	4770      	bx	lr

820018c6 <i2c_start>:
820018c6:	b480      	push	{r7}
820018c8:	b085      	sub	sp, #20
820018ca:	af00      	add	r7, sp, #0
820018cc:	60f8      	str	r0, [r7, #12]
820018ce:	460b      	mov	r3, r1
820018d0:	607a      	str	r2, [r7, #4]
820018d2:	72fb      	strb	r3, [r7, #11]
820018d4:	68fb      	ldr	r3, [r7, #12]
820018d6:	899b      	ldrh	r3, [r3, #12]
820018d8:	b29b      	uxth	r3, r3
820018da:	f003 0320 	and.w	r3, r3, #32
820018de:	2b00      	cmp	r3, #0
820018e0:	d001      	beq.n	820018e6 <i2c_start+0x20>
820018e2:	2301      	movs	r3, #1
820018e4:	e016      	b.n	82001914 <i2c_start+0x4e>
820018e6:	68fb      	ldr	r3, [r7, #12]
820018e8:	891b      	ldrh	r3, [r3, #8]
820018ea:	b29b      	uxth	r3, r3
820018ec:	f043 0330 	orr.w	r3, r3, #48	; 0x30
820018f0:	b29a      	uxth	r2, r3
820018f2:	68fb      	ldr	r3, [r7, #12]
820018f4:	811a      	strh	r2, [r3, #8]
820018f6:	7afb      	ldrb	r3, [r7, #11]
820018f8:	b29b      	uxth	r3, r3
820018fa:	005b      	lsls	r3, r3, #1
820018fc:	b29a      	uxth	r2, r3
820018fe:	687b      	ldr	r3, [r7, #4]
82001900:	2b01      	cmp	r3, #1
82001902:	d101      	bne.n	82001908 <i2c_start+0x42>
82001904:	2301      	movs	r3, #1
82001906:	e000      	b.n	8200190a <i2c_start+0x44>
82001908:	2300      	movs	r3, #0
8200190a:	4313      	orrs	r3, r2
8200190c:	b29a      	uxth	r2, r3
8200190e:	68fb      	ldr	r3, [r7, #12]
82001910:	821a      	strh	r2, [r3, #16]
82001912:	2300      	movs	r3, #0
82001914:	4618      	mov	r0, r3
82001916:	3714      	adds	r7, #20
82001918:	46bd      	mov	sp, r7
8200191a:	f85d 7b04 	ldr.w	r7, [sp], #4
8200191e:	4770      	bx	lr

82001920 <i2c_stop>:
82001920:	b480      	push	{r7}
82001922:	b085      	sub	sp, #20
82001924:	af00      	add	r7, sp, #0
82001926:	6078      	str	r0, [r7, #4]
82001928:	f64f 73ff 	movw	r3, #65535	; 0xffff
8200192c:	81fb      	strh	r3, [r7, #14]
8200192e:	687b      	ldr	r3, [r7, #4]
82001930:	891b      	ldrh	r3, [r3, #8]
82001932:	b29b      	uxth	r3, r3
82001934:	f023 0338 	bic.w	r3, r3, #56	; 0x38
82001938:	b29a      	uxth	r2, r3
8200193a:	687b      	ldr	r3, [r7, #4]
8200193c:	811a      	strh	r2, [r3, #8]
8200193e:	e007      	b.n	82001950 <i2c_stop+0x30>
82001940:	89fb      	ldrh	r3, [r7, #14]
82001942:	3b01      	subs	r3, #1
82001944:	81fb      	strh	r3, [r7, #14]
82001946:	89fb      	ldrh	r3, [r7, #14]
82001948:	2b00      	cmp	r3, #0
8200194a:	d101      	bne.n	82001950 <i2c_stop+0x30>
8200194c:	2306      	movs	r3, #6
8200194e:	e007      	b.n	82001960 <i2c_stop+0x40>
82001950:	687b      	ldr	r3, [r7, #4]
82001952:	899b      	ldrh	r3, [r3, #12]
82001954:	b29b      	uxth	r3, r3
82001956:	f003 0320 	and.w	r3, r3, #32
8200195a:	2b00      	cmp	r3, #0
8200195c:	d1f0      	bne.n	82001940 <i2c_stop+0x20>
8200195e:	2300      	movs	r3, #0
82001960:	4618      	mov	r0, r3
82001962:	3714      	adds	r7, #20
82001964:	46bd      	mov	sp, r7
82001966:	f85d 7b04 	ldr.w	r7, [sp], #4
8200196a:	4770      	bx	lr

8200196c <i2c_restart>:
8200196c:	b480      	push	{r7}
8200196e:	b085      	sub	sp, #20
82001970:	af00      	add	r7, sp, #0
82001972:	60f8      	str	r0, [r7, #12]
82001974:	460b      	mov	r3, r1
82001976:	607a      	str	r2, [r7, #4]
82001978:	72fb      	strb	r3, [r7, #11]
8200197a:	68fb      	ldr	r3, [r7, #12]
8200197c:	899b      	ldrh	r3, [r3, #12]
8200197e:	b29b      	uxth	r3, r3
82001980:	f003 0320 	and.w	r3, r3, #32
82001984:	2b00      	cmp	r3, #0
82001986:	d008      	beq.n	8200199a <i2c_restart+0x2e>
82001988:	68fb      	ldr	r3, [r7, #12]
8200198a:	891b      	ldrh	r3, [r3, #8]
8200198c:	b29b      	uxth	r3, r3
8200198e:	f003 0320 	and.w	r3, r3, #32
82001992:	2b00      	cmp	r3, #0
82001994:	d101      	bne.n	8200199a <i2c_restart+0x2e>
82001996:	2306      	movs	r3, #6
82001998:	e016      	b.n	820019c8 <i2c_restart+0x5c>
8200199a:	68fb      	ldr	r3, [r7, #12]
8200199c:	891b      	ldrh	r3, [r3, #8]
8200199e:	b29b      	uxth	r3, r3
820019a0:	f043 0314 	orr.w	r3, r3, #20
820019a4:	b29a      	uxth	r2, r3
820019a6:	68fb      	ldr	r3, [r7, #12]
820019a8:	811a      	strh	r2, [r3, #8]
820019aa:	7afb      	ldrb	r3, [r7, #11]
820019ac:	b29b      	uxth	r3, r3
820019ae:	005b      	lsls	r3, r3, #1
820019b0:	b29a      	uxth	r2, r3
820019b2:	687b      	ldr	r3, [r7, #4]
820019b4:	2b01      	cmp	r3, #1
820019b6:	d101      	bne.n	820019bc <i2c_restart+0x50>
820019b8:	2301      	movs	r3, #1
820019ba:	e000      	b.n	820019be <i2c_restart+0x52>
820019bc:	2300      	movs	r3, #0
820019be:	4313      	orrs	r3, r2
820019c0:	b29a      	uxth	r2, r3
820019c2:	68fb      	ldr	r3, [r7, #12]
820019c4:	821a      	strh	r2, [r3, #16]
820019c6:	2300      	movs	r3, #0
820019c8:	4618      	mov	r0, r3
820019ca:	3714      	adds	r7, #20
820019cc:	46bd      	mov	sp, r7
820019ce:	f85d 7b04 	ldr.w	r7, [sp], #4
820019d2:	4770      	bx	lr

820019d4 <i2c_write>:
820019d4:	b580      	push	{r7, lr}
820019d6:	b084      	sub	sp, #16
820019d8:	af00      	add	r7, sp, #0
820019da:	60f8      	str	r0, [r7, #12]
820019dc:	60b9      	str	r1, [r7, #8]
820019de:	607a      	str	r2, [r7, #4]
820019e0:	bf00      	nop
820019e2:	68fb      	ldr	r3, [r7, #12]
820019e4:	899b      	ldrh	r3, [r3, #12]
820019e6:	b29b      	uxth	r3, r3
820019e8:	f003 0380 	and.w	r3, r3, #128	; 0x80
820019ec:	2b00      	cmp	r3, #0
820019ee:	d0f8      	beq.n	820019e2 <i2c_write+0xe>
820019f0:	68fb      	ldr	r3, [r7, #12]
820019f2:	899b      	ldrh	r3, [r3, #12]
820019f4:	b29b      	uxth	r3, r3
820019f6:	f023 0302 	bic.w	r3, r3, #2
820019fa:	b29a      	uxth	r2, r3
820019fc:	68fb      	ldr	r3, [r7, #12]
820019fe:	819a      	strh	r2, [r3, #12]
82001a00:	68fb      	ldr	r3, [r7, #12]
82001a02:	891b      	ldrh	r3, [r3, #8]
82001a04:	b29b      	uxth	r3, r3
82001a06:	f043 0310 	orr.w	r3, r3, #16
82001a0a:	b29a      	uxth	r2, r3
82001a0c:	68fb      	ldr	r3, [r7, #12]
82001a0e:	811a      	strh	r2, [r3, #8]
82001a10:	e020      	b.n	82001a54 <i2c_write+0x80>
82001a12:	68bb      	ldr	r3, [r7, #8]
82001a14:	1c5a      	adds	r2, r3, #1
82001a16:	60ba      	str	r2, [r7, #8]
82001a18:	781b      	ldrb	r3, [r3, #0]
82001a1a:	b29a      	uxth	r2, r3
82001a1c:	68fb      	ldr	r3, [r7, #12]
82001a1e:	821a      	strh	r2, [r3, #16]
82001a20:	bf00      	nop
82001a22:	68fb      	ldr	r3, [r7, #12]
82001a24:	899b      	ldrh	r3, [r3, #12]
82001a26:	b29b      	uxth	r3, r3
82001a28:	f003 0302 	and.w	r3, r3, #2
82001a2c:	2b00      	cmp	r3, #0
82001a2e:	d0f8      	beq.n	82001a22 <i2c_write+0x4e>
82001a30:	68fb      	ldr	r3, [r7, #12]
82001a32:	899b      	ldrh	r3, [r3, #12]
82001a34:	b29b      	uxth	r3, r3
82001a36:	f023 0302 	bic.w	r3, r3, #2
82001a3a:	b29a      	uxth	r2, r3
82001a3c:	68fb      	ldr	r3, [r7, #12]
82001a3e:	819a      	strh	r2, [r3, #12]
82001a40:	68fb      	ldr	r3, [r7, #12]
82001a42:	899b      	ldrh	r3, [r3, #12]
82001a44:	b29b      	uxth	r3, r3
82001a46:	4619      	mov	r1, r3
82001a48:	68f8      	ldr	r0, [r7, #12]
82001a4a:	f7ff ff0a 	bl	82001862 <i2c_check>
82001a4e:	4603      	mov	r3, r0
82001a50:	2b00      	cmp	r3, #0
82001a52:	d105      	bne.n	82001a60 <i2c_write+0x8c>
82001a54:	687b      	ldr	r3, [r7, #4]
82001a56:	1e5a      	subs	r2, r3, #1
82001a58:	607a      	str	r2, [r7, #4]
82001a5a:	2b00      	cmp	r3, #0
82001a5c:	d1d9      	bne.n	82001a12 <i2c_write+0x3e>
82001a5e:	e000      	b.n	82001a62 <i2c_write+0x8e>
82001a60:	bf00      	nop
82001a62:	68fb      	ldr	r3, [r7, #12]
82001a64:	899b      	ldrh	r3, [r3, #12]
82001a66:	b29b      	uxth	r3, r3
82001a68:	f023 0302 	bic.w	r3, r3, #2
82001a6c:	b29a      	uxth	r2, r3
82001a6e:	68fb      	ldr	r3, [r7, #12]
82001a70:	819a      	strh	r2, [r3, #12]
82001a72:	68f8      	ldr	r0, [r7, #12]
82001a74:	f7ff ff54 	bl	82001920 <i2c_stop>
82001a78:	bf00      	nop
82001a7a:	3710      	adds	r7, #16
82001a7c:	46bd      	mov	sp, r7
82001a7e:	bd80      	pop	{r7, pc}

82001a80 <i2c_read>:
82001a80:	b580      	push	{r7, lr}
82001a82:	b086      	sub	sp, #24
82001a84:	af00      	add	r7, sp, #0
82001a86:	60f8      	str	r0, [r7, #12]
82001a88:	60b9      	str	r1, [r7, #8]
82001a8a:	607a      	str	r2, [r7, #4]
82001a8c:	2300      	movs	r3, #0
82001a8e:	75fb      	strb	r3, [r7, #23]
82001a90:	7dfb      	ldrb	r3, [r7, #23]
82001a92:	b2db      	uxtb	r3, r3
82001a94:	3301      	adds	r3, #1
82001a96:	b2db      	uxtb	r3, r3
82001a98:	75fb      	strb	r3, [r7, #23]
82001a9a:	bf00      	nop
82001a9c:	68fb      	ldr	r3, [r7, #12]
82001a9e:	899b      	ldrh	r3, [r3, #12]
82001aa0:	b29b      	uxth	r3, r3
82001aa2:	f003 0380 	and.w	r3, r3, #128	; 0x80
82001aa6:	2b00      	cmp	r3, #0
82001aa8:	d0f8      	beq.n	82001a9c <i2c_read+0x1c>
82001aaa:	68fb      	ldr	r3, [r7, #12]
82001aac:	899b      	ldrh	r3, [r3, #12]
82001aae:	b29b      	uxth	r3, r3
82001ab0:	f023 0302 	bic.w	r3, r3, #2
82001ab4:	b29a      	uxth	r2, r3
82001ab6:	68fb      	ldr	r3, [r7, #12]
82001ab8:	819a      	strh	r2, [r3, #12]
82001aba:	68fb      	ldr	r3, [r7, #12]
82001abc:	891b      	ldrh	r3, [r3, #8]
82001abe:	b29b      	uxth	r3, r3
82001ac0:	f023 0318 	bic.w	r3, r3, #24
82001ac4:	b29a      	uxth	r2, r3
82001ac6:	68fb      	ldr	r3, [r7, #12]
82001ac8:	811a      	strh	r2, [r3, #8]
82001aca:	687b      	ldr	r3, [r7, #4]
82001acc:	2b01      	cmp	r3, #1
82001ace:	d107      	bne.n	82001ae0 <i2c_read+0x60>
82001ad0:	68fb      	ldr	r3, [r7, #12]
82001ad2:	891b      	ldrh	r3, [r3, #8]
82001ad4:	b29b      	uxth	r3, r3
82001ad6:	f043 0308 	orr.w	r3, r3, #8
82001ada:	b29a      	uxth	r2, r3
82001adc:	68fb      	ldr	r3, [r7, #12]
82001ade:	811a      	strh	r2, [r3, #8]
82001ae0:	68fb      	ldr	r3, [r7, #12]
82001ae2:	8a1b      	ldrh	r3, [r3, #16]
82001ae4:	b29b      	uxth	r3, r3
82001ae6:	b2db      	uxtb	r3, r3
82001ae8:	75fb      	strb	r3, [r7, #23]
82001aea:	e028      	b.n	82001b3e <i2c_read+0xbe>
82001aec:	bf00      	nop
82001aee:	68fb      	ldr	r3, [r7, #12]
82001af0:	899b      	ldrh	r3, [r3, #12]
82001af2:	b29b      	uxth	r3, r3
82001af4:	f003 0302 	and.w	r3, r3, #2
82001af8:	2b00      	cmp	r3, #0
82001afa:	d0f8      	beq.n	82001aee <i2c_read+0x6e>
82001afc:	68fb      	ldr	r3, [r7, #12]
82001afe:	899b      	ldrh	r3, [r3, #12]
82001b00:	b29b      	uxth	r3, r3
82001b02:	f023 0302 	bic.w	r3, r3, #2
82001b06:	b29a      	uxth	r2, r3
82001b08:	68fb      	ldr	r3, [r7, #12]
82001b0a:	819a      	strh	r2, [r3, #12]
82001b0c:	687b      	ldr	r3, [r7, #4]
82001b0e:	2b00      	cmp	r3, #0
82001b10:	d102      	bne.n	82001b18 <i2c_read+0x98>
82001b12:	68f8      	ldr	r0, [r7, #12]
82001b14:	f7ff ff04 	bl	82001920 <i2c_stop>
82001b18:	687b      	ldr	r3, [r7, #4]
82001b1a:	2b01      	cmp	r3, #1
82001b1c:	d107      	bne.n	82001b2e <i2c_read+0xae>
82001b1e:	68fb      	ldr	r3, [r7, #12]
82001b20:	891b      	ldrh	r3, [r3, #8]
82001b22:	b29b      	uxth	r3, r3
82001b24:	f043 0308 	orr.w	r3, r3, #8
82001b28:	b29a      	uxth	r2, r3
82001b2a:	68fb      	ldr	r3, [r7, #12]
82001b2c:	811a      	strh	r2, [r3, #8]
82001b2e:	68bb      	ldr	r3, [r7, #8]
82001b30:	1c5a      	adds	r2, r3, #1
82001b32:	60ba      	str	r2, [r7, #8]
82001b34:	68fa      	ldr	r2, [r7, #12]
82001b36:	8a12      	ldrh	r2, [r2, #16]
82001b38:	b292      	uxth	r2, r2
82001b3a:	b2d2      	uxtb	r2, r2
82001b3c:	701a      	strb	r2, [r3, #0]
82001b3e:	687b      	ldr	r3, [r7, #4]
82001b40:	1e5a      	subs	r2, r3, #1
82001b42:	607a      	str	r2, [r7, #4]
82001b44:	2b00      	cmp	r3, #0
82001b46:	d1d1      	bne.n	82001aec <i2c_read+0x6c>
82001b48:	bf00      	nop
82001b4a:	3718      	adds	r7, #24
82001b4c:	46bd      	mov	sp, r7
82001b4e:	bd80      	pop	{r7, pc}

82001b50 <i2c_transfer>:
82001b50:	b580      	push	{r7, lr}
82001b52:	b084      	sub	sp, #16
82001b54:	af00      	add	r7, sp, #0
82001b56:	6078      	str	r0, [r7, #4]
82001b58:	6039      	str	r1, [r7, #0]
82001b5a:	2300      	movs	r3, #0
82001b5c:	60bb      	str	r3, [r7, #8]
82001b5e:	683b      	ldr	r3, [r7, #0]
82001b60:	685b      	ldr	r3, [r3, #4]
82001b62:	60fb      	str	r3, [r7, #12]
82001b64:	687b      	ldr	r3, [r7, #4]
82001b66:	899b      	ldrh	r3, [r3, #12]
82001b68:	b29b      	uxth	r3, r3
82001b6a:	f023 0312 	bic.w	r3, r3, #18
82001b6e:	b29a      	uxth	r2, r3
82001b70:	687b      	ldr	r3, [r7, #4]
82001b72:	819a      	strh	r2, [r3, #12]
82001b74:	bf00      	nop
82001b76:	687b      	ldr	r3, [r7, #4]
82001b78:	899b      	ldrh	r3, [r3, #12]
82001b7a:	b29b      	uxth	r3, r3
82001b7c:	09db      	lsrs	r3, r3, #7
82001b7e:	b29b      	uxth	r3, r3
82001b80:	f003 0301 	and.w	r3, r3, #1
82001b84:	2b00      	cmp	r3, #0
82001b86:	d0f6      	beq.n	82001b76 <i2c_transfer+0x26>
82001b88:	683b      	ldr	r3, [r7, #0]
82001b8a:	7b1b      	ldrb	r3, [r3, #12]
82001b8c:	2b00      	cmp	r3, #0
82001b8e:	d005      	beq.n	82001b9c <i2c_transfer+0x4c>
82001b90:	683b      	ldr	r3, [r7, #0]
82001b92:	685b      	ldr	r3, [r3, #4]
82001b94:	2b01      	cmp	r3, #1
82001b96:	d101      	bne.n	82001b9c <i2c_transfer+0x4c>
82001b98:	2300      	movs	r3, #0
82001b9a:	60fb      	str	r3, [r7, #12]
82001b9c:	683b      	ldr	r3, [r7, #0]
82001b9e:	781b      	ldrb	r3, [r3, #0]
82001ba0:	68fa      	ldr	r2, [r7, #12]
82001ba2:	4619      	mov	r1, r3
82001ba4:	6878      	ldr	r0, [r7, #4]
82001ba6:	f7ff fe8e 	bl	820018c6 <i2c_start>
82001baa:	4603      	mov	r3, r0
82001bac:	60bb      	str	r3, [r7, #8]
82001bae:	68bb      	ldr	r3, [r7, #8]
82001bb0:	2b00      	cmp	r3, #0
82001bb2:	d002      	beq.n	82001bba <i2c_transfer+0x6a>
82001bb4:	68bb      	ldr	r3, [r7, #8]
82001bb6:	b2db      	uxtb	r3, r3
82001bb8:	e0a6      	b.n	82001d08 <i2c_transfer+0x1b8>
82001bba:	bf00      	nop
82001bbc:	687b      	ldr	r3, [r7, #4]
82001bbe:	899b      	ldrh	r3, [r3, #12]
82001bc0:	b29b      	uxth	r3, r3
82001bc2:	f003 0302 	and.w	r3, r3, #2
82001bc6:	2b00      	cmp	r3, #0
82001bc8:	d0f8      	beq.n	82001bbc <i2c_transfer+0x6c>
82001bca:	687b      	ldr	r3, [r7, #4]
82001bcc:	899b      	ldrh	r3, [r3, #12]
82001bce:	b29b      	uxth	r3, r3
82001bd0:	4619      	mov	r1, r3
82001bd2:	6878      	ldr	r0, [r7, #4]
82001bd4:	f7ff fe45 	bl	82001862 <i2c_check>
82001bd8:	4603      	mov	r3, r0
82001bda:	60bb      	str	r3, [r7, #8]
82001bdc:	68bb      	ldr	r3, [r7, #8]
82001bde:	2b00      	cmp	r3, #0
82001be0:	d005      	beq.n	82001bee <i2c_transfer+0x9e>
82001be2:	6878      	ldr	r0, [r7, #4]
82001be4:	f7ff fe9c 	bl	82001920 <i2c_stop>
82001be8:	68bb      	ldr	r3, [r7, #8]
82001bea:	b2db      	uxtb	r3, r3
82001bec:	e08c      	b.n	82001d08 <i2c_transfer+0x1b8>
82001bee:	683b      	ldr	r3, [r7, #0]
82001bf0:	7b1b      	ldrb	r3, [r3, #12]
82001bf2:	2b00      	cmp	r3, #0
82001bf4:	d067      	beq.n	82001cc6 <i2c_transfer+0x176>
82001bf6:	687b      	ldr	r3, [r7, #4]
82001bf8:	899b      	ldrh	r3, [r3, #12]
82001bfa:	b29b      	uxth	r3, r3
82001bfc:	f023 0302 	bic.w	r3, r3, #2
82001c00:	b29a      	uxth	r2, r3
82001c02:	687b      	ldr	r3, [r7, #4]
82001c04:	819a      	strh	r2, [r3, #12]
82001c06:	683b      	ldr	r3, [r7, #0]
82001c08:	7b1b      	ldrb	r3, [r3, #12]
82001c0a:	3b01      	subs	r3, #1
82001c0c:	b2da      	uxtb	r2, r3
82001c0e:	683b      	ldr	r3, [r7, #0]
82001c10:	731a      	strb	r2, [r3, #12]
82001c12:	683b      	ldr	r3, [r7, #0]
82001c14:	689a      	ldr	r2, [r3, #8]
82001c16:	683b      	ldr	r3, [r7, #0]
82001c18:	7b1b      	ldrb	r3, [r3, #12]
82001c1a:	00db      	lsls	r3, r3, #3
82001c1c:	fa22 f303 	lsr.w	r3, r2, r3
82001c20:	b29a      	uxth	r2, r3
82001c22:	687b      	ldr	r3, [r7, #4]
82001c24:	821a      	strh	r2, [r3, #16]
82001c26:	bf00      	nop
82001c28:	687b      	ldr	r3, [r7, #4]
82001c2a:	899b      	ldrh	r3, [r3, #12]
82001c2c:	b29b      	uxth	r3, r3
82001c2e:	f003 0302 	and.w	r3, r3, #2
82001c32:	2b00      	cmp	r3, #0
82001c34:	d0f8      	beq.n	82001c28 <i2c_transfer+0xd8>
82001c36:	687b      	ldr	r3, [r7, #4]
82001c38:	899b      	ldrh	r3, [r3, #12]
82001c3a:	b29b      	uxth	r3, r3
82001c3c:	4619      	mov	r1, r3
82001c3e:	6878      	ldr	r0, [r7, #4]
82001c40:	f7ff fe0f 	bl	82001862 <i2c_check>
82001c44:	4603      	mov	r3, r0
82001c46:	60bb      	str	r3, [r7, #8]
82001c48:	68bb      	ldr	r3, [r7, #8]
82001c4a:	2b00      	cmp	r3, #0
82001c4c:	d005      	beq.n	82001c5a <i2c_transfer+0x10a>
82001c4e:	6878      	ldr	r0, [r7, #4]
82001c50:	f7ff fe66 	bl	82001920 <i2c_stop>
82001c54:	68bb      	ldr	r3, [r7, #8]
82001c56:	b2db      	uxtb	r3, r3
82001c58:	e056      	b.n	82001d08 <i2c_transfer+0x1b8>
82001c5a:	683b      	ldr	r3, [r7, #0]
82001c5c:	7b1b      	ldrb	r3, [r3, #12]
82001c5e:	2b00      	cmp	r3, #0
82001c60:	d002      	beq.n	82001c68 <i2c_transfer+0x118>
82001c62:	68bb      	ldr	r3, [r7, #8]
82001c64:	2b00      	cmp	r3, #0
82001c66:	d0c6      	beq.n	82001bf6 <i2c_transfer+0xa6>
82001c68:	683b      	ldr	r3, [r7, #0]
82001c6a:	685b      	ldr	r3, [r3, #4]
82001c6c:	2b01      	cmp	r3, #1
82001c6e:	d12a      	bne.n	82001cc6 <i2c_transfer+0x176>
82001c70:	687b      	ldr	r3, [r7, #4]
82001c72:	899b      	ldrh	r3, [r3, #12]
82001c74:	b29b      	uxth	r3, r3
82001c76:	f023 0302 	bic.w	r3, r3, #2
82001c7a:	b29a      	uxth	r2, r3
82001c7c:	687b      	ldr	r3, [r7, #4]
82001c7e:	819a      	strh	r2, [r3, #12]
82001c80:	683b      	ldr	r3, [r7, #0]
82001c82:	781b      	ldrb	r3, [r3, #0]
82001c84:	2201      	movs	r2, #1
82001c86:	4619      	mov	r1, r3
82001c88:	6878      	ldr	r0, [r7, #4]
82001c8a:	f7ff fe6f 	bl	8200196c <i2c_restart>
82001c8e:	bf00      	nop
82001c90:	687b      	ldr	r3, [r7, #4]
82001c92:	899b      	ldrh	r3, [r3, #12]
82001c94:	b29b      	uxth	r3, r3
82001c96:	f003 0302 	and.w	r3, r3, #2
82001c9a:	2b00      	cmp	r3, #0
82001c9c:	d0f8      	beq.n	82001c90 <i2c_transfer+0x140>
82001c9e:	687b      	ldr	r3, [r7, #4]
82001ca0:	899b      	ldrh	r3, [r3, #12]
82001ca2:	b29b      	uxth	r3, r3
82001ca4:	4619      	mov	r1, r3
82001ca6:	6878      	ldr	r0, [r7, #4]
82001ca8:	f7ff fddb 	bl	82001862 <i2c_check>
82001cac:	4603      	mov	r3, r0
82001cae:	60bb      	str	r3, [r7, #8]
82001cb0:	68bb      	ldr	r3, [r7, #8]
82001cb2:	2b00      	cmp	r3, #0
82001cb4:	d007      	beq.n	82001cc6 <i2c_transfer+0x176>
82001cb6:	2307      	movs	r3, #7
82001cb8:	60bb      	str	r3, [r7, #8]
82001cba:	6878      	ldr	r0, [r7, #4]
82001cbc:	f7ff fe30 	bl	82001920 <i2c_stop>
82001cc0:	68bb      	ldr	r3, [r7, #8]
82001cc2:	b2db      	uxtb	r3, r3
82001cc4:	e020      	b.n	82001d08 <i2c_transfer+0x1b8>
82001cc6:	683b      	ldr	r3, [r7, #0]
82001cc8:	685b      	ldr	r3, [r3, #4]
82001cca:	2b00      	cmp	r3, #0
82001ccc:	d10b      	bne.n	82001ce6 <i2c_transfer+0x196>
82001cce:	683b      	ldr	r3, [r7, #0]
82001cd0:	691b      	ldr	r3, [r3, #16]
82001cd2:	2b00      	cmp	r3, #0
82001cd4:	d007      	beq.n	82001ce6 <i2c_transfer+0x196>
82001cd6:	683b      	ldr	r3, [r7, #0]
82001cd8:	6959      	ldr	r1, [r3, #20]
82001cda:	683b      	ldr	r3, [r7, #0]
82001cdc:	691b      	ldr	r3, [r3, #16]
82001cde:	461a      	mov	r2, r3
82001ce0:	6878      	ldr	r0, [r7, #4]
82001ce2:	f7ff fe77 	bl	820019d4 <i2c_write>
82001ce6:	683b      	ldr	r3, [r7, #0]
82001ce8:	685b      	ldr	r3, [r3, #4]
82001cea:	2b01      	cmp	r3, #1
82001cec:	d10b      	bne.n	82001d06 <i2c_transfer+0x1b6>
82001cee:	683b      	ldr	r3, [r7, #0]
82001cf0:	691b      	ldr	r3, [r3, #16]
82001cf2:	2b00      	cmp	r3, #0
82001cf4:	d007      	beq.n	82001d06 <i2c_transfer+0x1b6>
82001cf6:	683b      	ldr	r3, [r7, #0]
82001cf8:	6959      	ldr	r1, [r3, #20]
82001cfa:	683b      	ldr	r3, [r7, #0]
82001cfc:	691b      	ldr	r3, [r3, #16]
82001cfe:	461a      	mov	r2, r3
82001d00:	6878      	ldr	r0, [r7, #4]
82001d02:	f7ff febd 	bl	82001a80 <i2c_read>
82001d06:	2300      	movs	r3, #0
82001d08:	4618      	mov	r0, r3
82001d0a:	3710      	adds	r7, #16
82001d0c:	46bd      	mov	sp, r7
82001d0e:	bd80      	pop	{r7, pc}

82001d10 <i2c_write_one_byte>:
82001d10:	b580      	push	{r7, lr}
82001d12:	b08a      	sub	sp, #40	; 0x28
82001d14:	af00      	add	r7, sp, #0
82001d16:	603b      	str	r3, [r7, #0]
82001d18:	4603      	mov	r3, r0
82001d1a:	71fb      	strb	r3, [r7, #7]
82001d1c:	460b      	mov	r3, r1
82001d1e:	71bb      	strb	r3, [r7, #6]
82001d20:	4613      	mov	r3, r2
82001d22:	717b      	strb	r3, [r7, #5]
82001d24:	2300      	movs	r3, #0
82001d26:	f887 3027 	strb.w	r3, [r7, #39]	; 0x27
82001d2a:	797b      	ldrb	r3, [r7, #5]
82001d2c:	f887 3026 	strb.w	r3, [r7, #38]	; 0x26
82001d30:	79fb      	ldrb	r3, [r7, #7]
82001d32:	733b      	strb	r3, [r7, #12]
82001d34:	2300      	movs	r3, #0
82001d36:	613b      	str	r3, [r7, #16]
82001d38:	79bb      	ldrb	r3, [r7, #6]
82001d3a:	617b      	str	r3, [r7, #20]
82001d3c:	2301      	movs	r3, #1
82001d3e:	763b      	strb	r3, [r7, #24]
82001d40:	f107 0326 	add.w	r3, r7, #38	; 0x26
82001d44:	623b      	str	r3, [r7, #32]
82001d46:	2301      	movs	r3, #1
82001d48:	61fb      	str	r3, [r7, #28]
82001d4a:	f107 030c 	add.w	r3, r7, #12
82001d4e:	4619      	mov	r1, r3
82001d50:	6838      	ldr	r0, [r7, #0]
82001d52:	f7ff fefd 	bl	82001b50 <i2c_transfer>
82001d56:	4603      	mov	r3, r0
82001d58:	f887 3027 	strb.w	r3, [r7, #39]	; 0x27
82001d5c:	f897 3027 	ldrb.w	r3, [r7, #39]	; 0x27
82001d60:	4618      	mov	r0, r3
82001d62:	3728      	adds	r7, #40	; 0x28
82001d64:	46bd      	mov	sp, r7
82001d66:	bd80      	pop	{r7, pc}

82001d68 <i2c_read_one_byte>:
82001d68:	b580      	push	{r7, lr}
82001d6a:	b08a      	sub	sp, #40	; 0x28
82001d6c:	af00      	add	r7, sp, #0
82001d6e:	4603      	mov	r3, r0
82001d70:	603a      	str	r2, [r7, #0]
82001d72:	71fb      	strb	r3, [r7, #7]
82001d74:	460b      	mov	r3, r1
82001d76:	71bb      	strb	r3, [r7, #6]
82001d78:	2300      	movs	r3, #0
82001d7a:	f887 3026 	strb.w	r3, [r7, #38]	; 0x26
82001d7e:	2300      	movs	r3, #0
82001d80:	f887 3027 	strb.w	r3, [r7, #39]	; 0x27
82001d84:	79fb      	ldrb	r3, [r7, #7]
82001d86:	733b      	strb	r3, [r7, #12]
82001d88:	2301      	movs	r3, #1
82001d8a:	613b      	str	r3, [r7, #16]
82001d8c:	79bb      	ldrb	r3, [r7, #6]
82001d8e:	617b      	str	r3, [r7, #20]
82001d90:	2301      	movs	r3, #1
82001d92:	763b      	strb	r3, [r7, #24]
82001d94:	f107 0326 	add.w	r3, r7, #38	; 0x26
82001d98:	623b      	str	r3, [r7, #32]
82001d9a:	2301      	movs	r3, #1
82001d9c:	61fb      	str	r3, [r7, #28]
82001d9e:	f107 030c 	add.w	r3, r7, #12
82001da2:	4619      	mov	r1, r3
82001da4:	6838      	ldr	r0, [r7, #0]
82001da6:	f7ff fed3 	bl	82001b50 <i2c_transfer>
82001daa:	4603      	mov	r3, r0
82001dac:	f887 3027 	strb.w	r3, [r7, #39]	; 0x27
82001db0:	f897 3026 	ldrb.w	r3, [r7, #38]	; 0x26
82001db4:	4618      	mov	r0, r3
82001db6:	3728      	adds	r7, #40	; 0x28
82001db8:	46bd      	mov	sp, r7
82001dba:	bd80      	pop	{r7, pc}
82001dbc:	0000      	movs	r0, r0
	...

82001dc0 <__aeabi_uidiv>:
82001dc0:	1e4a      	subs	r2, r1, #1
82001dc2:	bf08      	it	eq
82001dc4:	4770      	bxeq	lr
82001dc6:	f0c0 8124 	bcc.w	82002012 <__aeabi_uidiv+0x252>
82001dca:	4288      	cmp	r0, r1
82001dcc:	f240 8116 	bls.w	82001ffc <__aeabi_uidiv+0x23c>
82001dd0:	4211      	tst	r1, r2
82001dd2:	f000 8117 	beq.w	82002004 <__aeabi_uidiv+0x244>
82001dd6:	fab0 f380 	clz	r3, r0
82001dda:	fab1 f281 	clz	r2, r1
82001dde:	eba2 0303 	sub.w	r3, r2, r3
82001de2:	f1c3 031f 	rsb	r3, r3, #31
82001de6:	a204      	add	r2, pc, #16	; (adr r2, 82001df8 <__aeabi_uidiv+0x38>)
82001de8:	eb02 1303 	add.w	r3, r2, r3, lsl #4
82001dec:	f04f 0200 	mov.w	r2, #0
82001df0:	469f      	mov	pc, r3
82001df2:	bf00      	nop
82001df4:	f3af 8000 	nop.w
82001df8:	ebb0 7fc1 	cmp.w	r0, r1, lsl #31
82001dfc:	bf00      	nop
82001dfe:	eb42 0202 	adc.w	r2, r2, r2
82001e02:	bf28      	it	cs
82001e04:	eba0 70c1 	subcs.w	r0, r0, r1, lsl #31
82001e08:	ebb0 7f81 	cmp.w	r0, r1, lsl #30
82001e0c:	bf00      	nop
82001e0e:	eb42 0202 	adc.w	r2, r2, r2
82001e12:	bf28      	it	cs
82001e14:	eba0 7081 	subcs.w	r0, r0, r1, lsl #30
82001e18:	ebb0 7f41 	cmp.w	r0, r1, lsl #29
82001e1c:	bf00      	nop
82001e1e:	eb42 0202 	adc.w	r2, r2, r2
82001e22:	bf28      	it	cs
82001e24:	eba0 7041 	subcs.w	r0, r0, r1, lsl #29
82001e28:	ebb0 7f01 	cmp.w	r0, r1, lsl #28
82001e2c:	bf00      	nop
82001e2e:	eb42 0202 	adc.w	r2, r2, r2
82001e32:	bf28      	it	cs
82001e34:	eba0 7001 	subcs.w	r0, r0, r1, lsl #28
82001e38:	ebb0 6fc1 	cmp.w	r0, r1, lsl #27
82001e3c:	bf00      	nop
82001e3e:	eb42 0202 	adc.w	r2, r2, r2
82001e42:	bf28      	it	cs
82001e44:	eba0 60c1 	subcs.w	r0, r0, r1, lsl #27
82001e48:	ebb0 6f81 	cmp.w	r0, r1, lsl #26
82001e4c:	bf00      	nop
82001e4e:	eb42 0202 	adc.w	r2, r2, r2
82001e52:	bf28      	it	cs
82001e54:	eba0 6081 	subcs.w	r0, r0, r1, lsl #26
82001e58:	ebb0 6f41 	cmp.w	r0, r1, lsl #25
82001e5c:	bf00      	nop
82001e5e:	eb42 0202 	adc.w	r2, r2, r2
82001e62:	bf28      	it	cs
82001e64:	eba0 6041 	subcs.w	r0, r0, r1, lsl #25
82001e68:	ebb0 6f01 	cmp.w	r0, r1, lsl #24
82001e6c:	bf00      	nop
82001e6e:	eb42 0202 	adc.w	r2, r2, r2
82001e72:	bf28      	it	cs
82001e74:	eba0 6001 	subcs.w	r0, r0, r1, lsl #24
82001e78:	ebb0 5fc1 	cmp.w	r0, r1, lsl #23
82001e7c:	bf00      	nop
82001e7e:	eb42 0202 	adc.w	r2, r2, r2
82001e82:	bf28      	it	cs
82001e84:	eba0 50c1 	subcs.w	r0, r0, r1, lsl #23
82001e88:	ebb0 5f81 	cmp.w	r0, r1, lsl #22
82001e8c:	bf00      	nop
82001e8e:	eb42 0202 	adc.w	r2, r2, r2
82001e92:	bf28      	it	cs
82001e94:	eba0 5081 	subcs.w	r0, r0, r1, lsl #22
82001e98:	ebb0 5f41 	cmp.w	r0, r1, lsl #21
82001e9c:	bf00      	nop
82001e9e:	eb42 0202 	adc.w	r2, r2, r2
82001ea2:	bf28      	it	cs
82001ea4:	eba0 5041 	subcs.w	r0, r0, r1, lsl #21
82001ea8:	ebb0 5f01 	cmp.w	r0, r1, lsl #20
82001eac:	bf00      	nop
82001eae:	eb42 0202 	adc.w	r2, r2, r2
82001eb2:	bf28      	it	cs
82001eb4:	eba0 5001 	subcs.w	r0, r0, r1, lsl #20
82001eb8:	ebb0 4fc1 	cmp.w	r0, r1, lsl #19
82001ebc:	bf00      	nop
82001ebe:	eb42 0202 	adc.w	r2, r2, r2
82001ec2:	bf28      	it	cs
82001ec4:	eba0 40c1 	subcs.w	r0, r0, r1, lsl #19
82001ec8:	ebb0 4f81 	cmp.w	r0, r1, lsl #18
82001ecc:	bf00      	nop
82001ece:	eb42 0202 	adc.w	r2, r2, r2
82001ed2:	bf28      	it	cs
82001ed4:	eba0 4081 	subcs.w	r0, r0, r1, lsl #18
82001ed8:	ebb0 4f41 	cmp.w	r0, r1, lsl #17
82001edc:	bf00      	nop
82001ede:	eb42 0202 	adc.w	r2, r2, r2
82001ee2:	bf28      	it	cs
82001ee4:	eba0 4041 	subcs.w	r0, r0, r1, lsl #17
82001ee8:	ebb0 4f01 	cmp.w	r0, r1, lsl #16
82001eec:	bf00      	nop
82001eee:	eb42 0202 	adc.w	r2, r2, r2
82001ef2:	bf28      	it	cs
82001ef4:	eba0 4001 	subcs.w	r0, r0, r1, lsl #16
82001ef8:	ebb0 3fc1 	cmp.w	r0, r1, lsl #15
82001efc:	bf00      	nop
82001efe:	eb42 0202 	adc.w	r2, r2, r2
82001f02:	bf28      	it	cs
82001f04:	eba0 30c1 	subcs.w	r0, r0, r1, lsl #15
82001f08:	ebb0 3f81 	cmp.w	r0, r1, lsl #14
82001f0c:	bf00      	nop
82001f0e:	eb42 0202 	adc.w	r2, r2, r2
82001f12:	bf28      	it	cs
82001f14:	eba0 3081 	subcs.w	r0, r0, r1, lsl #14
82001f18:	ebb0 3f41 	cmp.w	r0, r1, lsl #13
82001f1c:	bf00      	nop
82001f1e:	eb42 0202 	adc.w	r2, r2, r2
82001f22:	bf28      	it	cs
82001f24:	eba0 3041 	subcs.w	r0, r0, r1, lsl #13
82001f28:	ebb0 3f01 	cmp.w	r0, r1, lsl #12
82001f2c:	bf00      	nop
82001f2e:	eb42 0202 	adc.w	r2, r2, r2
82001f32:	bf28      	it	cs
82001f34:	eba0 3001 	subcs.w	r0, r0, r1, lsl #12
82001f38:	ebb0 2fc1 	cmp.w	r0, r1, lsl #11
82001f3c:	bf00      	nop
82001f3e:	eb42 0202 	adc.w	r2, r2, r2
82001f42:	bf28      	it	cs
82001f44:	eba0 20c1 	subcs.w	r0, r0, r1, lsl #11
82001f48:	ebb0 2f81 	cmp.w	r0, r1, lsl #10
82001f4c:	bf00      	nop
82001f4e:	eb42 0202 	adc.w	r2, r2, r2
82001f52:	bf28      	it	cs
82001f54:	eba0 2081 	subcs.w	r0, r0, r1, lsl #10
82001f58:	ebb0 2f41 	cmp.w	r0, r1, lsl #9
82001f5c:	bf00      	nop
82001f5e:	eb42 0202 	adc.w	r2, r2, r2
82001f62:	bf28      	it	cs
82001f64:	eba0 2041 	subcs.w	r0, r0, r1, lsl #9
82001f68:	ebb0 2f01 	cmp.w	r0, r1, lsl #8
82001f6c:	bf00      	nop
82001f6e:	eb42 0202 	adc.w	r2, r2, r2
82001f72:	bf28      	it	cs
82001f74:	eba0 2001 	subcs.w	r0, r0, r1, lsl #8
82001f78:	ebb0 1fc1 	cmp.w	r0, r1, lsl #7
82001f7c:	bf00      	nop
82001f7e:	eb42 0202 	adc.w	r2, r2, r2
82001f82:	bf28      	it	cs
82001f84:	eba0 10c1 	subcs.w	r0, r0, r1, lsl #7
82001f88:	ebb0 1f81 	cmp.w	r0, r1, lsl #6
82001f8c:	bf00      	nop
82001f8e:	eb42 0202 	adc.w	r2, r2, r2
82001f92:	bf28      	it	cs
82001f94:	eba0 1081 	subcs.w	r0, r0, r1, lsl #6
82001f98:	ebb0 1f41 	cmp.w	r0, r1, lsl #5
82001f9c:	bf00      	nop
82001f9e:	eb42 0202 	adc.w	r2, r2, r2
82001fa2:	bf28      	it	cs
82001fa4:	eba0 1041 	subcs.w	r0, r0, r1, lsl #5
82001fa8:	ebb0 1f01 	cmp.w	r0, r1, lsl #4
82001fac:	bf00      	nop
82001fae:	eb42 0202 	adc.w	r2, r2, r2
82001fb2:	bf28      	it	cs
82001fb4:	eba0 1001 	subcs.w	r0, r0, r1, lsl #4
82001fb8:	ebb0 0fc1 	cmp.w	r0, r1, lsl #3
82001fbc:	bf00      	nop
82001fbe:	eb42 0202 	adc.w	r2, r2, r2
82001fc2:	bf28      	it	cs
82001fc4:	eba0 00c1 	subcs.w	r0, r0, r1, lsl #3
82001fc8:	ebb0 0f81 	cmp.w	r0, r1, lsl #2
82001fcc:	bf00      	nop
82001fce:	eb42 0202 	adc.w	r2, r2, r2
82001fd2:	bf28      	it	cs
82001fd4:	eba0 0081 	subcs.w	r0, r0, r1, lsl #2
82001fd8:	ebb0 0f41 	cmp.w	r0, r1, lsl #1
82001fdc:	bf00      	nop
82001fde:	eb42 0202 	adc.w	r2, r2, r2
82001fe2:	bf28      	it	cs
82001fe4:	eba0 0041 	subcs.w	r0, r0, r1, lsl #1
82001fe8:	ebb0 0f01 	cmp.w	r0, r1
82001fec:	bf00      	nop
82001fee:	eb42 0202 	adc.w	r2, r2, r2
82001ff2:	bf28      	it	cs
82001ff4:	eba0 0001 	subcs.w	r0, r0, r1
82001ff8:	4610      	mov	r0, r2
82001ffa:	4770      	bx	lr
82001ffc:	bf0c      	ite	eq
82001ffe:	2001      	moveq	r0, #1
82002000:	2000      	movne	r0, #0
82002002:	4770      	bx	lr
82002004:	fab1 f281 	clz	r2, r1
82002008:	f1c2 021f 	rsb	r2, r2, #31
8200200c:	fa20 f002 	lsr.w	r0, r0, r2
82002010:	4770      	bx	lr
82002012:	b108      	cbz	r0, 82002018 <__aeabi_uidiv+0x258>
82002014:	f04f 30ff 	mov.w	r0, #4294967295	; 0xffffffff
82002018:	f000 b826 	b.w	82002068 <__aeabi_idiv0>

8200201c <__aeabi_uidivmod>:
8200201c:	2900      	cmp	r1, #0
8200201e:	d0f8      	beq.n	82002012 <__aeabi_uidiv+0x252>
82002020:	e92d 4003 	stmdb	sp!, {r0, r1, lr}
82002024:	f7ff fecc 	bl	82001dc0 <__aeabi_uidiv>
82002028:	e8bd 4006 	ldmia.w	sp!, {r1, r2, lr}
8200202c:	fb02 f300 	mul.w	r3, r2, r0
82002030:	eba1 0103 	sub.w	r1, r1, r3
82002034:	4770      	bx	lr
82002036:	bf00      	nop

82002038 <__aeabi_uldivmod>:
82002038:	b953      	cbnz	r3, 82002050 <__aeabi_uldivmod+0x18>
8200203a:	b94a      	cbnz	r2, 82002050 <__aeabi_uldivmod+0x18>
8200203c:	2900      	cmp	r1, #0
8200203e:	bf08      	it	eq
82002040:	2800      	cmpeq	r0, #0
82002042:	bf1c      	itt	ne
82002044:	f04f 31ff 	movne.w	r1, #4294967295	; 0xffffffff
82002048:	f04f 30ff 	movne.w	r0, #4294967295	; 0xffffffff
8200204c:	f000 b80c 	b.w	82002068 <__aeabi_idiv0>
82002050:	f1ad 0c08 	sub.w	ip, sp, #8
82002054:	e96d ce04 	strd	ip, lr, [sp, #-16]!
82002058:	f000 f80c 	bl	82002074 <__udivmoddi4>
8200205c:	f8dd e004 	ldr.w	lr, [sp, #4]
82002060:	e9dd 2302 	ldrd	r2, r3, [sp, #8]
82002064:	b004      	add	sp, #16
82002066:	4770      	bx	lr

82002068 <__aeabi_idiv0>:
82002068:	b502      	push	{r1, lr}
8200206a:	f04f 0008 	mov.w	r0, #8
8200206e:	f7fe fe71 	bl	82000d54 <raise>
82002072:	bd02      	pop	{r1, pc}

82002074 <__udivmoddi4>:
82002074:	4299      	cmp	r1, r3
82002076:	e92d 47f0 	stmdb	sp!, {r4, r5, r6, r7, r8, r9, sl, lr}
8200207a:	bf08      	it	eq
8200207c:	4290      	cmpeq	r0, r2
8200207e:	4604      	mov	r4, r0
82002080:	460d      	mov	r5, r1
82002082:	bf38      	it	cc
82002084:	2000      	movcc	r0, #0
82002086:	f8dd a020 	ldr.w	sl, [sp, #32]
8200208a:	bf38      	it	cc
8200208c:	2100      	movcc	r1, #0
8200208e:	d369      	bcc.n	82002164 <__udivmoddi4+0xf0>
82002090:	fab3 f683 	clz	r6, r3
82002094:	2b00      	cmp	r3, #0
82002096:	d070      	beq.n	8200217a <__udivmoddi4+0x106>
82002098:	fab5 f185 	clz	r1, r5
8200209c:	2d00      	cmp	r5, #0
8200209e:	d068      	beq.n	82002172 <__udivmoddi4+0xfe>
820020a0:	1a76      	subs	r6, r6, r1
820020a2:	f1a6 0e20 	sub.w	lr, r6, #32
820020a6:	fa03 f906 	lsl.w	r9, r3, r6
820020aa:	fa02 f10e 	lsl.w	r1, r2, lr
820020ae:	f1c6 0720 	rsb	r7, r6, #32
820020b2:	fa22 f307 	lsr.w	r3, r2, r7
820020b6:	fa02 f806 	lsl.w	r8, r2, r6
820020ba:	ea49 0901 	orr.w	r9, r9, r1
820020be:	ea49 0903 	orr.w	r9, r9, r3
820020c2:	454d      	cmp	r5, r9
820020c4:	bf08      	it	eq
820020c6:	4544      	cmpeq	r4, r8
820020c8:	bf3c      	itt	cc
820020ca:	2000      	movcc	r0, #0
820020cc:	2100      	movcc	r1, #0
820020ce:	d30c      	bcc.n	820020ea <__udivmoddi4+0x76>
820020d0:	2301      	movs	r3, #1
820020d2:	ebb4 0408 	subs.w	r4, r4, r8
820020d6:	fa03 f10e 	lsl.w	r1, r3, lr
820020da:	fa23 f207 	lsr.w	r2, r3, r7
820020de:	fa03 f006 	lsl.w	r0, r3, r6
820020e2:	ea41 0102 	orr.w	r1, r1, r2
820020e6:	eb65 0509 	sbc.w	r5, r5, r9
820020ea:	2e00      	cmp	r6, #0
820020ec:	d03a      	beq.n	82002164 <__udivmoddi4+0xf0>
820020ee:	ea5f 0959 	movs.w	r9, r9, lsr #1
820020f2:	ea4f 0838 	mov.w	r8, r8, rrx
820020f6:	46b4      	mov	ip, r6
820020f8:	e00b      	b.n	82002112 <__udivmoddi4+0x9e>
820020fa:	ebb4 0408 	subs.w	r4, r4, r8
820020fe:	eb65 0509 	sbc.w	r5, r5, r9
82002102:	1924      	adds	r4, r4, r4
82002104:	416d      	adcs	r5, r5
82002106:	3401      	adds	r4, #1
82002108:	f145 0500 	adc.w	r5, r5, #0
8200210c:	f1bc 0c01 	subs.w	ip, ip, #1
82002110:	d008      	beq.n	82002124 <__udivmoddi4+0xb0>
82002112:	454d      	cmp	r5, r9
82002114:	bf08      	it	eq
82002116:	4544      	cmpeq	r4, r8
82002118:	d2ef      	bcs.n	820020fa <__udivmoddi4+0x86>
8200211a:	1924      	adds	r4, r4, r4
8200211c:	416d      	adcs	r5, r5
8200211e:	f1bc 0c01 	subs.w	ip, ip, #1
82002122:	d1f6      	bne.n	82002112 <__udivmoddi4+0x9e>
82002124:	fa05 f707 	lsl.w	r7, r5, r7
82002128:	fa24 f306 	lsr.w	r3, r4, r6
8200212c:	fa25 fe0e 	lsr.w	lr, r5, lr
82002130:	fa25 fc06 	lsr.w	ip, r5, r6
82002134:	433b      	orrs	r3, r7
82002136:	1900      	adds	r0, r0, r4
82002138:	ea43 040e 	orr.w	r4, r3, lr
8200213c:	f1a6 0e20 	sub.w	lr, r6, #32
82002140:	fa0c f306 	lsl.w	r3, ip, r6
82002144:	fa04 fe0e 	lsl.w	lr, r4, lr
82002148:	fa04 f206 	lsl.w	r2, r4, r6
8200214c:	f1c6 0720 	rsb	r7, r6, #32
82002150:	fa24 f707 	lsr.w	r7, r4, r7
82002154:	ea43 030e 	orr.w	r3, r3, lr
82002158:	4169      	adcs	r1, r5
8200215a:	433b      	orrs	r3, r7
8200215c:	1a80      	subs	r0, r0, r2
8200215e:	4665      	mov	r5, ip
82002160:	eb61 0103 	sbc.w	r1, r1, r3
82002164:	f1ba 0f00 	cmp.w	sl, #0
82002168:	d001      	beq.n	8200216e <__udivmoddi4+0xfa>
8200216a:	e9ca 4500 	strd	r4, r5, [sl]
8200216e:	e8bd 87f0 	ldmia.w	sp!, {r4, r5, r6, r7, r8, r9, sl, pc}
82002172:	fab4 f184 	clz	r1, r4
82002176:	3120      	adds	r1, #32
82002178:	e792      	b.n	820020a0 <__udivmoddi4+0x2c>
8200217a:	fab2 f682 	clz	r6, r2
8200217e:	fab5 f185 	clz	r1, r5
82002182:	3620      	adds	r6, #32
82002184:	2d00      	cmp	r5, #0
82002186:	d18b      	bne.n	820020a0 <__udivmoddi4+0x2c>
82002188:	e7f3      	b.n	82002172 <__udivmoddi4+0xfe>
8200218a:	bf00      	nop

Disassembly of section .rodata:

8200218c <.LC0>:
8200218c:	65637845 	strbvs	r7, [r3, #-2117]!	; 0xfffff7bb
82002190:	6f697470 	svcvs	0x00697470
82002194:	6320216e 			; <UNDEFINED> instruction: 0x6320216e
82002198:	20727370 	rsbscs	r7, r2, r0, ror r3
8200219c:	30207369 	eorcc	r7, r0, r9, ror #6
820021a0:	0d782578 	cfldr64eq	mvdx2, [r8, #-480]!	; 0xfffffe20
820021a4:	0000000a 	andeq	r0, r0, sl

820021a8 <.LC1>:
820021a8:	0a0d7325 	beq	8235ee44 <__bss_end+0x35be64>
820021ac:	00000000 	andeq	r0, r0, r0

820021b0 <.LC2>:
820021b0:	20495753 	subcs	r5, r9, r3, asr r7
820021b4:	206c6176 	rsbcs	r6, ip, r6, ror r1
820021b8:	7830203d 	ldmdavc	r0!, {r0, r2, r3, r4, r5, sp}
820021bc:	0a0d7825 	beq	82360258 <__bss_end+0x35d278>
820021c0:	00000000 	andeq	r0, r0, r0
820021c4:	6c696146 	stfvse	f6, [r9], #-280	; 0xfffffee8
820021c8:	00000000 	andeq	r0, r0, r0
820021cc:	20443220 	subcs	r3, r4, r0, lsr #4
820021d0:	00000000 	andeq	r0, r0, r0
820021d4:	20443320 	subcs	r3, r4, r0, lsr #6
820021d8:	00000000 	andeq	r0, r0, r0

820021dc <.LC6>:
820021dc:	6c6c6568 	cfstr64vs	mvdx6, [ip], #-416	; 0xfffffe60
820021e0:	6f77206f 	svcvs	0x0077206f
820021e4:	0d646c72 	stcleq	12, cr6, [r4, #-456]!	; 0xfffffe38
820021e8:	0000000a 	andeq	r0, r0, sl

820021ec <.LC9>:
820021ec:	20656854 	rsbcs	r6, r5, r4, asr r8
820021f0:	61746144 	cmnvs	r4, r4, asr #2
820021f4:	61655220 	cmnvs	r5, r0, lsr #4
820021f8:	20646564 	rsbcs	r6, r4, r4, ror #10
820021fc:	203a7349 	eorscs	r7, sl, r9, asr #6
82002200:	0d207325 	stceq	3, cr7, [r0, #-148]!	; 0xffffff6c
82002204:	000a0d0a 	andeq	r0, sl, sl, lsl #26

82002208 <.LC10>:
82002208:	72617453 	rsbvc	r7, r1, #1392508928	; 0x53000000
8200220c:	65522074 	ldrbvs	r2, [r2, #-116]	; 0xffffff8c
82002210:	32206461 	eorcc	r6, r0, #1627389952	; 0x61000000
82002214:	58584334 	ldmdapl	r8, {r2, r4, r5, r8, r9, lr}^
82002218:	2e2e2e2e 	cdpcs	14, 2, cr2, cr14, cr14, {1}
8200221c:	20202020 	eorcs	r2, r0, r0, lsr #32
82002220:	0a0d0a0d 	beq	82344a5c <__bss_end+0x341a7c>
82002224:	00000000 	andeq	r0, r0, r0

82002228 <.LC11>:
82002228:	72617453 	rsbvc	r7, r1, #1392508928	; 0x53000000
8200222c:	72572074 	subsvc	r2, r7, #116	; 0x74
82002230:	20657469 	rsbcs	r7, r5, r9, ror #8
82002234:	58433432 	stmdapl	r3, {r1, r4, r5, sl, ip, sp}^
82002238:	2e2e2e58 	mcrcs	14, 1, r2, cr14, cr8, {2}
8200223c:	2020202e 	eorcs	r2, r0, lr, lsr #32
82002240:	0a0d0a0d 	beq	82344a7c <__bss_end+0x341a9c>
82002244:	00000000 	andeq	r0, r0, r0

82002248 <.LC12>:
82002248:	58433432 	stmdapl	r3, {r1, r4, r5, sl, ip, sp}^
8200224c:	72572058 	subsvc	r2, r7, #88	; 0x58
82002250:	20657469 	rsbcs	r7, r5, r9, ror #8
82002254:	696e6946 	stmdbvs	lr!, {r1, r2, r6, r8, fp, sp, lr}^
82002258:	64656873 	strbtvs	r6, [r5], #-2163	; 0xfffff78d
8200225c:	20202021 	eorcs	r2, r0, r1, lsr #32
82002260:	0a0d0a0d 	beq	82344a9c <__bss_end+0x341abc>
82002264:	00000000 	andeq	r0, r0, r0

82002268 <.LC7>:
82002268:	36584d49 	ldrbcc	r4, [r8], -r9, asr #26
8200226c:	204c4c55 	subcs	r4, ip, r5, asr ip
82002270:	58433432 	stmdapl	r3, {r1, r4, r5, sl, ip, sp}^
82002274:	45542058 	ldrbmi	r2, [r4, #-88]	; 0xffffffa8
82002278:	00215453 	eoreq	r5, r1, r3, asr r4

8200227c <.LC8>:
8200227c:	20202020 	eorcs	r2, r0, r0, lsr #32
82002280:	20202020 	eorcs	r2, r0, r0, lsr #32
82002284:	20202020 	eorcs	r2, r0, r0, lsr #32
82002288:	20202020 	eorcs	r2, r0, r0, lsr #32
8200228c:	00202020 	eoreq	r2, r0, r0, lsr #32

82002290 <.LC0>:
82002290:	73696854 	cmnvc	r9, #84, 16	; 0x540000
82002294:	20736920 	rsbscs	r6, r3, r0, lsr #18
82002298:	2e777777 	mrccs	7, 3, r7, cr7, cr7, {3}
8200229c:	61303031 	teqvs	r0, r1, lsr r0
820022a0:	6f2e6b73 	svcvs	0x002e6b73
820022a4:	20206772 	eorcs	r6, r0, r2, ror r7
820022a8:	5f796d20 	svcpl	0x00796d20
820022ac:	6e697270 	mcrvs	2, 3, r7, cr9, cr0, {3}
820022b0:	74206674 	strtvc	r6, [r0], #-1652	; 0xfffff98c
820022b4:	0a747365 	beq	83d1f050 <__bss_end+0x1d1c070>
820022b8:	0000000d 	andeq	r0, r0, sp

820022bc <.LC1>:
820022bc:	74736574 	ldrbtvc	r6, [r3], #-1396	; 0xfffffa8c
820022c0:	61686320 	cmnvs	r8, r0, lsr #6
820022c4:	20202072 	eorcs	r2, r0, r2, ror r0
820022c8:	20202020 	eorcs	r2, r0, r0, lsr #32
820022cc:	20202020 	eorcs	r2, r0, r0, lsr #32
820022d0:	2c63253d 	cfstr64cs	mvdx2, [r3], #-244	; 0xffffff0c
820022d4:	0d0a6325 	stceq	3, cr6, [sl, #-148]	; 0xffffff6c
820022d8:	00000000 	andeq	r0, r0, r0

820022dc <.LC2>:
820022dc:	74736574 	ldrbtvc	r6, [r3], #-1396	; 0xfffffa8c
820022e0:	63656420 	cmnvs	r5, #32, 8	; 0x20000000
820022e4:	6c616d69 	stclvs	13, cr6, [r1], #-420	; 0xfffffe5c
820022e8:	6d756e20 	ldclvs	14, cr6, [r5, #-128]!	; 0xffffff80
820022ec:	20726562 	rsbscs	r6, r2, r2, ror #10
820022f0:	0a64253d 	beq	8390b7ec <__bss_end+0x190880c>
820022f4:	0000000d 	andeq	r0, r0, sp

820022f8 <.LC3>:
820022f8:	74736574 	ldrbtvc	r6, [r3], #-1396	; 0xfffffa8c
820022fc:	78656820 	stmdavc	r5!, {r5, fp, sp, lr}^
82002300:	20202020 	eorcs	r2, r0, r0, lsr #32
82002304:	6d756e20 	ldclvs	14, cr6, [r5, #-128]!	; 0xffffff80
82002308:	20726562 	rsbscs	r6, r2, r2, ror #10
8200230c:	2578303d 	ldrbcs	r3, [r8, #-61]!	; 0xffffffc3
82002310:	000d0a78 	andeq	r0, sp, r8, ror sl

82002314 <.LC4>:
82002314:	2e777777 	mrccs	7, 3, r7, cr7, cr7, {3}
82002318:	61303031 	teqvs	r0, r1, lsr r0
8200231c:	6f2e6b73 	svcvs	0x002e6b73
82002320:	00006772 	andeq	r6, r0, r2, ror r7

82002324 <.LC5>:
82002324:	74736574 	ldrbtvc	r6, [r3], #-1396	; 0xfffffa8c
82002328:	72747320 	rsbsvc	r7, r4, #32, 6	; 0x80000000
8200232c:	20676e69 	rsbcs	r6, r7, r9, ror #28
82002330:	20202020 	eorcs	r2, r0, r0, lsr #32
82002334:	20202020 	eorcs	r2, r0, r0, lsr #32
82002338:	0a73253d 	beq	83ccb834 <__bss_end+0x1cc8854>
8200233c:	0000000d 	andeq	r0, r0, sp

82002340 <.LC6>:
82002340:	3d6d756e 	cfstr64cc	mvdx7, [sp, #-440]!	; 0xfffffe48
82002344:	64383025 	ldrtvs	r3, [r8], #-37	; 0xffffffdb
82002348:	00000d0a 	andeq	r0, r0, sl, lsl #26

8200234c <.LC7>:
8200234c:	3d6d756e 	cfstr64cc	mvdx7, [sp, #-440]!	; 0xfffffe48
82002350:	0a643825 	beq	839103ec <__bss_end+0x190d40c>
82002354:	0000000d 	andeq	r0, r0, sp

82002358 <.LC8>:
82002358:	3d6d756e 	cfstr64cc	mvdx7, [sp, #-440]!	; 0xfffffe48
8200235c:	30257830 	eorcc	r7, r5, r0, lsr r8
82002360:	0d0a7838 	stceq	8, cr7, [sl, #-224]	; 0xffffff20
82002364:	00000000 	andeq	r0, r0, r0

82002368 <.LC9>:
82002368:	3d6d756e 	cfstr64cc	mvdx7, [sp, #-440]!	; 0xfffffe48
8200236c:	38257830 	stmdacc	r5!, {r4, r5, fp, ip, sp, lr}
82002370:	000d0a78 	andeq	r0, sp, r8, ror sl

82002374 <.LC10>:
82002374:	3d6d756e 	cfstr64cc	mvdx7, [sp, #-440]!	; 0xfffffe48
82002378:	30257830 	eorcc	r7, r5, r0, lsr r8
8200237c:	0d0a7832 	stceq	8, cr7, [sl, #-200]	; 0xffffff38
82002380:	00000000 	andeq	r0, r0, r0

82002384 <.LC11>:
82002384:	3d6d756e 	cfstr64cc	mvdx7, [sp, #-440]!	; 0xfffffe48
82002388:	32257830 	eorcc	r7, r5, #48, 16	; 0x300000
8200238c:	000d0a78 	andeq	r0, sp, r8, ror sl

82002390 <.LC12>:
82002390:	3d6d756e 	cfstr64cc	mvdx7, [sp, #-440]!	; 0xfffffe48
82002394:	64353025 	ldrtvs	r3, [r5], #-37	; 0xffffffdb
82002398:	00000d0a 	andeq	r0, r0, sl, lsl #26

8200239c <.LC13>:
8200239c:	3d6d756e 	cfstr64cc	mvdx7, [sp, #-440]!	; 0xfffffe48
820023a0:	0a643525 	beq	8390f83c <__bss_end+0x190c85c>
820023a4:	0000000d 	andeq	r0, r0, sp

820023a8 <.LC0>:
820023a8:	2079656b 	rsbscs	r6, r9, fp, ror #10
820023ac:	73692031 	cmnvc	r9, #49	; 0x31
820023b0:	6c657220 	sfmvs	f7, 2, [r5], #-128	; 0xffffff80
820023b4:	65736165 	ldrbvs	r6, [r3, #-357]!	; 0xfffffe9b
820023b8:	00000a0d 	andeq	r0, r0, sp, lsl #20

820023bc <.LC1>:
820023bc:	2079656b 	rsbscs	r6, r9, fp, ror #10
820023c0:	73692031 	cmnvc	r9, #49	; 0x31
820023c4:	65727020 	ldrbvs	r7, [r2, #-32]!	; 0xffffffe0
820023c8:	0a0d7373 	beq	8235f19c <__bss_end+0x35c1bc>
820023cc:	00000000 	andeq	r0, r0, r0

820023d0 <.LC2>:
820023d0:	2079656b 	rsbscs	r6, r9, fp, ror #10
820023d4:	73692032 	cmnvc	r9, #50	; 0x32
820023d8:	6c657220 	sfmvs	f7, 2, [r5], #-128	; 0xffffff80
820023dc:	65736165 	ldrbvs	r6, [r3, #-357]!	; 0xfffffe9b
820023e0:	00000a0d 	andeq	r0, r0, sp, lsl #20

820023e4 <.LC3>:
820023e4:	2079656b 	rsbscs	r6, r9, fp, ror #10
820023e8:	73692032 	cmnvc	r9, #50	; 0x32
820023ec:	65727020 	ldrbvs	r7, [r2, #-32]!	; 0xffffffe0
820023f0:	0a0d7373 	beq	8235f1c4 <__bss_end+0x35c1e4>
	...

Disassembly of section .ARM.exidx:

820023f8 <.ARM.exidx>:
820023f8:	7ffffc7c 	svcvc	0x00fffc7c
820023fc:	00000001 	andeq	r0, r0, r1

Disassembly of section .data:

82002400 <fixmode_tbl>:
82002400:	820021c4 	andhi	r2, r0, #196, 2	; 0x31
82002404:	820021c4 	andhi	r2, r0, #196, 2	; 0x31
82002408:	820021cc 	andhi	r2, r0, #204, 2	; 0x33
8200240c:	820021d4 	andhi	r2, r0, #212, 2	; 0x35

82002410 <hex_tab>:
82002410:	33323130 	teqcc	r2, #48, 2
82002414:	37363534 			; <UNDEFINED> instruction: 0x37363534
82002418:	62613938 	rsbvs	r3, r1, #56, 18	; 0xe0000
8200241c:	66656463 	strbtvs	r6, [r5], -r3, ror #8

Disassembly of section .bss:

82002420 <GPS_RX_STA>:
	...

82002422 <write_state>:
	...

82002423 <read_state>:
82002423:	00000000 	andeq	r0, r0, r0
	...

82002428 <GPS_RX_BUF>:
	...

82002810 <USART1_TX_BUF>:
	...

82002bf8 <GPS_TX_BUF>:
	...

Disassembly of section .ARM.attributes:

00000000 <.ARM.attributes>:
   0:	00002e41 	andeq	r2, r0, r1, asr #28
   4:	61656100 	cmnvs	r5, r0, lsl #2
   8:	01006962 	tsteq	r0, r2, ror #18
   c:	00000024 	andeq	r0, r0, r4, lsr #32
  10:	412d3705 			; <UNDEFINED> instruction: 0x412d3705
  14:	070a0600 	streq	r0, [sl, -r0, lsl #12]
  18:	09010841 	stmdbeq	r1, {r0, r6, fp}
  1c:	12040a02 	andne	r0, r4, #8192	; 0x2000
  20:	15011404 	strne	r1, [r1, #-1028]	; 0xfffffbfc
  24:	18031701 	stmdane	r3, {r0, r8, r9, sl, ip}
  28:	1c021a01 			; <UNDEFINED> instruction: 0x1c021a01
  2c:	Address 0x000000000000002c is out of bounds.


Disassembly of section .comment:

00000000 <.comment>:
   0:	3a434347 	bcc	10d0d24 <shift+0x10d0d24>
   4:	694c2820 	stmdbvs	ip, {r5, fp, sp}^
   8:	6f72616e 	svcvs	0x0072616e
   c:	43434720 	movtmi	r4, #14112	; 0x3720
  10:	322e3620 	eorcc	r3, lr, #32, 12	; 0x2000000
  14:	3130322d 	teqcc	r0, sp, lsr #4
  18:	31312e36 	teqcc	r1, r6, lsr lr
  1c:	2e362029 	cdpcs	0, 3, cr2, cr6, cr9, {1}
  20:	20312e32 	eorscs	r2, r1, r2, lsr lr
  24:	36313032 			; <UNDEFINED> instruction: 0x36313032
  28:	36313031 			; <UNDEFINED> instruction: 0x36313031
	...

Disassembly of section .debug_frame:

00000000 <.debug_frame>:
   0:	0000000c 	andeq	r0, r0, ip
   4:	ffffffff 			; <UNDEFINED> instruction: 0xffffffff
   8:	7c010001 	stcvc	0, cr0, [r1], {1}
   c:	000d0c0e 	andeq	r0, sp, lr, lsl #24
  10:	0000000c 	andeq	r0, r0, ip
  14:	00000000 	andeq	r0, r0, r0
  18:	82001dc1 	andhi	r1, r0, #12352	; 0x3040
  1c:	0000025c 	andeq	r0, r0, ip, asr r2
  20:	0000000c 	andeq	r0, r0, ip
  24:	ffffffff 			; <UNDEFINED> instruction: 0xffffffff
  28:	7c020001 	stcvc	0, cr0, [r2], {1}
  2c:	000d0c0e 	andeq	r0, sp, lr, lsl #24
  30:	00000018 	andeq	r0, r0, r8, lsl r0
  34:	00000020 	andeq	r0, r0, r0, lsr #32
  38:	82002038 	andhi	r2, r0, #56	; 0x38
  3c:	00000030 	andeq	r0, r0, r0, lsr r0
  40:	8e100e50 	mrchi	14, 0, r0, cr0, cr0, {2}
  44:	0ece4703 	cdpeq	7, 12, cr4, cr14, cr3, {0}
  48:	00000010 	andeq	r0, r0, r0, lsl r0
  4c:	0000000c 	andeq	r0, r0, ip
  50:	ffffffff 			; <UNDEFINED> instruction: 0xffffffff
  54:	7c010001 	stcvc	0, cr0, [r1], {1}
  58:	000d0c0e 	andeq	r0, sp, lr, lsl #24
  5c:	00000014 	andeq	r0, r0, r4, lsl r0
  60:	0000004c 	andeq	r0, r0, ip, asr #32
  64:	82002069 	andhi	r2, r0, #105	; 0x69
  68:	0000000c 	andeq	r0, r0, ip
  6c:	0e018e42 	cdpeq	14, 0, cr8, cr1, cr2, {2}
  70:	00000008 	andeq	r0, r0, r8
  74:	0000000c 	andeq	r0, r0, ip
  78:	ffffffff 			; <UNDEFINED> instruction: 0xffffffff
  7c:	7c020001 	stcvc	0, cr0, [r2], {1}
  80:	000d0c0e 	andeq	r0, sp, lr, lsl #24
  84:	00000020 	andeq	r0, r0, r0, lsr #32
  88:	00000074 	andeq	r0, r0, r4, ror r0
  8c:	82002074 	andhi	r2, r0, #116	; 0x74
  90:	00000116 	andeq	r0, r0, r6, lsl r1
  94:	84200e43 	strthi	r0, [r0], #-3651	; 0xfffff1bd
  98:	86078508 	strhi	r8, [r7], -r8, lsl #10
  9c:	88058706 	stmdahi	r5, {r1, r2, r8, r9, sl, pc}
  a0:	8a038904 	bhi	e24b8 <shift+0xe24b8>
  a4:	00018e02 	andeq	r8, r1, r2, lsl #28

Disassembly of section .debug_line:

00000000 <.debug_line>:
   0:	000000fc 	strdeq	r0, [r0], -ip
   4:	00c70002 	sbceq	r0, r7, r2
   8:	01020000 	mrseq	r0, (UNDEF: 2)
   c:	000d0efb 	strdeq	r0, [sp], -fp
  10:	01010101 	tsteq	r1, r1, lsl #2
  14:	01000000 	mrseq	r0, (UNDEF: 0)
  18:	2f010000 	svccs	0x00010000
  1c:	656d6f68 	strbvs	r6, [sp, #-3944]!	; 0xfffff098
  20:	7763742f 	strbvc	r7, [r3, -pc, lsr #8]!
  24:	75622d67 	strbvc	r2, [r2, #-3431]!	; 0xfffff299
  28:	73646c69 	cmnvc	r4, #26880	; 0x6900
  2c:	6576616c 	ldrbvs	r6, [r6, #-364]!	; 0xfffffe94
  30:	726f772f 	rsbvc	r7, pc, #12320768	; 0xbc0000
  34:	6170736b 	cmnvs	r0, fp, ror #6
  38:	742f6563 	strtvc	r6, [pc], #-1379	; 40 <shift+0x40>
  3c:	2d677763 	stclcs	7, cr7, [r7, #-396]!	; 0xfffffe74
  40:	656b616d 	strbvs	r6, [fp, #-365]!	; 0xfffffe93
  44:	6c65722d 	sfmvs	f7, 2, [r5], #-180	; 0xffffff4c
  48:	65736165 	ldrbvs	r6, [r3, #-357]!	; 0xfffffe9b
  4c:	62616c2f 	rsbvs	r6, r1, #12032	; 0x2f00
  50:	642f6c65 	strtvs	r6, [pc], #-3173	; 58 <shift+0x58>
  54:	656b636f 	strbvs	r6, [fp, #-879]!	; 0xfffffc91
  58:	72742d72 	rsbsvc	r2, r4, #7296	; 0x1c80
  5c:	79747375 	ldmdbvc	r4!, {r0, r2, r4, r5, r6, r8, r9, ip, sp, lr}^
  60:	646d612d 	strbtvs	r6, [sp], #-301	; 0xfffffed3
  64:	742d3436 	strtvc	r3, [sp], #-1078	; 0xfffffbca
  68:	2d677763 	stclcs	7, cr7, [r7, #-396]!	; 0xfffffe74
  6c:	6c697562 	cfstr64vs	mvdx7, [r9], #-392	; 0xfffffe78
  70:	61742f64 	cmnvs	r4, r4, ror #30
  74:	74656772 	strbtvc	r6, [r5], #-1906	; 0xfffff88e
  78:	6d72612f 	ldfvse	f6, [r2, #-188]!	; 0xffffff44
  7c:	6e696c2d 	cdpvs	12, 6, cr6, cr9, cr13, {1}
  80:	672d7875 			; <UNDEFINED> instruction: 0x672d7875
  84:	6165756e 	cmnvs	r5, lr, ror #10
  88:	66686962 	strbtvs	r6, [r8], -r2, ror #18
  8c:	616e732f 	cmnvs	lr, pc, lsr #6
  90:	6f687370 	svcvs	0x00687370
  94:	672f7374 			; <UNDEFINED> instruction: 0x672f7374
  98:	6c2d6363 	stcvs	3, cr6, [sp], #-396	; 0xfffffe74
  9c:	72616e69 	rsbvc	r6, r1, #1680	; 0x690
  a0:	2e362d6f 	cdpcs	13, 3, cr2, cr6, cr15, {3}
  a4:	30322d32 	eorscc	r2, r2, r2, lsr sp
  a8:	312e3631 			; <UNDEFINED> instruction: 0x312e3631
  ac:	696c2f31 	stmdbvs	ip!, {r0, r4, r5, r8, r9, sl, fp, sp}^
  b0:	63636762 	cmnvs	r3, #25690112	; 0x1880000
  b4:	6e6f632f 	cdpvs	3, 6, cr6, cr15, cr15, {1}
  b8:	2f676966 	svccs	0x00676966
  bc:	006d7261 	rsbeq	r7, sp, r1, ror #4
  c0:	62696c00 	rsbvs	r6, r9, #0, 24
  c4:	6e756631 	mrcvs	6, 3, r6, cr5, cr1, {1}
  c8:	532e7363 			; <UNDEFINED> instruction: 0x532e7363
  cc:	00000100 	andeq	r0, r0, r0, lsl #2
  d0:	02050000 	andeq	r0, r5, #0
  d4:	82001dc0 	andhi	r1, r0, #192, 26	; 0x3000
  d8:	0107e603 	tsteq	r7, r3, lsl #12
  dc:	2f212121 	svccs	0x00212121
  e0:	30212f21 	eorcc	r2, r1, r1, lsr #30
  e4:	14029102 	strne	r9, [r2], #-258	; 0xfffffefe
  e8:	21212221 			; <UNDEFINED> instruction: 0x21212221
  ec:	2f4c2221 	svccs	0x004c2221
  f0:	58160324 	ldmdapl	r6, {r2, r5, r8, r9}
  f4:	2f2f2121 	svccs	0x002f2121
  f8:	022f2f2f 	eoreq	r2, pc, #47, 30	; 0xbc
  fc:	01010001 	tsteq	r1, r1
 100:	000000dd 	ldrdeq	r0, [r0], -sp
 104:	00c30002 	sbceq	r0, r3, r2
 108:	01020000 	mrseq	r0, (UNDEF: 2)
 10c:	000d0efb 	strdeq	r0, [sp], -fp
 110:	01010101 	tsteq	r1, r1, lsl #2
 114:	01000000 	mrseq	r0, (UNDEF: 0)
 118:	2f010000 	svccs	0x00010000
 11c:	656d6f68 	strbvs	r6, [sp, #-3944]!	; 0xfffff098
 120:	7763742f 	strbvc	r7, [r3, -pc, lsr #8]!
 124:	75622d67 	strbvc	r2, [r2, #-3431]!	; 0xfffff299
 128:	73646c69 	cmnvc	r4, #26880	; 0x6900
 12c:	6576616c 	ldrbvs	r6, [r6, #-364]!	; 0xfffffe94
 130:	726f772f 	rsbvc	r7, pc, #12320768	; 0xbc0000
 134:	6170736b 	cmnvs	r0, fp, ror #6
 138:	742f6563 	strtvc	r6, [pc], #-1379	; 140 <shift+0x140>
 13c:	2d677763 	stclcs	7, cr7, [r7, #-396]!	; 0xfffffe74
 140:	656b616d 	strbvs	r6, [fp, #-365]!	; 0xfffffe93
 144:	6c65722d 	sfmvs	f7, 2, [r5], #-180	; 0xffffff4c
 148:	65736165 	ldrbvs	r6, [r3, #-357]!	; 0xfffffe9b
 14c:	62616c2f 	rsbvs	r6, r1, #12032	; 0x2f00
 150:	642f6c65 	strtvs	r6, [pc], #-3173	; 158 <shift+0x158>
 154:	656b636f 	strbvs	r6, [fp, #-879]!	; 0xfffffc91
 158:	72742d72 	rsbsvc	r2, r4, #7296	; 0x1c80
 15c:	79747375 	ldmdbvc	r4!, {r0, r2, r4, r5, r6, r8, r9, ip, sp, lr}^
 160:	646d612d 	strbtvs	r6, [sp], #-301	; 0xfffffed3
 164:	742d3436 	strtvc	r3, [sp], #-1078	; 0xfffffbca
 168:	2d677763 	stclcs	7, cr7, [r7, #-396]!	; 0xfffffe74
 16c:	6c697562 	cfstr64vs	mvdx7, [r9], #-392	; 0xfffffe78
 170:	61742f64 	cmnvs	r4, r4, ror #30
 174:	74656772 	strbtvc	r6, [r5], #-1906	; 0xfffff88e
 178:	6d72612f 	ldfvse	f6, [r2, #-188]!	; 0xffffff44
 17c:	6e696c2d 	cdpvs	12, 6, cr6, cr9, cr13, {1}
 180:	672d7875 			; <UNDEFINED> instruction: 0x672d7875
 184:	6165756e 	cmnvs	r5, lr, ror #10
 188:	66686962 	strbtvs	r6, [r8], -r2, ror #18
 18c:	616e732f 	cmnvs	lr, pc, lsr #6
 190:	6f687370 	svcvs	0x00687370
 194:	672f7374 			; <UNDEFINED> instruction: 0x672f7374
 198:	6c2d6363 	stcvs	3, cr6, [sp], #-396	; 0xfffffe74
 19c:	72616e69 	rsbvc	r6, r1, #1680	; 0x690
 1a0:	2e362d6f 	cdpcs	13, 3, cr2, cr6, cr15, {3}
 1a4:	30322d32 	eorscc	r2, r2, r2, lsr sp
 1a8:	312e3631 			; <UNDEFINED> instruction: 0x312e3631
 1ac:	696c2f31 	stmdbvs	ip!, {r0, r4, r5, r8, r9, sl, fp, sp}^
 1b0:	63636762 	cmnvs	r3, #25690112	; 0x1880000
 1b4:	6e6f632f 	cdpvs	3, 6, cr6, cr15, cr15, {1}
 1b8:	2f676966 	svccs	0x00676966
 1bc:	006d7261 	rsbeq	r7, sp, r1, ror #4
 1c0:	61706200 	cmnvs	r0, r0, lsl #4
 1c4:	532e6962 			; <UNDEFINED> instruction: 0x532e6962
 1c8:	00000100 	andeq	r0, r0, r0, lsl #2
 1cc:	02050000 	andeq	r0, r5, #0
 1d0:	82002038 	andhi	r2, r0, #56	; 0x38
 1d4:	0101fd03 	tsteq	r1, r3, lsl #26	; <UNPREDICTABLE>
 1d8:	592f4cbc 	stmdbpl	pc!, {r2, r3, r4, r5, r7, sl, fp, lr}	; <UNPREDICTABLE>
 1dc:	01000102 	tsteq	r0, r2, lsl #2
 1e0:	0000e201 	andeq	lr, r0, r1, lsl #4
 1e4:	c7000200 	strgt	r0, [r0, -r0, lsl #4]
 1e8:	02000000 	andeq	r0, r0, #0
 1ec:	0d0efb01 	vstreq	d15, [lr, #-4]
 1f0:	01010100 	mrseq	r0, (UNDEF: 17)
 1f4:	00000001 	andeq	r0, r0, r1
 1f8:	01000001 	tsteq	r0, r1
 1fc:	6d6f682f 	stclvs	8, cr6, [pc, #-188]!	; 148 <shift+0x148>
 200:	63742f65 	cmnvs	r4, #404	; 0x194
 204:	622d6777 	eorvs	r6, sp, #31195136	; 0x1dc0000
 208:	646c6975 	strbtvs	r6, [ip], #-2421	; 0xfffff68b
 20c:	76616c73 			; <UNDEFINED> instruction: 0x76616c73
 210:	6f772f65 	svcvs	0x00772f65
 214:	70736b72 	rsbsvc	r6, r3, r2, ror fp
 218:	2f656361 	svccs	0x00656361
 21c:	67776374 			; <UNDEFINED> instruction: 0x67776374
 220:	6b616d2d 	blvs	185b6dc <shift+0x185b6dc>
 224:	65722d65 	ldrbvs	r2, [r2, #-3429]!	; 0xfffff29b
 228:	7361656c 	cmnvc	r1, #108, 10	; 0x1b000000
 22c:	616c2f65 	cmnvs	ip, r5, ror #30
 230:	2f6c6562 	svccs	0x006c6562
 234:	6b636f64 	blvs	18dbfcc <shift+0x18dbfcc>
 238:	742d7265 	strtvc	r7, [sp], #-613	; 0xfffffd9b
 23c:	74737572 	ldrbtvc	r7, [r3], #-1394	; 0xfffffa8e
 240:	6d612d79 	stclvs	13, cr2, [r1, #-484]!	; 0xfffffe1c
 244:	2d343664 	ldccs	6, cr3, [r4, #-400]!	; 0xfffffe70
 248:	67776374 			; <UNDEFINED> instruction: 0x67776374
 24c:	6975622d 	ldmdbvs	r5!, {r0, r2, r3, r5, r9, sp, lr}^
 250:	742f646c 	strtvc	r6, [pc], #-1132	; 258 <shift+0x258>
 254:	65677261 	strbvs	r7, [r7, #-609]!	; 0xfffffd9f
 258:	72612f74 	rsbvc	r2, r1, #116, 30	; 0x1d0
 25c:	696c2d6d 	stmdbvs	ip!, {r0, r2, r3, r5, r6, r8, sl, fp, sp}^
 260:	2d78756e 	cfldr64cs	mvdx7, [r8, #-440]!	; 0xfffffe48
 264:	65756e67 	ldrbvs	r6, [r5, #-3687]!	; 0xfffff199
 268:	68696261 	stmdavs	r9!, {r0, r5, r6, r9, sp, lr}^
 26c:	6e732f66 	cdpvs	15, 7, cr2, cr3, cr6, {3}
 270:	68737061 	ldmdavs	r3!, {r0, r5, r6, ip, sp, lr}^
 274:	2f73746f 	svccs	0x0073746f
 278:	2d636367 	stclcs	3, cr6, [r3, #-412]!	; 0xfffffe64
 27c:	616e696c 	cmnvs	lr, ip, ror #18
 280:	362d6f72 	qsub16cc	r6, sp, r2
 284:	322d322e 	eorcc	r3, sp, #-536870910	; 0xe0000002
 288:	2e363130 	mrccs	1, 1, r3, cr6, cr0, {1}
 28c:	6c2f3131 	stfvss	f3, [pc], #-196	; 1d0 <shift+0x1d0>
 290:	63676269 	cmnvs	r7, #-1879048186	; 0x90000006
 294:	6f632f63 	svcvs	0x00632f63
 298:	6769666e 	strbvs	r6, [r9, -lr, ror #12]!
 29c:	6d72612f 	ldfvse	f6, [r2, #-188]!	; 0xffffff44
 2a0:	696c0000 	stmdbvs	ip!, {}^	; <UNPREDICTABLE>
 2a4:	75663162 	strbvc	r3, [r6, #-354]!	; 0xfffffe9e
 2a8:	2e73636e 	cdpcs	3, 7, cr6, cr3, cr14, {3}
 2ac:	00010053 	andeq	r0, r1, r3, asr r0
 2b0:	05000000 	streq	r0, [r0, #-0]
 2b4:	00206802 	eoreq	r6, r0, r2, lsl #16
 2b8:	0ac40382 	beq	ff1010c8 <__bss_end+0x7d0fe0e8>
 2bc:	20090301 	andcs	r0, r9, r1, lsl #6
 2c0:	01022f2f 	tsteq	r2, pc, lsr #30
 2c4:	37010100 	strcc	r0, [r1, -r0, lsl #2]
 2c8:	02000005 	andeq	r0, r0, #5
 2cc:	0004e700 	andeq	lr, r4, r0, lsl #14
 2d0:	fb010200 	blx	40ada <shift+0x40ada>
 2d4:	01000d0e 	tsteq	r0, lr, lsl #26
 2d8:	00010101 	andeq	r0, r1, r1, lsl #2
 2dc:	00010000 	andeq	r0, r1, r0
 2e0:	682f0100 	stmdavs	pc!, {r8}	; <UNPREDICTABLE>
 2e4:	2f656d6f 	svccs	0x00656d6f
 2e8:	67776374 			; <UNDEFINED> instruction: 0x67776374
 2ec:	6975622d 	ldmdbvs	r5!, {r0, r2, r3, r5, r9, sp, lr}^
 2f0:	6c73646c 	cfldrdvs	mvd6, [r3], #-432	; 0xfffffe50
 2f4:	2f657661 	svccs	0x00657661
 2f8:	6b726f77 	blvs	1c9c0dc <shift+0x1c9c0dc>
 2fc:	63617073 	cmnvs	r1, #115	; 0x73
 300:	63742f65 	cmnvs	r4, #404	; 0x194
 304:	6d2d6777 	stcvs	7, cr6, [sp, #-476]!	; 0xfffffe24
 308:	2d656b61 	fstmdbxcs	r5!, {d22-d69}	;@ Deprecated
 30c:	656c6572 	strbvs	r6, [ip, #-1394]!	; 0xfffffa8e
 310:	2f657361 	svccs	0x00657361
 314:	6562616c 	strbvs	r6, [r2, #-364]!	; 0xfffffe94
 318:	6f642f6c 	svcvs	0x00642f6c
 31c:	72656b63 	rsbvc	r6, r5, #101376	; 0x18c00
 320:	7572742d 	ldrbvc	r7, [r2, #-1069]!	; 0xfffffbd3
 324:	2d797473 	cfldrdcs	mvd7, [r9, #-460]!	; 0xfffffe34
 328:	36646d61 	strbtcc	r6, [r4], -r1, ror #26
 32c:	63742d34 	cmnvs	r4, #52, 26	; 0xd00
 330:	622d6777 	eorvs	r6, sp, #31195136	; 0x1dc0000
 334:	646c6975 	strbtvs	r6, [ip], #-2421	; 0xfffff68b
 338:	7261742f 	rsbvc	r7, r1, #788529152	; 0x2f000000
 33c:	2f746567 	svccs	0x00746567
 340:	2d6d7261 	sfmcs	f7, 2, [sp, #-388]!	; 0xfffffe7c
 344:	756e696c 	strbvc	r6, [lr, #-2412]!	; 0xfffff694
 348:	6e672d78 	mcrvs	13, 3, r2, cr7, cr8, {3}
 34c:	62616575 	rsbvs	r6, r1, #490733568	; 0x1d400000
 350:	2f666869 	svccs	0x00666869
 354:	70616e73 	rsbvc	r6, r1, r3, ror lr
 358:	746f6873 	strbtvc	r6, [pc], #-2163	; 360 <shift+0x360>
 35c:	63672f73 	cmnvs	r7, #460	; 0x1cc
 360:	696c2d63 	stmdbvs	ip!, {r0, r1, r5, r6, r8, sl, fp, sp}^
 364:	6f72616e 	svcvs	0x0072616e
 368:	322e362d 	eorcc	r3, lr, #47185920	; 0x2d00000
 36c:	3130322d 	teqcc	r0, sp, lsr #4
 370:	31312e36 	teqcc	r1, r6, lsr lr
 374:	62696c2f 	rsbvs	r6, r9, #12032	; 0x2f00
 378:	00636367 	rsbeq	r6, r3, r7, ror #6
 37c:	6d6f682f 	stclvs	8, cr6, [pc, #-188]!	; 2c8 <shift+0x2c8>
 380:	63742f65 	cmnvs	r4, #404	; 0x194
 384:	622d6777 	eorvs	r6, sp, #31195136	; 0x1dc0000
 388:	646c6975 	strbtvs	r6, [ip], #-2421	; 0xfffff68b
 38c:	76616c73 			; <UNDEFINED> instruction: 0x76616c73
 390:	6f772f65 	svcvs	0x00772f65
 394:	70736b72 	rsbsvc	r6, r3, r2, ror fp
 398:	2f656361 	svccs	0x00656361
 39c:	67776374 			; <UNDEFINED> instruction: 0x67776374
 3a0:	6b616d2d 	blvs	185b85c <shift+0x185b85c>
 3a4:	65722d65 	ldrbvs	r2, [r2, #-3429]!	; 0xfffff29b
 3a8:	7361656c 	cmnvc	r1, #108, 10	; 0x1b000000
 3ac:	616c2f65 	cmnvs	ip, r5, ror #30
 3b0:	2f6c6562 	svccs	0x006c6562
 3b4:	6b636f64 	blvs	18dc14c <shift+0x18dc14c>
 3b8:	742d7265 	strtvc	r7, [sp], #-613	; 0xfffffd9b
 3bc:	74737572 	ldrbtvc	r7, [r3], #-1394	; 0xfffffa8e
 3c0:	6d612d79 	stclvs	13, cr2, [r1, #-484]!	; 0xfffffe1c
 3c4:	2d343664 	ldccs	6, cr3, [r4, #-400]!	; 0xfffffe70
 3c8:	67776374 			; <UNDEFINED> instruction: 0x67776374
 3cc:	6975622d 	ldmdbvs	r5!, {r0, r2, r3, r5, r9, sp, lr}^
 3d0:	742f646c 	strtvc	r6, [pc], #-1132	; 3d8 <shift+0x3d8>
 3d4:	65677261 	strbvs	r7, [r7, #-609]!	; 0xfffffd9f
 3d8:	72612f74 	rsbvc	r2, r1, #116, 30	; 0x1d0
 3dc:	696c2d6d 	stmdbvs	ip!, {r0, r2, r3, r5, r6, r8, sl, fp, sp}^
 3e0:	2d78756e 	cfldr64cs	mvdx7, [r8, #-440]!	; 0xfffffe48
 3e4:	65756e67 	ldrbvs	r6, [r5, #-3687]!	; 0xfffff199
 3e8:	68696261 	stmdavs	r9!, {r0, r5, r6, r9, sp, lr}^
 3ec:	625f2f66 	subsvs	r2, pc, #408	; 0x198
 3f0:	646c6975 	strbtvs	r6, [ip], #-2421	; 0xfffff68b
 3f4:	6975622f 	ldmdbvs	r5!, {r0, r1, r2, r3, r5, r9, sp, lr}^
 3f8:	2f73646c 	svccs	0x0073646c
 3fc:	5f363878 	svcpl	0x00363878
 400:	752d3436 	strvc	r3, [sp, #-1078]!	; 0xfffffbca
 404:	6f6e6b6e 	svcvs	0x006e6b6e
 408:	6c2d6e77 	stcvs	14, cr6, [sp], #-476	; 0xfffffe24
 40c:	78756e69 	ldmdavc	r5!, {r0, r3, r5, r6, r9, sl, fp, sp, lr}^
 410:	756e672d 	strbvc	r6, [lr, #-1837]!	; 0xfffff8d3
 414:	6d72612f 	ldfvse	f6, [r2, #-188]!	; 0xffffff44
 418:	6e696c2d 	cdpvs	12, 6, cr6, cr9, cr13, {1}
 41c:	672d7875 			; <UNDEFINED> instruction: 0x672d7875
 420:	6165756e 	cmnvs	r5, lr, ror #10
 424:	66686962 	strbtvs	r6, [r8], -r2, ror #18
 428:	6363672f 	cmnvs	r3, #12320768	; 0xbc0000
 42c:	6e696c2d 	cdpvs	12, 6, cr6, cr9, cr13, {1}
 430:	2d6f7261 	sfmcs	f7, 2, [pc, #-388]!	; 2b4 <shift+0x2b4>
 434:	2d322e36 	ldccs	14, cr2, [r2, #-216]!	; 0xffffff28
 438:	36313032 			; <UNDEFINED> instruction: 0x36313032
 43c:	2d31312e 	ldfcss	f3, [r1, #-184]!	; 0xffffff48
 440:	67617473 			; <UNDEFINED> instruction: 0x67617473
 444:	672f3265 	strvs	r3, [pc, -r5, ror #4]!
 448:	692f6363 	stmdbvs	pc!, {r0, r1, r5, r6, r8, r9, sp, lr}	; <UNPREDICTABLE>
 44c:	756c636e 	strbvc	r6, [ip, #-878]!	; 0xfffffc92
 450:	2f006564 	svccs	0x00006564
 454:	656d6f68 	strbvs	r6, [sp, #-3944]!	; 0xfffff098
 458:	7763742f 	strbvc	r7, [r3, -pc, lsr #8]!
 45c:	75622d67 	strbvc	r2, [r2, #-3431]!	; 0xfffff299
 460:	73646c69 	cmnvc	r4, #26880	; 0x6900
 464:	6576616c 	ldrbvs	r6, [r6, #-364]!	; 0xfffffe94
 468:	726f772f 	rsbvc	r7, pc, #12320768	; 0xbc0000
 46c:	6170736b 	cmnvs	r0, fp, ror #6
 470:	742f6563 	strtvc	r6, [pc], #-1379	; 478 <shift+0x478>
 474:	2d677763 	stclcs	7, cr7, [r7, #-396]!	; 0xfffffe74
 478:	656b616d 	strbvs	r6, [fp, #-365]!	; 0xfffffe93
 47c:	6c65722d 	sfmvs	f7, 2, [r5], #-180	; 0xffffff4c
 480:	65736165 	ldrbvs	r6, [r3, #-357]!	; 0xfffffe9b
 484:	62616c2f 	rsbvs	r6, r1, #12032	; 0x2f00
 488:	642f6c65 	strtvs	r6, [pc], #-3173	; 490 <shift+0x490>
 48c:	656b636f 	strbvs	r6, [fp, #-879]!	; 0xfffffc91
 490:	72742d72 	rsbsvc	r2, r4, #7296	; 0x1c80
 494:	79747375 	ldmdbvc	r4!, {r0, r2, r4, r5, r6, r8, r9, ip, sp, lr}^
 498:	646d612d 	strbtvs	r6, [sp], #-301	; 0xfffffed3
 49c:	742d3436 	strtvc	r3, [sp], #-1078	; 0xfffffbca
 4a0:	2d677763 	stclcs	7, cr7, [r7, #-396]!	; 0xfffffe74
 4a4:	6c697562 	cfstr64vs	mvdx7, [r9], #-392	; 0xfffffe78
 4a8:	61742f64 	cmnvs	r4, r4, ror #30
 4ac:	74656772 	strbtvc	r6, [r5], #-1906	; 0xfffff88e
 4b0:	6d72612f 	ldfvse	f6, [r2, #-188]!	; 0xffffff44
 4b4:	6e696c2d 	cdpvs	12, 6, cr6, cr9, cr13, {1}
 4b8:	672d7875 			; <UNDEFINED> instruction: 0x672d7875
 4bc:	6165756e 	cmnvs	r5, lr, ror #10
 4c0:	66686962 	strbtvs	r6, [r8], -r2, ror #18
 4c4:	75625f2f 	strbvc	r5, [r2, #-3887]!	; 0xfffff0d1
 4c8:	2f646c69 	svccs	0x00646c69
 4cc:	72737973 	rsbsvc	r7, r3, #1884160	; 0x1cc000
 4d0:	73746f6f 	cmnvc	r4, #444	; 0x1bc
 4d4:	6d72612f 	ldfvse	f6, [r2, #-188]!	; 0xffffff44
 4d8:	6e696c2d 	cdpvs	12, 6, cr6, cr9, cr13, {1}
 4dc:	672d7875 			; <UNDEFINED> instruction: 0x672d7875
 4e0:	6165756e 	cmnvs	r5, lr, ror #10
 4e4:	66686962 	strbtvs	r6, [r8], -r2, ror #18
 4e8:	7273752f 	rsbsvc	r7, r3, #197132288	; 0xbc00000
 4ec:	636e692f 	cmnvs	lr, #770048	; 0xbc000
 4f0:	6564756c 	strbvs	r7, [r4, #-1388]!	; 0xfffffa94
 4f4:	7469622f 	strbtvc	r6, [r9], #-559	; 0xfffffdd1
 4f8:	682f0073 	stmdavs	pc!, {r0, r1, r4, r5, r6}	; <UNPREDICTABLE>
 4fc:	2f656d6f 	svccs	0x00656d6f
 500:	67776374 			; <UNDEFINED> instruction: 0x67776374
 504:	6975622d 	ldmdbvs	r5!, {r0, r2, r3, r5, r9, sp, lr}^
 508:	6c73646c 	cfldrdvs	mvd6, [r3], #-432	; 0xfffffe50
 50c:	2f657661 	svccs	0x00657661
 510:	6b726f77 	blvs	1c9c2f4 <shift+0x1c9c2f4>
 514:	63617073 	cmnvs	r1, #115	; 0x73
 518:	63742f65 	cmnvs	r4, #404	; 0x194
 51c:	6d2d6777 	stcvs	7, cr6, [sp, #-476]!	; 0xfffffe24
 520:	2d656b61 	fstmdbxcs	r5!, {d22-d69}	;@ Deprecated
 524:	656c6572 	strbvs	r6, [ip, #-1394]!	; 0xfffffa8e
 528:	2f657361 	svccs	0x00657361
 52c:	6562616c 	strbvs	r6, [r2, #-364]!	; 0xfffffe94
 530:	6f642f6c 	svcvs	0x00642f6c
 534:	72656b63 	rsbvc	r6, r5, #101376	; 0x18c00
 538:	7572742d 	ldrbvc	r7, [r2, #-1069]!	; 0xfffffbd3
 53c:	2d797473 	cfldrdcs	mvd7, [r9, #-460]!	; 0xfffffe34
 540:	36646d61 	strbtcc	r6, [r4], -r1, ror #26
 544:	63742d34 	cmnvs	r4, #52, 26	; 0xd00
 548:	622d6777 	eorvs	r6, sp, #31195136	; 0x1dc0000
 54c:	646c6975 	strbtvs	r6, [ip], #-2421	; 0xfffff68b
 550:	7261742f 	rsbvc	r7, r1, #788529152	; 0x2f000000
 554:	2f746567 	svccs	0x00746567
 558:	2d6d7261 	sfmcs	f7, 2, [sp, #-388]!	; 0xfffffe7c
 55c:	756e696c 	strbvc	r6, [lr, #-2412]!	; 0xfffff694
 560:	6e672d78 	mcrvs	13, 3, r2, cr7, cr8, {3}
 564:	62616575 	rsbvs	r6, r1, #490733568	; 0x1d400000
 568:	2f666869 	svccs	0x00666869
 56c:	6975625f 	ldmdbvs	r5!, {r0, r1, r2, r3, r4, r6, r9, sp, lr}^
 570:	732f646c 			; <UNDEFINED> instruction: 0x732f646c
 574:	6f727379 	svcvs	0x00727379
 578:	2f73746f 	svccs	0x0073746f
 57c:	2d6d7261 	sfmcs	f7, 2, [sp, #-388]!	; 0xfffffe7c
 580:	756e696c 	strbvc	r6, [lr, #-2412]!	; 0xfffff694
 584:	6e672d78 	mcrvs	13, 3, r2, cr7, cr8, {3}
 588:	62616575 	rsbvs	r6, r1, #490733568	; 0x1d400000
 58c:	2f666869 	svccs	0x00666869
 590:	2f727375 	svccs	0x00727375
 594:	6c636e69 	stclvs	14, cr6, [r3], #-420	; 0xfffffe5c
 598:	00656475 	rsbeq	r6, r5, r5, ror r4
 59c:	6d6f682f 	stclvs	8, cr6, [pc, #-188]!	; 4e8 <shift+0x4e8>
 5a0:	63742f65 	cmnvs	r4, #404	; 0x194
 5a4:	622d6777 	eorvs	r6, sp, #31195136	; 0x1dc0000
 5a8:	646c6975 	strbtvs	r6, [ip], #-2421	; 0xfffff68b
 5ac:	76616c73 			; <UNDEFINED> instruction: 0x76616c73
 5b0:	6f772f65 	svcvs	0x00772f65
 5b4:	70736b72 	rsbsvc	r6, r3, r2, ror fp
 5b8:	2f656361 	svccs	0x00656361
 5bc:	67776374 			; <UNDEFINED> instruction: 0x67776374
 5c0:	6b616d2d 	blvs	185ba7c <shift+0x185ba7c>
 5c4:	65722d65 	ldrbvs	r2, [r2, #-3429]!	; 0xfffff29b
 5c8:	7361656c 	cmnvc	r1, #108, 10	; 0x1b000000
 5cc:	616c2f65 	cmnvs	ip, r5, ror #30
 5d0:	2f6c6562 	svccs	0x006c6562
 5d4:	6b636f64 	blvs	18dc36c <shift+0x18dc36c>
 5d8:	742d7265 	strtvc	r7, [sp], #-613	; 0xfffffd9b
 5dc:	74737572 	ldrbtvc	r7, [r3], #-1394	; 0xfffffa8e
 5e0:	6d612d79 	stclvs	13, cr2, [r1, #-484]!	; 0xfffffe1c
 5e4:	2d343664 	ldccs	6, cr3, [r4, #-400]!	; 0xfffffe70
 5e8:	67776374 			; <UNDEFINED> instruction: 0x67776374
 5ec:	6975622d 	ldmdbvs	r5!, {r0, r2, r3, r5, r9, sp, lr}^
 5f0:	742f646c 	strtvc	r6, [pc], #-1132	; 5f8 <shift+0x5f8>
 5f4:	65677261 	strbvs	r7, [r7, #-609]!	; 0xfffffd9f
 5f8:	72612f74 	rsbvc	r2, r1, #116, 30	; 0x1d0
 5fc:	696c2d6d 	stmdbvs	ip!, {r0, r2, r3, r5, r6, r8, sl, fp, sp}^
 600:	2d78756e 	cfldr64cs	mvdx7, [r8, #-440]!	; 0xfffffe48
 604:	65756e67 	ldrbvs	r6, [r5, #-3687]!	; 0xfffff199
 608:	68696261 	stmdavs	r9!, {r0, r5, r6, r9, sp, lr}^
 60c:	6e732f66 	cdpvs	15, 7, cr2, cr3, cr6, {3}
 610:	68737061 	ldmdavs	r3!, {r0, r5, r6, ip, sp, lr}^
 614:	2f73746f 	svccs	0x0073746f
 618:	2d636367 	stclcs	3, cr6, [r3, #-412]!	; 0xfffffe64
 61c:	616e696c 	cmnvs	lr, ip, ror #18
 620:	362d6f72 	qsub16cc	r6, sp, r2
 624:	322d322e 	eorcc	r3, sp, #-536870910	; 0xe0000002
 628:	2e363130 	mrccs	1, 1, r3, cr6, cr0, {1}
 62c:	6c2f3131 	stfvss	f3, [pc], #-196	; 570 <shift+0x570>
 630:	63676269 	cmnvs	r7, #-1879048186	; 0x90000006
 634:	2e2e2f63 	cdpcs	15, 2, cr2, cr14, cr3, {3}
 638:	636e692f 	cmnvs	lr, #770048	; 0xbc000
 63c:	6564756c 	strbvs	r7, [r4, #-1388]!	; 0xfffffa94
 640:	2f2e2e00 	svccs	0x002e2e00
 644:	2e2f2e2e 	cdpcs	14, 2, cr2, cr15, cr14, {1}
 648:	6363672f 	cmnvs	r3, #12320768	; 0xbc0000
 64c:	6f682f00 	svcvs	0x00682f00
 650:	742f656d 	strtvc	r6, [pc], #-1389	; 658 <shift+0x658>
 654:	2d677763 	stclcs	7, cr7, [r7, #-396]!	; 0xfffffe74
 658:	6c697562 	cfstr64vs	mvdx7, [r9], #-392	; 0xfffffe78
 65c:	616c7364 	cmnvs	ip, r4, ror #6
 660:	772f6576 			; <UNDEFINED> instruction: 0x772f6576
 664:	736b726f 	cmnvc	fp, #-268435450	; 0xf0000006
 668:	65636170 	strbvs	r6, [r3, #-368]!	; 0xfffffe90
 66c:	7763742f 	strbvc	r7, [r3, -pc, lsr #8]!
 670:	616d2d67 	cmnvs	sp, r7, ror #26
 674:	722d656b 	eorvc	r6, sp, #448790528	; 0x1ac00000
 678:	61656c65 	cmnvs	r5, r5, ror #24
 67c:	6c2f6573 	cfstr32vs	mvfx6, [pc], #-460	; 4b8 <shift+0x4b8>
 680:	6c656261 	sfmvs	f6, 2, [r5], #-388	; 0xfffffe7c
 684:	636f642f 	cmnvs	pc, #788529152	; 0x2f000000
 688:	2d72656b 	cfldr64cs	mvdx6, [r2, #-428]!	; 0xfffffe54
 68c:	73757274 	cmnvc	r5, #116, 4	; 0x40000007
 690:	612d7974 			; <UNDEFINED> instruction: 0x612d7974
 694:	3436646d 	ldrtcc	r6, [r6], #-1133	; 0xfffffb93
 698:	7763742d 	strbvc	r7, [r3, -sp, lsr #8]!
 69c:	75622d67 	strbvc	r2, [r2, #-3431]!	; 0xfffff299
 6a0:	2f646c69 	svccs	0x00646c69
 6a4:	67726174 			; <UNDEFINED> instruction: 0x67726174
 6a8:	612f7465 			; <UNDEFINED> instruction: 0x612f7465
 6ac:	6c2d6d72 	stcvs	13, cr6, [sp], #-456	; 0xfffffe38
 6b0:	78756e69 	ldmdavc	r5!, {r0, r3, r5, r6, r9, sl, fp, sp, lr}^
 6b4:	756e672d 	strbvc	r6, [lr, #-1837]!	; 0xfffff8d3
 6b8:	69626165 	stmdbvs	r2!, {r0, r2, r5, r6, r8, sp, lr}^
 6bc:	732f6668 			; <UNDEFINED> instruction: 0x732f6668
 6c0:	7370616e 	cmnvc	r0, #-2147483621	; 0x8000001b
 6c4:	73746f68 	cmnvc	r4, #104, 30	; 0x1a0
 6c8:	6363672f 	cmnvs	r3, #12320768	; 0xbc0000
 6cc:	6e696c2d 	cdpvs	12, 6, cr6, cr9, cr13, {1}
 6d0:	2d6f7261 	sfmcs	f7, 2, [pc, #-388]!	; 554 <shift+0x554>
 6d4:	2d322e36 	ldccs	14, cr2, [r2, #-216]!	; 0xffffff28
 6d8:	36313032 			; <UNDEFINED> instruction: 0x36313032
 6dc:	2f31312e 	svccs	0x0031312e
 6e0:	6762696c 	strbvs	r6, [r2, -ip, ror #18]!
 6e4:	2e2f6363 	cdpcs	3, 2, cr6, cr15, cr3, {3}
 6e8:	63672f2e 	cmnvs	r7, #46, 30	; 0xb8
 6ec:	6f632f63 	svcvs	0x00632f63
 6f0:	6769666e 	strbvs	r6, [r9, -lr, ror #12]!
 6f4:	6d72612f 	ldfvse	f6, [r2, #-188]!	; 0xffffff44
 6f8:	696c0000 	stmdbvs	ip!, {}^	; <UNPREDICTABLE>
 6fc:	63636762 	cmnvs	r3, #25690112	; 0x1880000
 700:	00632e32 	rsbeq	r2, r3, r2, lsr lr
 704:	73000001 	movwvc	r0, #1
 708:	65646474 	strbvs	r6, [r4, #-1140]!	; 0xfffffb8c
 70c:	00682e66 	rsbeq	r2, r8, r6, ror #28
 710:	74000002 	strvc	r0, [r0], #-2
 714:	73657079 	cmnvc	r5, #121	; 0x79
 718:	0300682e 	movweq	r6, #2094	; 0x82e
 71c:	696c0000 	stmdbvs	ip!, {}^	; <UNPREDICTABLE>
 720:	2e6f6962 	vnmulcs.f16	s13, s30, s5	; <UNPREDICTABLE>
 724:	00040068 	andeq	r0, r4, r8, rrx
 728:	64747300 	ldrbtvs	r7, [r4], #-768	; 0xfffffd00
 72c:	682e6f69 	stmdavs	lr!, {r0, r3, r5, r6, r8, r9, sl, fp, sp, lr}
 730:	00000400 	andeq	r0, r0, r0, lsl #8
 734:	5f737973 	svcpl	0x00737973
 738:	6c727265 	lfmvs	f7, 2, [r2], #-404	; 0xfffffe6c
 73c:	2e747369 	cdpcs	3, 7, cr7, cr4, cr9, {3}
 740:	00030068 	andeq	r0, r3, r8, rrx
 744:	72726500 	rsbsvc	r6, r2, #0, 10
 748:	682e6f6e 	stmdavs	lr!, {r1, r2, r3, r5, r6, r8, r9, sl, fp, sp, lr}
 74c:	00000400 	andeq	r0, r0, r0, lsl #8
 750:	73696e75 	cmnvc	r9, #1872	; 0x750
 754:	682e6474 	stmdavs	lr!, {r2, r4, r5, r6, sl, sp, lr}
 758:	00000400 	andeq	r0, r0, r0, lsl #8
 75c:	6f746567 	svcvs	0x00746567
 760:	682e7470 	stmdavs	lr!, {r4, r5, r6, sl, ip, sp, lr}
 764:	00000500 	andeq	r0, r0, r0, lsl #10
 768:	656d6974 	strbvs	r6, [sp, #-2420]!	; 0xfffff68c
 76c:	0400682e 	streq	r6, [r0], #-2094	; 0xfffff7d2
 770:	61680000 	cmnvs	r8, r0
 774:	61746873 	cmnvs	r4, r3, ror r8
 778:	00682e62 	rsbeq	r2, r8, r2, ror #28
 77c:	69000005 	stmdbvs	r0, {r0, r2}
 780:	2d6e736e 	stclcs	3, cr7, [lr, #-440]!	; 0xfffffe48
 784:	736e6f63 	cmnvc	lr, #396	; 0x18c
 788:	746e6174 	strbtvc	r6, [lr], #-372	; 0xfffffe8c
 78c:	00682e73 	rsbeq	r2, r8, r3, ror lr
 790:	61000006 	tstvs	r0, r6
 794:	682e6d72 	stmdavs	lr!, {r1, r4, r5, r6, r8, sl, fp, sp, lr}
 798:	00000700 	andeq	r0, r0, r0, lsl #14
 79c:	2d6d7261 	sfmcs	f7, 2, [sp, #-388]!	; 0xfffffe7c
 7a0:	7374706f 	cmnvc	r4, #111	; 0x6f
 7a4:	0700682e 	streq	r6, [r0, -lr, lsr #16]
 7a8:	696c0000 	stmdbvs	ip!, {}^	; <UNPREDICTABLE>
 7ac:	63636762 	cmnvs	r3, #25690112	; 0x1880000
 7b0:	00682e32 	rsbeq	r2, r8, r2, lsr lr
 7b4:	00000001 	andeq	r0, r0, r1
 7b8:	74020500 	strvc	r0, [r2], #-1280	; 0xfffffb00
 7bc:	03820020 	orreq	r0, r2, #32
 7c0:	030107b0 	movweq	r0, #6064	; 0x17b0
 7c4:	7403010c 	strvc	r0, [r3], #-268	; 0xfffffef4
 7c8:	2e0c0320 	cdpcs	3, 0, cr0, cr12, cr0, {1}
 7cc:	2f2e7403 	svccs	0x002e7403
 7d0:	0b032f2d 	bleq	cc48c <shift+0xcc48c>
 7d4:	4c4b222e 	sfmmi	f2, 2, [fp], {46}	; 0x2e
 7d8:	6803f921 	stmdavs	r3, {r0, r5, r8, fp, ip, sp, lr, pc}
 7dc:	3c18033c 	ldccc	3, cr0, [r8], {60}	; 0x3c
 7e0:	812f1f23 			; <UNDEFINED> instruction: 0x812f1f23
 7e4:	946e3032 	strbtls	r3, [lr], #-50	; 0xffffffce
 7e8:	41304d37 	teqmi	r0, r7, lsr sp
 7ec:	d42f218f 	strtle	r2, [pc], #-399	; 7f4 <shift+0x7f4>
 7f0:	32212d22 	eorcc	r2, r1, #2176	; 0x880
 7f4:	5503303d 	strpl	r3, [r3, #-61]	; 0xffffffc3
 7f8:	2d2f492e 			; <UNDEFINED> instruction: 0x2d2f492e
 7fc:	00030221 	andeq	r0, r3, r1, lsr #4
 800:	Address 0x0000000000000800 is out of bounds.


Disassembly of section .debug_info:

00000000 <.debug_info>:
       0:	000001bb 			; <UNDEFINED> instruction: 0x000001bb
       4:	00000002 	andeq	r0, r0, r2
       8:	01040000 	mrseq	r0, (UNDEF: 4)
       c:	00000000 	andeq	r0, r0, r0
      10:	82001dc0 	andhi	r1, r0, #192, 26	; 0x3000
      14:	82002036 	andhi	r2, r0, #54	; 0x36
      18:	6d6f682f 	stclvs	8, cr6, [pc, #-188]!	; ffffff64 <__bss_end+0x7dffcf84>
      1c:	63742f65 	cmnvs	r4, #404	; 0x194
      20:	622d6777 	eorvs	r6, sp, #31195136	; 0x1dc0000
      24:	646c6975 	strbtvs	r6, [ip], #-2421	; 0xfffff68b
      28:	76616c73 			; <UNDEFINED> instruction: 0x76616c73
      2c:	6f772f65 	svcvs	0x00772f65
      30:	70736b72 	rsbsvc	r6, r3, r2, ror fp
      34:	2f656361 	svccs	0x00656361
      38:	67776374 			; <UNDEFINED> instruction: 0x67776374
      3c:	6b616d2d 	blvs	185b4f8 <shift+0x185b4f8>
      40:	65722d65 	ldrbvs	r2, [r2, #-3429]!	; 0xfffff29b
      44:	7361656c 	cmnvc	r1, #108, 10	; 0x1b000000
      48:	616c2f65 	cmnvs	ip, r5, ror #30
      4c:	2f6c6562 	svccs	0x006c6562
      50:	6b636f64 	blvs	18dbde8 <shift+0x18dbde8>
      54:	742d7265 	strtvc	r7, [sp], #-613	; 0xfffffd9b
      58:	74737572 	ldrbtvc	r7, [r3], #-1394	; 0xfffffa8e
      5c:	6d612d79 	stclvs	13, cr2, [r1, #-484]!	; 0xfffffe1c
      60:	2d343664 	ldccs	6, cr3, [r4, #-400]!	; 0xfffffe70
      64:	67776374 			; <UNDEFINED> instruction: 0x67776374
      68:	6975622d 	ldmdbvs	r5!, {r0, r2, r3, r5, r9, sp, lr}^
      6c:	742f646c 	strtvc	r6, [pc], #-1132	; 74 <shift+0x74>
      70:	65677261 	strbvs	r7, [r7, #-609]!	; 0xfffffd9f
      74:	72612f74 	rsbvc	r2, r1, #116, 30	; 0x1d0
      78:	696c2d6d 	stmdbvs	ip!, {r0, r2, r3, r5, r6, r8, sl, fp, sp}^
      7c:	2d78756e 	cfldr64cs	mvdx7, [r8, #-440]!	; 0xfffffe48
      80:	65756e67 	ldrbvs	r6, [r5, #-3687]!	; 0xfffff199
      84:	68696261 	stmdavs	r9!, {r0, r5, r6, r9, sp, lr}^
      88:	6e732f66 	cdpvs	15, 7, cr2, cr3, cr6, {3}
      8c:	68737061 	ldmdavs	r3!, {r0, r5, r6, ip, sp, lr}^
      90:	2f73746f 	svccs	0x0073746f
      94:	2d636367 	stclcs	3, cr6, [r3, #-412]!	; 0xfffffe64
      98:	616e696c 	cmnvs	lr, ip, ror #18
      9c:	362d6f72 	qsub16cc	r6, sp, r2
      a0:	322d322e 	eorcc	r3, sp, #-536870910	; 0xe0000002
      a4:	2e363130 	mrccs	1, 1, r3, cr6, cr0, {1}
      a8:	6c2f3131 	stfvss	f3, [pc], #-196	; ffffffec <__bss_end+0x7dffd00c>
      ac:	63676269 	cmnvs	r7, #-1879048186	; 0x90000006
      b0:	6f632f63 	svcvs	0x00632f63
      b4:	6769666e 	strbvs	r6, [r9, -lr, ror #12]!
      b8:	6d72612f 	ldfvse	f6, [r2, #-188]!	; 0xffffff44
      bc:	62696c2f 	rsbvs	r6, r9, #12032	; 0x2f00
      c0:	6e756631 	mrcvs	6, 3, r6, cr5, cr1, {1}
      c4:	532e7363 			; <UNDEFINED> instruction: 0x532e7363
      c8:	6f682f00 	svcvs	0x00682f00
      cc:	742f656d 	strtvc	r6, [pc], #-1389	; d4 <shift+0xd4>
      d0:	2d677763 	stclcs	7, cr7, [r7, #-396]!	; 0xfffffe74
      d4:	6c697562 	cfstr64vs	mvdx7, [r9], #-392	; 0xfffffe78
      d8:	616c7364 	cmnvs	ip, r4, ror #6
      dc:	772f6576 			; <UNDEFINED> instruction: 0x772f6576
      e0:	736b726f 	cmnvc	fp, #-268435450	; 0xf0000006
      e4:	65636170 	strbvs	r6, [r3, #-368]!	; 0xfffffe90
      e8:	7763742f 	strbvc	r7, [r3, -pc, lsr #8]!
      ec:	616d2d67 	cmnvs	sp, r7, ror #26
      f0:	722d656b 	eorvc	r6, sp, #448790528	; 0x1ac00000
      f4:	61656c65 	cmnvs	r5, r5, ror #24
      f8:	6c2f6573 	cfstr32vs	mvfx6, [pc], #-460	; ffffff34 <__bss_end+0x7dffcf54>
      fc:	6c656261 	sfmvs	f6, 2, [r5], #-388	; 0xfffffe7c
     100:	636f642f 	cmnvs	pc, #788529152	; 0x2f000000
     104:	2d72656b 	cfldr64cs	mvdx6, [r2, #-428]!	; 0xfffffe54
     108:	73757274 	cmnvc	r5, #116, 4	; 0x40000007
     10c:	612d7974 			; <UNDEFINED> instruction: 0x612d7974
     110:	3436646d 	ldrtcc	r6, [r6], #-1133	; 0xfffffb93
     114:	7763742d 	strbvc	r7, [r3, -sp, lsr #8]!
     118:	75622d67 	strbvc	r2, [r2, #-3431]!	; 0xfffff299
     11c:	2f646c69 	svccs	0x00646c69
     120:	67726174 			; <UNDEFINED> instruction: 0x67726174
     124:	612f7465 			; <UNDEFINED> instruction: 0x612f7465
     128:	6c2d6d72 	stcvs	13, cr6, [sp], #-456	; 0xfffffe38
     12c:	78756e69 	ldmdavc	r5!, {r0, r3, r5, r6, r9, sl, fp, sp, lr}^
     130:	756e672d 	strbvc	r6, [lr, #-1837]!	; 0xfffff8d3
     134:	69626165 	stmdbvs	r2!, {r0, r2, r5, r6, r8, sp, lr}^
     138:	5f2f6668 	svcpl	0x002f6668
     13c:	6c697562 	cfstr64vs	mvdx7, [r9], #-392	; 0xfffffe78
     140:	75622f64 	strbvc	r2, [r2, #-3940]!	; 0xfffff09c
     144:	73646c69 	cmnvc	r4, #26880	; 0x6900
     148:	3638782f 	ldrtcc	r7, [r8], -pc, lsr #16
     14c:	2d34365f 	ldccs	6, cr3, [r4, #-380]!	; 0xfffffe84
     150:	6e6b6e75 	mcrvs	14, 3, r6, cr11, cr5, {3}
     154:	2d6e776f 	stclcs	7, cr7, [lr, #-444]!	; 0xfffffe44
     158:	756e696c 	strbvc	r6, [lr, #-2412]!	; 0xfffff694
     15c:	6e672d78 	mcrvs	13, 3, r2, cr7, cr8, {3}
     160:	72612f75 	rsbvc	r2, r1, #468	; 0x1d4
     164:	696c2d6d 	stmdbvs	ip!, {r0, r2, r3, r5, r6, r8, sl, fp, sp}^
     168:	2d78756e 	cfldr64cs	mvdx7, [r8, #-440]!	; 0xfffffe48
     16c:	65756e67 	ldrbvs	r6, [r5, #-3687]!	; 0xfffff199
     170:	68696261 	stmdavs	r9!, {r0, r5, r6, r9, sp, lr}^
     174:	63672f66 	cmnvs	r7, #408	; 0x198
     178:	696c2d63 	stmdbvs	ip!, {r0, r1, r5, r6, r8, sl, fp, sp}^
     17c:	6f72616e 	svcvs	0x0072616e
     180:	322e362d 	eorcc	r3, lr, #47185920	; 0x2d00000
     184:	3130322d 	teqcc	r0, sp, lsr #4
     188:	31312e36 	teqcc	r1, r6, lsr lr
     18c:	6174732d 	cmnvs	r4, sp, lsr #6
     190:	2f326567 	svccs	0x00326567
     194:	2d6d7261 	sfmcs	f7, 2, [sp, #-388]!	; 0xfffffe7c
     198:	756e696c 	strbvc	r6, [lr, #-2412]!	; 0xfffff694
     19c:	6e672d78 	mcrvs	13, 3, r2, cr7, cr8, {3}
     1a0:	62616575 	rsbvs	r6, r1, #490733568	; 0x1d400000
     1a4:	2f666869 	svccs	0x00666869
     1a8:	6762696c 	strbvs	r6, [r2, -ip, ror #18]!
     1ac:	47006363 	strmi	r6, [r0, -r3, ror #6]
     1b0:	4120554e 			; <UNDEFINED> instruction: 0x4120554e
     1b4:	2e322053 	mrccs	0, 1, r2, cr2, cr3, {2}
     1b8:	302e3732 	eorcc	r3, lr, r2, lsr r7
     1bc:	b7800100 	strlt	r0, [r0, r0, lsl #2]
     1c0:	02000001 	andeq	r0, r0, #1
     1c4:	00001400 	andeq	r1, r0, r0, lsl #8
     1c8:	00010400 	andeq	r0, r1, r0, lsl #8
     1cc:	38000001 	stmdacc	r0, {r0}
     1d0:	68820020 	stmvs	r2, {r5}
     1d4:	2f820020 	svccs	0x00820020
     1d8:	656d6f68 	strbvs	r6, [sp, #-3944]!	; 0xfffff098
     1dc:	7763742f 	strbvc	r7, [r3, -pc, lsr #8]!
     1e0:	75622d67 	strbvc	r2, [r2, #-3431]!	; 0xfffff299
     1e4:	73646c69 	cmnvc	r4, #26880	; 0x6900
     1e8:	6576616c 	ldrbvs	r6, [r6, #-364]!	; 0xfffffe94
     1ec:	726f772f 	rsbvc	r7, pc, #12320768	; 0xbc0000
     1f0:	6170736b 	cmnvs	r0, fp, ror #6
     1f4:	742f6563 	strtvc	r6, [pc], #-1379	; 1fc <shift+0x1fc>
     1f8:	2d677763 	stclcs	7, cr7, [r7, #-396]!	; 0xfffffe74
     1fc:	656b616d 	strbvs	r6, [fp, #-365]!	; 0xfffffe93
     200:	6c65722d 	sfmvs	f7, 2, [r5], #-180	; 0xffffff4c
     204:	65736165 	ldrbvs	r6, [r3, #-357]!	; 0xfffffe9b
     208:	62616c2f 	rsbvs	r6, r1, #12032	; 0x2f00
     20c:	642f6c65 	strtvs	r6, [pc], #-3173	; 214 <shift+0x214>
     210:	656b636f 	strbvs	r6, [fp, #-879]!	; 0xfffffc91
     214:	72742d72 	rsbsvc	r2, r4, #7296	; 0x1c80
     218:	79747375 	ldmdbvc	r4!, {r0, r2, r4, r5, r6, r8, r9, ip, sp, lr}^
     21c:	646d612d 	strbtvs	r6, [sp], #-301	; 0xfffffed3
     220:	742d3436 	strtvc	r3, [sp], #-1078	; 0xfffffbca
     224:	2d677763 	stclcs	7, cr7, [r7, #-396]!	; 0xfffffe74
     228:	6c697562 	cfstr64vs	mvdx7, [r9], #-392	; 0xfffffe78
     22c:	61742f64 	cmnvs	r4, r4, ror #30
     230:	74656772 	strbtvc	r6, [r5], #-1906	; 0xfffff88e
     234:	6d72612f 	ldfvse	f6, [r2, #-188]!	; 0xffffff44
     238:	6e696c2d 	cdpvs	12, 6, cr6, cr9, cr13, {1}
     23c:	672d7875 			; <UNDEFINED> instruction: 0x672d7875
     240:	6165756e 	cmnvs	r5, lr, ror #10
     244:	66686962 	strbtvs	r6, [r8], -r2, ror #18
     248:	616e732f 	cmnvs	lr, pc, lsr #6
     24c:	6f687370 	svcvs	0x00687370
     250:	672f7374 			; <UNDEFINED> instruction: 0x672f7374
     254:	6c2d6363 	stcvs	3, cr6, [sp], #-396	; 0xfffffe74
     258:	72616e69 	rsbvc	r6, r1, #1680	; 0x690
     25c:	2e362d6f 	cdpcs	13, 3, cr2, cr6, cr15, {3}
     260:	30322d32 	eorscc	r2, r2, r2, lsr sp
     264:	312e3631 			; <UNDEFINED> instruction: 0x312e3631
     268:	696c2f31 	stmdbvs	ip!, {r0, r4, r5, r8, r9, sl, fp, sp}^
     26c:	63636762 	cmnvs	r3, #25690112	; 0x1880000
     270:	6e6f632f 	cdpvs	3, 6, cr6, cr15, cr15, {1}
     274:	2f676966 	svccs	0x00676966
     278:	2f6d7261 	svccs	0x006d7261
     27c:	62617062 	rsbvs	r7, r1, #98	; 0x62
     280:	00532e69 	subseq	r2, r3, r9, ror #28
     284:	6d6f682f 	stclvs	8, cr6, [pc, #-188]!	; 1d0 <shift+0x1d0>
     288:	63742f65 	cmnvs	r4, #404	; 0x194
     28c:	622d6777 	eorvs	r6, sp, #31195136	; 0x1dc0000
     290:	646c6975 	strbtvs	r6, [ip], #-2421	; 0xfffff68b
     294:	76616c73 			; <UNDEFINED> instruction: 0x76616c73
     298:	6f772f65 	svcvs	0x00772f65
     29c:	70736b72 	rsbsvc	r6, r3, r2, ror fp
     2a0:	2f656361 	svccs	0x00656361
     2a4:	67776374 			; <UNDEFINED> instruction: 0x67776374
     2a8:	6b616d2d 	blvs	185b764 <shift+0x185b764>
     2ac:	65722d65 	ldrbvs	r2, [r2, #-3429]!	; 0xfffff29b
     2b0:	7361656c 	cmnvc	r1, #108, 10	; 0x1b000000
     2b4:	616c2f65 	cmnvs	ip, r5, ror #30
     2b8:	2f6c6562 	svccs	0x006c6562
     2bc:	6b636f64 	blvs	18dc054 <shift+0x18dc054>
     2c0:	742d7265 	strtvc	r7, [sp], #-613	; 0xfffffd9b
     2c4:	74737572 	ldrbtvc	r7, [r3], #-1394	; 0xfffffa8e
     2c8:	6d612d79 	stclvs	13, cr2, [r1, #-484]!	; 0xfffffe1c
     2cc:	2d343664 	ldccs	6, cr3, [r4, #-400]!	; 0xfffffe70
     2d0:	67776374 			; <UNDEFINED> instruction: 0x67776374
     2d4:	6975622d 	ldmdbvs	r5!, {r0, r2, r3, r5, r9, sp, lr}^
     2d8:	742f646c 	strtvc	r6, [pc], #-1132	; 2e0 <shift+0x2e0>
     2dc:	65677261 	strbvs	r7, [r7, #-609]!	; 0xfffffd9f
     2e0:	72612f74 	rsbvc	r2, r1, #116, 30	; 0x1d0
     2e4:	696c2d6d 	stmdbvs	ip!, {r0, r2, r3, r5, r6, r8, sl, fp, sp}^
     2e8:	2d78756e 	cfldr64cs	mvdx7, [r8, #-440]!	; 0xfffffe48
     2ec:	65756e67 	ldrbvs	r6, [r5, #-3687]!	; 0xfffff199
     2f0:	68696261 	stmdavs	r9!, {r0, r5, r6, r9, sp, lr}^
     2f4:	625f2f66 	subsvs	r2, pc, #408	; 0x198
     2f8:	646c6975 	strbtvs	r6, [ip], #-2421	; 0xfffff68b
     2fc:	6975622f 	ldmdbvs	r5!, {r0, r1, r2, r3, r5, r9, sp, lr}^
     300:	2f73646c 	svccs	0x0073646c
     304:	5f363878 	svcpl	0x00363878
     308:	752d3436 	strvc	r3, [sp, #-1078]!	; 0xfffffbca
     30c:	6f6e6b6e 	svcvs	0x006e6b6e
     310:	6c2d6e77 	stcvs	14, cr6, [sp], #-476	; 0xfffffe24
     314:	78756e69 	ldmdavc	r5!, {r0, r3, r5, r6, r9, sl, fp, sp, lr}^
     318:	756e672d 	strbvc	r6, [lr, #-1837]!	; 0xfffff8d3
     31c:	6d72612f 	ldfvse	f6, [r2, #-188]!	; 0xffffff44
     320:	6e696c2d 	cdpvs	12, 6, cr6, cr9, cr13, {1}
     324:	672d7875 			; <UNDEFINED> instruction: 0x672d7875
     328:	6165756e 	cmnvs	r5, lr, ror #10
     32c:	66686962 	strbtvs	r6, [r8], -r2, ror #18
     330:	6363672f 	cmnvs	r3, #12320768	; 0xbc0000
     334:	6e696c2d 	cdpvs	12, 6, cr6, cr9, cr13, {1}
     338:	2d6f7261 	sfmcs	f7, 2, [pc, #-388]!	; 1bc <shift+0x1bc>
     33c:	2d322e36 	ldccs	14, cr2, [r2, #-216]!	; 0xffffff28
     340:	36313032 			; <UNDEFINED> instruction: 0x36313032
     344:	2d31312e 	ldfcss	f3, [r1, #-184]!	; 0xffffff48
     348:	67617473 			; <UNDEFINED> instruction: 0x67617473
     34c:	612f3265 			; <UNDEFINED> instruction: 0x612f3265
     350:	6c2d6d72 	stcvs	13, cr6, [sp], #-456	; 0xfffffe38
     354:	78756e69 	ldmdavc	r5!, {r0, r3, r5, r6, r9, sl, fp, sp, lr}^
     358:	756e672d 	strbvc	r6, [lr, #-1837]!	; 0xfffff8d3
     35c:	69626165 	stmdbvs	r2!, {r0, r2, r5, r6, r8, sp, lr}^
     360:	6c2f6668 	stcvs	6, cr6, [pc], #-416	; 1c8 <shift+0x1c8>
     364:	63676269 	cmnvs	r7, #-1879048186	; 0x90000006
     368:	4e470063 	cdpmi	0, 4, cr0, cr7, cr3, {3}
     36c:	53412055 	movtpl	r2, #4181	; 0x1055
     370:	322e3220 	eorcc	r3, lr, #32, 4
     374:	00302e37 	eorseq	r2, r0, r7, lsr lr
     378:	01bb8001 			; <UNDEFINED> instruction: 0x01bb8001
     37c:	00020000 	andeq	r0, r2, r0
     380:	00000028 	andeq	r0, r0, r8, lsr #32
     384:	01e10104 	mvneq	r0, r4, lsl #2
     388:	20680000 	rsbcs	r0, r8, r0
     38c:	20748200 	rsbscs	r8, r4, r0, lsl #4
     390:	682f8200 	stmdavs	pc!, {r9, pc}	; <UNPREDICTABLE>
     394:	2f656d6f 	svccs	0x00656d6f
     398:	67776374 			; <UNDEFINED> instruction: 0x67776374
     39c:	6975622d 	ldmdbvs	r5!, {r0, r2, r3, r5, r9, sp, lr}^
     3a0:	6c73646c 	cfldrdvs	mvd6, [r3], #-432	; 0xfffffe50
     3a4:	2f657661 	svccs	0x00657661
     3a8:	6b726f77 	blvs	1c9c18c <shift+0x1c9c18c>
     3ac:	63617073 	cmnvs	r1, #115	; 0x73
     3b0:	63742f65 	cmnvs	r4, #404	; 0x194
     3b4:	6d2d6777 	stcvs	7, cr6, [sp, #-476]!	; 0xfffffe24
     3b8:	2d656b61 	fstmdbxcs	r5!, {d22-d69}	;@ Deprecated
     3bc:	656c6572 	strbvs	r6, [ip, #-1394]!	; 0xfffffa8e
     3c0:	2f657361 	svccs	0x00657361
     3c4:	6562616c 	strbvs	r6, [r2, #-364]!	; 0xfffffe94
     3c8:	6f642f6c 	svcvs	0x00642f6c
     3cc:	72656b63 	rsbvc	r6, r5, #101376	; 0x18c00
     3d0:	7572742d 	ldrbvc	r7, [r2, #-1069]!	; 0xfffffbd3
     3d4:	2d797473 	cfldrdcs	mvd7, [r9, #-460]!	; 0xfffffe34
     3d8:	36646d61 	strbtcc	r6, [r4], -r1, ror #26
     3dc:	63742d34 	cmnvs	r4, #52, 26	; 0xd00
     3e0:	622d6777 	eorvs	r6, sp, #31195136	; 0x1dc0000
     3e4:	646c6975 	strbtvs	r6, [ip], #-2421	; 0xfffff68b
     3e8:	7261742f 	rsbvc	r7, r1, #788529152	; 0x2f000000
     3ec:	2f746567 	svccs	0x00746567
     3f0:	2d6d7261 	sfmcs	f7, 2, [sp, #-388]!	; 0xfffffe7c
     3f4:	756e696c 	strbvc	r6, [lr, #-2412]!	; 0xfffff694
     3f8:	6e672d78 	mcrvs	13, 3, r2, cr7, cr8, {3}
     3fc:	62616575 	rsbvs	r6, r1, #490733568	; 0x1d400000
     400:	2f666869 	svccs	0x00666869
     404:	70616e73 	rsbvc	r6, r1, r3, ror lr
     408:	746f6873 	strbtvc	r6, [pc], #-2163	; 410 <shift+0x410>
     40c:	63672f73 	cmnvs	r7, #460	; 0x1cc
     410:	696c2d63 	stmdbvs	ip!, {r0, r1, r5, r6, r8, sl, fp, sp}^
     414:	6f72616e 	svcvs	0x0072616e
     418:	322e362d 	eorcc	r3, lr, #47185920	; 0x2d00000
     41c:	3130322d 	teqcc	r0, sp, lsr #4
     420:	31312e36 	teqcc	r1, r6, lsr lr
     424:	62696c2f 	rsbvs	r6, r9, #12032	; 0x2f00
     428:	2f636367 	svccs	0x00636367
     42c:	666e6f63 	strbtvs	r6, [lr], -r3, ror #30
     430:	612f6769 			; <UNDEFINED> instruction: 0x612f6769
     434:	6c2f6d72 	stcvs	13, cr6, [pc], #-456	; 274 <shift+0x274>
     438:	66316269 	ldrtvs	r6, [r1], -r9, ror #4
     43c:	73636e75 	cmnvc	r3, #1872	; 0x750
     440:	2f00532e 	svccs	0x0000532e
     444:	656d6f68 	strbvs	r6, [sp, #-3944]!	; 0xfffff098
     448:	7763742f 	strbvc	r7, [r3, -pc, lsr #8]!
     44c:	75622d67 	strbvc	r2, [r2, #-3431]!	; 0xfffff299
     450:	73646c69 	cmnvc	r4, #26880	; 0x6900
     454:	6576616c 	ldrbvs	r6, [r6, #-364]!	; 0xfffffe94
     458:	726f772f 	rsbvc	r7, pc, #12320768	; 0xbc0000
     45c:	6170736b 	cmnvs	r0, fp, ror #6
     460:	742f6563 	strtvc	r6, [pc], #-1379	; 468 <shift+0x468>
     464:	2d677763 	stclcs	7, cr7, [r7, #-396]!	; 0xfffffe74
     468:	656b616d 	strbvs	r6, [fp, #-365]!	; 0xfffffe93
     46c:	6c65722d 	sfmvs	f7, 2, [r5], #-180	; 0xffffff4c
     470:	65736165 	ldrbvs	r6, [r3, #-357]!	; 0xfffffe9b
     474:	62616c2f 	rsbvs	r6, r1, #12032	; 0x2f00
     478:	642f6c65 	strtvs	r6, [pc], #-3173	; 480 <shift+0x480>
     47c:	656b636f 	strbvs	r6, [fp, #-879]!	; 0xfffffc91
     480:	72742d72 	rsbsvc	r2, r4, #7296	; 0x1c80
     484:	79747375 	ldmdbvc	r4!, {r0, r2, r4, r5, r6, r8, r9, ip, sp, lr}^
     488:	646d612d 	strbtvs	r6, [sp], #-301	; 0xfffffed3
     48c:	742d3436 	strtvc	r3, [sp], #-1078	; 0xfffffbca
     490:	2d677763 	stclcs	7, cr7, [r7, #-396]!	; 0xfffffe74
     494:	6c697562 	cfstr64vs	mvdx7, [r9], #-392	; 0xfffffe78
     498:	61742f64 	cmnvs	r4, r4, ror #30
     49c:	74656772 	strbtvc	r6, [r5], #-1906	; 0xfffff88e
     4a0:	6d72612f 	ldfvse	f6, [r2, #-188]!	; 0xffffff44
     4a4:	6e696c2d 	cdpvs	12, 6, cr6, cr9, cr13, {1}
     4a8:	672d7875 			; <UNDEFINED> instruction: 0x672d7875
     4ac:	6165756e 	cmnvs	r5, lr, ror #10
     4b0:	66686962 	strbtvs	r6, [r8], -r2, ror #18
     4b4:	75625f2f 	strbvc	r5, [r2, #-3887]!	; 0xfffff0d1
     4b8:	2f646c69 	svccs	0x00646c69
     4bc:	6c697562 	cfstr64vs	mvdx7, [r9], #-392	; 0xfffffe78
     4c0:	782f7364 	stmdavc	pc!, {r2, r5, r6, r8, r9, ip, sp, lr}	; <UNPREDICTABLE>
     4c4:	365f3638 			; <UNDEFINED> instruction: 0x365f3638
     4c8:	6e752d34 	mrcvs	13, 3, r2, cr5, cr4, {1}
     4cc:	776f6e6b 	strbvc	r6, [pc, -fp, ror #28]!
     4d0:	696c2d6e 	stmdbvs	ip!, {r1, r2, r3, r5, r6, r8, sl, fp, sp}^
     4d4:	2d78756e 	cfldr64cs	mvdx7, [r8, #-440]!	; 0xfffffe48
     4d8:	2f756e67 	svccs	0x00756e67
     4dc:	2d6d7261 	sfmcs	f7, 2, [sp, #-388]!	; 0xfffffe7c
     4e0:	756e696c 	strbvc	r6, [lr, #-2412]!	; 0xfffff694
     4e4:	6e672d78 	mcrvs	13, 3, r2, cr7, cr8, {3}
     4e8:	62616575 	rsbvs	r6, r1, #490733568	; 0x1d400000
     4ec:	2f666869 	svccs	0x00666869
     4f0:	2d636367 	stclcs	3, cr6, [r3, #-412]!	; 0xfffffe64
     4f4:	616e696c 	cmnvs	lr, ip, ror #18
     4f8:	362d6f72 	qsub16cc	r6, sp, r2
     4fc:	322d322e 	eorcc	r3, sp, #-536870910	; 0xe0000002
     500:	2e363130 	mrccs	1, 1, r3, cr6, cr0, {1}
     504:	732d3131 			; <UNDEFINED> instruction: 0x732d3131
     508:	65676174 	strbvs	r6, [r7, #-372]!	; 0xfffffe8c
     50c:	72612f32 	rsbvc	r2, r1, #50, 30	; 0xc8
     510:	696c2d6d 	stmdbvs	ip!, {r0, r2, r3, r5, r6, r8, sl, fp, sp}^
     514:	2d78756e 	cfldr64cs	mvdx7, [r8, #-440]!	; 0xfffffe48
     518:	65756e67 	ldrbvs	r6, [r5, #-3687]!	; 0xfffff199
     51c:	68696261 	stmdavs	r9!, {r0, r5, r6, r9, sp, lr}^
     520:	696c2f66 	stmdbvs	ip!, {r1, r2, r5, r6, r8, r9, sl, fp, sp}^
     524:	63636762 	cmnvs	r3, #25690112	; 0x1880000
     528:	554e4700 	strbpl	r4, [lr, #-1792]	; 0xfffff900
     52c:	20534120 	subscs	r4, r3, r0, lsr #2
     530:	37322e32 			; <UNDEFINED> instruction: 0x37322e32
     534:	0100302e 	tsteq	r0, lr, lsr #32
     538:	000ca880 	andeq	sl, ip, r0, lsl #17
     53c:	3c000400 	cfstrscc	mvf0, [r0], {-0}
     540:	04000000 	streq	r0, [r0], #-0
     544:	000aaf01 	andeq	sl, sl, r1, lsl #30
     548:	08340c00 	ldmdaeq	r4!, {sl, fp}
     54c:	06f10000 	ldrbteq	r0, [r1], r0
     550:	20740000 	rsbscs	r0, r4, r0
     554:	01168200 	tsteq	r6, r0, lsl #4
     558:	02c70000 	sbceq	r0, r7, #0
     55c:	08020000 	stmdaeq	r2, {}	; <UNPREDICTABLE>
     560:	00035107 	andeq	r5, r3, r7, lsl #2
     564:	05040300 	streq	r0, [r4, #-768]	; 0xfffffd00
     568:	00746e69 	rsbseq	r6, r4, r9, ror #28
     56c:	00045504 	andeq	r5, r4, r4, lsl #10
     570:	3ed80200 	cdpcc	2, 13, cr0, cr8, cr0, {0}
     574:	02000000 	andeq	r0, r0, #0
     578:	035b0704 	cmpeq	fp, #4, 14	; 0x100000
     57c:	08020000 	stmdaeq	r2, {}	; <UNPREDICTABLE>
     580:	0006a605 	andeq	sl, r6, r5, lsl #12
     584:	04080200 	streq	r0, [r8], #-512	; 0xfffffe00
     588:	00000a21 	andeq	r0, r0, r1, lsr #20
     58c:	01020405 	tsteq	r2, r5, lsl #8
     590:	000d7008 	andeq	r7, sp, r8
     594:	07020200 	streq	r0, [r2, -r0, lsl #4]
     598:	00000e73 	andeq	r0, r0, r3, ror lr
     59c:	56070402 	strpl	r0, [r7], -r2, lsl #8
     5a0:	02000003 	andeq	r0, r0, #3
     5a4:	0d720601 	ldcleq	6, cr0, [r2, #-4]!
     5a8:	02020000 	andeq	r0, r2, #0
     5ac:	000bb805 	andeq	fp, fp, r5, lsl #16
     5b0:	0a730400 	beq	1cc15b8 <shift+0x1cc15b8>
     5b4:	37030000 	strcc	r0, [r3, -r0]
     5b8:	00000045 	andeq	r0, r0, r5, asr #32
     5bc:	000e5204 	andeq	r5, lr, r4, lsl #4
     5c0:	8e830300 	cdphi	3, 8, cr0, cr3, cr0, {0}
     5c4:	02000000 	andeq	r0, r0, #0
     5c8:	06ab0504 	strteq	r0, [fp], r4, lsl #10
     5cc:	a2040000 	andge	r0, r4, #0
     5d0:	0300000f 	movweq	r0, #15
     5d4:	00007884 	andeq	r7, r0, r4, lsl #17
     5d8:	07040200 	streq	r0, [r4, -r0, lsl #4]
     5dc:	00000cea 	andeq	r0, r0, sl, ror #25
     5e0:	00ad0406 	adceq	r0, sp, r6, lsl #8
     5e4:	01020000 	mrseq	r0, (UNDEF: 2)
     5e8:	000d7908 	andeq	r7, sp, r8, lsl #18
     5ec:	00ad0700 	adceq	r0, sp, r0, lsl #14
     5f0:	0a080000 	beq	2005f8 <shift+0x2005f8>
     5f4:	9800000d 	stmdals	r0, {r0, r2, r3}
     5f8:	0236f104 	eorseq	pc, r6, #4, 2
     5fc:	67090000 	strvs	r0, [r9, -r0]
     600:	04000001 	streq	r0, [r0], #-1
     604:	00002cf2 	strdeq	r2, [r0], -r2	; <UNPREDICTABLE>
     608:	e2090000 	and	r0, r9, #0
     60c:	04000005 	streq	r0, [r0], #-5
     610:	0000a7f7 	strdeq	sl, [r0], -r7
     614:	90090400 	andls	r0, r9, r0, lsl #8
     618:	0400000b 	streq	r0, [r0], #-11
     61c:	0000a7f8 	strdeq	sl, [r0], -r8
     620:	b5090800 	strlt	r0, [r9, #-2048]	; 0xfffff800
     624:	04000004 	streq	r0, [r0], #-4
     628:	0000a7f9 	strdeq	sl, [r0], -r9
     62c:	5c090c00 	stcpl	12, cr0, [r9], {-0}
     630:	04000006 	streq	r0, [r0], #-6
     634:	0000a7fa 	strdeq	sl, [r0], -sl	; <UNPREDICTABLE>
     638:	a8091000 	stmdage	r9, {ip}
     63c:	0400000d 	streq	r0, [r0], #-13
     640:	0000a7fb 	strdeq	sl, [r0], -fp
     644:	31091400 	tstcc	r9, r0, lsl #8
     648:	04000001 	streq	r0, [r0], #-1
     64c:	0000a7fc 	strdeq	sl, [r0], -ip
     650:	80091800 	andhi	r1, r9, r0, lsl #16
     654:	0400000f 	streq	r0, [r0], #-15
     658:	0000a7fd 	strdeq	sl, [r0], -sp
     65c:	65091c00 	strvs	r1, [r9, #-3072]	; 0xfffff400
     660:	04000000 	streq	r0, [r0], #-0
     664:	0000a7fe 	strdeq	sl, [r0], -lr
     668:	d10a2000 	mrsle	r2, (UNDEF: 10)
     66c:	04000006 	streq	r0, [r0], #-6
     670:	00a70100 	adceq	r0, r7, r0, lsl #2
     674:	0a240000 	beq	90067c <shift+0x90067c>
     678:	00000399 	muleq	r0, r9, r3
     67c:	a7010104 	strge	r0, [r1, -r4, lsl #2]
     680:	28000000 	stmdacs	r0, {}	; <UNPREDICTABLE>
     684:	0003070a 	andeq	r0, r3, sl, lsl #14
     688:	01020400 	tsteq	r2, r0, lsl #8
     68c:	000000a7 	andeq	r0, r0, r7, lsr #1
     690:	046b0a2c 	strbteq	r0, [fp], #-2604	; 0xfffff5d4
     694:	04040000 	streq	r0, [r4], #-0
     698:	00026e01 	andeq	r6, r2, r1, lsl #28
     69c:	300a3000 	andcc	r3, sl, r0
     6a0:	04000005 	streq	r0, [r0], #-5
     6a4:	02740106 	rsbseq	r0, r4, #-2147483647	; 0x80000001
     6a8:	0a340000 	beq	d006b0 <shift+0xd006b0>
     6ac:	0000040f 	andeq	r0, r0, pc, lsl #8
     6b0:	2c010804 	stccs	8, cr0, [r1], {4}
     6b4:	38000000 	stmdacc	r0, {}	; <UNPREDICTABLE>
     6b8:	000f420a 	andeq	r4, pc, sl, lsl #4
     6bc:	010c0400 	tsteq	ip, r0, lsl #8
     6c0:	0000002c 	andeq	r0, r0, ip, lsr #32
     6c4:	0cfe0a3c 	vldmiaeq	lr!, {s1-s60}
     6c8:	0e040000 	cdpeq	0, 0, cr0, cr4, cr0, {0}
     6cc:	00008301 	andeq	r8, r0, r1, lsl #6
     6d0:	1b0a4000 	blne	2906d8 <shift+0x2906d8>
     6d4:	04000003 	streq	r0, [r0], #-3
     6d8:	005c0112 	subseq	r0, ip, r2, lsl r1
     6dc:	0a440000 	beq	11006e4 <shift+0x11006e4>
     6e0:	0000045c 	andeq	r0, r0, ip, asr r4
     6e4:	6a011304 	bvs	452fc <shift+0x452fc>
     6e8:	46000000 	strmi	r0, [r0], -r0
     6ec:	0000180a 	andeq	r1, r0, sl, lsl #16
     6f0:	01140400 	tsteq	r4, r0, lsl #8
     6f4:	0000027a 	andeq	r0, r0, sl, ror r2
     6f8:	0cdd0a47 	vldmiaeq	sp, {s1-s71}
     6fc:	18040000 	stmdane	r4, {}	; <UNPREDICTABLE>
     700:	00028a01 	andeq	r8, r2, r1, lsl #20
     704:	020a4800 	andeq	r4, sl, #0, 16
     708:	0400000d 	streq	r0, [r0], #-13
     70c:	00950121 	addseq	r0, r5, r1, lsr #2
     710:	0a500000 	beq	1400718 <shift+0x1400718>
     714:	00000915 	andeq	r0, r0, r5, lsl r9
     718:	53012904 	movwpl	r2, #6404	; 0x1904
     71c:	58000000 	stmdapl	r0, {}	; <UNPREDICTABLE>
     720:	0004170a 	andeq	r1, r4, sl, lsl #14
     724:	012a0400 			; <UNDEFINED> instruction: 0x012a0400
     728:	00000053 	andeq	r0, r0, r3, asr r0
     72c:	09250a5c 	stmdbeq	r5!, {r2, r3, r4, r6, r9, fp}
     730:	2b040000 	blcs	100738 <shift+0x100738>
     734:	00005301 	andeq	r5, r0, r1, lsl #6
     738:	2c0a6000 	stccs	0, cr6, [sl], {-0}
     73c:	04000009 	streq	r0, [r0], #-9
     740:	0053012c 	subseq	r0, r3, ip, lsr #2
     744:	0a640000 	beq	190074c <shift+0x190074c>
     748:	00000933 	andeq	r0, r0, r3, lsr r9
     74c:	33012e04 	movwcc	r2, #7684	; 0x1e04
     750:	68000000 	stmdavs	r0, {}	; <UNPREDICTABLE>
     754:	0005a40a 	andeq	sl, r5, sl, lsl #8
     758:	012f0400 			; <UNDEFINED> instruction: 0x012f0400
     75c:	0000002c 	andeq	r0, r0, ip, lsr #32
     760:	0f770a6c 	svceq	0x00770a6c
     764:	31040000 	mrscc	r0, (UNDEF: 4)
     768:	00029001 	andeq	r9, r2, r1
     76c:	0b007000 	bleq	1c774 <shift+0x1c774>
     770:	00000029 	andeq	r0, r0, r9, lsr #32
     774:	19089604 	stmdbne	r8, {r2, r9, sl, ip, pc}
     778:	0c000005 	stceq	0, cr0, [r0], {5}
     77c:	026e9c04 	rsbeq	r9, lr, #4, 24	; 0x400
     780:	f0090000 			; <UNDEFINED> instruction: 0xf0090000
     784:	04000004 	streq	r0, [r0], #-4
     788:	00026e9d 	muleq	r2, sp, lr
     78c:	8d090000 	stchi	0, cr0, [r9, #-0]
     790:	0400000d 	streq	r0, [r0], #-13
     794:	0002749e 	muleq	r2, lr, r4
     798:	d2090400 	andle	r0, r9, #0, 8
     79c:	04000002 	streq	r0, [r0], #-2
     7a0:	00002ca2 	andeq	r2, r0, r2, lsr #25
     7a4:	06000800 	streq	r0, [r0], -r0, lsl #16
     7a8:	00023d04 	andeq	r3, r2, r4, lsl #26
     7ac:	b9040600 	stmdblt	r4, {r9, sl}
     7b0:	0c000000 	stceq	0, cr0, [r0], {-0}
     7b4:	000000ad 	andeq	r0, r0, sp, lsr #1
     7b8:	0000028a 	andeq	r0, r0, sl, lsl #5
     7bc:	0000a00d 	andeq	sl, r0, sp
     7c0:	06000000 	streq	r0, [r0], -r0
     7c4:	00023604 	andeq	r3, r2, r4, lsl #12
     7c8:	00ad0c00 	adceq	r0, sp, r0, lsl #24
     7cc:	02a00000 	adceq	r0, r0, #0
     7d0:	a00d0000 	andge	r0, sp, r0
     7d4:	27000000 	strcs	r0, [r0, -r0]
     7d8:	0c4d0e00 	mcrreq	14, 0, r0, sp, cr0
     7dc:	970f0000 	strls	r0, [pc, -r0]
     7e0:	04000006 	streq	r0, [r0], #-6
     7e4:	02a0013b 	adceq	r0, r0, #-1073741810	; 0xc000000e
     7e8:	c10f0000 	mrsgt	r0, CPSR
     7ec:	04000006 	streq	r0, [r0], #-6
     7f0:	02a0013c 	adceq	r0, r0, #60, 2
     7f4:	7d0f0000 	stcvc	0, cr0, [pc, #-0]	; 7fc <shift+0x7fc>
     7f8:	04000005 	streq	r0, [r0], #-5
     7fc:	02a0013d 	adceq	r0, r0, #1073741839	; 0x4000000f
     800:	04060000 	streq	r0, [r6], #-0
     804:	000000b4 	strheq	r0, [r0], -r4
     808:	0002c907 	andeq	ip, r2, r7, lsl #18
     80c:	04d61000 	ldrbeq	r1, [r6], #0
     810:	a8050000 	stmdage	r5, {}	; <UNPREDICTABLE>
     814:	00000274 	andeq	r0, r0, r4, ror r2
     818:	0002f710 	andeq	pc, r2, r0, lsl r7	; <UNPREDICTABLE>
     81c:	74a90500 	strtvc	r0, [r9], #1280	; 0x500
     820:	10000002 	andne	r0, r0, r2
     824:	00000059 	andeq	r0, r0, r9, asr r0
     828:	0274aa05 	rsbseq	sl, r4, #20480	; 0x5000
     82c:	2b100000 	blcs	400834 <shift+0x400834>
     830:	06000004 	streq	r0, [r0], -r4
     834:	00002c1a 	andeq	r2, r0, sl, lsl ip
     838:	02cf0c00 	sbceq	r0, pc, #0, 24
     83c:	030b0000 	movweq	r0, #45056	; 0xb000
     840:	00110000 	andseq	r0, r1, r0
     844:	00030007 	andeq	r0, r3, r7
     848:	0e871000 	cdpeq	0, 8, cr1, cr7, cr0, {0}
     84c:	1b060000 	blne	180854 <shift+0x180854>
     850:	0000030b 	andeq	r0, r0, fp, lsl #6
     854:	00042a10 	andeq	r2, r4, r0, lsl sl
     858:	2c1e0600 	ldccs	6, cr0, [lr], {-0}
     85c:	10000000 	andne	r0, r0, r0
     860:	00000e86 	andeq	r0, r0, r6, lsl #29
     864:	030b1f06 	movweq	r1, #48902	; 0xbf06
     868:	bd100000 	ldclt	0, cr0, [r0, #-0]
     86c:	07000009 	streq	r0, [r0, -r9]
     870:	0000a736 	andeq	sl, r0, r6, lsr r7
     874:	003b1000 	eorseq	r1, fp, r0
     878:	36070000 	strcc	r0, [r7], -r0
     87c:	000000a7 	andeq	r0, r0, r7, lsr #1
     880:	034d0406 	movteq	r0, #54278	; 0xd406
     884:	2c120000 	ldccs	0, cr0, [r2], {-0}
     888:	61000000 	mrsvs	r0, (UNDEF: 0)
     88c:	13000003 	movwne	r0, #3
     890:	00000361 	andeq	r0, r0, r1, ror #6
     894:	00036113 	andeq	r6, r3, r3, lsl r1
     898:	04060000 	streq	r0, [r6], #-0
     89c:	00000367 	andeq	r0, r0, r7, ror #6
     8a0:	0c3a0f14 	ldceq	15, cr0, [sl], #-80	; 0xffffffb0
     8a4:	22080000 	andcs	r0, r8, #0
     8a8:	00037402 	andeq	r7, r3, r2, lsl #8
     8ac:	a7040600 	strge	r0, [r4, -r0, lsl #12]
     8b0:	0f000000 	svceq	0x00000000
     8b4:	00000c3c 	andeq	r0, r0, ip, lsr ip
     8b8:	74022408 	strvc	r2, [r2], #-1032	; 0xfffffbf8
     8bc:	10000003 	andne	r0, r0, r3
     8c0:	000009d5 	ldrdeq	r0, [r0], -r5
     8c4:	00a72309 	adceq	r2, r7, r9, lsl #6
     8c8:	af100000 	svcge	0x00100000
     8cc:	09000009 	stmdbeq	r0, {r0, r3}
     8d0:	00002c31 	andeq	r2, r0, r1, lsr ip
     8d4:	03141000 	tsteq	r4, #0
     8d8:	36090000 	strcc	r0, [r9], -r0
     8dc:	0000002c 	andeq	r0, r0, ip, lsr #32
     8e0:	0000b710 	andeq	fp, r0, r0, lsl r7
     8e4:	2c3a0900 			; <UNDEFINED> instruction: 0x2c3a0900
     8e8:	0c000000 	stceq	0, cr0, [r0], {-0}
     8ec:	000000a7 	andeq	r0, r0, r7, lsr #1
     8f0:	000003c2 	andeq	r0, r0, r2, asr #7
     8f4:	0000a00d 	andeq	sl, r0, sp
     8f8:	0f000100 	svceq	0x00000100
     8fc:	00000d84 	andeq	r0, r0, r4, lsl #27
     900:	b2011a0a 	andlt	r1, r1, #40960	; 0xa000
     904:	0f000003 	svceq	0x00000003
     908:	00000f53 	andeq	r0, r0, r3, asr pc
     90c:	2c011b0a 			; <UNDEFINED> instruction: 0x2c011b0a
     910:	0f000000 	svceq	0x00000000
     914:	00000286 	andeq	r0, r0, r6, lsl #5
     918:	8e011c0a 	cdphi	12, 0, cr1, cr1, cr10, {0}
     91c:	0f000000 	svceq	0x00000000
     920:	00000d86 	andeq	r0, r0, r6, lsl #27
     924:	b201210a 	andlt	r2, r1, #-2147483646	; 0x80000002
     928:	0f000003 	svceq	0x00000003
     92c:	00000f55 	andeq	r0, r0, r5, asr pc
     930:	2c01290a 			; <UNDEFINED> instruction: 0x2c01290a
     934:	0f000000 	svceq	0x00000000
     938:	00000288 	andeq	r0, r0, r8, lsl #5
     93c:	8e012a0a 	vmlahi.f32	s4, s2, s20
     940:	0f000000 	svceq	0x00000000
     944:	00000153 	andeq	r0, r0, r3, asr r1
     948:	2c01930a 	stccs	3, cr9, [r1], {10}
     94c:	04000000 	streq	r0, [r0], #-0
     950:	0000029f 	muleq	r0, pc, r2	; <UNPREDICTABLE>
     954:	003e2a0b 	eorseq	r2, lr, fp, lsl #20
     958:	d8040000 	stmdale	r4, {}	; <UNPREDICTABLE>
     95c:	0b000005 	bleq	978 <shift+0x978>
     960:	00042c2f 	andeq	r2, r4, pc, lsr #24
     964:	32040600 	andcc	r0, r4, #0, 12
     968:	12000004 	andne	r0, r0, #4
     96c:	00000416 	andeq	r0, r0, r6, lsl r4
     970:	00000441 	andeq	r0, r0, r1, asr #8
     974:	00036113 	andeq	r6, r3, r3, lsl r1
     978:	0d040000 	stceq	0, cr0, [r4, #-0]
     97c:	0b000009 	bleq	9a8 <shift+0x9a8>
     980:	00034736 	andeq	r4, r3, r6, lsr r7
     984:	06df1000 	ldrbeq	r1, [pc], r0
     988:	bb0b0000 	bllt	2c0990 <shift+0x2c0990>
     98c:	00000421 	andeq	r0, r0, r1, lsr #8
     990:	000dd110 	andeq	sp, sp, r0, lsl r1
     994:	41be0b00 			; <UNDEFINED> instruction: 0x41be0b00
     998:	15000004 	strne	r0, [r0, #-4]
     99c:	0000058d 	andeq	r0, r0, sp, lsl #11
     9a0:	00003e04 	andeq	r3, r0, r4, lsl #28
     9a4:	fb1d0e00 	blx	7441ae <shift+0x7441ae>
     9a8:	16000006 	strne	r0, [r0], -r6
     9ac:	00000060 	andeq	r0, r0, r0, rrx
     9b0:	0cd61600 	ldcleq	6, cr1, [r6], {0}
     9b4:	16010000 	strne	r0, [r1], -r0
     9b8:	00000eda 	ldrdeq	r0, [r0], -sl
     9bc:	007e1602 	rsbseq	r1, lr, r2, lsl #12
     9c0:	16030000 	strne	r0, [r3], -r0
     9c4:	000009a0 	andeq	r0, r0, r0, lsr #19
     9c8:	00341604 	eorseq	r1, r4, r4, lsl #12
     9cc:	16050000 	strne	r0, [r5], -r0
     9d0:	0000016e 	andeq	r0, r0, lr, ror #2
     9d4:	025f1606 	subseq	r1, pc, #6291456	; 0x600000
     9d8:	16070000 	strne	r0, [r7], -r0
     9dc:	00000245 	andeq	r0, r0, r5, asr #4
     9e0:	0d7e1608 	ldcleq	6, cr1, [lr, #-32]!	; 0xffffffe0
     9e4:	16090000 	strne	r0, [r9], -r0
     9e8:	00000a6c 	andeq	r0, r0, ip, ror #20
     9ec:	0d32160a 	ldceq	6, cr1, [r2, #-40]!	; 0xffffffd8
     9f0:	160b0000 	strne	r0, [fp], -r0
     9f4:	000005c3 	andeq	r0, r0, r3, asr #11
     9f8:	0991160c 	ldmibeq	r1, {r2, r3, r9, sl, ip}
     9fc:	160d0000 	strne	r0, [sp], -r0
     a00:	00000690 	muleq	r0, r0, r6
     a04:	08fc160e 	ldmeq	ip!, {r1, r2, r3, r9, sl, ip}^
     a08:	160f0000 	strne	r0, [pc], -r0
     a0c:	00000f67 	andeq	r0, r0, r7, ror #30
     a10:	0e9f1610 	mrceq	6, 4, r1, cr15, cr0, {0}
     a14:	16110000 	ldrne	r0, [r1], -r0
     a18:	000007e4 	andeq	r0, r0, r4, ror #15
     a1c:	05731612 	ldrbeq	r1, [r3, #-1554]!	; 0xfffff9ee
     a20:	16130000 	ldrne	r0, [r3], -r0
     a24:	00000de1 	andeq	r0, r0, r1, ror #27
     a28:	0e4b1614 	mcreq	6, 2, r1, cr11, cr4, {0}
     a2c:	16150000 	ldrne	r0, [r5], -r0
     a30:	0000032f 	andeq	r0, r0, pc, lsr #6
     a34:	0f111616 	svceq	0x00111616
     a38:	16170000 	ldrne	r0, [r7], -r0
     a3c:	00000e20 	andeq	r0, r0, r0, lsr #28
     a40:	023b1618 	eorseq	r1, fp, #24, 12	; 0x1800000
     a44:	16190000 	ldrne	r0, [r9], -r0
     a48:	00000337 	andeq	r0, r0, r7, lsr r3
     a4c:	05b5161a 	ldreq	r1, [r5, #1562]!	; 0x61a
     a50:	161b0000 	ldrne	r0, [fp], -r0
     a54:	0000066b 	andeq	r0, r0, fp, ror #12
     a58:	0c20161c 	stceq	6, cr1, [r0], #-112	; 0xffffff90
     a5c:	161d0000 	ldrne	r0, [sp], -r0
     a60:	000001bd 			; <UNDEFINED> instruction: 0x000001bd
     a64:	0f28161e 	svceq	0x0028161e
     a68:	161f0000 	ldrne	r0, [pc], -r0
     a6c:	0000020d 	andeq	r0, r0, sp, lsl #4
     a70:	00001620 	andeq	r1, r0, r0, lsr #12
     a74:	16210000 	strtne	r0, [r1], -r0
     a78:	0000055e 	andeq	r0, r0, lr, asr r5
     a7c:	02b71622 	adcseq	r1, r7, #35651584	; 0x2200000
     a80:	16230000 	strtne	r0, [r3], -r0
     a84:	000000be 	strheq	r0, [r0], -lr
     a88:	03741624 	cmneq	r4, #36, 12	; 0x2400000
     a8c:	16250000 	strtne	r0, [r5], -r0
     a90:	000004dc 	ldrdeq	r0, [r0], -ip
     a94:	08f41626 	ldmeq	r4!, {r1, r2, r5, r9, sl, ip}^
     a98:	16270000 	strtne	r0, [r7], -r0
     a9c:	00000bd1 	ldrdeq	r0, [r0], -r1
     aa0:	04ce1628 	strbeq	r1, [lr], #1576	; 0x628
     aa4:	16290000 	strtne	r0, [r9], -r0
     aa8:	00000ed3 	ldrdeq	r0, [r0], -r3
     aac:	0db6162a 	ldceq	6, cr1, [r6, #168]!	; 0xa8
     ab0:	162b0000 	strtne	r0, [fp], -r0
     ab4:	00000f99 	muleq	r0, r9, pc	; <UNPREDICTABLE>
     ab8:	017c162c 	cmneq	ip, ip, lsr #12
     abc:	162d0000 	strtne	r0, [sp], -r0
     ac0:	0000091c 	andeq	r0, r0, ip, lsl r9
     ac4:	0c44162e 	mcrreq	6, 2, r1, r4, cr14
     ac8:	162f0000 	strtne	r0, [pc], -r0
     acc:	000007ec 	andeq	r0, r0, ip, ror #15
     ad0:	01751630 	cmneq	r5, r0, lsr r6
     ad4:	16310000 	ldrtne	r0, [r1], -r0
     ad8:	00000f5e 	andeq	r0, r0, lr, asr pc
     adc:	01b41632 			; <UNDEFINED> instruction: 0x01b41632
     ae0:	16330000 	ldrtne	r0, [r3], -r0
     ae4:	00000a49 	andeq	r0, r0, r9, asr #20
     ae8:	00111634 	andseq	r1, r1, r4, lsr r6
     aec:	16350000 	ldrtne	r0, [r5], -r0
     af0:	000003fe 	strdeq	r0, [r0], -lr
     af4:	01291636 			; <UNDEFINED> instruction: 0x01291636
     af8:	16370000 	ldrtne	r0, [r7], -r0
     afc:	00000327 	andeq	r0, r0, r7, lsr #6
     b00:	014c1638 	cmpeq	ip, r8, lsr r6
     b04:	16390000 	ldrtne	r0, [r9], -r0
     b08:	00000df8 	strdeq	r0, [r0], -r8
     b0c:	0686163a 			; <UNDEFINED> instruction: 0x0686163a
     b10:	163b0000 	ldrtne	r0, [fp], -r0
     b14:	00000cf3 	strdeq	r0, [r0], -r3
     b18:	0903163c 	stmdbeq	r3, {r2, r3, r4, r5, r9, sl, ip}
     b1c:	163d0000 	ldrtne	r0, [sp], -r0
     b20:	00000d13 	andeq	r0, r0, r3, lsl sp
     b24:	0c06163e 	stceq	6, cr1, [r6], {62}	; 0x3e
     b28:	163f0000 	ldrtne	r0, [pc], -r0
     b2c:	00000524 	andeq	r0, r0, r4, lsr #10
     b30:	03681640 	cmneq	r8, #64, 12	; 0x4000000
     b34:	16410000 	strbne	r0, [r1], -r0
     b38:	00000be0 	andeq	r0, r0, r0, ror #23
     b3c:	0aa41642 	beq	fe90644c <__bss_end+0x7c90346c>
     b40:	16430000 	strbne	r0, [r3], -r0
     b44:	0000041e 	andeq	r0, r0, lr, lsl r4
     b48:	0f081644 	svceq	0x00081644
     b4c:	16450000 	strbne	r0, [r5], -r0
     b50:	00000eff 	strdeq	r0, [r0], -pc	; <UNPREDICTABLE>
     b54:	02171646 	andseq	r1, r7, #73400320	; 0x4600000
     b58:	16470000 	strbne	r0, [r7], -r0
     b5c:	0000093a 	andeq	r0, r0, sl, lsr r9
     b60:	09ed1648 	stmibeq	sp!, {r3, r6, r9, sl, ip}^
     b64:	16490000 	strbne	r0, [r9], -r0
     b68:	000001d2 	ldrdeq	r0, [r0], -r2
     b6c:	0e5a164a 	cdpeq	6, 5, cr1, cr10, cr10, {2}
     b70:	164b0000 	strbne	r0, [fp], -r0
     b74:	0000026b 	andeq	r0, r0, fp, ror #4
     b78:	0120164c 			; <UNDEFINED> instruction: 0x0120164c
     b7c:	164d0000 	strbne	r0, [sp], -r0
     b80:	00000274 	andeq	r0, r0, r4, ror r2
     b84:	027d164e 	rsbseq	r1, sp, #81788928	; 0x4e00000
     b88:	164f0000 	strbne	r0, [pc], -r0
     b8c:	00000474 	andeq	r0, r0, r4, ror r4
     b90:	048e1650 	streq	r1, [lr], #1616	; 0x650
     b94:	16510000 	ldrbne	r0, [r1], -r0
     b98:	000004ab 	andeq	r0, r0, fp, lsr #9
     b9c:	03d11652 	bicseq	r1, r1, #85983232	; 0x5200000
     ba0:	16530000 	ldrbne	r0, [r3], -r0
     ba4:	0000044b 	andeq	r0, r0, fp, asr #8
     ba8:	03da1654 	bicseq	r1, sl, #84, 12	; 0x5400000
     bac:	16550000 	ldrbne	r0, [r5], -r0
     bb0:	000003e3 	andeq	r0, r0, r3, ror #7
     bb4:	03ec1656 	mvneq	r1, #90177536	; 0x5600000
     bb8:	16570000 	ldrbne	r0, [r7], -r0
     bbc:	00000f31 	andeq	r0, r0, r1, lsr pc
     bc0:	0f1f1658 	svceq	0x001f1658
     bc4:	16590000 	ldrbne	r0, [r9], -r0
     bc8:	00000f16 	andeq	r0, r0, r6, lsl pc
     bcc:	0c62165a 	stcleq	6, cr1, [r2], #-360	; 0xfffffe98
     bd0:	165b0000 	ldrbne	r0, [fp], -r0
     bd4:	00000117 	andeq	r0, r0, r7, lsl r1
     bd8:	0a5a165c 	beq	1686550 <shift+0x1686550>
     bdc:	165d0000 	ldrbne	r0, [sp], -r0
     be0:	000005fd 	strdeq	r0, [r0], -sp
     be4:	02ed165e 	rsceq	r1, sp, #98566144	; 0x5e00000
     be8:	165f0000 	ldrbne	r0, [pc], -r0
     bec:	0000018b 	andeq	r0, r0, fp, lsl #3
     bf0:	097a1660 	ldmdbeq	sl!, {r5, r6, r9, sl, ip}^
     bf4:	16610000 	strbtne	r0, [r1], -r0
     bf8:	00000c26 	andeq	r0, r0, r6, lsr #24
     bfc:	0c301662 	ldceq	6, cr1, [r0], #-392	; 0xfffffe78
     c00:	16630000 	strbtne	r0, [r3], -r0
     c04:	00000d38 	andeq	r0, r0, r8, lsr sp
     c08:	0f6f1664 	svceq	0x006f1664
     c0c:	16650000 	strbtne	r0, [r5], -r0
     c10:	00000ce3 	andeq	r0, r0, r3, ror #25
     c14:	0a2d1666 	beq	b465b4 <shift+0xb465b4>
     c18:	16670000 	strbtne	r0, [r7], -r0
     c1c:	00000182 	andeq	r0, r0, r2, lsl #3
     c20:	02e41668 	rsceq	r1, r4, #104, 12	; 0x6800000
     c24:	16690000 	strbtne	r0, [r9], -r0
     c28:	00000498 	muleq	r0, r8, r4
     c2c:	0f4a166a 	svceq	0x004a166a
     c30:	006b0000 	rsbeq	r0, fp, r0
     c34:	0001c30f 	andeq	ip, r1, pc, lsl #6
     c38:	013e0c00 	teqeq	lr, r0, lsl #24
     c3c:	0000030b 	andeq	r0, r0, fp, lsl #6
     c40:	00047e0f 	andeq	r7, r4, pc, lsl #28
     c44:	01610c00 	cmneq	r1, r0, lsl #24
     c48:	0000030b 	andeq	r0, r0, fp, lsl #6
     c4c:	0000ad0c 	andeq	sl, r0, ip, lsl #26
     c50:	00071e00 	andeq	r1, r7, r0, lsl #28
     c54:	10001100 	andne	r1, r0, r0, lsl #2
     c58:	000005ef 	andeq	r0, r0, pc, ror #11
     c5c:	07132d0d 	ldreq	r2, [r3, -sp, lsl #26]
     c60:	55100000 	ldrpl	r0, [r0, #-0]
     c64:	0d00000d 	stceq	0, cr0, [r0, #-52]	; 0xffffffcc
     c68:	0004623e 	andeq	r6, r4, lr, lsr r2
     c6c:	037d1500 	cmneq	sp, #0, 10
     c70:	3e040000 	cdpcc	0, 0, cr0, cr4, cr0, {0}
     c74:	0d000000 	stceq	0, cr0, [r0, #-0]
     c78:	0007a540 	andeq	sl, r7, r0, asr #10
     c7c:	00221600 	eoreq	r1, r2, r0, lsl #12
     c80:	16000000 	strne	r0, [r0], -r0
     c84:	00000999 	muleq	r0, r9, r9
     c88:	0e271601 	cfmadda32eq	mvax0, mvax1, mvfx7, mvfx1
     c8c:	16020000 	strne	r0, [r2], -r0
     c90:	00000e00 	andeq	r0, r0, r0, lsl #28
     c94:	08171603 	ldmdaeq	r7, {r0, r1, r9, sl, ip}
     c98:	16040000 	strne	r0, [r4], -r0
     c9c:	00000c5b 	andeq	r0, r0, fp, asr ip
     ca0:	02241605 	eoreq	r1, r4, #5242880	; 0x500000
     ca4:	16060000 	strne	r0, [r6], -r0
     ca8:	000001f6 	strdeq	r0, [r0], -r6
     cac:	09b61607 	ldmibeq	r6!, {r0, r1, r2, r9, sl, ip}
     cb0:	16080000 	strne	r0, [r8], -r0
     cb4:	0000064e 	andeq	r0, r0, lr, asr #12
     cb8:	022b1609 	eoreq	r1, fp, #9437184	; 0x900000
     cbc:	160a0000 	strne	r0, [sl], -r0
     cc0:	00000655 	andeq	r0, r0, r5, asr r6
     cc4:	0258160b 	subseq	r1, r8, #11534336	; 0xb00000
     cc8:	160c0000 	strne	r0, [ip], -r0
     ccc:	00000620 	andeq	r0, r0, r0, lsr #12
     cd0:	0ca1160d 	stceq	6, cr1, [r1], #52	; 0x34
     cd4:	160e0000 	strne	r0, [lr], -r0
     cd8:	000009dc 	ldrdeq	r0, [r0], -ip
     cdc:	d904000f 	stmdble	r4, {r0, r1, r2, r3}
     ce0:	0d00000b 	stceq	0, cr0, [r0, #-44]	; 0xffffffd4
     ce4:	00073445 	andeq	r3, r7, r5, asr #8
     ce8:	0c111000 	ldceq	0, cr1, [r1], {-0}
     cec:	470d0000 	strmi	r0, [sp, -r0]
     cf0:	000007a5 	andeq	r0, r0, r5, lsr #15
     cf4:	000cb510 	andeq	fp, ip, r0, lsl r5
     cf8:	2c500d00 	mrrccs	13, 0, r0, r0, cr0	; <UNPREDICTABLE>
     cfc:	10000000 	andne	r0, r0, r0
     d00:	000001a4 	andeq	r0, r0, r4, lsr #3
     d04:	002c510d 	eoreq	r5, ip, sp, lsl #2
     d08:	1e0e0000 	cdpne	0, 0, cr0, cr14, cr0, {0}
     d0c:	1000000d 	andne	r0, r0, sp
     d10:	00000cc6 	andeq	r0, r0, r6, asr #25
     d14:	07e1520d 	strbeq	r5, [r1, sp, lsl #4]!
     d18:	04060000 	streq	r0, [r6], #-0
     d1c:	000007d1 	ldrdeq	r0, [r0], -r1
     d20:	05371017 	ldreq	r1, [r7, #-23]!	; 0xffffffe9
     d24:	540d0000 	strpl	r0, [sp], #-0
     d28:	000007f3 	strdeq	r0, [r0], -r3
     d2c:	07e70406 	strbeq	r0, [r7, r6, lsl #8]!
     d30:	bd180000 	ldclt	0, cr0, [r8, #-0]
     d34:	0d000003 	stceq	0, cr0, [r0, #-12]
     d38:	00630150 	rsbeq	r0, r3, r0, asr r1
     d3c:	95190000 	ldrls	r0, [r9, #-0]
     d40:	04000000 	streq	r0, [r0], #-0
     d44:	0000003e 	andeq	r0, r0, lr, lsr r0
     d48:	23015c0d 	movwcs	r5, #7181	; 0x1c0d
     d4c:	16000008 	strne	r0, [r0], -r8
     d50:	00000802 	andeq	r0, r0, r2, lsl #16
     d54:	0dc01600 	stcleq	6, cr1, [r0]
     d58:	00010000 	andeq	r0, r1, r0
     d5c:	00013f19 	andeq	r3, r1, r9, lsl pc
     d60:	003e0400 	eorseq	r0, lr, r0, lsl #8
     d64:	630d0000 	movwvs	r0, #53248	; 0xd000
     d68:	00084d01 	andeq	r4, r8, r1, lsl #26
     d6c:	04061600 	streq	r1, [r6], #-1536	; 0xfffffa00
     d70:	16000000 	strne	r0, [r0], -r0
     d74:	00000d49 	andeq	r0, r0, r9, asr #26
     d78:	0eb71601 	cdpeq	6, 11, cr1, cr7, cr1, {0}
     d7c:	16020000 	strne	r0, [r2], -r0
     d80:	00000e2e 	andeq	r0, r0, lr, lsr #28
     d84:	d71a0003 	ldrle	r0, [sl, -r3]
     d88:	14000002 	strne	r0, [r0], #-2
     d8c:	9c016b0d 			; <UNDEFINED> instruction: 0x9c016b0d
     d90:	0a000008 	beq	db8 <shift+0xdb8>
     d94:	000005f8 	strdeq	r0, [r0], -r8
     d98:	c9016d0d 	stmdbgt	r1, {r0, r2, r3, r8, sl, fp, sp, lr}
     d9c:	00000002 	andeq	r0, r0, r2
     da0:	00009c0a 	andeq	r9, r0, sl, lsl #24
     da4:	016e0d00 	cmneq	lr, r0, lsl #26
     da8:	00000805 	andeq	r0, r0, r5, lsl #16
     dac:	65721b04 	ldrbvs	r1, [r2, #-2820]!	; 0xfffff4fc
     db0:	6f0d0076 	svcvs	0x000d0076
     db4:	00002c01 	andeq	r2, r0, r1, lsl #24
     db8:	660a0800 	strvs	r0, [sl], -r0, lsl #16
     dbc:	0d000002 	stceq	0, cr0, [r0, #-8]
     dc0:	08230170 	stmdaeq	r3!, {r4, r5, r6, r8}
     dc4:	0a0c0000 	beq	300dcc <shift+0x300dcc>
     dc8:	000009a6 	andeq	r0, r0, r6, lsr #19
     dcc:	f901710d 			; <UNDEFINED> instruction: 0xf901710d
     dd0:	10000007 	andne	r0, r0, r7
     dd4:	084d0700 	stmdaeq	sp, {r8, r9, sl}^
     dd8:	9c0c0000 	stcls	0, cr0, [ip], {-0}
     ddc:	ac000008 	stcge	0, cr0, [r0], {8}
     de0:	11000008 	tstne	r0, r8
     de4:	08a10700 	stmiaeq	r1!, {r8, r9, sl}
     de8:	fe0f0000 	cdp2	0, 0, cr0, cr15, cr0, {0}
     dec:	0d000002 	stceq	0, cr0, [r0, #-8]
     df0:	08ac0172 	stmiaeq	ip!, {r1, r4, r5, r6, r8}
     df4:	b40f0000 	strlt	r0, [pc], #-0	; dfc <shift+0xdfc>
     df8:	0d000006 	stceq	0, cr0, [r0, #-24]	; 0xffffffe8
     dfc:	002c017d 	eoreq	r0, ip, sp, ror r1
     e00:	e7190000 	ldr	r0, [r9, -r0]
     e04:	0400000b 	streq	r0, [r0], #-11
     e08:	0000003e 	andeq	r0, r0, lr, lsr r0
     e0c:	77018a0d 	strvc	r8, [r1, -sp, lsl #20]
     e10:	16000009 	strne	r0, [r0], -r9
     e14:	000000c3 	andeq	r0, r0, r3, asr #1
     e18:	00cf1600 	sbceq	r1, pc, r0, lsl #12
     e1c:	16020000 	strne	r0, [r2], -r0
     e20:	000000db 	ldrdeq	r0, [r0], -fp
     e24:	03441603 	movteq	r1, #17923	; 0x4603
     e28:	16030000 	strne	r0, [r3], -r0
     e2c:	000000e7 	andeq	r0, r0, r7, ror #1
     e30:	04e31604 	strbteq	r1, [r3], #1540	; 0x604
     e34:	16040000 	strne	r0, [r4], -r0
     e38:	000000f3 	strdeq	r0, [r0], -r3
     e3c:	05661605 	strbeq	r1, [r6, #-1541]!	; 0xfffff9fb
     e40:	16050000 	strne	r0, [r5], -r0
     e44:	000007d7 	ldrdeq	r0, [r0], -r7
     e48:	050b1605 	streq	r1, [fp, #-1541]	; 0xfffff9fb
     e4c:	16050000 	strne	r0, [r5], -r0
     e50:	00000195 	muleq	r0, r5, r1
     e54:	00ff1605 	rscseq	r1, pc, r5, lsl #12
     e58:	16060000 	strne	r0, [r6], -r0
     e5c:	00000627 	andeq	r0, r0, r7, lsr #12
     e60:	02a91606 	adceq	r1, r9, #6291456	; 0x600000
     e64:	16060000 	strne	r0, [r6], -r0
     e68:	00000634 	andeq	r0, r0, r4, lsr r6
     e6c:	0c6e1606 	stcleq	6, cr1, [lr], #-24	; 0xffffffe8
     e70:	16060000 	strne	r0, [r6], -r0
     e74:	00000641 	andeq	r0, r0, r1, asr #12
     e78:	06791606 	ldrbteq	r1, [r9], -r6, lsl #12
     e7c:	16060000 	strne	r0, [r6], -r0
     e80:	0000010b 	andeq	r0, r0, fp, lsl #2
     e84:	07f51607 	ldrbeq	r1, [r5, r7, lsl #12]!
     e88:	16070000 	strne	r0, [r7], -r0
     e8c:	000008d8 	ldrdeq	r0, [r0], -r8
     e90:	0ca81607 	stceq	6, cr1, [r8], #28
     e94:	16070000 	strne	r0, [r7], -r0
     e98:	00000291 	muleq	r0, r1, r2
     e9c:	09841607 	stmibeq	r4, {r0, r1, r2, r9, sl, ip}
     ea0:	16080000 	strne	r0, [r8], -r0
     ea4:	00000083 	andeq	r0, r0, r3, lsl #1
     ea8:	0c7c1608 	ldcleq	6, cr1, [ip], #-32	; 0xffffffe0
     eac:	00080000 	andeq	r0, r8, r0
     eb0:	000e650f 	andeq	r6, lr, pc, lsl #10
     eb4:	01a90d00 			; <UNDEFINED> instruction: 0x01a90d00
     eb8:	000008c9 	andeq	r0, r0, r9, asr #17
     ebc:	0004c30f 	andeq	ip, r4, pc, lsl #6
     ec0:	01ac0d00 			; <UNDEFINED> instruction: 0x01ac0d00
     ec4:	0000002c 	andeq	r0, r0, ip, lsr #32
     ec8:	0009e30f 	andeq	lr, r9, pc, lsl #6
     ecc:	01af0d00 			; <UNDEFINED> instruction: 0x01af0d00
     ed0:	0000002c 	andeq	r0, r0, ip, lsr #32
     ed4:	0005aa0f 	andeq	sl, r5, pc, lsl #20
     ed8:	01b20d00 			; <UNDEFINED> instruction: 0x01b20d00
     edc:	0000002c 	andeq	r0, r0, ip, lsr #32
     ee0:	000a500f 	andeq	r5, sl, pc
     ee4:	01b50d00 			; <UNDEFINED> instruction: 0x01b50d00
     ee8:	0000002c 	andeq	r0, r0, ip, lsr #32
     eec:	0006150f 	andeq	r1, r6, pc, lsl #10
     ef0:	01b80d00 			; <UNDEFINED> instruction: 0x01b80d00
     ef4:	0000002c 	andeq	r0, r0, ip, lsr #32
     ef8:	000a030f 	andeq	r0, sl, pc, lsl #6
     efc:	01bb0d00 			; <UNDEFINED> instruction: 0x01bb0d00
     f00:	0000002c 	andeq	r0, r0, ip, lsr #32
     f04:	00081e0f 	andeq	r1, r8, pc, lsl #28
     f08:	01be0d00 			; <UNDEFINED> instruction: 0x01be0d00
     f0c:	0000002c 	andeq	r0, r0, ip, lsr #32
     f10:	0008290f 	andeq	r2, r8, pc, lsl #18
     f14:	01c10d00 	biceq	r0, r1, r0, lsl #26
     f18:	0000002c 	andeq	r0, r0, ip, lsr #32
     f1c:	000a0d0f 	andeq	r0, sl, pc, lsl #26
     f20:	01c40d00 	biceq	r0, r4, r0, lsl #26
     f24:	0000002c 	andeq	r0, r0, ip, lsr #32
     f28:	0006070f 	andeq	r0, r6, pc, lsl #14
     f2c:	01c70d00 	biceq	r0, r7, r0, lsl #26
     f30:	0000002c 	andeq	r0, r0, ip, lsr #32
     f34:	000e930f 	andeq	r9, lr, pc, lsl #6
     f38:	01ca0d00 	biceq	r0, sl, r0, lsl #26
     f3c:	0000002c 	andeq	r0, r0, ip, lsr #32
     f40:	000a170f 	andeq	r1, sl, pc, lsl #14
     f44:	01cd0d00 	biceq	r0, sp, r0, lsl #26
     f48:	0000002c 	andeq	r0, r0, ip, lsr #32
     f4c:	000f8d0f 	andeq	r8, pc, pc, lsl #26
     f50:	01d00d00 	bicseq	r0, r0, r0, lsl #26
     f54:	0000002c 	andeq	r0, r0, ip, lsr #32
     f58:	000e070f 	andeq	r0, lr, pc, lsl #14
     f5c:	01d30d00 	bicseq	r0, r3, r0, lsl #26
     f60:	0000002c 	andeq	r0, r0, ip, lsr #32
     f64:	000e3d0f 	andeq	r3, lr, pc, lsl #26
     f68:	01d70d00 	bicseq	r0, r7, r0, lsl #26
     f6c:	0000002c 	andeq	r0, r0, ip, lsr #32
     f70:	000e130f 	andeq	r1, lr, pc, lsl #6
     f74:	01da0d00 	bicseq	r0, sl, r0, lsl #26
     f78:	0000002c 	andeq	r0, r0, ip, lsr #32
     f7c:	0002320f 	andeq	r3, r2, pc, lsl #4
     f80:	01dd0d00 	bicseq	r0, sp, r0, lsl #26
     f84:	0000002c 	andeq	r0, r0, ip, lsr #32
     f88:	0000080f 	andeq	r0, r0, pc, lsl #16
     f8c:	01e00d00 	mvneq	r0, r0, lsl #26
     f90:	0000002c 	andeq	r0, r0, ip, lsr #32
     f94:	0003f50f 	andeq	pc, r3, pc, lsl #10
     f98:	01e30d00 	mvneq	r0, r0, lsl #26
     f9c:	0000002c 	andeq	r0, r0, ip, lsr #32
     fa0:	0001fd0f 	andeq	pc, r1, pc, lsl #26
     fa4:	01e60d00 	mvneq	r0, r0, lsl #26
     fa8:	0000002c 	andeq	r0, r0, ip, lsr #32
     fac:	000a400f 	andeq	r4, sl, pc
     fb0:	01e90d00 	mvneq	r0, r0, lsl #26
     fb4:	0000002c 	andeq	r0, r0, ip, lsr #32
     fb8:	0005ca0f 	andeq	ip, r5, pc, lsl #20
     fbc:	01ec0d00 	mvneq	r0, r0, lsl #26
     fc0:	0000002c 	andeq	r0, r0, ip, lsr #32
     fc4:	000c8e0f 	andeq	r8, ip, pc, lsl #28
     fc8:	01ef0d00 	mvneq	r0, r0, lsl #26
     fcc:	0000002c 	andeq	r0, r0, ip, lsr #32
     fd0:	000d5e0f 	andeq	r5, sp, pc, lsl #28
     fd4:	01f60d00 	mvnseq	r0, r0, lsl #26
     fd8:	0000002c 	andeq	r0, r0, ip, lsr #32
     fdc:	000edf0f 	andeq	sp, lr, pc, lsl #30
     fe0:	01f90d00 	mvnseq	r0, r0, lsl #26
     fe4:	0000002c 	andeq	r0, r0, ip, lsr #32
     fe8:	000eef0f 	andeq	lr, lr, pc, lsl #30
     fec:	01fc0d00 	mvnseq	r0, r0, lsl #26
     ff0:	0000002c 	andeq	r0, r0, ip, lsr #32
     ff4:	0002bf0f 	andeq	fp, r2, pc, lsl #30
     ff8:	01ff0d00 	mvnseq	r0, r0, lsl #26
     ffc:	0000002c 	andeq	r0, r0, ip, lsr #32
    1000:	000d930f 	andeq	r9, sp, pc, lsl #6
    1004:	02020d00 	andeq	r0, r2, #0, 26
    1008:	0000002c 	andeq	r0, r0, ip, lsr #32
    100c:	0009620f 	andeq	r6, r9, pc, lsl #4
    1010:	02050d00 	andeq	r0, r5, #0, 26
    1014:	0000002c 	andeq	r0, r0, ip, lsr #32
    1018:	0004340f 	andeq	r3, r4, pc, lsl #8
    101c:	02090d00 	andeq	r0, r9, #0, 26
    1020:	0000002c 	andeq	r0, r0, ip, lsr #32
    1024:	000bf90f 	andeq	pc, fp, pc, lsl #18
    1028:	02110d00 	andseq	r0, r1, #0, 26
    102c:	0000002c 	andeq	r0, r0, ip, lsr #32
    1030:	00002c0c 	andeq	r2, r0, ip, lsl #24
    1034:	000b0200 	andeq	r0, fp, r0, lsl #4
    1038:	0f001100 	svceq	0x00001100
    103c:	000004f6 	strdeq	r0, [r0], -r6
    1040:	f7041c0d 			; <UNDEFINED> instruction: 0xf7041c0d
    1044:	0c00000a 	stceq	0, cr0, [r0], {10}
    1048:	000007e1 	andeq	r0, r0, r1, ror #15
    104c:	00000b1e 	andeq	r0, r0, lr, lsl fp
    1050:	0000a00d 	andeq	sl, r0, sp
    1054:	0f000d00 	svceq	0x00000d00
    1058:	00000a8f 	andeq	r0, r0, pc, lsl #21
    105c:	0e05b90d 	vmlaeq.f16	s22, s10, s26	; <UNPREDICTABLE>
    1060:	1900000b 	stmdbne	r0, {r0, r1, r3}
    1064:	0000059c 	muleq	r0, ip, r5
    1068:	00003e04 	andeq	r3, r0, r4, lsl #28
    106c:	05c00d00 	strbeq	r0, [r0, #3328]	; 0xd00
    1070:	00000b66 	andeq	r0, r0, r6, ror #22
    1074:	00038b16 	andeq	r8, r3, r6, lsl fp
    1078:	50160000 	andspl	r0, r6, r0
    107c:	01000009 	tsteq	r0, r9
    1080:	0000a216 	andeq	sl, r0, r6, lsl r2
    1084:	a9160200 	ldmdbge	r6, {r9}
    1088:	03000003 	movweq	r0, #3
    108c:	000baa16 	andeq	sl, fp, r6, lsl sl
    1090:	9d160400 	cfldrsls	mvf0, [r6, #-0]
    1094:	0500000b 	streq	r0, [r0, #-11]
    1098:	000ec316 	andeq	ip, lr, r6, lsl r3
    109c:	0f000600 	svceq	0x00000600
    10a0:	00000ea7 	andeq	r0, r0, r7, lsr #29
    10a4:	2a05cd0d 	bcs	1744e0 <shift+0x1744e0>
    10a8:	0f00000b 	svceq	0x0000000b
    10ac:	00000de7 	andeq	r0, r0, r7, ror #27
    10b0:	3e07d70d 	cdpcc	7, 0, cr13, cr7, cr13, {0}
    10b4:	0f000000 	svceq	0x00000000
    10b8:	00000a7c 	andeq	r0, r0, ip, ror sl
    10bc:	2c07ec0d 	stccs	12, cr14, [r7], {13}
    10c0:	04000000 	streq	r0, [r0], #-0
    10c4:	00000d41 	andeq	r0, r0, r1, asr #26
    10c8:	00557b0f 	subseq	r7, r5, pc, lsl #22
    10cc:	8a070000 	bhi	1c10d4 <shift+0x1c10d4>
    10d0:	0400000b 	streq	r0, [r0], #-11
    10d4:	0000015f 	andeq	r0, r0, pc, asr r1
    10d8:	003e810f 	eorseq	r8, lr, pc, lsl #2
    10dc:	3a040000 	bcc	1010e4 <shift+0x1010e4>
    10e0:	0f00000f 	svceq	0x0000000f
    10e4:	00002585 	andeq	r2, r0, r5, lsl #11
    10e8:	04040200 	streq	r0, [r4], #-512	; 0xfffffe00
    10ec:	00000252 	andeq	r0, r0, r2, asr r2
    10f0:	4a030802 	bmi	c3100 <shift+0xc3100>
    10f4:	02000002 	andeq	r0, r0, #2
    10f8:	0a260408 	beq	982120 <shift+0x982120>
    10fc:	10020000 	andne	r0, r2, r0
    1100:	000bc203 	andeq	ip, fp, r3, lsl #4
    1104:	0b950c00 	bleq	fe54410c <__bss_end+0x7c54112c>
    1108:	0bdc0000 	bleq	ff701110 <__bss_end+0x7d6fe130>
    110c:	a00d0000 	andge	r0, sp, r0
    1110:	ff000000 			; <UNDEFINED> instruction: 0xff000000
    1114:	0bcc0700 	bleq	ff302d1c <__bss_end+0x7d2ffd3c>
    1118:	e50f0000 	str	r0, [pc, #-0]	; 1120 <shift+0x1120>
    111c:	0f000008 	svceq	0x00000008
    1120:	0bdc01f9 	bleq	ff70190c <__bss_end+0x7d6fe92c>
    1124:	ec0f0000 	stc	0, cr0, [pc], {-0}
    1128:	0f000001 	svceq	0x00000001
    112c:	0bdc01ff 	bleq	ff701930 <__bss_end+0x7d6fe950>
    1130:	711c0000 	tstvc	ip, r0
    1134:	01000000 	mrseq	r0, (UNDEF: 0)
    1138:	0ba503b0 	bleq	fe942000 <__bss_end+0x7c93f020>
    113c:	20740000 	rsbscs	r0, r4, r0
    1140:	01168200 	tsteq	r6, r0, lsl #4
    1144:	9c010000 	stcls	0, cr0, [r1], {-0}
    1148:	00000ca5 	andeq	r0, r0, r5, lsr #25
    114c:	01006e1d 	tsteq	r0, sp, lsl lr
    1150:	0ba503b0 	bleq	fe942018 <__bss_end+0x7c93f038>
    1154:	00000000 	andeq	r0, r0, r0
    1158:	641d0000 	ldrvs	r0, [sp], #-0
    115c:	03b00100 	movseq	r0, #0, 2
    1160:	00000ba5 	andeq	r0, r0, r5, lsr #23
    1164:	00000028 	andeq	r0, r0, r8, lsr #32
    1168:	0070721d 	rsbseq	r7, r0, sp, lsl r2
    116c:	a503b001 	strge	fp, [r3, #-1]
    1170:	6000000c 	andvs	r0, r0, ip
    1174:	1e000000 	cdpne	0, 0, cr0, cr0, cr0, {0}
    1178:	b2010071 	andlt	r0, r1, #113	; 0x71
    117c:	000ba503 	andeq	sl, fp, r3, lsl #10
    1180:	00008000 	andeq	r8, r0, r0
    1184:	00721e00 	rsbseq	r1, r2, r0, lsl #28
    1188:	a503b201 	strge	fp, [r3, #-513]	; 0xfffffdff
    118c:	e000000b 	and	r0, r0, fp
    1190:	1e000000 	cdpne	0, 0, cr0, cr0, cr0, {0}
    1194:	b2010079 	andlt	r0, r1, #121	; 0x79
    1198:	000ba503 	andeq	sl, fp, r3, lsl #10
    119c:	00013800 	andeq	r3, r1, r0, lsl #16
    11a0:	7a6c1e00 	bvc	1b089a8 <shift+0x1b089a8>
    11a4:	b3010031 	movwlt	r0, #4145	; 0x1031
    11a8:	000b9a03 	andeq	r9, fp, r3, lsl #20
    11ac:	00017000 	andeq	r7, r1, r0
    11b0:	7a6c1e00 	bvc	1b089b8 <shift+0x1b089b8>
    11b4:	b3010032 	movwlt	r0, #4146	; 0x1032
    11b8:	000b9a03 	andeq	r9, fp, r3, lsl #20
    11bc:	00018300 	andeq	r8, r1, r0, lsl #6
    11c0:	00691e00 	rsbeq	r1, r9, r0, lsl #28
    11c4:	9a03b301 	bls	eddd0 <shift+0xeddd0>
    11c8:	9600000b 	strls	r0, [r0], -fp
    11cc:	1e000001 	cdpne	0, 0, cr0, cr0, cr1, {0}
    11d0:	b301006b 	movwlt	r0, #4203	; 0x106b
    11d4:	000b9a03 	andeq	r9, fp, r3, lsl #20
    11d8:	0001e400 	andeq	lr, r1, r0, lsl #8
    11dc:	04060000 	streq	r0, [r6], #-0
    11e0:	00000ba5 	andeq	r0, r0, r5, lsr #23
	...

Disassembly of section .debug_abbrev:

00000000 <.debug_abbrev>:
   0:	10001101 	andne	r1, r0, r1, lsl #2
   4:	12011106 	andne	r1, r1, #-2147483647	; 0x80000001
   8:	1b080301 	blne	200c14 <shift+0x200c14>
   c:	13082508 	movwne	r2, #34056	; 0x8508
  10:	00000005 	andeq	r0, r0, r5
  14:	10001101 	andne	r1, r0, r1, lsl #2
  18:	12011106 	andne	r1, r1, #-2147483647	; 0x80000001
  1c:	1b080301 	blne	200c28 <shift+0x200c28>
  20:	13082508 	movwne	r2, #34056	; 0x8508
  24:	00000005 	andeq	r0, r0, r5
  28:	10001101 	andne	r1, r0, r1, lsl #2
  2c:	12011106 	andne	r1, r1, #-2147483647	; 0x80000001
  30:	1b080301 	blne	200c3c <shift+0x200c3c>
  34:	13082508 	movwne	r2, #34056	; 0x8508
  38:	00000005 	andeq	r0, r0, r5
  3c:	25011101 	strcs	r1, [r1, #-257]	; 0xfffffeff
  40:	030b130e 	movweq	r1, #45838	; 0xb30e
  44:	110e1b0e 	tstne	lr, lr, lsl #22
  48:	10061201 	andne	r1, r6, r1, lsl #4
  4c:	02000017 	andeq	r0, r0, #23
  50:	0b0b0024 	bleq	2c00e8 <shift+0x2c00e8>
  54:	0e030b3e 	vmoveq.16	d3[0], r0
  58:	24030000 	strcs	r0, [r3], #-0
  5c:	3e0b0b00 	vmlacc.f64	d0, d11, d0
  60:	0008030b 	andeq	r0, r8, fp, lsl #6
  64:	00160400 	andseq	r0, r6, r0, lsl #8
  68:	0b3a0e03 	bleq	e8387c <shift+0xe8387c>
  6c:	13490b3b 	movtne	r0, #39739	; 0x9b3b
  70:	0f050000 	svceq	0x00050000
  74:	000b0b00 	andeq	r0, fp, r0, lsl #22
  78:	000f0600 	andeq	r0, pc, r0, lsl #12
  7c:	13490b0b 	movtne	r0, #39691	; 0x9b0b
  80:	26070000 	strcs	r0, [r7], -r0
  84:	00134900 	andseq	r4, r3, r0, lsl #18
  88:	01130800 	tsteq	r3, r0, lsl #16
  8c:	0b0b0e03 	bleq	2c38a0 <shift+0x2c38a0>
  90:	0b3b0b3a 	bleq	ec2d80 <shift+0xec2d80>
  94:	00001301 	andeq	r1, r0, r1, lsl #6
  98:	03000d09 	movweq	r0, #3337	; 0xd09
  9c:	3b0b3a0e 	blcc	2ce8dc <shift+0x2ce8dc>
  a0:	3813490b 	ldmdacc	r3, {r0, r1, r3, r8, fp, lr}
  a4:	0a00000b 	beq	d8 <shift+0xd8>
  a8:	0e03000d 	cdpeq	0, 0, cr0, cr3, cr13, {0}
  ac:	053b0b3a 	ldreq	r0, [fp, #-2874]!	; 0xfffff4c6
  b0:	0b381349 	bleq	e04ddc <shift+0xe04ddc>
  b4:	160b0000 	strne	r0, [fp], -r0
  b8:	3a0e0300 	bcc	380cc0 <shift+0x380cc0>
  bc:	000b3b0b 	andeq	r3, fp, fp, lsl #22
  c0:	01010c00 	tsteq	r1, r0, lsl #24
  c4:	13011349 	movwne	r1, #4937	; 0x1349
  c8:	210d0000 	mrscs	r0, (UNDEF: 13)
  cc:	2f134900 	svccs	0x00134900
  d0:	0e00000b 	cdpeq	0, 0, cr0, cr0, cr11, {0}
  d4:	0e030013 	mcreq	0, 0, r0, cr3, cr3, {0}
  d8:	0000193c 	andeq	r1, r0, ip, lsr r9
  dc:	0300340f 	movweq	r3, #1039	; 0x40f
  e0:	3b0b3a0e 	blcc	2ce920 <shift+0x2ce920>
  e4:	3f134905 	svccc	0x00134905
  e8:	00193c19 	andseq	r3, r9, r9, lsl ip
  ec:	00341000 	eorseq	r1, r4, r0
  f0:	0b3a0e03 	bleq	e83904 <shift+0xe83904>
  f4:	13490b3b 	movtne	r0, #39739	; 0x9b3b
  f8:	193c193f 	ldmdbne	ip!, {r0, r1, r2, r3, r4, r5, r8, fp, ip}
  fc:	21110000 	tstcs	r1, r0
 100:	12000000 	andne	r0, r0, #0
 104:	19270115 	stmdbne	r7!, {r0, r2, r4, r8}
 108:	13011349 	movwne	r1, #4937	; 0x1349
 10c:	05130000 	ldreq	r0, [r3, #-0]
 110:	00134900 	andseq	r4, r3, r0, lsl #18
 114:	00261400 	eoreq	r1, r6, r0, lsl #8
 118:	04150000 	ldreq	r0, [r5], #-0
 11c:	0b0e0301 	bleq	380d28 <shift+0x380d28>
 120:	3a13490b 	bcc	4d2554 <shift+0x4d2554>
 124:	010b3b0b 	tsteq	fp, fp, lsl #22
 128:	16000013 			; <UNDEFINED> instruction: 0x16000013
 12c:	0e030028 	cdpeq	0, 0, cr0, cr3, cr8, {1}
 130:	00000b1c 	andeq	r0, r0, ip, lsl fp
 134:	27001517 	smladcs	r0, r7, r5, r1
 138:	18000019 	stmdane	r0, {r0, r3, r4}
 13c:	0e030016 	mcreq	0, 0, r0, cr3, cr6, {0}
 140:	053b0b3a 	ldreq	r0, [fp, #-2874]!	; 0xfffff4c6
 144:	00001349 	andeq	r1, r0, r9, asr #6
 148:	03010419 	movweq	r0, #5145	; 0x1419
 14c:	490b0b0e 	stmdbmi	fp, {r1, r2, r3, r8, r9, fp}
 150:	3b0b3a13 	blcc	2ce9a4 <shift+0x2ce9a4>
 154:	00130105 	andseq	r0, r3, r5, lsl #2
 158:	01131a00 	tsteq	r3, r0, lsl #20
 15c:	0b0b0e03 	bleq	2c3970 <shift+0x2c3970>
 160:	053b0b3a 	ldreq	r0, [fp, #-2874]!	; 0xfffff4c6
 164:	00001301 	andeq	r1, r0, r1, lsl #6
 168:	03000d1b 	movweq	r0, #3355	; 0xd1b
 16c:	3b0b3a08 	blcc	2ce994 <shift+0x2ce994>
 170:	38134905 	ldmdacc	r3, {r0, r2, r8, fp, lr}
 174:	1c00000b 	stcne	0, cr0, [r0], {11}
 178:	193f012e 	ldmdbne	pc!, {r1, r2, r3, r5, r8}	; <UNPREDICTABLE>
 17c:	0b3a0e03 	bleq	e83990 <shift+0xe83990>
 180:	1927053b 	stmdbne	r7!, {r0, r1, r3, r4, r5, r8, sl}
 184:	01111349 	tsteq	r1, r9, asr #6
 188:	18400612 	stmdane	r0, {r1, r4, r9, sl}^
 18c:	01194297 			; <UNDEFINED> instruction: 0x01194297
 190:	1d000013 	stcne	0, cr0, [r0, #-76]	; 0xffffffb4
 194:	08030005 	stmdaeq	r3, {r0, r2}
 198:	053b0b3a 	ldreq	r0, [fp, #-2874]!	; 0xfffff4c6
 19c:	17021349 	strne	r1, [r2, -r9, asr #6]
 1a0:	341e0000 	ldrcc	r0, [lr], #-0
 1a4:	3a080300 	bcc	200dac <shift+0x200dac>
 1a8:	49053b0b 	stmdbmi	r5, {r0, r1, r3, r8, r9, fp, ip, sp}
 1ac:	00170213 	andseq	r0, r7, r3, lsl r2
	...

Disassembly of section .debug_aranges:

00000000 <.debug_aranges>:
   0:	0000001c 	andeq	r0, r0, ip, lsl r0
   4:	00000002 	andeq	r0, r0, r2
   8:	00040000 	andeq	r0, r4, r0
   c:	00000000 	andeq	r0, r0, r0
  10:	82001dc0 	andhi	r1, r0, #192, 26	; 0x3000
  14:	00000276 	andeq	r0, r0, r6, ror r2
	...
  20:	0000001c 	andeq	r0, r0, ip, lsl r0
  24:	01bf0002 			; <UNDEFINED> instruction: 0x01bf0002
  28:	00040000 	andeq	r0, r4, r0
  2c:	00000000 	andeq	r0, r0, r0
  30:	82002038 	andhi	r2, r0, #56	; 0x38
  34:	00000030 	andeq	r0, r0, r0, lsr r0
	...
  40:	0000001c 	andeq	r0, r0, ip, lsl r0
  44:	037a0002 	cmneq	sl, #2
  48:	00040000 	andeq	r0, r4, r0
  4c:	00000000 	andeq	r0, r0, r0
  50:	82002068 	andhi	r2, r0, #104	; 0x68
  54:	0000000c 	andeq	r0, r0, ip
	...
  60:	0000001c 	andeq	r0, r0, ip, lsl r0
  64:	05390002 	ldreq	r0, [r9, #-2]!
  68:	00040000 	andeq	r0, r4, r0
  6c:	00000000 	andeq	r0, r0, r0
  70:	82002074 	andhi	r2, r0, #116	; 0x74
  74:	00000116 	andeq	r0, r0, r6, lsl r1
	...

Disassembly of section .debug_loc:

00000000 <.debug_loc>:
   0:	00000000 	andeq	r0, r0, r0
   4:	00000012 	andeq	r0, r0, r2, lsl r0
   8:	93500006 	cmpls	r0, #6
   c:	04935104 	ldreq	r5, [r3], #260	; 0x104
  10:	00000012 	andeq	r0, r0, r2, lsl r0
  14:	00000116 	andeq	r0, r0, r6, lsl r1
  18:	03f30006 	mvnseq	r0, #6
  1c:	9f2500f5 	svcls	0x002500f5
	...
  2c:	0000006a 	andeq	r0, r0, sl, rrx
  30:	93520006 	cmpls	r2, #6
  34:	04935304 	ldreq	r5, [r3], #772	; 0x304
  38:	0000006a 	andeq	r0, r0, sl, rrx
  3c:	000000fe 	strdeq	r0, [r0], -lr
  40:	03f30006 	mvnseq	r0, #6
  44:	9f2502f5 	svcls	0x002502f5
  48:	000000fe 	strdeq	r0, [r0], -lr
  4c:	00000116 	andeq	r0, r0, r6, lsl r1
  50:	93520006 	cmpls	r2, #6
  54:	04935304 	ldreq	r5, [r3], #772	; 0x304
	...
  64:	000000fe 	strdeq	r0, [r0], -lr
  68:	00910002 	addseq	r0, r1, r2
  6c:	000000fe 	strdeq	r0, [r0], -lr
  70:	00000116 	andeq	r0, r0, r6, lsl r1
  74:	00910002 	addseq	r0, r1, r2
	...
  84:	00000076 	andeq	r0, r0, r6, ror r0
  88:	089e000a 	ldmeq	lr, {r1, r3}
	...
  94:	00000076 	andeq	r0, r0, r6, ror r0
  98:	000000c4 	andeq	r0, r0, r4, asr #1
  9c:	93500006 	cmpls	r0, #6
  a0:	04935104 	ldreq	r5, [r3], #260	; 0x104
  a4:	000000e6 	andeq	r0, r0, r6, ror #1
  a8:	000000ea 	andeq	r0, r0, sl, ror #1
  ac:	93500006 	cmpls	r0, #6
  b0:	04935104 	ldreq	r5, [r3], #260	; 0x104
  b4:	000000f0 	strdeq	r0, [r0], -r0	; <UNPREDICTABLE>
  b8:	000000fe 	strdeq	r0, [r0], -lr
  bc:	93500006 	cmpls	r0, #6
  c0:	04935104 	ldreq	r5, [r3], #260	; 0x104
  c4:	000000fe 	strdeq	r0, [r0], -lr
  c8:	00000116 	andeq	r0, r0, r6, lsl r1
  cc:	089e000a 	ldmeq	lr, {r1, r3}
	...
  e0:	0000000e 	andeq	r0, r0, lr
  e4:	00000062 	andeq	r0, r0, r2, rrx
  e8:	93540006 	cmpls	r4, #6
  ec:	04935504 	ldreq	r5, [r3], #1284	; 0x504
  f0:	00000076 	andeq	r0, r0, r6, ror r0
  f4:	0000008a 	andeq	r0, r0, sl, lsl #1
  f8:	93540006 	cmpls	r4, #6
  fc:	04935504 	ldreq	r5, [r3], #1284	; 0x504
 100:	00000098 	muleq	r0, r8, r0
 104:	000000a8 	andeq	r0, r0, r8, lsr #1
 108:	93540006 	cmpls	r4, #6
 10c:	04935504 	ldreq	r5, [r3], #1284	; 0x504
 110:	000000aa 	andeq	r0, r0, sl, lsr #1
 114:	000000c8 	andeq	r0, r0, r8, asr #1
 118:	93540006 	cmpls	r4, #6
 11c:	04935504 	ldreq	r5, [r3], #1284	; 0x504
 120:	000000ec 	andeq	r0, r0, ip, ror #1
 124:	00000116 	andeq	r0, r0, r6, lsl r1
 128:	93540006 	cmpls	r4, #6
 12c:	04935504 	ldreq	r5, [r3], #1284	; 0x504
	...
 138:	0000000e 	andeq	r0, r0, lr
 13c:	0000004e 	andeq	r0, r0, lr, asr #32
 140:	93520006 	cmpls	r2, #6
 144:	04935304 	ldreq	r5, [r3], #772	; 0x304
 148:	0000004e 	andeq	r0, r0, lr, asr #32
 14c:	000000f0 	strdeq	r0, [r0], -r0	; <UNPREDICTABLE>
 150:	93580006 	cmpls	r8, #6
 154:	04935904 	ldreq	r5, [r3], #2308	; 0x904
 158:	000000fe 	strdeq	r0, [r0], -lr
 15c:	00000116 	andeq	r0, r0, r6, lsl r1
 160:	93520006 	cmpls	r2, #6
 164:	04935304 	ldreq	r5, [r3], #772	; 0x304
	...
 170:	00000110 	andeq	r0, r0, r0, lsl r1
 174:	00000116 	andeq	r0, r0, r6, lsl r1
 178:	00560001 	subseq	r0, r6, r1
 17c:	00000000 	andeq	r0, r0, r0
 180:	2c000000 	stccs	0, cr0, [r0], {-0}
 184:	3a000000 	bcc	18c <shift+0x18c>
 188:	01000000 	mrseq	r0, (UNDEF: 0)
 18c:	00005100 	andeq	r5, r0, r0, lsl #2
 190:	00000000 	andeq	r0, r0, r0
 194:	00820000 	addeq	r0, r2, r0
 198:	00860000 	addeq	r0, r6, r0
 19c:	00010000 	andeq	r0, r1, r0
 1a0:	00008656 	andeq	r8, r0, r6, asr r6
 1a4:	00009800 	andeq	r9, r0, r0, lsl #16
 1a8:	5c000100 	stfpls	f0, [r0], {-0}
 1ac:	00000098 	muleq	r0, r8, r0
 1b0:	0000009c 	muleq	r0, ip, r0
 1b4:	7f7c0003 	svcvc	0x007c0003
 1b8:	00009c9f 	muleq	r0, pc, ip	; <UNPREDICTABLE>
 1bc:	0000aa00 	andeq	sl, r0, r0, lsl #20
 1c0:	5c000100 	stfpls	f0, [r0], {-0}
 1c4:	000000aa 	andeq	r0, r0, sl, lsr #1
 1c8:	000000ae 	andeq	r0, r0, lr, lsr #1
 1cc:	7f7c0003 	svcvc	0x007c0003
 1d0:	0000ae9f 	muleq	r0, pc, lr	; <UNPREDICTABLE>
 1d4:	0000c000 	andeq	ip, r0, r0
 1d8:	5c000100 	stfpls	f0, [r0], {-0}
	...
 1e4:	0000002e 	andeq	r0, r0, lr, lsr #32
 1e8:	000000f0 	strdeq	r0, [r0], -r0	; <UNPREDICTABLE>
 1ec:	00560001 	subseq	r0, r6, r1
 1f0:	00000000 	andeq	r0, r0, r0
 1f4:	Address 0x00000000000001f4 is out of bounds.


Disassembly of section .debug_str:

00000000 <.debug_str>:
   0:	376d7261 	strbcc	r7, [sp, -r1, ror #4]!
   4:	00743031 	rsbseq	r3, r4, r1, lsr r0
   8:	5f6d7261 	svcpl	0x006d7261
   c:	68637261 	stmdavs	r3!, {r0, r5, r6, r9, ip, sp, lr}^
  10:	6d77695f 			; <UNDEFINED> instruction: 0x6d77695f
  14:	0074786d 	rsbseq	r7, r4, sp, ror #16
  18:	6f68735f 	svcvs	0x0068735f
  1c:	75627472 	strbvc	r7, [r2, #-1138]!	; 0xfffffb8e
  20:	52410066 	subpl	r0, r1, #102	; 0x66
  24:	51455f4d 	cmppl	r5, sp, asr #30
  28:	4f495f00 	svcmi	0x00495f00
  2c:	636f6c5f 	cmnvs	pc, #24320	; 0x5f00
  30:	00745f6b 	rsbseq	r5, r4, fp, ror #30
  34:	366d7261 	strbtcc	r7, [sp], -r1, ror #4
  38:	70003030 	andvc	r3, r0, r0, lsr r0
  3c:	72676f72 	rsbvc	r6, r7, #456	; 0x1c8
  40:	695f6d61 	ldmdbvs	pc, {r0, r5, r6, r8, sl, fp, sp, lr}^	; <UNPREDICTABLE>
  44:	636f766e 	cmnvs	pc, #115343360	; 0x6e00000
  48:	6f697461 	svcvs	0x00697461
  4c:	68735f6e 	ldmdavs	r3!, {r1, r2, r3, r5, r6, r8, r9, sl, fp, ip, lr}^
  50:	5f74726f 	svcpl	0x0074726f
  54:	656d616e 	strbvs	r6, [sp, #-366]!	; 0xfffffe92
  58:	64747300 	ldrbtvs	r7, [r4], #-768	; 0xfffffd00
  5c:	00727265 	rsbseq	r7, r2, r5, ror #4
  60:	326d7261 	rsbcc	r7, sp, #268435462	; 0x10000006
  64:	4f495f00 	svcmi	0x00495f00
  68:	6675625f 			; <UNDEFINED> instruction: 0x6675625f
  6c:	646e655f 	strbtvs	r6, [lr], #-1375	; 0xfffffaa1
  70:	755f5f00 	ldrbvc	r5, [pc, #-3840]	; fffff178 <__bss_end+0x7dffc198>
  74:	6d766964 			; <UNDEFINED> instruction: 0x6d766964
  78:	6964646f 	stmdbvs	r4!, {r0, r1, r2, r3, r5, r6, sl, sp, lr}^
  7c:	72610034 	rsbvc	r0, r1, #52	; 0x34
  80:	4200366d 	andmi	r3, r0, #114294784	; 0x6d00000
  84:	5f455341 	svcpl	0x00455341
  88:	48435241 	stmdami	r3, {r0, r6, r9, ip, lr}^
  8c:	5f4d385f 	svcpl	0x004d385f
  90:	45534142 	ldrbmi	r4, [r3, #-322]	; 0xfffffebe
  94:	6d726100 	ldfvse	f6, [r2, #-0]
  98:	5f70665f 	svcpl	0x0070665f
  9c:	65646f6d 	strbvs	r6, [r4, #-3949]!	; 0xfffff093
  a0:	5241006c 	subpl	r0, r1, #108	; 0x6c
  a4:	43505f4d 	cmpmi	r0, #308	; 0x134
  a8:	41415f53 	cmpmi	r1, r3, asr pc
  ac:	5f534350 	svcpl	0x00534350
  b0:	4d4d5749 	stclmi	7, cr5, [sp, #-292]	; 0xfffffedc
  b4:	6f005458 	svcvs	0x00005458
  b8:	706f7470 	rsbvc	r7, pc, r0, ror r4	; <UNPREDICTABLE>
  bc:	72610074 	rsbvc	r0, r1, #116	; 0x74
  c0:	4200396d 	andmi	r3, r0, #1785856	; 0x1b4000
  c4:	5f455341 	svcpl	0x00455341
  c8:	48435241 	stmdami	r3, {r0, r6, r9, ip, lr}^
  cc:	4200305f 	andmi	r3, r0, #95	; 0x5f
  d0:	5f455341 	svcpl	0x00455341
  d4:	48435241 	stmdami	r3, {r0, r6, r9, ip, lr}^
  d8:	4200325f 	andmi	r3, r0, #-268435451	; 0xf0000005
  dc:	5f455341 	svcpl	0x00455341
  e0:	48435241 	stmdami	r3, {r0, r6, r9, ip, lr}^
  e4:	4200335f 	andmi	r3, r0, #2080374785	; 0x7c000001
  e8:	5f455341 	svcpl	0x00455341
  ec:	48435241 	stmdami	r3, {r0, r6, r9, ip, lr}^
  f0:	4200345f 	andmi	r3, r0, #1593835520	; 0x5f000000
  f4:	5f455341 	svcpl	0x00455341
  f8:	48435241 	stmdami	r3, {r0, r6, r9, ip, lr}^
  fc:	4200355f 	andmi	r3, r0, #398458880	; 0x17c00000
 100:	5f455341 	svcpl	0x00455341
 104:	48435241 	stmdami	r3, {r0, r6, r9, ip, lr}^
 108:	4200365f 	andmi	r3, r0, #99614720	; 0x5f00000
 10c:	5f455341 	svcpl	0x00455341
 110:	48435241 	stmdami	r3, {r0, r6, r9, ip, lr}^
 114:	6300375f 	movwvs	r3, #1887	; 0x75f
 118:	6574726f 	ldrbvs	r7, [r4, #-623]!	; 0xfffffd91
 11c:	35316178 	ldrcc	r6, [r1, #-376]!	; 0xfffffe88
 120:	74726f63 	ldrbtvc	r6, [r2], #-3939	; 0xfffff09d
 124:	37617865 	strbcc	r7, [r1, -r5, ror #16]!
 128:	36616600 	strbtcc	r6, [r1], -r0, lsl #12
 12c:	65743630 	ldrbvs	r3, [r4, #-1584]!	; 0xfffff9d0
 130:	4f495f00 	svcmi	0x00495f00
 134:	6972775f 	ldmdbvs	r2!, {r0, r1, r2, r3, r4, r6, r8, r9, sl, ip, sp, lr}^
 138:	655f6574 	ldrbvs	r6, [pc, #-1396]	; fffffbcc <__bss_end+0x7dffcbec>
 13c:	7600646e 	strvc	r6, [r0], -lr, ror #8
 140:	725f7066 	subsvc	r7, pc, #102	; 0x66
 144:	745f6765 	ldrbvc	r6, [pc], #-1893	; 14c <shift+0x14c>
 148:	00657079 	rsbeq	r7, r5, r9, ror r0
 14c:	36706d66 	ldrbtcc	r6, [r0], -r6, ror #26
 150:	67003632 	smladxvs	r0, r2, r6, r3
 154:	61647465 	cmnvs	r4, r5, ror #8
 158:	655f6574 	ldrbvs	r6, [pc, #-1396]	; fffffbec <__bss_end+0x7dffcc0c>
 15c:	55007272 	strpl	r7, [r0, #-626]	; 0xfffffd8e
 160:	79744953 	ldmdbvc	r4!, {r0, r1, r4, r6, r8, fp, lr}^
 164:	5f006570 	svcpl	0x00006570
 168:	67616c66 	strbvs	r6, [r1, -r6, ror #24]!
 16c:	72610073 	rsbvc	r0, r1, #115	; 0x73
 170:	3031366d 	eorscc	r3, r1, sp, ror #12
 174:	6d726100 	ldfvse	f6, [r2, #-0]
 178:	00653031 	rsbeq	r3, r5, r1, lsr r0
 17c:	396d7261 	stmdbcc	sp!, {r0, r5, r6, r9, ip, sp, lr}^
 180:	6f630065 	svcvs	0x00630065
 184:	78657472 	stmdavc	r5!, {r1, r4, r5, r6, sl, ip, sp, lr}^
 188:	63323761 	teqvs	r2, #25427968	; 0x1840000
 18c:	6574726f 	ldrbvs	r7, [r4, #-623]!	; 0xfffffd91
 190:	33356178 	teqcc	r5, #120, 2
 194:	53414200 	movtpl	r4, #4608	; 0x1200
 198:	52415f45 	subpl	r5, r1, #276	; 0x114
 19c:	355f4843 	ldrbcc	r4, [pc, #-2115]	; fffff961 <__bss_end+0x7dffc981>
 1a0:	004a4554 	subeq	r4, sl, r4, asr r5
 1a4:	5f6d7261 	svcpl	0x006d7261
 1a8:	73666363 	cmnvc	r6, #-1946157055	; 0x8c000001
 1ac:	74735f6d 	ldrbtvc	r5, [r3], #-3949	; 0xfffff093
 1b0:	00657461 	rsbeq	r7, r5, r1, ror #8
 1b4:	316d7261 	cmncc	sp, r1, ror #4
 1b8:	65323230 	ldrvs	r3, [r2, #-560]!	; 0xfffffdd0
 1bc:	36616600 	strbtcc	r6, [r1], -r0, lsl #12
 1c0:	75003632 	strvc	r3, [r0, #-1586]	; 0xfffff9ce
 1c4:	6570736e 	ldrbvs	r7, [r0, #-878]!	; 0xfffffc92
 1c8:	74735f63 	ldrbtvc	r5, [r3], #-3939	; 0xfffff09d
 1cc:	676e6972 			; <UNDEFINED> instruction: 0x676e6972
 1d0:	6f630073 	svcvs	0x00630073
 1d4:	78657472 	stmdavc	r5!, {r1, r4, r5, r6, sl, ip, sp, lr}^
 1d8:	6c70306d 	ldclvs	0, cr3, [r0], #-436	; 0xfffffe4c
 1dc:	6d737375 	ldclvs	3, cr7, [r3, #-468]!	; 0xfffffe2c
 1e0:	6d6c6c61 	stclvs	12, cr6, [ip, #-388]!	; 0xfffffe7c
 1e4:	69746c75 	ldmdbvs	r4!, {r0, r2, r4, r5, r6, sl, fp, sp, lr}^
 1e8:	00796c70 	rsbseq	r6, r9, r0, ror ip
 1ec:	6c635f5f 	stclvs	15, cr5, [r3], #-380	; 0xfffffe84
 1f0:	61745f7a 	cmnvs	r4, sl, ror pc
 1f4:	52410062 	subpl	r0, r1, #98	; 0x62
 1f8:	43565f4d 	cmpmi	r6, #308	; 0x134
 1fc:	6d726100 	ldfvse	f6, [r2, #-0]
 200:	6372615f 	cmnvs	r2, #-1073741801	; 0xc0000017
 204:	73785f68 	cmnvc	r8, #104, 30	; 0x1a0
 208:	656c6163 	strbvs	r6, [ip, #-355]!	; 0xfffffe9d
 20c:	6d726100 	ldfvse	f6, [r2, #-0]
 210:	6d647437 	cfstrdvs	mvd7, [r4, #-220]!	; 0xffffff24
 214:	63007369 	movwvs	r7, #873	; 0x369
 218:	6574726f 	ldrbvs	r7, [r4, #-623]!	; 0xfffffd91
 21c:	70306d78 	eorsvc	r6, r0, r8, ror sp
 220:	0073756c 	rsbseq	r7, r3, ip, ror #10
 224:	5f4d5241 	svcpl	0x004d5241
 228:	41005356 	tstmi	r0, r6, asr r3
 22c:	475f4d52 			; <UNDEFINED> instruction: 0x475f4d52
 230:	72610045 	rsbvc	r0, r1, #69	; 0x45
 234:	75745f6d 	ldrbvc	r5, [r4, #-3949]!	; 0xfffff093
 238:	735f656e 	cmpvc	pc, #461373440	; 0x1b800000
 23c:	6e6f7274 	mcrvs	2, 3, r7, cr15, cr4, {3}
 240:	6d726167 	ldfvse	f6, [r2, #-412]!	; 0xfffffe64
 244:	6d726100 	ldfvse	f6, [r2, #-0]
 248:	6f630037 	svcvs	0x00630037
 24c:	656c706d 	strbvs	r7, [ip, #-109]!	; 0xffffff93
 250:	6c662078 	stclvs	0, cr2, [r6], #-480	; 0xfffffe20
 254:	0074616f 	rsbseq	r6, r4, pc, ror #2
 258:	5f4d5241 	svcpl	0x004d5241
 25c:	61005447 	tstvs	r0, r7, asr #8
 260:	32366d72 	eorscc	r6, r6, #7296	; 0x1c80
 264:	65720030 	ldrbvs	r0, [r2, #-48]!	; 0xffffffd0
 268:	63007367 	movwvs	r7, #871	; 0x367
 26c:	6574726f 	ldrbvs	r7, [r4, #-623]!	; 0xfffffd91
 270:	00356178 	eorseq	r6, r5, r8, ror r1
 274:	74726f63 	ldrbtvc	r6, [r2], #-3939	; 0xfffff09d
 278:	38617865 	stmdacc	r1!, {r0, r2, r5, r6, fp, ip, sp, lr}^
 27c:	726f6300 	rsbvc	r6, pc, #0, 6
 280:	61786574 	cmnvs	r8, r4, ror r5
 284:	5f5f0039 	svcpl	0x005f0039
 288:	656d6974 	strbvs	r6, [sp, #-2420]!	; 0xfffff68c
 28c:	656e6f7a 	strbvs	r6, [lr, #-3962]!	; 0xfffff086
 290:	53414200 	movtpl	r4, #4608	; 0x1200
 294:	52415f45 	subpl	r5, r1, #276	; 0x114
 298:	375f4843 	ldrbcc	r4, [pc, -r3, asr #16]
 29c:	68004d45 	stmdavs	r0, {r0, r2, r6, r8, sl, fp, lr}
 2a0:	76687361 	strbtvc	r7, [r8], -r1, ror #6
 2a4:	745f6c61 	ldrbvc	r6, [pc], #-3169	; 2ac <shift+0x2ac>
 2a8:	53414200 	movtpl	r4, #4608	; 0x1200
 2ac:	52415f45 	subpl	r5, r1, #276	; 0x114
 2b0:	365f4843 	ldrbcc	r4, [pc], -r3, asr #16
 2b4:	61005a4b 	tstvs	r0, fp, asr #20
 2b8:	34376d72 	ldrtcc	r6, [r7], #-3442	; 0xfffff28e
 2bc:	61007430 	tstvs	r0, r0, lsr r4
 2c0:	615f6d72 	cmpvs	pc, r2, ror sp	; <UNPREDICTABLE>
 2c4:	5f686372 	svcpl	0x00686372
 2c8:	5f6d7261 	svcpl	0x006d7261
 2cc:	69647768 	stmdbvs	r4!, {r3, r5, r6, r8, r9, sl, ip, sp, lr}^
 2d0:	705f0076 	subsvc	r0, pc, r6, ror r0	; <UNPREDICTABLE>
 2d4:	6100736f 	tstvs	r0, pc, ror #6
 2d8:	665f6d72 			; <UNDEFINED> instruction: 0x665f6d72
 2dc:	645f7570 	ldrbvs	r7, [pc], #-1392	; 2e4 <shift+0x2e4>
 2e0:	00637365 	rsbeq	r7, r3, r5, ror #6
 2e4:	74726f63 	ldrbtvc	r6, [r2], #-3939	; 0xfffff09d
 2e8:	37617865 	strbcc	r7, [r1, -r5, ror #16]!
 2ec:	726f6333 	rsbvc	r6, pc, #-872415232	; 0xcc000000
 2f0:	61786574 	cmnvs	r8, r4, ror r5
 2f4:	73003533 	movwvc	r3, #1331	; 0x533
 2f8:	756f6474 	strbvc	r6, [pc, #-1140]!	; fffffe8c <__bss_end+0x7dffceac>
 2fc:	6c610074 	stclvs	0, cr0, [r1], #-464	; 0xfffffe30
 300:	70665f6c 	rsbvc	r5, r6, ip, ror #30
 304:	5f007375 	svcpl	0x00007375
 308:	735f4f49 	cmpvc	pc, #292	; 0x124
 30c:	5f657661 	svcpl	0x00657661
 310:	00646e65 	rsbeq	r6, r4, r5, ror #28
 314:	6574706f 	ldrbvs	r7, [r4, #-111]!	; 0xffffff91
 318:	5f007272 	svcpl	0x00007272
 31c:	5f727563 	svcpl	0x00727563
 320:	756c6f63 	strbvc	r6, [ip, #-3939]!	; 0xfffff09d
 324:	66006e6d 	strvs	r6, [r0], -sp, ror #28
 328:	36323661 	ldrtcc	r3, [r2], -r1, ror #12
 32c:	61006574 	tstvs	r0, r4, ror r5
 330:	64376d72 	ldrtvs	r6, [r7], #-3442	; 0xfffff28e
 334:	7300696d 	movwvc	r6, #2413	; 0x96d
 338:	6e6f7274 	mcrvs	2, 3, r7, cr15, cr4, {3}
 33c:	6d726167 	ldfvse	f6, [r2, #-412]!	; 0xfffffe64
 340:	00303131 	eorseq	r3, r0, r1, lsr r1
 344:	45534142 	ldrbmi	r4, [r3, #-322]	; 0xfffffebe
 348:	4352415f 	cmpmi	r2, #-1073741801	; 0xc0000017
 34c:	4d335f48 	ldcmi	15, cr5, [r3, #-288]!	; 0xfffffee0
 350:	6e6f6c00 	cdpvs	12, 6, cr6, cr15, cr0, {0}
 354:	6f6c2067 	svcvs	0x006c2067
 358:	7520676e 	strvc	r6, [r0, #-1902]!	; 0xfffff892
 35c:	6769736e 	strbvs	r7, [r9, -lr, ror #6]!
 360:	2064656e 	rsbcs	r6, r4, lr, ror #10
 364:	00746e69 	rsbseq	r6, r4, r9, ror #28
 368:	6f63706d 	svcvs	0x0063706d
 36c:	6f6e6572 	svcvs	0x006e6572
 370:	00706676 	rsbseq	r6, r0, r6, ror r6
 374:	396d7261 	stmdbcc	sp!, {r0, r5, r6, r9, ip, sp, lr}^
 378:	696d6474 	stmdbvs	sp!, {r2, r4, r5, r6, sl, sp, lr}^
 37c:	6d726100 	ldfvse	f6, [r2, #-0]
 380:	6e6f635f 	mcrvs	3, 3, r6, cr15, cr15, {2}
 384:	6f635f64 	svcvs	0x00635f64
 388:	41006564 	tstmi	r0, r4, ror #10
 38c:	505f4d52 	subspl	r4, pc, r2, asr sp	; <UNPREDICTABLE>
 390:	415f5343 	cmpmi	pc, r3, asr #6
 394:	53435041 	movtpl	r5, #12353	; 0x3041
 398:	4f495f00 	svcmi	0x00495f00
 39c:	6361625f 	cmnvs	r1, #-268435451	; 0xf0000005
 3a0:	5f70756b 	svcpl	0x0070756b
 3a4:	65736162 	ldrbvs	r6, [r3, #-354]!	; 0xfffffe9e
 3a8:	4d524100 	ldfmie	f4, [r2, #-0]
 3ac:	5343505f 	movtpl	r5, #12383	; 0x305f
 3b0:	5041415f 	subpl	r4, r1, pc, asr r1
 3b4:	4c5f5343 	mrrcmi	3, 4, r5, pc, cr3	; <UNPREDICTABLE>
 3b8:	4c41434f 	mcrrmi	3, 4, r4, r1, cr15
 3bc:	6d726100 	ldfvse	f6, [r2, #-0]
 3c0:	7570665f 	ldrbvc	r6, [r0, #-1631]!	; 0xfffff9a1
 3c4:	6165665f 	cmnvs	r5, pc, asr r6
 3c8:	65727574 	ldrbvs	r7, [r2, #-1396]!	; 0xfffffa8c
 3cc:	7465735f 	strbtvc	r7, [r5], #-863	; 0xfffffca1
 3d0:	726f6300 	rsbvc	r6, pc, #0, 6
 3d4:	72786574 	rsbsvc	r6, r8, #116, 10	; 0x1d000000
 3d8:	6f630034 	svcvs	0x00630034
 3dc:	78657472 	stmdavc	r5!, {r1, r4, r5, r6, sl, ip, sp, lr}^
 3e0:	63003572 	movwvs	r3, #1394	; 0x572
 3e4:	6574726f 	ldrbvs	r7, [r4, #-623]!	; 0xfffffd91
 3e8:	00377278 	eorseq	r7, r7, r8, ror r2
 3ec:	74726f63 	ldrbtvc	r6, [r2], #-3939	; 0xfffff09d
 3f0:	38727865 	ldmdacc	r2!, {r0, r2, r5, r6, fp, ip, sp, lr}^
 3f4:	6d726100 	ldfvse	f6, [r2, #-0]
 3f8:	6372615f 	cmnvs	r2, #-1073741801	; 0xc0000017
 3fc:	77695f68 	strbvc	r5, [r9, -r8, ror #30]!
 400:	74786d6d 	ldrbtvc	r6, [r8], #-3437	; 0xfffff293
 404:	46560032 			; <UNDEFINED> instruction: 0x46560032
 408:	4f4e5f50 	svcmi	0x004e5f50
 40c:	5f00454e 	svcpl	0x0000454e
 410:	656c6966 	strbvs	r6, [ip, #-2406]!	; 0xfffff69a
 414:	5f006f6e 	svcpl	0x00006f6e
 418:	6461705f 	strbtvs	r7, [r1], #-95	; 0xffffffa1
 41c:	72610032 	rsbvc	r0, r1, #50	; 0x32
 420:	3531316d 	ldrcc	r3, [r1, #-365]!	; 0xfffffe93
 424:	66327436 			; <UNDEFINED> instruction: 0x66327436
 428:	735f0073 	cmpvc	pc, #115	; 0x73
 42c:	6e5f7379 	mrcvs	3, 2, r7, cr15, cr9, {3}
 430:	00727265 	rsbseq	r7, r2, r5, ror #4
 434:	66657270 			; <UNDEFINED> instruction: 0x66657270
 438:	6e5f7265 	cdpvs	2, 5, cr7, cr15, cr5, {3}
 43c:	5f6e6f65 	svcpl	0x006e6f65
 440:	5f726f66 	svcpl	0x00726f66
 444:	69623436 	stmdbvs	r2!, {r1, r2, r4, r5, sl, ip, sp}^
 448:	63007374 	movwvs	r7, #884	; 0x374
 44c:	6574726f 	ldrbvs	r7, [r4, #-623]!	; 0xfffffd91
 450:	66347278 			; <UNDEFINED> instruction: 0x66347278
 454:	7a697300 	bvc	1a5d05c <shift+0x1a5d05c>
 458:	00745f65 	rsbseq	r5, r4, r5, ror #30
 45c:	6174765f 	cmnvs	r4, pc, asr r6
 460:	5f656c62 	svcpl	0x00656c62
 464:	7366666f 	cmnvc	r6, #116391936	; 0x6f00000
 468:	5f007465 	svcpl	0x00007465
 46c:	6b72616d 	blvs	1c98a28 <shift+0x1c98a28>
 470:	00737265 	rsbseq	r7, r3, r5, ror #4
 474:	74726f63 	ldrbtvc	r6, [r2], #-3939	; 0xfffff09d
 478:	31617865 	cmncc	r1, r5, ror #16
 47c:	6e750032 	mrcvs	0, 3, r0, cr5, cr2, {1}
 480:	63657073 	cmnvs	r5, #115	; 0x73
 484:	74735f76 	ldrbtvc	r5, [r3], #-3958	; 0xfffff08a
 488:	676e6972 			; <UNDEFINED> instruction: 0x676e6972
 48c:	6f630073 	svcvs	0x00630073
 490:	78657472 	stmdavc	r5!, {r1, r4, r5, r6, sl, ip, sp, lr}^
 494:	00353161 	eorseq	r3, r5, r1, ror #2
 498:	74726f63 	ldrbtvc	r6, [r2], #-3939	; 0xfffff09d
 49c:	37617865 	strbcc	r7, [r1, -r5, ror #16]!
 4a0:	726f6333 	rsbvc	r6, pc, #-872415232	; 0xcc000000
 4a4:	61786574 	cmnvs	r8, r4, ror r5
 4a8:	63003335 	movwvs	r3, #821	; 0x335
 4ac:	6574726f 	ldrbvs	r7, [r4, #-623]!	; 0xfffffd91
 4b0:	37316178 			; <UNDEFINED> instruction: 0x37316178
 4b4:	4f495f00 	svcmi	0x00495f00
 4b8:	6165725f 	cmnvs	r5, pc, asr r2
 4bc:	61625f64 	cmnvs	r2, r4, ror #30
 4c0:	61006573 	tstvs	r0, r3, ror r5
 4c4:	615f6d72 	cmpvs	pc, r2, ror sp	; <UNPREDICTABLE>
 4c8:	33686372 	cmncc	r8, #-939524095	; 0xc8000001
 4cc:	7261006d 	rsbvc	r0, r1, #109	; 0x6d
 4d0:	3034396d 	eorscc	r3, r4, sp, ror #18
 4d4:	74730074 	ldrbtvc	r0, [r3], #-116	; 0xffffff8c
 4d8:	006e6964 	rsbeq	r6, lr, r4, ror #18
 4dc:	396d7261 	stmdbcc	sp!, {r0, r5, r6, r9, ip, sp, lr}^
 4e0:	42003032 	andmi	r3, r0, #50	; 0x32
 4e4:	5f455341 	svcpl	0x00455341
 4e8:	48435241 	stmdami	r3, {r0, r6, r9, ip, lr}^
 4ec:	0054345f 	subseq	r3, r4, pc, asr r4
 4f0:	78656e5f 	stmdavc	r5!, {r0, r1, r2, r3, r4, r6, r9, sl, fp, sp, lr}^
 4f4:	72610074 	rsbvc	r0, r1, #116	; 0x74
 4f8:	65725f6d 	ldrbvs	r5, [r2, #-3949]!	; 0xfffff093
 4fc:	695f7367 	ldmdbvs	pc, {r0, r1, r2, r5, r6, r8, r9, ip, sp, lr}^	; <UNPREDICTABLE>
 500:	65735f6e 	ldrbvs	r5, [r3, #-3950]!	; 0xfffff092
 504:	6e657571 	mcrvs	5, 3, r7, cr5, cr1, {3}
 508:	42006563 	andmi	r6, r0, #415236096	; 0x18c00000
 50c:	5f455341 	svcpl	0x00455341
 510:	48435241 	stmdami	r3, {r0, r6, r9, ip, lr}^
 514:	4554355f 	ldrbmi	r3, [r4, #-1375]	; 0xfffffaa1
 518:	4f495f00 	svcmi	0x00495f00
 51c:	72616d5f 	rsbvc	r6, r1, #6080	; 0x17c0
 520:	0072656b 	rsbseq	r6, r2, fp, ror #10
 524:	316d7261 	cmncc	sp, r1, ror #4
 528:	6a363731 	bvs	d8e1f4 <shift+0xd8e1f4>
 52c:	0073667a 	rsbseq	r6, r3, sl, ror r6
 530:	6168635f 	cmnvs	r8, pc, asr r3
 534:	61006e69 	tstvs	r0, r9, ror #28
 538:	6c5f6d72 	mrrcvs	13, 7, r6, pc, cr2	; <UNPREDICTABLE>
 53c:	5f676e61 	svcpl	0x00676e61
 540:	7074756f 	rsbsvc	r7, r4, pc, ror #10
 544:	6f5f7475 	svcvs	0x005f7475
 548:	63656a62 	cmnvs	r5, #401408	; 0x62000
 54c:	74615f74 	strbtvc	r5, [r1], #-3956	; 0xfffff08c
 550:	62697274 	rsbvs	r7, r9, #116, 4	; 0x40000007
 554:	73657475 	cmnvc	r5, #1962934272	; 0x75000000
 558:	6f6f685f 	svcvs	0x006f685f
 55c:	7261006b 	rsbvc	r0, r1, #107	; 0x6b
 560:	3032376d 	eorscc	r3, r2, sp, ror #14
 564:	41420074 	hvcmi	8196	; 0x2004
 568:	415f4553 	cmpmi	pc, r3, asr r5	; <UNPREDICTABLE>
 56c:	5f484352 	svcpl	0x00484352
 570:	61004535 	tstvs	r0, r5, lsr r5
 574:	35376d72 	ldrcc	r6, [r7, #-3442]!	; 0xfffff28e
 578:	65663030 	strbvs	r3, [r6, #-48]!	; 0xffffffd0
 57c:	4f495f00 	svcmi	0x00495f00
 580:	315f325f 	cmpcc	pc, pc, asr r2	; <UNPREDICTABLE>
 584:	6474735f 	ldrbtvs	r7, [r4], #-863	; 0xfffffca1
 588:	5f727265 	svcpl	0x00727265
 58c:	6f727000 	svcvs	0x00727000
 590:	73736563 	cmnvc	r3, #415236096	; 0x18c00000
 594:	745f726f 	ldrbvc	r7, [pc], #-623	; 59c <shift+0x59c>
 598:	00657079 	rsbeq	r7, r5, r9, ror r0
 59c:	5f6d7261 	svcpl	0x006d7261
 5a0:	00736370 	rsbseq	r6, r3, r0, ror r3
 5a4:	646f6d5f 	strbtvs	r6, [pc], #-3423	; 5ac <shift+0x5ac>
 5a8:	72610065 	rsbvc	r0, r1, #101	; 0x65
 5ac:	72615f6d 	rsbvc	r5, r1, #436	; 0x1b4
 5b0:	74346863 	ldrtvc	r6, [r4], #-2147	; 0xfffff79d
 5b4:	72747300 	rsbsvc	r7, r4, #0, 6
 5b8:	61676e6f 	cmnvs	r7, pc, ror #28
 5bc:	31316d72 	teqcc	r1, r2, ror sp
 5c0:	61003030 	tstvs	r0, r0, lsr r0
 5c4:	30376d72 	eorscc	r6, r7, r2, ror sp
 5c8:	72610030 	rsbvc	r0, r1, #48	; 0x30
 5cc:	75745f6d 	ldrbvc	r5, [r4, #-3949]!	; 0xfffff093
 5d0:	775f656e 	ldrbvc	r6, [pc, -lr, ror #10]
 5d4:	00667562 	rsbeq	r7, r6, r2, ror #10
 5d8:	62617468 	rsbvs	r7, r1, #104, 8	; 0x68000000
 5dc:	7361685f 	cmnvc	r1, #6225920	; 0x5f0000
 5e0:	495f0068 	ldmdbmi	pc, {r3, r5, r6}^	; <UNPREDICTABLE>
 5e4:	65725f4f 	ldrbvs	r5, [r2, #-3919]!	; 0xfffff0b1
 5e8:	705f6461 	subsvc	r6, pc, r1, ror #8
 5ec:	61007274 	tstvs	r0, r4, ror r2
 5f0:	615f6d72 	cmpvs	pc, r2, ror sp	; <UNPREDICTABLE>
 5f4:	5f686372 	svcpl	0x00686372
 5f8:	656d616e 	strbvs	r6, [sp, #-366]!	; 0xfffffe92
 5fc:	726f6300 	rsbvc	r6, pc, #0, 6
 600:	61786574 	cmnvs	r8, r4, ror r5
 604:	61003233 	tstvs	r0, r3, lsr r2
 608:	615f6d72 	cmpvs	pc, r2, ror sp	; <UNPREDICTABLE>
 60c:	5f686372 	svcpl	0x00686372
 610:	6d746f6e 	ldclvs	15, cr6, [r4, #-440]!	; 0xfffffe48
 614:	6d726100 	ldfvse	f6, [r2, #-0]
 618:	6372615f 	cmnvs	r2, #-1073741801	; 0xc0000017
 61c:	00653568 	rsbeq	r3, r5, r8, ror #10
 620:	5f4d5241 	svcpl	0x004d5241
 624:	4200454c 	andmi	r4, r0, #76, 10	; 0x13000000
 628:	5f455341 	svcpl	0x00455341
 62c:	48435241 	stmdami	r3, {r0, r6, r9, ip, lr}^
 630:	004a365f 	subeq	r3, sl, pc, asr r6
 634:	45534142 	ldrbmi	r4, [r3, #-322]	; 0xfffffebe
 638:	4352415f 	cmpmi	r2, #-1073741801	; 0xc0000017
 63c:	4b365f48 	blmi	d98364 <shift+0xd98364>
 640:	53414200 	movtpl	r4, #4608	; 0x1200
 644:	52415f45 	subpl	r5, r1, #276	; 0x114
 648:	365f4843 	ldrbcc	r4, [pc], -r3, asr #16
 64c:	5241004d 	subpl	r0, r1, #77	; 0x4d
 650:	534c5f4d 	movtpl	r5, #53069	; 0xcf4d
 654:	4d524100 	ldfmie	f4, [r2, #-0]
 658:	00544c5f 	subseq	r4, r4, pc, asr ip
 65c:	5f4f495f 	svcpl	0x004f495f
 660:	74697277 	strbtvc	r7, [r9], #-631	; 0xfffffd89
 664:	61625f65 	cmnvs	r2, r5, ror #30
 668:	73006573 	movwvc	r6, #1395	; 0x573
 66c:	6e6f7274 	mcrvs	2, 3, r7, cr15, cr4, {3}
 670:	6d726167 	ldfvse	f6, [r2, #-412]!	; 0xfffffe64
 674:	30313131 	eorscc	r3, r1, r1, lsr r1
 678:	53414200 	movtpl	r4, #4608	; 0x1200
 67c:	52415f45 	subpl	r5, r1, #276	; 0x114
 680:	365f4843 	ldrbcc	r4, [pc], -r3, asr #16
 684:	7261005a 	rsbvc	r0, r1, #90	; 0x5a
 688:	3632396d 	ldrtcc	r3, [r2], -sp, ror #18
 68c:	00736a65 	rsbseq	r6, r3, r5, ror #20
 690:	376d7261 	strbcc	r7, [sp, -r1, ror #4]!
 694:	5f003031 	svcpl	0x00003031
 698:	325f4f49 	subscc	r4, pc, #292	; 0x124
 69c:	735f315f 	cmpvc	pc, #-1073741801	; 0xc0000017
 6a0:	6e696474 	mcrvs	4, 3, r6, cr9, cr4, {3}
 6a4:	6f6c005f 	svcvs	0x006c005f
 6a8:	6c20676e 	stcvs	7, cr6, [r0], #-440	; 0xfffffe48
 6ac:	20676e6f 	rsbcs	r6, r7, pc, ror #28
 6b0:	00746e69 	rsbseq	r6, r4, r9, ror #28
 6b4:	5f6d7261 	svcpl	0x006d7261
 6b8:	5f757066 	svcpl	0x00757066
 6bc:	72747461 	rsbsvc	r7, r4, #1627389952	; 0x61000000
 6c0:	4f495f00 	svcmi	0x00495f00
 6c4:	315f325f 	cmpcc	pc, pc, asr r2	; <UNPREDICTABLE>
 6c8:	6474735f 	ldrbtvs	r7, [r4], #-863	; 0xfffffca1
 6cc:	5f74756f 	svcpl	0x0074756f
 6d0:	4f495f00 	svcmi	0x00495f00
 6d4:	7661735f 			; <UNDEFINED> instruction: 0x7661735f
 6d8:	61625f65 	cmnvs	r2, r5, ror #30
 6dc:	68006573 	stmdavs	r0, {r0, r1, r4, r5, r6, r8, sl, sp, lr}
 6e0:	5f626174 	svcpl	0x00626174
 6e4:	68736168 	ldmdavs	r3!, {r3, r5, r6, r8, sp, lr}^
 6e8:	696f705f 	stmdbvs	pc!, {r0, r1, r2, r3, r4, r6, ip, sp, lr}^	; <UNPREDICTABLE>
 6ec:	7265746e 	rsbvc	r7, r5, #1845493760	; 0x6e000000
 6f0:	6f682f00 	svcvs	0x00682f00
 6f4:	742f656d 	strtvc	r6, [pc], #-1389	; 6fc <shift+0x6fc>
 6f8:	2d677763 	stclcs	7, cr7, [r7, #-396]!	; 0xfffffe74
 6fc:	6c697562 	cfstr64vs	mvdx7, [r9], #-392	; 0xfffffe78
 700:	616c7364 	cmnvs	ip, r4, ror #6
 704:	772f6576 			; <UNDEFINED> instruction: 0x772f6576
 708:	736b726f 	cmnvc	fp, #-268435450	; 0xf0000006
 70c:	65636170 	strbvs	r6, [r3, #-368]!	; 0xfffffe90
 710:	7763742f 	strbvc	r7, [r3, -pc, lsr #8]!
 714:	616d2d67 	cmnvs	sp, r7, ror #26
 718:	722d656b 	eorvc	r6, sp, #448790528	; 0x1ac00000
 71c:	61656c65 	cmnvs	r5, r5, ror #24
 720:	6c2f6573 	cfstr32vs	mvfx6, [pc], #-460	; 55c <shift+0x55c>
 724:	6c656261 	sfmvs	f6, 2, [r5], #-388	; 0xfffffe7c
 728:	636f642f 	cmnvs	pc, #788529152	; 0x2f000000
 72c:	2d72656b 	cfldr64cs	mvdx6, [r2, #-428]!	; 0xfffffe54
 730:	73757274 	cmnvc	r5, #116, 4	; 0x40000007
 734:	612d7974 			; <UNDEFINED> instruction: 0x612d7974
 738:	3436646d 	ldrtcc	r6, [r6], #-1133	; 0xfffffb93
 73c:	7763742d 	strbvc	r7, [r3, -sp, lsr #8]!
 740:	75622d67 	strbvc	r2, [r2, #-3431]!	; 0xfffff299
 744:	2f646c69 	svccs	0x00646c69
 748:	67726174 			; <UNDEFINED> instruction: 0x67726174
 74c:	612f7465 			; <UNDEFINED> instruction: 0x612f7465
 750:	6c2d6d72 	stcvs	13, cr6, [sp], #-456	; 0xfffffe38
 754:	78756e69 	ldmdavc	r5!, {r0, r3, r5, r6, r9, sl, fp, sp, lr}^
 758:	756e672d 	strbvc	r6, [lr, #-1837]!	; 0xfffff8d3
 75c:	69626165 	stmdbvs	r2!, {r0, r2, r5, r6, r8, sp, lr}^
 760:	5f2f6668 	svcpl	0x002f6668
 764:	6c697562 	cfstr64vs	mvdx7, [r9], #-392	; 0xfffffe78
 768:	75622f64 	strbvc	r2, [r2, #-3940]!	; 0xfffff09c
 76c:	73646c69 	cmnvc	r4, #26880	; 0x6900
 770:	3638782f 	ldrtcc	r7, [r8], -pc, lsr #16
 774:	2d34365f 	ldccs	6, cr3, [r4, #-380]!	; 0xfffffe84
 778:	6e6b6e75 	mcrvs	14, 3, r6, cr11, cr5, {3}
 77c:	2d6e776f 	stclcs	7, cr7, [lr, #-444]!	; 0xfffffe44
 780:	756e696c 	strbvc	r6, [lr, #-2412]!	; 0xfffff694
 784:	6e672d78 	mcrvs	13, 3, r2, cr7, cr8, {3}
 788:	72612f75 	rsbvc	r2, r1, #468	; 0x1d4
 78c:	696c2d6d 	stmdbvs	ip!, {r0, r2, r3, r5, r6, r8, sl, fp, sp}^
 790:	2d78756e 	cfldr64cs	mvdx7, [r8, #-440]!	; 0xfffffe48
 794:	65756e67 	ldrbvs	r6, [r5, #-3687]!	; 0xfffff199
 798:	68696261 	stmdavs	r9!, {r0, r5, r6, r9, sp, lr}^
 79c:	63672f66 	cmnvs	r7, #408	; 0x198
 7a0:	696c2d63 	stmdbvs	ip!, {r0, r1, r5, r6, r8, sl, fp, sp}^
 7a4:	6f72616e 	svcvs	0x0072616e
 7a8:	322e362d 	eorcc	r3, lr, #47185920	; 0x2d00000
 7ac:	3130322d 	teqcc	r0, sp, lsr #4
 7b0:	31312e36 	teqcc	r1, r6, lsr lr
 7b4:	6174732d 	cmnvs	r4, sp, lsr #6
 7b8:	2f326567 	svccs	0x00326567
 7bc:	2d6d7261 	sfmcs	f7, 2, [sp, #-388]!	; 0xfffffe7c
 7c0:	756e696c 	strbvc	r6, [lr, #-2412]!	; 0xfffff694
 7c4:	6e672d78 	mcrvs	13, 3, r2, cr7, cr8, {3}
 7c8:	62616575 	rsbvs	r6, r1, #490733568	; 0x1d400000
 7cc:	2f666869 	svccs	0x00666869
 7d0:	6762696c 	strbvs	r6, [r2, -ip, ror #18]!
 7d4:	42006363 	andmi	r6, r0, #-1946157055	; 0x8c000001
 7d8:	5f455341 	svcpl	0x00455341
 7dc:	48435241 	stmdami	r3, {r0, r6, r9, ip, lr}^
 7e0:	0054355f 	subseq	r3, r4, pc, asr r5
 7e4:	376d7261 	strbcc	r7, [sp, -r1, ror #4]!
 7e8:	00303035 	eorseq	r3, r0, r5, lsr r0
 7ec:	396d7261 	stmdbcc	sp!, {r0, r5, r6, r9, ip, sp, lr}^
 7f0:	73653836 	cmnvc	r5, #3538944	; 0x360000
 7f4:	53414200 	movtpl	r4, #4608	; 0x1200
 7f8:	52415f45 	subpl	r5, r1, #276	; 0x114
 7fc:	375f4843 	ldrbcc	r4, [pc, -r3, asr #16]
 800:	52410041 	subpl	r0, r1, #65	; 0x41
 804:	50465f4d 	subpl	r5, r6, sp, asr #30
 808:	444f4d5f 	strbmi	r4, [pc], #-3423	; 810 <shift+0x810>
 80c:	555f4c45 	ldrbpl	r4, [pc, #-3141]	; fffffbcf <__bss_end+0x7dffcbef>
 810:	4f4e4b4e 	svcmi	0x004e4b4e
 814:	41004e57 	tstmi	r0, r7, asr lr
 818:	4d5f4d52 	ldclmi	13, cr4, [pc, #-328]	; 6d8 <shift+0x6d8>
 81c:	72610049 	rsbvc	r0, r1, #73	; 0x49
 820:	72615f6d 	rsbvc	r5, r1, #436	; 0x1b4
 824:	6b366863 	blvs	d9a9b8 <shift+0xd9a9b8>
 828:	6d726100 	ldfvse	f6, [r2, #-0]
 82c:	6372615f 	cmnvs	r2, #-1073741801	; 0xc0000017
 830:	006d3668 	rsbeq	r3, sp, r8, ror #12
 834:	6d6f682f 	stclvs	8, cr6, [pc, #-188]!	; 780 <shift+0x780>
 838:	63742f65 	cmnvs	r4, #404	; 0x194
 83c:	622d6777 	eorvs	r6, sp, #31195136	; 0x1dc0000
 840:	646c6975 	strbtvs	r6, [ip], #-2421	; 0xfffff68b
 844:	76616c73 			; <UNDEFINED> instruction: 0x76616c73
 848:	6f772f65 	svcvs	0x00772f65
 84c:	70736b72 	rsbsvc	r6, r3, r2, ror fp
 850:	2f656361 	svccs	0x00656361
 854:	67776374 			; <UNDEFINED> instruction: 0x67776374
 858:	6b616d2d 	blvs	185bd14 <shift+0x185bd14>
 85c:	65722d65 	ldrbvs	r2, [r2, #-3429]!	; 0xfffff29b
 860:	7361656c 	cmnvc	r1, #108, 10	; 0x1b000000
 864:	616c2f65 	cmnvs	ip, r5, ror #30
 868:	2f6c6562 	svccs	0x006c6562
 86c:	6b636f64 	blvs	18dc604 <shift+0x18dc604>
 870:	742d7265 	strtvc	r7, [sp], #-613	; 0xfffffd9b
 874:	74737572 	ldrbtvc	r7, [r3], #-1394	; 0xfffffa8e
 878:	6d612d79 	stclvs	13, cr2, [r1, #-484]!	; 0xfffffe1c
 87c:	2d343664 	ldccs	6, cr3, [r4, #-400]!	; 0xfffffe70
 880:	67776374 			; <UNDEFINED> instruction: 0x67776374
 884:	6975622d 	ldmdbvs	r5!, {r0, r2, r3, r5, r9, sp, lr}^
 888:	742f646c 	strtvc	r6, [pc], #-1132	; 890 <shift+0x890>
 88c:	65677261 	strbvs	r7, [r7, #-609]!	; 0xfffffd9f
 890:	72612f74 	rsbvc	r2, r1, #116, 30	; 0x1d0
 894:	696c2d6d 	stmdbvs	ip!, {r0, r2, r3, r5, r6, r8, sl, fp, sp}^
 898:	2d78756e 	cfldr64cs	mvdx7, [r8, #-440]!	; 0xfffffe48
 89c:	65756e67 	ldrbvs	r6, [r5, #-3687]!	; 0xfffff199
 8a0:	68696261 	stmdavs	r9!, {r0, r5, r6, r9, sp, lr}^
 8a4:	6e732f66 	cdpvs	15, 7, cr2, cr3, cr6, {3}
 8a8:	68737061 	ldmdavs	r3!, {r0, r5, r6, ip, sp, lr}^
 8ac:	2f73746f 	svccs	0x0073746f
 8b0:	2d636367 	stclcs	3, cr6, [r3, #-412]!	; 0xfffffe64
 8b4:	616e696c 	cmnvs	lr, ip, ror #18
 8b8:	362d6f72 	qsub16cc	r6, sp, r2
 8bc:	322d322e 	eorcc	r3, sp, #-536870910	; 0xe0000002
 8c0:	2e363130 	mrccs	1, 1, r3, cr6, cr0, {1}
 8c4:	6c2f3131 	stfvss	f3, [pc], #-196	; 808 <shift+0x808>
 8c8:	63676269 	cmnvs	r7, #-1879048186	; 0x90000006
 8cc:	696c2f63 	stmdbvs	ip!, {r0, r1, r5, r6, r8, r9, sl, fp, sp}^
 8d0:	63636762 	cmnvs	r3, #25690112	; 0x1880000
 8d4:	00632e32 	rsbeq	r2, r3, r2, lsr lr
 8d8:	45534142 	ldrbmi	r4, [r3, #-322]	; 0xfffffebe
 8dc:	4352415f 	cmpmi	r2, #-1073741801	; 0xc0000017
 8e0:	52375f48 	eorspl	r5, r7, #72, 30	; 0x120
 8e4:	705f5f00 	subsvc	r5, pc, r0, lsl #30
 8e8:	6f63706f 	svcvs	0x0063706f
 8ec:	5f746e75 	svcpl	0x00746e75
 8f0:	00626174 	rsbeq	r6, r2, r4, ror r1
 8f4:	396d7261 	stmdbcc	sp!, {r0, r5, r6, r9, ip, sp, lr}^
 8f8:	00743032 	rsbseq	r3, r4, r2, lsr r0
 8fc:	376d7261 	strbcc	r7, [sp, -r1, ror #4]!
 900:	61003032 	tstvs	r0, r2, lsr r0
 904:	31316d72 	teqcc	r1, r2, ror sp
 908:	736a3633 	cmnvc	sl, #53477376	; 0x3300000
 90c:	61746800 	cmnvs	r4, r0, lsl #16
 910:	71655f62 	cmnvc	r5, r2, ror #30
 914:	705f5f00 	subsvc	r5, pc, r0, lsl #30
 918:	00316461 	eorseq	r6, r1, r1, ror #8
 91c:	396d7261 	stmdbcc	sp!, {r0, r5, r6, r9, ip, sp, lr}^
 920:	73653634 	cmnvc	r5, #52, 12	; 0x3400000
 924:	705f5f00 	subsvc	r5, pc, r0, lsl #30
 928:	00336461 	eorseq	r6, r3, r1, ror #8
 92c:	61705f5f 	cmnvs	r0, pc, asr pc
 930:	5f003464 	svcpl	0x00003464
 934:	6461705f 	strbtvs	r7, [r1], #-95	; 0xffffffa1
 938:	6f630035 	svcvs	0x00630035
 93c:	78657472 	stmdavc	r5!, {r1, r4, r5, r6, sl, ip, sp, lr}^
 940:	6d73316d 	ldfvse	f3, [r3, #-436]!	; 0xfffffe4c
 944:	6d6c6c61 	stclvs	12, cr6, [ip, #-388]!	; 0xfffffe7c
 948:	69746c75 	ldmdbvs	r4!, {r0, r2, r4, r5, r6, sl, fp, sp, lr}^
 94c:	00796c70 	rsbseq	r6, r9, r0, ror ip
 950:	5f4d5241 	svcpl	0x004d5241
 954:	5f534350 	svcpl	0x00534350
 958:	43504141 	cmpmi	r0, #1073741840	; 0x40000010
 95c:	46565f53 	usaxmi	r5, r6, r3
 960:	72610050 	rsbvc	r0, r1, #80	; 0x50
 964:	72615f6d 	rsbvc	r5, r1, #436	; 0x1b4
 968:	6e5f6863 	cdpvs	8, 5, cr6, cr15, cr3, {3}
 96c:	6f765f6f 	svcvs	0x00765f6f
 970:	6974616c 	ldmdbvs	r4!, {r2, r3, r5, r6, r8, sp, lr}^
 974:	635f656c 	cmpvs	pc, #108, 10	; 0x1b000000
 978:	6f630065 	svcvs	0x00630065
 97c:	78657472 	stmdavc	r5!, {r1, r4, r5, r6, sl, ip, sp, lr}^
 980:	00373561 	eorseq	r3, r7, r1, ror #10
 984:	45534142 	ldrbmi	r4, [r3, #-322]	; 0xfffffebe
 988:	4352415f 	cmpmi	r2, #-1073741801	; 0xc0000017
 98c:	41385f48 	teqmi	r8, r8, asr #30
 990:	6d726100 	ldfvse	f6, [r2, #-0]
 994:	69303037 	ldmdbvs	r0!, {r0, r1, r2, r4, r5, ip, sp}
 998:	4d524100 	ldfmie	f4, [r2, #-0]
 99c:	00454e5f 	subeq	r4, r5, pc, asr lr
 9a0:	366d7261 	strbtcc	r7, [sp], -r1, ror #4
 9a4:	65660030 	strbvs	r0, [r6, #-48]!	; 0xffffffd0
 9a8:	72757461 	rsbsvc	r7, r5, #1627389952	; 0x61000000
 9ac:	6f007365 	svcvs	0x00007365
 9b0:	6e697470 	mcrvs	4, 3, r7, cr9, cr0, {3}
 9b4:	52410064 	subpl	r0, r1, #100	; 0x64
 9b8:	49485f4d 	stmdbmi	r8, {r0, r2, r3, r6, r8, r9, sl, fp, ip, lr}^
 9bc:	6f727000 	svcvs	0x00727000
 9c0:	6d617267 	sfmvs	f7, 2, [r1, #-412]!	; 0xfffffe64
 9c4:	766e695f 			; <UNDEFINED> instruction: 0x766e695f
 9c8:	7461636f 	strbtvc	r6, [r1], #-879	; 0xfffffc91
 9cc:	5f6e6f69 	svcpl	0x006e6f69
 9d0:	656d616e 	strbvs	r6, [sp, #-366]!	; 0xfffffe92
 9d4:	74706f00 	ldrbtvc	r6, [r0], #-3840	; 0xfffff100
 9d8:	00677261 	rsbeq	r7, r7, r1, ror #4
 9dc:	5f4d5241 	svcpl	0x004d5241
 9e0:	6100564e 	tstvs	r0, lr, asr #12
 9e4:	615f6d72 	cmpvs	pc, r2, ror sp	; <UNPREDICTABLE>
 9e8:	34686372 	strbtcc	r6, [r8], #-882	; 0xfffffc8e
 9ec:	726f6300 	rsbvc	r6, pc, #0, 6
 9f0:	6d786574 	cfldr64vs	mvdx6, [r8, #-464]!	; 0xfffffe30
 9f4:	616d7330 	cmnvs	sp, r0, lsr r3
 9f8:	756d6c6c 	strbvc	r6, [sp, #-3180]!	; 0xfffff394
 9fc:	7069746c 	rsbvc	r7, r9, ip, ror #8
 a00:	6100796c 	tstvs	r0, ip, ror #18
 a04:	615f6d72 	cmpvs	pc, r2, ror sp	; <UNPREDICTABLE>
 a08:	36686372 			; <UNDEFINED> instruction: 0x36686372
 a0c:	6d726100 	ldfvse	f6, [r2, #-0]
 a10:	6372615f 	cmnvs	r2, #-1073741801	; 0xc0000017
 a14:	61003768 	tstvs	r0, r8, ror #14
 a18:	615f6d72 	cmpvs	pc, r2, ror sp	; <UNPREDICTABLE>
 a1c:	38686372 	stmdacc	r8!, {r1, r4, r5, r6, r8, r9, sp, lr}^
 a20:	6e6f6c00 	cdpvs	12, 6, cr6, cr15, cr0, {0}
 a24:	6f642067 	svcvs	0x00642067
 a28:	656c6275 	strbvs	r6, [ip, #-629]!	; 0xfffffd8b
 a2c:	726f6300 	rsbvc	r6, pc, #0, 6
 a30:	61786574 	cmnvs	r8, r4, ror r5
 a34:	6f633735 	svcvs	0x00633735
 a38:	78657472 	stmdavc	r5!, {r1, r4, r5, r6, sl, ip, sp, lr}^
 a3c:	00333561 	eorseq	r3, r3, r1, ror #10
 a40:	5f6d7261 	svcpl	0x006d7261
 a44:	656e7574 	strbvs	r7, [lr, #-1396]!	; 0xfffffa8c
 a48:	6373785f 	cmnvs	r3, #6225920	; 0x5f0000
 a4c:	00656c61 	rsbeq	r6, r5, r1, ror #24
 a50:	5f6d7261 	svcpl	0x006d7261
 a54:	68637261 	stmdavs	r3!, {r0, r5, r6, r9, ip, sp, lr}^
 a58:	6f630035 	svcvs	0x00630035
 a5c:	78657472 	stmdavc	r5!, {r1, r4, r5, r6, sl, ip, sp, lr}^
 a60:	63373161 	teqvs	r7, #1073741848	; 0x40000018
 a64:	6574726f 	ldrbvs	r7, [r4, #-623]!	; 0xfffffd91
 a68:	00376178 	eorseq	r6, r7, r8, ror r1
 a6c:	376d7261 	strbcc	r7, [sp, -r1, ror #4]!
 a70:	5f006964 	svcpl	0x00006964
 a74:	6175715f 	cmnvs	r5, pc, asr r1
 a78:	00745f64 	rsbseq	r5, r4, r4, ror #30
 a7c:	696b616d 	stmdbvs	fp!, {r0, r2, r3, r5, r6, r8, sp, lr}^
 a80:	635f676e 	cmpvs	pc, #28835840	; 0x1b80000
 a84:	74736e6f 	ldrbtvc	r6, [r3], #-3695	; 0xfffff191
 a88:	6261745f 	rsbvs	r7, r1, #1593835520	; 0x5f000000
 a8c:	7400656c 	strvc	r6, [r0], #-1388	; 0xfffffa94
 a90:	626d7568 	rsbvs	r7, sp, #104, 10	; 0x1a000000
 a94:	6c61635f 	stclvs	3, cr6, [r1], #-380	; 0xfffffe84
 a98:	69765f6c 	ldmdbvs	r6!, {r2, r3, r5, r6, r8, r9, sl, fp, ip, lr}^
 a9c:	616c5f61 	cmnvs	ip, r1, ror #30
 aa0:	006c6562 	rsbeq	r6, ip, r2, ror #10
 aa4:	316d7261 	cmncc	sp, r1, ror #4
 aa8:	74363531 	ldrtvc	r3, [r6], #-1329	; 0xfffffacf
 aac:	47007332 	smladxmi	r0, r2, r3, r7
 ab0:	4320554e 			; <UNDEFINED> instruction: 0x4320554e
 ab4:	36203131 			; <UNDEFINED> instruction: 0x36203131
 ab8:	312e322e 			; <UNDEFINED> instruction: 0x312e322e
 abc:	31303220 	teqcc	r0, r0, lsr #4
 ac0:	31303136 	teqcc	r0, r6, lsr r1
 ac4:	6d2d2036 	stcvs	0, cr2, [sp, #-216]!	; 0xffffff28
 ac8:	68637261 	stmdavs	r3!, {r0, r5, r6, r9, ip, sp, lr}^
 acc:	6d72613d 	ldfvse	f6, [r2, #-244]!	; 0xffffff0c
 ad0:	612d3776 			; <UNDEFINED> instruction: 0x612d3776
 ad4:	746d2d20 	strbtvc	r2, [sp], #-3360	; 0xfffff2e0
 ad8:	3d656e75 	stclcc	14, cr6, [r5, #-468]!	; 0xfffffe2c
 adc:	74726f63 	ldrbtvc	r6, [r2], #-3939	; 0xfffff09d
 ae0:	612d7865 			; <UNDEFINED> instruction: 0x612d7865
 ae4:	6d2d2039 	stcvs	0, cr2, [sp, #-228]!	; 0xffffff1c
 ae8:	616f6c66 	cmnvs	pc, r6, ror #24
 aec:	62612d74 	rsbvs	r2, r1, #116, 26	; 0x1d00
 af0:	61683d69 	cmnvs	r8, r9, ror #26
 af4:	2d206472 	cfstrscs	mvf6, [r0, #-456]!	; 0xfffffe38
 af8:	7570666d 	ldrbvc	r6, [r0, #-1645]!	; 0xfffff993
 afc:	7066763d 	rsbvc	r7, r6, sp, lsr r6
 b00:	642d3376 	strtvs	r3, [sp], #-886	; 0xfffffc8a
 b04:	2d203631 	stccs	6, cr3, [r0, #-196]!	; 0xffffff3c
 b08:	7568746d 	strbvc	r7, [r8, #-1133]!	; 0xfffffb93
 b0c:	2d20626d 	sfmcs	f6, 4, [r0, #-436]!	; 0xfffffe4c
 b10:	736c746d 	cmnvc	ip, #1828716544	; 0x6d000000
 b14:	6169642d 	cmnvs	r9, sp, lsr #8
 b18:	7463656c 	strbtvc	r6, [r3], #-1388	; 0xfffffa94
 b1c:	756e673d 	strbvc	r6, [lr, #-1853]!	; 0xfffff8c3
 b20:	20672d20 	rsbcs	r2, r7, r0, lsr #26
 b24:	2d20672d 	stccs	7, cr6, [r0, #-180]!	; 0xffffff4c
 b28:	4f2d2067 	svcmi	0x002d2067
 b2c:	4f2d2032 	svcmi	0x002d2032
 b30:	4f2d2032 	svcmi	0x002d2032
 b34:	662d2032 			; <UNDEFINED> instruction: 0x662d2032
 b38:	6c697562 	cfstr64vs	mvdx7, [r9], #-392	; 0xfffffe78
 b3c:	676e6964 	strbvs	r6, [lr, -r4, ror #18]!
 b40:	62696c2d 	rsbvs	r6, r9, #11520	; 0x2d00
 b44:	20636367 	rsbcs	r6, r3, r7, ror #6
 b48:	6f6e662d 	svcvs	0x006e662d
 b4c:	6174732d 	cmnvs	r4, sp, lsr #6
 b50:	702d6b63 	eorvc	r6, sp, r3, ror #22
 b54:	65746f72 	ldrbvs	r6, [r4, #-3954]!	; 0xfffff08e
 b58:	726f7463 	rsbvc	r7, pc, #1660944384	; 0x63000000
 b5c:	50662d20 	rsbpl	r2, r6, r0, lsr #26
 b60:	2d204349 	stccs	3, cr4, [r0, #-292]!	; 0xfffffedc
 b64:	2d6f6e66 	stclcs	14, cr6, [pc, #-408]!	; 9d4 <shift+0x9d4>
 b68:	696c6e69 	stmdbvs	ip!, {r0, r3, r5, r6, r9, sl, fp, sp, lr}^
 b6c:	2d20656e 	cfstr32cs	mvfx6, [r0, #-440]!	; 0xfffffe48
 b70:	63786566 	cmnvs	r8, #427819008	; 0x19800000
 b74:	69747065 	ldmdbvs	r4!, {r0, r2, r5, r6, ip, sp, lr}^
 b78:	20736e6f 	rsbscs	r6, r3, pc, ror #28
 b7c:	6976662d 	ldmdbvs	r6!, {r0, r2, r3, r5, r9, sl, sp, lr}^
 b80:	69626973 	stmdbvs	r2!, {r0, r1, r4, r5, r6, r8, fp, sp, lr}^
 b84:	7974696c 	ldmdbvc	r4!, {r2, r3, r5, r6, r8, fp, sp, lr}^
 b88:	6469683d 	strbtvs	r6, [r9], #-2109	; 0xfffff7c3
 b8c:	006e6564 	rsbeq	r6, lr, r4, ror #10
 b90:	5f4f495f 	svcpl	0x004f495f
 b94:	64616572 	strbtvs	r6, [r1], #-1394	; 0xfffffa8e
 b98:	646e655f 	strbtvs	r6, [lr], #-1375	; 0xfffffaa1
 b9c:	4d524100 	ldfmie	f4, [r2, #-0]
 ba0:	5343505f 	movtpl	r5, #12383	; 0x305f
 ba4:	4350415f 	cmpmi	r0, #-1073741801	; 0xc0000017
 ba8:	52410053 	subpl	r0, r1, #83	; 0x53
 bac:	43505f4d 	cmpmi	r0, #308	; 0x134
 bb0:	54415f53 	strbpl	r5, [r1], #-3923	; 0xfffff0ad
 bb4:	00534350 	subseq	r4, r3, r0, asr r3
 bb8:	726f6873 	rsbvc	r6, pc, #7536640	; 0x730000
 bbc:	6e692074 	mcrvs	0, 3, r2, cr9, cr4, {3}
 bc0:	6f630074 	svcvs	0x00630074
 bc4:	656c706d 	strbvs	r7, [ip, #-109]!	; 0xffffff93
 bc8:	6f642078 	svcvs	0x00642078
 bcc:	656c6275 	strbvs	r6, [ip, #-629]!	; 0xfffffd8b
 bd0:	6d726100 	ldfvse	f6, [r2, #-0]
 bd4:	74323239 	ldrtvc	r3, [r2], #-569	; 0xfffffdc7
 bd8:	6d726100 	ldfvse	f6, [r2, #-0]
 bdc:	0063635f 	rsbeq	r6, r3, pc, asr r3
 be0:	6f63706d 	svcvs	0x0063706d
 be4:	62006572 	andvs	r6, r0, #478150656	; 0x1c800000
 be8:	5f657361 	svcpl	0x00657361
 bec:	68637261 	stmdavs	r3!, {r0, r5, r6, r9, ip, sp, lr}^
 bf0:	63657469 	cmnvs	r5, #1761607680	; 0x69000000
 bf4:	65727574 	ldrbvs	r7, [r2, #-1396]!	; 0xfffffa8c
 bf8:	6d726100 	ldfvse	f6, [r2, #-0]
 bfc:	6372615f 	cmnvs	r2, #-1073741801	; 0xc0000017
 c00:	72635f68 	rsbvc	r5, r3, #104, 30	; 0x1a0
 c04:	72610063 	rsbvc	r0, r1, #99	; 0x63
 c08:	3731316d 	ldrcc	r3, [r1, -sp, ror #2]!
 c0c:	737a6a36 	cmnvc	sl, #221184	; 0x36000
 c10:	6d726100 	ldfvse	f6, [r2, #-0]
 c14:	7275635f 	rsbsvc	r6, r5, #2080374785	; 0x7c000001
 c18:	746e6572 	strbtvc	r6, [lr], #-1394	; 0xfffffa8e
 c1c:	0063635f 	rsbeq	r6, r3, pc, asr r3
 c20:	32356166 	eorscc	r6, r5, #-2147483623	; 0x80000019
 c24:	6f630036 	svcvs	0x00630036
 c28:	78657472 	stmdavc	r5!, {r1, r4, r5, r6, sl, ip, sp, lr}^
 c2c:	00323761 	eorseq	r3, r2, r1, ror #14
 c30:	74726f63 	ldrbtvc	r6, [r2], #-3939	; 0xfffff09d
 c34:	37617865 	strbcc	r7, [r1, -r5, ror #16]!
 c38:	5f5f0033 	svcpl	0x005f0033
 c3c:	69766e65 	ldmdbvs	r6!, {r0, r2, r5, r6, r9, sl, fp, sp, lr}^
 c40:	006e6f72 	rsbeq	r6, lr, r2, ror pc
 c44:	396d7261 	stmdbcc	sp!, {r0, r5, r6, r9, ip, sp, lr}^
 c48:	73653636 	cmnvc	r5, #56623104	; 0x3600000
 c4c:	4f495f00 	svcmi	0x00495f00
 c50:	4c49465f 	mcrrmi	6, 5, r4, r9, cr15
 c54:	6c705f45 	ldclvs	15, cr5, [r0], #-276	; 0xfffffeec
 c58:	41007375 	tstmi	r0, r5, ror r3
 c5c:	505f4d52 	subspl	r4, pc, r2, asr sp	; <UNPREDICTABLE>
 c60:	616d004c 	cmnvs	sp, ip, asr #32
 c64:	6c657672 	stclvs	6, cr7, [r5], #-456	; 0xfffffe38
 c68:	6a705f6c 	bvs	1c18a20 <shift+0x1c18a20>
 c6c:	41420034 	cmpmi	r2, r4, lsr r0
 c70:	415f4553 	cmpmi	pc, r3, asr r5	; <UNPREDICTABLE>
 c74:	5f484352 	svcpl	0x00484352
 c78:	00325436 	eorseq	r5, r2, r6, lsr r4
 c7c:	45534142 	ldrbmi	r4, [r3, #-322]	; 0xfffffebe
 c80:	4352415f 	cmpmi	r2, #-1073741801	; 0xc0000017
 c84:	4d385f48 	ldcmi	15, cr5, [r8, #-288]!	; 0xfffffee0
 c88:	49414d5f 	stmdbmi	r1, {r0, r1, r2, r3, r4, r6, r8, sl, fp, lr}^
 c8c:	7261004e 	rsbvc	r0, r1, #78	; 0x4e
 c90:	75745f6d 	ldrbvc	r5, [r4, #-3949]!	; 0xfffff093
 c94:	635f656e 	cmpvs	pc, #461373440	; 0x1b800000
 c98:	6574726f 	ldrbvs	r7, [r4, #-623]!	; 0xfffffd91
 c9c:	39615f78 	stmdbcc	r1!, {r3, r4, r5, r6, r8, r9, sl, fp, ip, lr}^
 ca0:	4d524100 	ldfmie	f4, [r2, #-0]
 ca4:	004c415f 	subeq	r4, ip, pc, asr r1
 ca8:	45534142 	ldrbmi	r4, [r3, #-322]	; 0xfffffebe
 cac:	4352415f 	cmpmi	r2, #-1073741801	; 0xc0000017
 cb0:	4d375f48 	ldcmi	15, cr5, [r7, #-288]!	; 0xfffffee0
 cb4:	6d726100 	ldfvse	f6, [r2, #-0]
 cb8:	7261745f 	rsbvc	r7, r1, #1593835520	; 0x5f000000
 cbc:	5f746567 	svcpl	0x00746567
 cc0:	6562616c 	strbvs	r6, [r2, #-364]!	; 0xfffffe94
 cc4:	7261006c 	rsbvc	r0, r1, #108	; 0x6c
 cc8:	61745f6d 	cmnvs	r4, sp, ror #30
 ccc:	74656772 	strbtvc	r6, [r5], #-1906	; 0xfffff88e
 cd0:	736e695f 	cmnvc	lr, #1556480	; 0x17c000
 cd4:	7261006e 	rsbvc	r0, r1, #110	; 0x6e
 cd8:	3035326d 	eorscc	r3, r5, sp, ror #4
 cdc:	6f6c5f00 	svcvs	0x006c5f00
 ce0:	78006b63 	stmdavc	r0, {r0, r1, r5, r6, r8, r9, fp, sp, lr}
 ce4:	656e6567 	strbvs	r6, [lr, #-1383]!	; 0xfffffa99
 ce8:	69730031 	ldmdbvs	r3!, {r0, r4, r5}^
 cec:	7974657a 	ldmdbvc	r4!, {r1, r3, r4, r5, r6, r8, sl, sp, lr}^
 cf0:	61006570 	tstvs	r0, r0, ror r5
 cf4:	30316d72 	eorscc	r6, r1, r2, ror sp
 cf8:	6a653632 	bvs	194e5c8 <shift+0x194e5c8>
 cfc:	6f5f0073 	svcvs	0x005f0073
 d00:	6f5f646c 	svcvs	0x005f646c
 d04:	65736666 	ldrbvs	r6, [r3, #-1638]!	; 0xfffff99a
 d08:	495f0074 	ldmdbmi	pc, {r2, r4, r5, r6}^	; <UNPREDICTABLE>
 d0c:	49465f4f 	stmdbmi	r6, {r0, r1, r2, r3, r6, r8, r9, sl, fp, ip, lr}^
 d10:	6100454c 	tstvs	r0, ip, asr #10
 d14:	31316d72 	teqcc	r1, r2, ror sp
 d18:	666a3633 			; <UNDEFINED> instruction: 0x666a3633
 d1c:	645f0073 	ldrbvs	r0, [pc], #-115	; d24 <shift+0xd24>
 d20:	5f746e6f 	svcpl	0x00746e6f
 d24:	5f657375 	svcpl	0x00657375
 d28:	5f787472 	svcpl	0x00787472
 d2c:	65726568 	ldrbvs	r6, [r2, #-1384]!	; 0xfffffa98
 d30:	7261005f 	rsbvc	r0, r1, #95	; 0x5f
 d34:	0030376d 	eorseq	r3, r0, sp, ror #14
 d38:	6e797865 	cdpvs	8, 7, cr7, cr9, cr5, {3}
 d3c:	316d736f 	cmncc	sp, pc, ror #6
 d40:	49515500 	ldmdbmi	r1, {r8, sl, ip, lr}^
 d44:	65707974 	ldrbvs	r7, [r0, #-2420]!	; 0xfffff68c
 d48:	50465600 	subpl	r5, r6, r0, lsl #12
 d4c:	4745525f 	smlsldmi	r5, r5, pc, r2	; <UNPREDICTABLE>
 d50:	3631445f 			; <UNDEFINED> instruction: 0x3631445f
 d54:	6d726100 	ldfvse	f6, [r2, #-0]
 d58:	6e75745f 	mrcvs	4, 3, r7, cr5, cr15, {2}
 d5c:	72610065 	rsbvc	r0, r1, #101	; 0x65
 d60:	70635f6d 	rsbvc	r5, r3, sp, ror #30
 d64:	6e695f70 	mcrvs	15, 3, r5, cr9, cr0, {3}
 d68:	77726574 			; <UNDEFINED> instruction: 0x77726574
 d6c:	006b726f 	rsbeq	r7, fp, pc, ror #4
 d70:	69736e75 	ldmdbvs	r3!, {r0, r2, r4, r5, r6, r9, sl, fp, sp, lr}^
 d74:	64656e67 	strbtvs	r6, [r5], #-3687	; 0xfffff199
 d78:	61686320 	cmnvs	r8, r0, lsr #6
 d7c:	72610072 	rsbvc	r0, r1, #114	; 0x72
 d80:	0064376d 	rsbeq	r3, r4, sp, ror #14
 d84:	7a745f5f 	bvc	1d18b08 <shift+0x1d18b08>
 d88:	656d616e 	strbvs	r6, [sp, #-366]!	; 0xfffffe92
 d8c:	62735f00 	rsbsvs	r5, r3, #0, 30
 d90:	61006675 	tstvs	r0, r5, ror r6
 d94:	615f6d72 	cmpvs	pc, r2, ror sp	; <UNPREDICTABLE>
 d98:	5f686372 	svcpl	0x00686372
 d9c:	6d756874 	ldclvs	8, cr6, [r5, #-464]!	; 0xfffffe30
 da0:	77685f62 	strbvc	r5, [r8, -r2, ror #30]!
 da4:	00766964 	rsbseq	r6, r6, r4, ror #18
 da8:	5f4f495f 	svcpl	0x004f495f
 dac:	74697277 	strbtvc	r7, [r9], #-631	; 0xfffffd89
 db0:	74705f65 	ldrbtvc	r5, [r0], #-3941	; 0xfffff09b
 db4:	72610072 	rsbvc	r0, r1, #114	; 0x72
 db8:	7430316d 	ldrtvc	r3, [r0], #-365	; 0xfffffe93
 dbc:	00696d64 	rsbeq	r6, r9, r4, ror #26
 dc0:	5f4d5241 	svcpl	0x004d5241
 dc4:	4d5f5046 	ldclmi	0, cr5, [pc, #-280]	; cb4 <shift+0xcb4>
 dc8:	4c45444f 	cfstrdmi	mvd4, [r5], {79}	; 0x4f
 dcc:	5046565f 	subpl	r5, r6, pc, asr r6
 dd0:	61746800 	cmnvs	r4, r0, lsl #16
 dd4:	71655f62 	cmnvc	r5, r2, ror #30
 dd8:	696f705f 	stmdbvs	pc!, {r0, r1, r2, r3, r4, r6, ip, sp, lr}^	; <UNPREDICTABLE>
 ddc:	7265746e 	rsbvc	r7, r5, #1845493760	; 0x6e000000
 de0:	6d726100 	ldfvse	f6, [r2, #-0]
 de4:	61006d37 	tstvs	r0, r7, lsr sp
 de8:	705f6d72 	subsvc	r6, pc, r2, ror sp	; <UNPREDICTABLE>
 dec:	725f6369 	subsvc	r6, pc, #-1543503871	; 0xa4000001
 df0:	73696765 	cmnvc	r9, #26476544	; 0x1940000
 df4:	00726574 	rsbseq	r6, r2, r4, ror r5
 df8:	32376166 	eorscc	r6, r7, #-2147483623	; 0x80000019
 dfc:	00657436 	rsbeq	r7, r5, r6, lsr r4
 e00:	5f4d5241 	svcpl	0x004d5241
 e04:	61004343 	tstvs	r0, r3, asr #6
 e08:	615f6d72 	cmpvs	pc, r2, ror sp	; <UNPREDICTABLE>
 e0c:	38686372 	stmdacc	r8!, {r1, r4, r5, r6, r8, r9, sp, lr}^
 e10:	6100325f 	tstvs	r0, pc, asr r2
 e14:	6c5f6d72 	mrrcvs	13, 7, r6, pc, cr2	; <UNPREDICTABLE>
 e18:	63735f64 	cmnvs	r3, #100, 30	; 0x190
 e1c:	00646568 	rsbeq	r6, r4, r8, ror #10
 e20:	386d7261 	stmdacc	sp!, {r0, r5, r6, r9, ip, sp, lr}^
 e24:	41003031 	tstmi	r0, r1, lsr r0
 e28:	435f4d52 	cmpmi	pc, #5248	; 0x1480
 e2c:	46560053 			; <UNDEFINED> instruction: 0x46560053
 e30:	45525f50 	ldrbmi	r5, [r2, #-3920]	; 0xfffff0b0
 e34:	49535f47 	ldmdbmi	r3, {r0, r1, r2, r6, r8, r9, sl, fp, ip, lr}^
 e38:	454c474e 	strbmi	r4, [ip, #-1870]	; 0xfffff8b2
 e3c:	6d726100 	ldfvse	f6, [r2, #-0]
 e40:	3170665f 	cmncc	r0, pc, asr r6
 e44:	6e695f36 	mcrvs	15, 3, r5, cr9, cr6, {1}
 e48:	61007473 	tstvs	r0, r3, ror r4
 e4c:	64376d72 	ldrtvs	r6, [r7], #-3442	; 0xfffff28e
 e50:	5f5f006d 	svcpl	0x005f006d
 e54:	5f66666f 	svcpl	0x0066666f
 e58:	65670074 	strbvs	r0, [r7, #-116]!	; 0xffffff8c
 e5c:	6972656e 	ldmdbvs	r2!, {r1, r2, r3, r5, r6, r8, sl, sp, lr}^
 e60:	61377663 	teqvs	r7, r3, ror #12
 e64:	6d726100 	ldfvse	f6, [r2, #-0]
 e68:	7361625f 	cmnvc	r1, #-268435451	; 0xf0000005
 e6c:	72615f65 	rsbvc	r5, r1, #404	; 0x194
 e70:	73006863 	movwvc	r6, #2147	; 0x863
 e74:	74726f68 	ldrbtvc	r6, [r2], #-3944	; 0xfffff098
 e78:	736e7520 	cmnvc	lr, #32, 10	; 0x8000000
 e7c:	656e6769 	strbvs	r6, [lr, #-1897]!	; 0xfffff897
 e80:	6e692064 	cdpvs	0, 6, cr2, cr9, cr4, {3}
 e84:	735f0074 	cmpvc	pc, #116	; 0x74
 e88:	655f7379 	ldrbvs	r7, [pc, #-889]	; b17 <shift+0xb17>
 e8c:	696c7272 	stmdbvs	ip!, {r1, r4, r5, r6, r9, ip, sp, lr}^
 e90:	61007473 	tstvs	r0, r3, ror r4
 e94:	615f6d72 	cmpvs	pc, r2, ror sp	; <UNPREDICTABLE>
 e98:	37686372 			; <UNDEFINED> instruction: 0x37686372
 e9c:	61006d65 	tstvs	r0, r5, ror #26
 ea0:	31376d72 	teqcc	r7, r2, ror sp
 ea4:	61003030 	tstvs	r0, r0, lsr r0
 ea8:	705f6d72 	subsvc	r6, pc, r2, ror sp	; <UNPREDICTABLE>
 eac:	645f7363 	ldrbvs	r7, [pc], #-867	; eb4 <shift+0xeb4>
 eb0:	75616665 	strbvc	r6, [r1, #-1637]!	; 0xfffff99b
 eb4:	5600746c 	strpl	r7, [r0], -ip, ror #8
 eb8:	525f5046 	subspl	r5, pc, #70	; 0x46
 ebc:	445f4745 	ldrbmi	r4, [pc], #-1861	; ec4 <shift+0xec4>
 ec0:	41003233 	tstmi	r0, r3, lsr r2
 ec4:	505f4d52 	subspl	r4, pc, r2, asr sp	; <UNPREDICTABLE>
 ec8:	555f5343 	ldrbpl	r5, [pc, #-835]	; b8d <shift+0xb8d>
 ecc:	4f4e4b4e 	svcmi	0x004e4b4e
 ed0:	65004e57 	strvs	r4, [r0, #-3671]	; 0xfffff1a9
 ed4:	31333970 	teqcc	r3, r0, ror r9
 ed8:	72610032 	rsbvc	r0, r1, #50	; 0x32
 edc:	6100336d 	tstvs	r0, sp, ror #6
 ee0:	615f6d72 	cmpvs	pc, r2, ror sp	; <UNPREDICTABLE>
 ee4:	5f686372 	svcpl	0x00686372
 ee8:	6d756874 	ldclvs	8, cr6, [r5, #-464]!	; 0xfffffe30
 eec:	61003162 	tstvs	r0, r2, ror #2
 ef0:	615f6d72 	cmpvs	pc, r2, ror sp	; <UNPREDICTABLE>
 ef4:	5f686372 	svcpl	0x00686372
 ef8:	6d756874 	ldclvs	8, cr6, [r5, #-464]!	; 0xfffffe30
 efc:	63003262 	movwvs	r3, #610	; 0x262
 f00:	6574726f 	ldrbvs	r7, [r4, #-623]!	; 0xfffffd91
 f04:	00306d78 	eorseq	r6, r0, r8, ror sp
 f08:	74726f63 	ldrbtvc	r6, [r2], #-3939	; 0xfffff09d
 f0c:	316d7865 	cmncc	sp, r5, ror #16
 f10:	6d726100 	ldfvse	f6, [r2, #-0]
 f14:	6f630038 	svcvs	0x00630038
 f18:	78657472 	stmdavc	r5!, {r1, r4, r5, r6, sl, ip, sp, lr}^
 f1c:	6300336d 	movwvs	r3, #877	; 0x36d
 f20:	6574726f 	ldrbvs	r7, [r4, #-623]!	; 0xfffffd91
 f24:	00346d78 	eorseq	r6, r4, r8, ror sp
 f28:	376d7261 	strbcc	r7, [sp, -r1, ror #4]!
 f2c:	696d6474 	stmdbvs	sp!, {r2, r4, r5, r6, sl, sp, lr}^
 f30:	726f6300 	rsbvc	r6, pc, #0, 6
 f34:	6d786574 	cfldr64vs	mvdx6, [r8, #-464]!	; 0xfffffe30
 f38:	44550037 	ldrbmi	r0, [r5], #-55	; 0xffffffc9
 f3c:	70797449 	rsbsvc	r7, r9, r9, asr #8
 f40:	665f0065 	ldrbvs	r0, [pc], -r5, rrx
 f44:	7367616c 	cmnvc	r7, #108, 2
 f48:	72610032 	rsbvc	r0, r1, #50	; 0x32
 f4c:	6f6e5f6d 	svcvs	0x006e5f6d
 f50:	5f00656e 	svcpl	0x0000656e
 f54:	7961645f 	stmdbvc	r1!, {r0, r1, r2, r3, r4, r6, sl, sp, lr}^
 f58:	6867696c 	stmdavs	r7!, {r2, r3, r5, r6, r8, fp, sp, lr}^
 f5c:	72610074 	rsbvc	r0, r1, #116	; 0x74
 f60:	3230316d 	eorscc	r3, r0, #1073741851	; 0x4000001b
 f64:	61006530 	tstvs	r0, r0, lsr r5
 f68:	31376d72 	teqcc	r7, r2, ror sp
 f6c:	71006330 	tstvc	r0, r0, lsr r3
 f70:	34326664 	ldrtcc	r6, [r2], #-1636	; 0xfffff99c
 f74:	5f007878 	svcpl	0x00007878
 f78:	73756e75 	cmnvc	r5, #1872	; 0x750
 f7c:	00326465 	eorseq	r6, r2, r5, ror #8
 f80:	5f4f495f 	svcpl	0x004f495f
 f84:	5f667562 	svcpl	0x00667562
 f88:	65736162 	ldrbvs	r6, [r3, #-354]!	; 0xfffffe9e
 f8c:	6d726100 	ldfvse	f6, [r2, #-0]
 f90:	6372615f 	cmnvs	r2, #-1073741801	; 0xc0000017
 f94:	315f3868 	cmpcc	pc, r8, ror #16
 f98:	6d726100 	ldfvse	f6, [r2, #-0]
 f9c:	30323031 	eorscc	r3, r2, r1, lsr r0
 fa0:	5f5f0074 	svcpl	0x005f0074
 fa4:	3666666f 	strbtcc	r6, [r6], -pc, ror #12
 fa8:	00745f34 	rsbseq	r5, r4, r4, lsr pc
