
uart.elf:     file format elf32-littlearm


Disassembly of section .text:

80100000 <_start>:
80100000:	e59fd028 	ldr	sp, [pc, #40]	; 80100030 <clean+0x14>
80100004:	eb000001 	bl	80100010 <clean_bss>
80100008:	fb000058 	blx	80100172 <main>

8010000c <halt>:
8010000c:	eafffffe 	b	8010000c <halt>

80100010 <clean_bss>:
80100010:	e59f101c 	ldr	r1, [pc, #28]	; 80100034 <clean+0x18>
80100014:	e59f201c 	ldr	r2, [pc, #28]	; 80100038 <clean+0x1c>
80100018:	e3a03000 	mov	r3, #0

8010001c <clean>:
8010001c:	e5813000 	str	r3, [r1]
80100020:	e2811004 	add	r1, r1, #4
80100024:	e1510002 	cmp	r1, r2
80100028:	1afffffb 	bne	8010001c <clean>
8010002c:	e1a0f00e 	mov	pc, lr
80100030:	80200000 	eorhi	r0, r0, r0
80100034:	801001a8 	andshi	r0, r0, r8, lsr #3
80100038:	801001b0 			; <UNDEFINED> instruction: 0x801001b0

8010003c <Uart_Init>:
8010003c:	b480      	push	{r7}
8010003e:	af00      	add	r7, sp, #0
80100040:	f240 12a8 	movw	r2, #424	; 0x1a8
80100044:	f2c8 0210 	movt	r2, #32784	; 0x8010
80100048:	2384      	movs	r3, #132	; 0x84
8010004a:	f2c0 230e 	movt	r3, #526	; 0x20e
8010004e:	6013      	str	r3, [r2, #0]
80100050:	f240 12ac 	movw	r2, #428	; 0x1ac
80100054:	f2c8 0210 	movt	r2, #32784	; 0x8010
80100058:	2388      	movs	r3, #136	; 0x88
8010005a:	f2c0 230e 	movt	r3, #526	; 0x20e
8010005e:	6013      	str	r3, [r2, #0]
80100060:	f240 13ac 	movw	r3, #428	; 0x1ac
80100064:	f2c8 0310 	movt	r3, #32784	; 0x8010
80100068:	681b      	ldr	r3, [r3, #0]
8010006a:	2200      	movs	r2, #0
8010006c:	601a      	str	r2, [r3, #0]
8010006e:	f240 13a8 	movw	r3, #424	; 0x1a8
80100072:	f2c8 0310 	movt	r3, #32784	; 0x8010
80100076:	681b      	ldr	r3, [r3, #0]
80100078:	2200      	movs	r2, #0
8010007a:	601a      	str	r2, [r3, #0]
8010007c:	2300      	movs	r3, #0
8010007e:	f2c0 2302 	movt	r3, #514	; 0x202
80100082:	2200      	movs	r2, #0
80100084:	f2c0 2202 	movt	r2, #514	; 0x202
80100088:	f8d2 2080 	ldr.w	r2, [r2, #128]	; 0x80
8010008c:	f042 0201 	orr.w	r2, r2, #1
80100090:	f8c3 2080 	str.w	r2, [r3, #128]	; 0x80
80100094:	2200      	movs	r2, #0
80100096:	f2c0 2202 	movt	r2, #514	; 0x202
8010009a:	2300      	movs	r3, #0
8010009c:	f2c0 2302 	movt	r3, #514	; 0x202
801000a0:	f8d3 3084 	ldr.w	r3, [r3, #132]	; 0x84
801000a4:	f443 4380 	orr.w	r3, r3, #16384	; 0x4000
801000a8:	f043 0326 	orr.w	r3, r3, #38	; 0x26
801000ac:	f8c2 3084 	str.w	r3, [r2, #132]	; 0x84
801000b0:	2300      	movs	r3, #0
801000b2:	f2c0 2302 	movt	r3, #514	; 0x202
801000b6:	2200      	movs	r2, #0
801000b8:	f2c0 2202 	movt	r2, #514	; 0x202
801000bc:	f8d2 2088 	ldr.w	r2, [r2, #136]	; 0x88
801000c0:	f042 0204 	orr.w	r2, r2, #4
801000c4:	f8c3 2088 	str.w	r2, [r3, #136]	; 0x88
801000c8:	2300      	movs	r3, #0
801000ca:	f2c0 2302 	movt	r3, #514	; 0x202
801000ce:	f44f 7220 	mov.w	r2, #640	; 0x280
801000d2:	f8c3 2090 	str.w	r2, [r3, #144]	; 0x90
801000d6:	2300      	movs	r3, #0
801000d8:	f2c0 2302 	movt	r3, #514	; 0x202
801000dc:	2247      	movs	r2, #71	; 0x47
801000de:	f8c3 20a4 	str.w	r2, [r3, #164]	; 0xa4
801000e2:	2300      	movs	r3, #0
801000e4:	f2c0 2302 	movt	r3, #514	; 0x202
801000e8:	f640 4234 	movw	r2, #3124	; 0xc34
801000ec:	f8c3 20a8 	str.w	r2, [r3, #168]	; 0xa8
801000f0:	2300      	movs	r3, #0
801000f2:	f2c0 2302 	movt	r3, #514	; 0x202
801000f6:	2200      	movs	r2, #0
801000f8:	f2c0 2202 	movt	r2, #514	; 0x202
801000fc:	f8d2 2080 	ldr.w	r2, [r2, #128]	; 0x80
80100100:	f042 0201 	orr.w	r2, r2, #1
80100104:	f8c3 2080 	str.w	r2, [r3, #128]	; 0x80
80100108:	bf00      	nop
8010010a:	46bd      	mov	sp, r7
8010010c:	f85d 7b04 	ldr.w	r7, [sp], #4
80100110:	4770      	bx	lr

80100112 <PutChar>:
80100112:	b480      	push	{r7}
80100114:	b083      	sub	sp, #12
80100116:	af00      	add	r7, sp, #0
80100118:	6078      	str	r0, [r7, #4]
8010011a:	bf00      	nop
8010011c:	2300      	movs	r3, #0
8010011e:	f2c0 2302 	movt	r3, #514	; 0x202
80100122:	f8d3 3098 	ldr.w	r3, [r3, #152]	; 0x98
80100126:	f003 0308 	and.w	r3, r3, #8
8010012a:	2b00      	cmp	r3, #0
8010012c:	d0f6      	beq.n	8010011c <PutChar+0xa>
8010012e:	2300      	movs	r3, #0
80100130:	f2c0 2302 	movt	r3, #514	; 0x202
80100134:	687a      	ldr	r2, [r7, #4]
80100136:	b2d2      	uxtb	r2, r2
80100138:	641a      	str	r2, [r3, #64]	; 0x40
8010013a:	bf00      	nop
8010013c:	370c      	adds	r7, #12
8010013e:	46bd      	mov	sp, r7
80100140:	f85d 7b04 	ldr.w	r7, [sp], #4
80100144:	4770      	bx	lr

80100146 <GetChar>:
80100146:	b480      	push	{r7}
80100148:	af00      	add	r7, sp, #0
8010014a:	bf00      	nop
8010014c:	2300      	movs	r3, #0
8010014e:	f2c0 2302 	movt	r3, #514	; 0x202
80100152:	f8d3 3098 	ldr.w	r3, [r3, #152]	; 0x98
80100156:	f003 0301 	and.w	r3, r3, #1
8010015a:	2b00      	cmp	r3, #0
8010015c:	d0f6      	beq.n	8010014c <GetChar+0x6>
8010015e:	2300      	movs	r3, #0
80100160:	f2c0 2302 	movt	r3, #514	; 0x202
80100164:	681b      	ldr	r3, [r3, #0]
80100166:	b2db      	uxtb	r3, r3
80100168:	4618      	mov	r0, r3
8010016a:	46bd      	mov	sp, r7
8010016c:	f85d 7b04 	ldr.w	r7, [sp], #4
80100170:	4770      	bx	lr

80100172 <main>:
80100172:	b580      	push	{r7, lr}
80100174:	b082      	sub	sp, #8
80100176:	af00      	add	r7, sp, #0
80100178:	f7ff ff60 	bl	8010003c <Uart_Init>
8010017c:	f7ff ffe3 	bl	80100146 <GetChar>
80100180:	4603      	mov	r3, r0
80100182:	71fb      	strb	r3, [r7, #7]
80100184:	79fb      	ldrb	r3, [r7, #7]
80100186:	2b0d      	cmp	r3, #13
80100188:	d102      	bne.n	80100190 <main+0x1e>
8010018a:	200a      	movs	r0, #10
8010018c:	f7ff ffc1 	bl	80100112 <PutChar>
80100190:	79fb      	ldrb	r3, [r7, #7]
80100192:	2b0a      	cmp	r3, #10
80100194:	d102      	bne.n	8010019c <main+0x2a>
80100196:	200d      	movs	r0, #13
80100198:	f7ff ffbb 	bl	80100112 <PutChar>
8010019c:	79fb      	ldrb	r3, [r7, #7]
8010019e:	4618      	mov	r0, r3
801001a0:	f7ff ffb7 	bl	80100112 <PutChar>
801001a4:	e7ea      	b.n	8010017c <main+0xa>

Disassembly of section .bss:

801001a8 <__bss_start>:
801001a8:	00000000 	andeq	r0, r0, r0

801001ac <IOMUXC_SW_MUX_CTL_PAD_UART1_RX_DATA>:
801001ac:	00000000 	andeq	r0, r0, r0

Disassembly of section .ARM.attributes:

00000000 <.ARM.attributes>:
   0:	00002e41 	andeq	r2, r0, r1, asr #28
   4:	61656100 	cmnvs	r5, r0, lsl #2
   8:	01006962 	tsteq	r0, r2, ror #18
   c:	00000024 	andeq	r0, r0, r4, lsr #32
  10:	412d3705 			; <UNDEFINED> instruction: 0x412d3705
  14:	070a0600 	streq	r0, [sl, -r0, lsl #12]
  18:	09010841 	stmdbeq	r1, {r0, r6, fp}
  1c:	12040a02 	andne	r0, r4, #8192	; 0x2000
  20:	15011404 	strne	r1, [r1, #-1028]	; 0xfffffbfc
  24:	18031701 	stmdane	r3, {r0, r8, r9, sl, ip}
  28:	1c021a01 			; <UNDEFINED> instruction: 0x1c021a01
  2c:	Address 0x000000000000002c is out of bounds.


Disassembly of section .comment:

00000000 <.comment>:
   0:	3a434347 	bcc	10d0d24 <_start-0x7f02f2dc>
   4:	694c2820 	stmdbvs	ip, {r5, fp, sp}^
   8:	6f72616e 	svcvs	0x0072616e
   c:	43434720 	movtmi	r4, #14112	; 0x3720
  10:	322e3620 	eorcc	r3, lr, #32, 12	; 0x2000000
  14:	3130322d 	teqcc	r0, sp, lsr #4
  18:	31312e36 	teqcc	r1, r6, lsr lr
  1c:	2e362029 	cdpcs	0, 3, cr2, cr6, cr9, {1}
  20:	20312e32 	eorscs	r2, r1, r2, lsr lr
  24:	36313032 			; <UNDEFINED> instruction: 0x36313032
  28:	36313031 			; <UNDEFINED> instruction: 0x36313031
	...

Disassembly of section .debug_line:

00000000 <.debug_line>:
   0:	00000043 	andeq	r0, r0, r3, asr #32
   4:	001e0002 	andseq	r0, lr, r2
   8:	01020000 	mrseq	r0, (UNDEF: 2)
   c:	000d0efb 	strdeq	r0, [sp], -fp
  10:	01010101 	tsteq	r1, r1, lsl #2
  14:	01000000 	mrseq	r0, (UNDEF: 0)
  18:	00010000 	andeq	r0, r1, r0
  1c:	72617473 	rsbvc	r7, r1, #1929379840	; 0x73000000
  20:	00532e74 	subseq	r2, r3, r4, ror lr
  24:	00000000 	andeq	r0, r0, r0
  28:	00020500 	andeq	r0, r2, r0, lsl #10
  2c:	18801000 	stmne	r0, {ip}
  30:	32313030 	eorscc	r3, r1, #48	; 0x30
  34:	2f302f2f 	svccs	0x00302f2f
  38:	03302f2f 	teqeq	r0, #47, 30	; 0xbc
  3c:	0b032e6c 	bleq	cb9f4 <_start-0x8003460c>
  40:	02022f2e 	andeq	r2, r2, #46, 30	; 0xb8
  44:	66010100 	strvs	r0, [r1], -r0, lsl #2
  48:	02000000 	andeq	r0, r0, #0
  4c:	00002700 	andeq	r2, r0, r0, lsl #14
  50:	fb010200 	blx	4085a <_start-0x800bf7a6>
  54:	01000d0e 	tsteq	r0, lr, lsl #26
  58:	00010101 	andeq	r0, r1, r1, lsl #2
  5c:	00010000 	andeq	r0, r1, r0
  60:	75000100 	strvc	r0, [r0, #-256]	; 0xffffff00
  64:	2e747261 	cdpcs	2, 7, cr7, cr4, cr1, {3}
  68:	00000063 	andeq	r0, r0, r3, rrx
  6c:	72617500 	rsbvc	r7, r1, #0, 10
  70:	00682e74 	rsbeq	r2, r8, r4, ror lr
  74:	00000000 	andeq	r0, r0, r0
  78:	3c020500 	cfstr32cc	mvfx0, [r2], {-0}
  7c:	03801000 	orreq	r1, r0, #0
  80:	83300111 	teqhi	r0, #1073741828	; 0x40000004
  84:	03767584 	cmneq	r6, #132, 10	; 0x21000000
  88:	03ddba0d 	bicseq	fp, sp, #53248	; 0xd000
  8c:	6775ba10 			; <UNDEFINED> instruction: 0x6775ba10
  90:	0d03bb76 	vstreq	d11, [r3, #-472]	; 0xfffffe28
  94:	02004b58 	andeq	r4, r0, #88, 22	; 0x16000
  98:	20060104 	andcs	r0, r6, r4, lsl #2
  9c:	03679106 	cmneq	r7, #-2147483647	; 0x80000001
  a0:	002f660d 	eoreq	r6, pc, sp, lsl #12
  a4:	06010402 	streq	r0, [r1], -r2, lsl #8
  a8:	59910620 	ldmibpl	r1, {r5, r9, sl}
  ac:	01000502 	tsteq	r0, r2, lsl #10
  b0:	00003a01 	andeq	r3, r0, r1, lsl #20
  b4:	1d000200 	sfmne	f0, 4, [r0, #-0]
  b8:	02000000 	andeq	r0, r0, #0
  bc:	0d0efb01 	vstreq	d15, [lr, #-4]
  c0:	01010100 	mrseq	r0, (UNDEF: 17)
  c4:	00000001 	andeq	r0, r0, r1
  c8:	01000001 	tsteq	r0, r1
  cc:	69616d00 	stmdbvs	r1!, {r8, sl, fp, sp, lr}^
  d0:	00632e6e 	rsbeq	r2, r3, lr, ror #28
  d4:	00000000 	andeq	r0, r0, r0
  d8:	72020500 	andvc	r0, r2, #0, 10
  dc:	15801001 	strne	r1, [r0, #1]
  e0:	3e4c323e 	mcrcc	2, 2, r3, cr12, cr14, {1}
  e4:	033f3e3f 	teqeq	pc, #1008	; 0x3f0
  e8:	01024a74 	tsteq	r2, r4, ror sl
  ec:	Address 0x00000000000000ec is out of bounds.


Disassembly of section .debug_info:

00000000 <.debug_info>:
   0:	00000045 	andeq	r0, r0, r5, asr #32
   4:	00000002 	andeq	r0, r0, r2
   8:	01040000 	mrseq	r0, (UNDEF: 4)
   c:	00000000 	andeq	r0, r0, r0
  10:	80100000 	andshi	r0, r0, r0
  14:	8010003c 	andshi	r0, r0, ip, lsr r0
  18:	72617473 	rsbvc	r7, r1, #1929379840	; 0x73000000
  1c:	00532e74 	subseq	r2, r3, r4, ror lr
  20:	6d6f682f 	stclvs	8, cr6, [pc, #-188]!	; ffffff6c <__bss_end+0x7feffdbc>
  24:	6f622f65 	svcvs	0x00622f65
  28:	772f6b6f 	strvc	r6, [pc, -pc, ror #22]!
  2c:	2f6b726f 	svccs	0x006b726f
  30:	74726175 	ldrbtvc	r6, [r2], #-373	; 0xfffffe8b
  34:	3330302f 	teqcc	r0, #47	; 0x2f
  38:	554e4700 	strbpl	r4, [lr, #-1792]	; 0xfffff900
  3c:	20534120 	subscs	r4, r3, r0, lsr #2
  40:	37322e32 			; <UNDEFINED> instruction: 0x37322e32
  44:	0100302e 	tsteq	r0, lr, lsr #32
  48:	0001bb80 	andeq	fp, r1, r0, lsl #23
  4c:	14000400 	strne	r0, [r0], #-1024	; 0xfffffc00
  50:	04000000 	streq	r0, [r0], #-0
  54:	00002b01 	andeq	r2, r0, r1, lsl #22
  58:	010d0c00 	tsteq	sp, r0, lsl #24
  5c:	00120000 	andseq	r0, r2, r0
  60:	003c0000 	eorseq	r0, ip, r0
  64:	01368010 	teqeq	r6, r0, lsl r0
  68:	00470000 	subeq	r0, r7, r0
  6c:	bc020000 	stclt	0, cr0, [r2], {-0}
  70:	01120b02 	tsteq	r2, r2, lsl #22
  74:	e6030000 	str	r0, [r3], -r0
  78:	02000000 	andeq	r0, r0, #0
  7c:	0001190c 	andeq	r1, r1, ip, lsl #18
  80:	db030000 	blle	c0088 <_start-0x8003ff78>
  84:	02000000 	andeq	r0, r0, #0
  88:	00011e0d 	andeq	r1, r1, sp, lsl #28
  8c:	fe030400 	cdp2	4, 0, cr0, cr3, cr0, {0}
  90:	02000000 	andeq	r0, r0, #0
  94:	0001190e 	andeq	r1, r1, lr, lsl #18
  98:	69034000 	stmdbvs	r3, {lr}
  9c:	02000001 	andeq	r0, r0, #1
  a0:	00011e0f 	andeq	r1, r1, pc, lsl #28
  a4:	14034400 	strne	r4, [r3], #-1024	; 0xfffffc00
  a8:	02000001 	andeq	r0, r0, #1
  ac:	00011910 	andeq	r1, r1, r0, lsl r9
  b0:	19038000 	stmdbne	r3, {pc}
  b4:	02000001 	andeq	r0, r0, #1
  b8:	00011911 	andeq	r1, r1, r1, lsl r9
  bc:	1e038400 	cfcpysne	mvf8, mvf3
  c0:	02000001 	andeq	r0, r0, #1
  c4:	00011912 	andeq	r1, r1, r2, lsl r9
  c8:	23038800 	movwcs	r8, #14336	; 0x3800
  cc:	02000001 	andeq	r0, r0, #1
  d0:	00011913 	andeq	r1, r1, r3, lsl r9
  d4:	eb038c00 	bl	e30dc <_start-0x8001cf24>
  d8:	02000000 	andeq	r0, r0, #0
  dc:	00011914 	andeq	r1, r1, r4, lsl r9
  e0:	87039000 	strhi	r9, [r3, -r0]
  e4:	02000001 	andeq	r0, r0, #1
  e8:	00011915 	andeq	r1, r1, r5, lsl r9
  ec:	00039400 	andeq	r9, r3, r0, lsl #8
  f0:	02000000 	andeq	r0, r0, #0
  f4:	00011916 	andeq	r1, r1, r6, lsl r9
  f8:	a0039800 	andge	r9, r3, r0, lsl #16
  fc:	02000000 	andeq	r0, r0, #0
 100:	00011917 	andeq	r1, r1, r7, lsl r9
 104:	a5039c00 	strge	r9, [r3, #-3072]	; 0xfffff400
 108:	02000000 	andeq	r0, r0, #0
 10c:	00011918 	andeq	r1, r1, r8, lsl r9
 110:	2803a000 	stmdacs	r3, {sp, pc}
 114:	02000001 	andeq	r0, r0, #1
 118:	00011919 	andeq	r1, r1, r9, lsl r9
 11c:	0303a400 	movweq	sl, #13312	; 0x3400
 120:	02000001 	andeq	r0, r0, #1
 124:	0001191a 	andeq	r1, r1, sl, lsl r9
 128:	d603a800 	strle	sl, [r3], -r0, lsl #16
 12c:	02000000 	andeq	r0, r0, #0
 130:	0001191b 	andeq	r1, r1, fp, lsl r9
 134:	2d03ac00 	stccs	12, cr10, [r3, #-0]
 138:	02000001 	andeq	r0, r0, #1
 13c:	0001191c 	andeq	r1, r1, ip, lsl r9
 140:	5504b000 	strpl	fp, [r4, #-0]
 144:	02005354 	andeq	r5, r0, #84, 6	; 0x50000001
 148:	0001191d 	andeq	r1, r1, sp, lsl r9
 14c:	0803b400 	stmdaeq	r3, {sl, ip, sp, pc}
 150:	02000001 	andeq	r0, r0, #1
 154:	0001191e 	andeq	r1, r1, lr, lsl r9
 158:	0500b800 	streq	fp, [r0, #-2048]	; 0xfffff800
 15c:	00050704 	andeq	r0, r5, r4, lsl #14
 160:	12060000 	andne	r0, r6, #0
 164:	07000001 	streq	r0, [r0, -r1]
 168:	00000135 	andeq	r0, r0, r5, lsr r1
 16c:	0000012e 	andeq	r0, r0, lr, lsr #2
 170:	00012e08 	andeq	r2, r1, r8, lsl #28
 174:	05003b00 	streq	r3, [r0, #-2816]	; 0xfffff500
 178:	017e0704 	cmneq	lr, r4, lsl #14
 17c:	01050000 	mrseq	r0, (UNDEF: 5)
 180:	0000f008 	andeq	pc, r0, r8
 184:	01740900 	cmneq	r4, r0, lsl #18
 188:	1f020000 	svcne	0x00020000
 18c:	00000025 	andeq	r0, r0, r5, lsr #32
 190:	0000b20a 	andeq	fp, r0, sl, lsl #4
 194:	58040100 	stmdapl	r4, {r8}
 198:	05000001 	streq	r0, [r0, #-1]
 19c:	1001a803 	andne	sl, r1, r3, lsl #16
 1a0:	19040b80 	stmdbne	r4, {r7, r8, r9, fp}
 1a4:	0a000001 	beq	1b0 <_start-0x800ffe50>
 1a8:	00000145 	andeq	r0, r0, r5, asr #2
 1ac:	01580501 	cmpeq	r8, r1, lsl #10
 1b0:	03050000 	movweq	r0, #20480	; 0x5000
 1b4:	801001ac 	andshi	r0, r0, ip, lsr #3
 1b8:	0000aa0c 	andeq	sl, r0, ip, lsl #20
 1bc:	355f0100 	ldrbcc	r0, [pc, #-256]	; c4 <_start-0x800fff3c>
 1c0:	46000001 	strmi	r0, [r0], -r1
 1c4:	2c801001 	stccs	0, cr1, [r0], {1}
 1c8:	01000000 	mrseq	r0, (UNDEF: 0)
 1cc:	01330d9c 	teqeq	r3, ip	; <illegal shifter operand>
 1d0:	4f010000 	svcmi	0x00010000
 1d4:	80100112 	andshi	r0, r0, r2, lsl r1
 1d8:	00000034 	andeq	r0, r0, r4, lsr r0
 1dc:	01a69c01 			; <UNDEFINED> instruction: 0x01a69c01
 1e0:	630e0000 	movwvs	r0, #57344	; 0xe000
 1e4:	a64f0100 	strbge	r0, [pc], -r0, lsl #2
 1e8:	02000001 	andeq	r0, r0, #1
 1ec:	0f007491 	svceq	0x00007491
 1f0:	6e690504 	cdpvs	5, 6, cr0, cr9, cr4, {0}
 1f4:	3b100074 	blcc	4003cc <_start-0x7fcffc34>
 1f8:	01000001 	tsteq	r0, r1
 1fc:	10003c11 	andne	r3, r0, r1, lsl ip
 200:	0000d680 	andeq	sp, r0, r0, lsl #13
 204:	009c0100 	addseq	r0, ip, r0, lsl #2
 208:	00000066 	andeq	r0, r0, r6, rrx
 20c:	01020004 	tsteq	r2, r4
 210:	01040000 	mrseq	r0, (UNDEF: 4)
 214:	0000002b 	andeq	r0, r0, fp, lsr #32
 218:	00018c0c 	andeq	r8, r1, ip, lsl #24
 21c:	00001200 	andeq	r1, r0, r0, lsl #4
 220:	10017200 	andne	r7, r1, r0, lsl #4
 224:	00003480 	andeq	r3, r0, r0, lsl #9
 228:	0000b100 	andeq	fp, r0, r0, lsl #2
 22c:	07040200 	streq	r0, [r4, -r0, lsl #4]
 230:	00000005 	andeq	r0, r0, r5
 234:	7e070402 	cdpvc	4, 0, cr0, cr7, cr2, {0}
 238:	02000001 	andeq	r0, r0, #1
 23c:	00f00801 	rscseq	r0, r0, r1, lsl #16
 240:	9d030000 	stcls	0, cr0, [r3, #-0]
 244:	01000001 	tsteq	r0, r1
 248:	00006203 	andeq	r6, r0, r3, lsl #4
 24c:	10017200 	andne	r7, r1, r0, lsl #4
 250:	00003480 	andeq	r3, r0, r0, lsl #9
 254:	629c0100 	addsvs	r0, ip, #0, 2
 258:	04000000 	streq	r0, [r0], #-0
 25c:	00000193 	muleq	r0, r3, r1
 260:	00330501 	eorseq	r0, r3, r1, lsl #10
 264:	91020000 	mrsls	r0, (UNDEF: 2)
 268:	04050077 	streq	r0, [r5], #-119	; 0xffffff89
 26c:	746e6905 	strbtvc	r6, [lr], #-2309	; 0xfffff6fb
	...

Disassembly of section .debug_abbrev:

00000000 <.debug_abbrev>:
   0:	10001101 	andne	r1, r0, r1, lsl #2
   4:	12011106 	andne	r1, r1, #-2147483647	; 0x80000001
   8:	1b080301 	blne	200c14 <_start-0x7feff3ec>
   c:	13082508 	movwne	r2, #34056	; 0x8508
  10:	00000005 	andeq	r0, r0, r5
  14:	25011101 	strcs	r1, [r1, #-257]	; 0xfffffeff
  18:	030b130e 	movweq	r1, #45838	; 0xb30e
  1c:	110e1b0e 	tstne	lr, lr, lsl #22
  20:	10061201 	andne	r1, r6, r1, lsl #4
  24:	02000017 	andeq	r0, r0, #23
  28:	0b0b0113 	bleq	2c047c <_start-0x7fe3fb84>
  2c:	0b3b0b3a 	bleq	ec2d1c <_start-0x7f23d2e4>
  30:	00001301 	andeq	r1, r0, r1, lsl #6
  34:	03000d03 	movweq	r0, #3331	; 0xd03
  38:	3b0b3a0e 	blcc	2ce878 <_start-0x7fe31788>
  3c:	3813490b 	ldmdacc	r3, {r0, r1, r3, r8, fp, lr}
  40:	0400000b 	streq	r0, [r0], #-11
  44:	0803000d 	stmdaeq	r3, {r0, r2, r3}
  48:	0b3b0b3a 	bleq	ec2d38 <_start-0x7f23d2c8>
  4c:	0b381349 	bleq	e04d78 <_start-0x7f2fb288>
  50:	24050000 	strcs	r0, [r5], #-0
  54:	3e0b0b00 	vmlacc.f64	d0, d11, d0
  58:	000e030b 	andeq	r0, lr, fp, lsl #6
  5c:	00350600 	eorseq	r0, r5, r0, lsl #12
  60:	00001349 	andeq	r1, r0, r9, asr #6
  64:	49010107 	stmdbmi	r1, {r0, r1, r2, r8}
  68:	00130113 	andseq	r0, r3, r3, lsl r1
  6c:	00210800 	eoreq	r0, r1, r0, lsl #16
  70:	0b2f1349 	bleq	bc4d9c <_start-0x7f53b264>
  74:	16090000 	strne	r0, [r9], -r0
  78:	3a0e0300 	bcc	380c80 <_start-0x7fd7f380>
  7c:	490b3b0b 	stmdbmi	fp, {r0, r1, r3, r8, r9, fp, ip, sp}
  80:	0a000013 	beq	d4 <_start-0x800fff2c>
  84:	0e030034 	mcreq	0, 0, r0, cr3, cr4, {1}
  88:	0b3b0b3a 	bleq	ec2d78 <_start-0x7f23d288>
  8c:	18021349 	stmdane	r2, {r0, r3, r6, r8, r9, ip}
  90:	0f0b0000 	svceq	0x000b0000
  94:	490b0b00 	stmdbmi	fp, {r8, r9, fp}
  98:	0c000013 	stceq	0, cr0, [r0], {19}
  9c:	193f002e 	ldmdbne	pc!, {r1, r2, r3, r5}	; <UNPREDICTABLE>
  a0:	0b3a0e03 	bleq	e838b4 <_start-0x7f27c74c>
  a4:	19270b3b 	stmdbne	r7!, {r0, r1, r3, r4, r5, r8, r9, fp}
  a8:	01111349 	tsteq	r1, r9, asr #6
  ac:	18400612 	stmdane	r0, {r1, r4, r9, sl}^
  b0:	00194297 	mulseq	r9, r7, r2
  b4:	012e0d00 			; <UNDEFINED> instruction: 0x012e0d00
  b8:	0e03193f 			; <UNDEFINED> instruction: 0x0e03193f
  bc:	0b3b0b3a 	bleq	ec2dac <_start-0x7f23d254>
  c0:	01111927 	tsteq	r1, r7, lsr #18
  c4:	18400612 	stmdane	r0, {r1, r4, r9, sl}^
  c8:	01194297 			; <UNDEFINED> instruction: 0x01194297
  cc:	0e000013 	mcreq	0, 0, r0, cr0, cr3, {0}
  d0:	08030005 	stmdaeq	r3, {r0, r2}
  d4:	0b3b0b3a 	bleq	ec2dc4 <_start-0x7f23d23c>
  d8:	18021349 	stmdane	r2, {r0, r3, r6, r8, r9, ip}
  dc:	240f0000 	strcs	r0, [pc], #-0	; e4 <_start-0x800fff1c>
  e0:	3e0b0b00 	vmlacc.f64	d0, d11, d0
  e4:	0008030b 	andeq	r0, r8, fp, lsl #6
  e8:	002e1000 	eoreq	r1, lr, r0
  ec:	0e03193f 			; <UNDEFINED> instruction: 0x0e03193f
  f0:	0b3b0b3a 	bleq	ec2de0 <_start-0x7f23d220>
  f4:	01111927 	tsteq	r1, r7, lsr #18
  f8:	18400612 	stmdane	r0, {r1, r4, r9, sl}^
  fc:	00194297 	mulseq	r9, r7, r2
 100:	11010000 	mrsne	r0, (UNDEF: 1)
 104:	130e2501 	movwne	r2, #58625	; 0xe501
 108:	1b0e030b 	blne	380d3c <_start-0x7fd7f2c4>
 10c:	1201110e 	andne	r1, r1, #-2147483645	; 0x80000003
 110:	00171006 	andseq	r1, r7, r6
 114:	00240200 	eoreq	r0, r4, r0, lsl #4
 118:	0b3e0b0b 	bleq	f82d4c <_start-0x7f17d2b4>
 11c:	00000e03 	andeq	r0, r0, r3, lsl #28
 120:	3f012e03 	svccc	0x00012e03
 124:	3a0e0319 	bcc	380d90 <_start-0x7fd7f270>
 128:	490b3b0b 	stmdbmi	fp, {r0, r1, r3, r8, r9, fp, ip, sp}
 12c:	12011113 	andne	r1, r1, #-1073741820	; 0xc0000004
 130:	96184006 	ldrls	r4, [r8], -r6
 134:	13011942 	movwne	r1, #6466	; 0x1942
 138:	34040000 	strcc	r0, [r4], #-0
 13c:	3a0e0300 	bcc	380d44 <_start-0x7fd7f2bc>
 140:	490b3b0b 	stmdbmi	fp, {r0, r1, r3, r8, r9, fp, ip, sp}
 144:	00180213 	andseq	r0, r8, r3, lsl r2
 148:	00240500 	eoreq	r0, r4, r0, lsl #10
 14c:	0b3e0b0b 	bleq	f82d80 <_start-0x7f17d280>
 150:	00000803 	andeq	r0, r0, r3, lsl #16
	...

Disassembly of section .debug_aranges:

00000000 <.debug_aranges>:
   0:	0000001c 	andeq	r0, r0, ip, lsl r0
   4:	00000002 	andeq	r0, r0, r2
   8:	00040000 	andeq	r0, r4, r0
   c:	00000000 	andeq	r0, r0, r0
  10:	80100000 	andshi	r0, r0, r0
  14:	0000003c 	andeq	r0, r0, ip, lsr r0
	...
  20:	0000001c 	andeq	r0, r0, ip, lsl r0
  24:	00490002 	subeq	r0, r9, r2
  28:	00040000 	andeq	r0, r4, r0
  2c:	00000000 	andeq	r0, r0, r0
  30:	8010003c 	andshi	r0, r0, ip, lsr r0
  34:	00000136 	andeq	r0, r0, r6, lsr r1
	...
  40:	0000001c 	andeq	r0, r0, ip, lsl r0
  44:	02080002 	andeq	r0, r8, #2
  48:	00040000 	andeq	r0, r4, r0
  4c:	00000000 	andeq	r0, r0, r0
  50:	80100172 	andshi	r0, r0, r2, ror r1
  54:	00000034 	andeq	r0, r0, r4, lsr r0
	...

Disassembly of section .debug_str:

00000000 <.debug_str>:
   0:	32525355 	subscc	r5, r2, #1409286145	; 0x54000001
   4:	736e7500 	cmnvc	lr, #0, 10
   8:	656e6769 	strbvs	r6, [lr, #-1897]!	; 0xfffff897
   c:	6e692064 	cdpvs	0, 6, cr2, cr9, cr4, {3}
  10:	682f0074 	stmdavs	pc!, {r2, r4, r5, r6}	; <UNPREDICTABLE>
  14:	2f656d6f 	svccs	0x00656d6f
  18:	6b6f6f62 	blvs	1bdbda8 <_start-0x7e524258>
  1c:	726f772f 	rsbvc	r7, pc, #12320768	; 0xbc0000
  20:	61752f6b 	cmnvs	r5, fp, ror #30
  24:	302f7472 	eorcc	r7, pc, r2, ror r4	; <UNPREDICTABLE>
  28:	47003330 	smladxmi	r0, r0, r3, r3
  2c:	4320554e 			; <UNDEFINED> instruction: 0x4320554e
  30:	36203131 			; <UNDEFINED> instruction: 0x36203131
  34:	312e322e 			; <UNDEFINED> instruction: 0x312e322e
  38:	31303220 	teqcc	r0, r0, lsr #4
  3c:	31303136 	teqcc	r0, r6, lsr r1
  40:	6d2d2036 	stcvs	0, cr2, [sp, #-216]!	; 0xffffff28
  44:	68637261 	stmdavs	r3!, {r0, r5, r6, r9, ip, sp, lr}^
  48:	6d72613d 	ldfvse	f6, [r2, #-244]!	; 0xffffff0c
  4c:	612d3776 			; <UNDEFINED> instruction: 0x612d3776
  50:	746d2d20 	strbtvc	r2, [sp], #-3360	; 0xfffff2e0
  54:	3d656e75 	stclcc	14, cr6, [r5, #-468]!	; 0xfffffe2c
  58:	74726f63 	ldrbtvc	r6, [r2], #-3939	; 0xfffff09d
  5c:	612d7865 			; <UNDEFINED> instruction: 0x612d7865
  60:	6d2d2039 	stcvs	0, cr2, [sp, #-228]!	; 0xffffff1c
  64:	616f6c66 	cmnvs	pc, r6, ror #24
  68:	62612d74 	rsbvs	r2, r1, #116, 26	; 0x1d00
  6c:	61683d69 	cmnvs	r8, r9, ror #26
  70:	2d206472 	cfstrscs	mvf6, [r0, #-456]!	; 0xfffffe38
  74:	7570666d 	ldrbvc	r6, [r0, #-1645]!	; 0xfffff993
  78:	7066763d 	rsbvc	r7, r6, sp, lsr r6
  7c:	642d3376 	strtvs	r3, [sp], #-886	; 0xfffffc8a
  80:	2d203631 	stccs	6, cr3, [r0, #-196]!	; 0xffffff3c
  84:	7568746d 	strbvc	r7, [r8, #-1133]!	; 0xfffffb93
  88:	2d20626d 	sfmcs	f6, 4, [r0, #-436]!	; 0xfffffe4c
  8c:	736c746d 	cmnvc	ip, #1828716544	; 0x6d000000
  90:	6169642d 	cmnvs	r9, sp, lsr #8
  94:	7463656c 	strbtvc	r6, [r3], #-1388	; 0xfffffa94
  98:	756e673d 	strbvc	r6, [lr, #-1853]!	; 0xfffff8c3
  9c:	00672d20 	rsbeq	r2, r7, r0, lsr #26
  a0:	43534555 	cmpmi	r3, #356515840	; 0x15400000
  a4:	49545500 	ldmdbmi	r4, {r8, sl, ip, lr}^
  a8:	6547004d 	strbvs	r0, [r7, #-77]	; 0xffffffb3
  ac:	61684374 	smcvs	33844	; 0x8434
  b0:	4f490072 	svcmi	0x00490072
  b4:	4358554d 	cmpmi	r8, #322961408	; 0x13400000
  b8:	5f57535f 	svcpl	0x0057535f
  bc:	5f58554d 	svcpl	0x0058554d
  c0:	5f4c5443 	svcpl	0x004c5443
  c4:	5f444150 	svcpl	0x00444150
  c8:	54524155 	ldrbpl	r4, [r2], #-341	; 0xfffffeab
  cc:	58545f31 	ldmdapl	r4, {r0, r4, r5, r8, r9, sl, fp, ip, lr}^
  d0:	5441445f 	strbpl	r4, [r1], #-1119	; 0xfffffba1
  d4:	42550041 	subsmi	r0, r5, #65	; 0x41
  d8:	52004352 	andpl	r4, r0, #1207959553	; 0x48000001
  dc:	52455345 	subpl	r5, r5, #335544321	; 0x14000001
  e0:	5f444556 	svcpl	0x00444556
  e4:	52550030 	subspl	r0, r5, #48	; 0x30
  e8:	55004458 	strpl	r4, [r0, #-1112]	; 0xfffffba8
  ec:	00524346 	subseq	r4, r2, r6, asr #6
  f0:	69736e75 	ldmdbvs	r3!, {r0, r2, r4, r5, r6, r9, sl, fp, sp, lr}^
  f4:	64656e67 	strbtvs	r6, [r5], #-3687	; 0xfffff199
  f8:	61686320 	cmnvs	r8, r0, lsr #6
  fc:	54550072 	ldrbpl	r0, [r5], #-114	; 0xffffff8e
 100:	55004458 	strpl	r4, [r0, #-1112]	; 0xfffffba8
 104:	00524d42 	subseq	r4, r2, r2, asr #26
 108:	52434d55 	subpl	r4, r3, #5440	; 0x1540
 10c:	72617500 	rsbvc	r7, r1, #0, 10
 110:	00632e74 	rsbeq	r2, r3, r4, ror lr
 114:	31524355 	cmpcc	r2, r5, asr r3
 118:	52435500 	subpl	r5, r3, #0, 10
 11c:	43550032 	cmpmi	r5, #50	; 0x32
 120:	55003352 	strpl	r3, [r0, #-850]	; 0xfffffcae
 124:	00345243 	eorseq	r5, r4, r3, asr #4
 128:	52494255 	subpl	r4, r9, #1342177285	; 0x50000005
 12c:	454e4f00 	strbmi	r4, [lr, #-3840]	; 0xfffff100
 130:	5000534d 	andpl	r5, r0, sp, asr #6
 134:	68437475 	stmdavs	r3, {r0, r2, r4, r5, r6, sl, ip, sp, lr}^
 138:	55007261 	strpl	r7, [r0, #-609]	; 0xfffffd9f
 13c:	5f747261 	svcpl	0x00747261
 140:	74696e49 	strbtvc	r6, [r9], #-3657	; 0xfffff1b7
 144:	4d4f4900 	vstrmi.16	s9, [pc, #-0]	; 14c <_start-0x800ffeb4>	; <UNPREDICTABLE>
 148:	5f435855 	svcpl	0x00435855
 14c:	4d5f5753 	ldclmi	7, cr5, [pc, #-332]	; 8 <_start-0x800ffff8>
 150:	435f5855 	cmpmi	pc, #5570560	; 0x550000
 154:	505f4c54 	subspl	r4, pc, r4, asr ip	; <UNPREDICTABLE>
 158:	555f4441 	ldrbpl	r4, [pc, #-1089]	; fffffd1f <__bss_end+0x7feffb6f>
 15c:	31545241 	cmpcc	r4, r1, asr #4
 160:	5f58525f 	svcpl	0x0058525f
 164:	41544144 	cmpmi	r4, r4, asr #2
 168:	53455200 	movtpl	r5, #20992	; 0x5200
 16c:	45565245 	ldrbmi	r5, [r6, #-581]	; 0xfffffdbb
 170:	00315f44 	eorseq	r5, r1, r4, asr #30
 174:	54524155 	ldrbpl	r4, [r2], #-341	; 0xfffffeab
 178:	7079545f 	rsbsvc	r5, r9, pc, asr r4
 17c:	69730065 	ldmdbvs	r3!, {r0, r2, r5, r6}^
 180:	7974657a 	ldmdbvc	r4!, {r1, r3, r4, r5, r6, r8, sl, sp, lr}^
 184:	55006570 	strpl	r6, [r0, #-1392]	; 0xfffffa90
 188:	00315253 	eorseq	r5, r1, r3, asr r2
 18c:	6e69616d 	powvsez	f6, f1, #5.0
 190:	6300632e 	movwvs	r6, #814	; 0x32e
 194:	74736554 	ldrbtvc	r6, [r3], #-1364	; 0xfffffaac
 198:	61746144 	cmnvs	r4, r4, asr #2
 19c:	69616d00 	stmdbvs	r1!, {r8, sl, fp, sp, lr}^
 1a0:	Address 0x00000000000001a0 is out of bounds.


Disassembly of section .debug_frame:

00000000 <.debug_frame>:
   0:	0000000c 	andeq	r0, r0, ip
   4:	ffffffff 			; <UNDEFINED> instruction: 0xffffffff
   8:	7c020001 	stcvc	0, cr0, [r2], {1}
   c:	000d0c0e 	andeq	r0, sp, lr, lsl #24
  10:	0000001c 	andeq	r0, r0, ip, lsl r0
  14:	00000000 	andeq	r0, r0, r0
  18:	8010003c 	andshi	r0, r0, ip, lsr r0
  1c:	000000d6 	ldrdeq	r0, [r0], -r6
  20:	87040e41 	strhi	r0, [r4, -r1, asr #28]
  24:	070d4101 	streq	r4, [sp, -r1, lsl #2]
  28:	0d0d6602 	stceq	6, cr6, [sp, #-8]
  2c:	000ec742 	andeq	ip, lr, r2, asr #14
  30:	00000024 	andeq	r0, r0, r4, lsr #32
  34:	00000000 	andeq	r0, r0, r0
  38:	80100112 	andshi	r0, r0, r2, lsl r1
  3c:	00000034 	andeq	r0, r0, r4, lsr r0
  40:	87040e41 	strhi	r0, [r4, -r1, asr #28]
  44:	100e4101 	andne	r4, lr, r1, lsl #2
  48:	53070d41 	movwpl	r0, #32065	; 0x7d41
  4c:	0d41040e 	cfstrdeq	mvd0, [r1, #-56]	; 0xffffffc8
  50:	0ec7420d 	cdpeq	2, 12, cr4, cr7, cr13, {0}
  54:	00000000 	andeq	r0, r0, r0
  58:	0000001c 	andeq	r0, r0, ip, lsl r0
  5c:	00000000 	andeq	r0, r0, r0
  60:	80100146 	andshi	r0, r0, r6, asr #2
  64:	0000002c 	andeq	r0, r0, ip, lsr #32
  68:	87040e41 	strhi	r0, [r4, -r1, asr #28]
  6c:	070d4101 	streq	r4, [sp, -r1, lsl #2]
  70:	420d0d51 	andmi	r0, sp, #5184	; 0x1440
  74:	00000ec7 	andeq	r0, r0, r7, asr #29
  78:	0000000c 	andeq	r0, r0, ip
  7c:	ffffffff 			; <UNDEFINED> instruction: 0xffffffff
  80:	7c020001 	stcvc	0, cr0, [r2], {1}
  84:	000d0c0e 	andeq	r0, sp, lr, lsl #24
  88:	0000001c 	andeq	r0, r0, ip, lsl r0
  8c:	00000078 	andeq	r0, r0, r8, ror r0
  90:	80100172 	andshi	r0, r0, r2, ror r1
  94:	00000034 	andeq	r0, r0, r4, lsr r0
  98:	87080e41 	strhi	r0, [r8, -r1, asr #28]
  9c:	41018e02 	tstmi	r1, r2, lsl #28
  a0:	0d41100e 	stcleq	0, cr1, [r1, #-56]	; 0xffffffc8
  a4:	00000007 	andeq	r0, r0, r7
