
relocate.elf:     file format elf32-littlearm


Disassembly of section .text:

80100000 <_start>:
80100000:	e59fd028 	ldr	sp, [pc, #40]	; 80100030 <clean+0x14>
80100004:	eb000001 	bl	80100010 <clean_bss>
80100008:	fb000070 	blx	801001d2 <main>

8010000c <halt>:
8010000c:	eafffffe 	b	8010000c <halt>

80100010 <clean_bss>:
80100010:	e59f101c 	ldr	r1, [pc, #28]	; 80100034 <clean+0x18>
80100014:	e59f201c 	ldr	r2, [pc, #28]	; 80100038 <clean+0x1c>
80100018:	e3a03000 	mov	r3, #0

8010001c <clean>:
8010001c:	e5c13000 	strb	r3, [r1]
80100020:	e2811001 	add	r1, r1, #1
80100024:	e1510002 	cmp	r1, r2
80100028:	1afffffb 	bne	8010001c <clean>
8010002c:	e1a0f00e 	mov	pc, lr
80100030:	80200000 	eorhi	r0, r0, r0
80100034:	80200014 	eorhi	r0, r0, r4, lsl r0
80100038:	80200025 	eorhi	r0, r0, r5, lsr #32

8010003c <Uart_Init>:
8010003c:	b480      	push	{r7}
8010003e:	af00      	add	r7, sp, #0
80100040:	f240 0214 	movw	r2, #20
80100044:	f2c8 0220 	movt	r2, #32800	; 0x8020
80100048:	2384      	movs	r3, #132	; 0x84
8010004a:	f2c0 230e 	movt	r3, #526	; 0x20e
8010004e:	6013      	str	r3, [r2, #0]
80100050:	f240 0218 	movw	r2, #24
80100054:	f2c8 0220 	movt	r2, #32800	; 0x8020
80100058:	2388      	movs	r3, #136	; 0x88
8010005a:	f2c0 230e 	movt	r3, #526	; 0x20e
8010005e:	6013      	str	r3, [r2, #0]
80100060:	f240 0318 	movw	r3, #24
80100064:	f2c8 0320 	movt	r3, #32800	; 0x8020
80100068:	681b      	ldr	r3, [r3, #0]
8010006a:	2200      	movs	r2, #0
8010006c:	601a      	str	r2, [r3, #0]
8010006e:	f240 0314 	movw	r3, #20
80100072:	f2c8 0320 	movt	r3, #32800	; 0x8020
80100076:	681b      	ldr	r3, [r3, #0]
80100078:	2200      	movs	r2, #0
8010007a:	601a      	str	r2, [r3, #0]
8010007c:	2300      	movs	r3, #0
8010007e:	f2c0 2302 	movt	r3, #514	; 0x202
80100082:	2200      	movs	r2, #0
80100084:	f2c0 2202 	movt	r2, #514	; 0x202
80100088:	f8d2 2080 	ldr.w	r2, [r2, #128]	; 0x80
8010008c:	f042 0201 	orr.w	r2, r2, #1
80100090:	f8c3 2080 	str.w	r2, [r3, #128]	; 0x80
80100094:	2200      	movs	r2, #0
80100096:	f2c0 2202 	movt	r2, #514	; 0x202
8010009a:	2300      	movs	r3, #0
8010009c:	f2c0 2302 	movt	r3, #514	; 0x202
801000a0:	f8d3 3084 	ldr.w	r3, [r3, #132]	; 0x84
801000a4:	f443 4380 	orr.w	r3, r3, #16384	; 0x4000
801000a8:	f043 0326 	orr.w	r3, r3, #38	; 0x26
801000ac:	f8c2 3084 	str.w	r3, [r2, #132]	; 0x84
801000b0:	2300      	movs	r3, #0
801000b2:	f2c0 2302 	movt	r3, #514	; 0x202
801000b6:	2200      	movs	r2, #0
801000b8:	f2c0 2202 	movt	r2, #514	; 0x202
801000bc:	f8d2 2088 	ldr.w	r2, [r2, #136]	; 0x88
801000c0:	f042 0204 	orr.w	r2, r2, #4
801000c4:	f8c3 2088 	str.w	r2, [r3, #136]	; 0x88
801000c8:	2300      	movs	r3, #0
801000ca:	f2c0 2302 	movt	r3, #514	; 0x202
801000ce:	f44f 7220 	mov.w	r2, #640	; 0x280
801000d2:	f8c3 2090 	str.w	r2, [r3, #144]	; 0x90
801000d6:	2300      	movs	r3, #0
801000d8:	f2c0 2302 	movt	r3, #514	; 0x202
801000dc:	2247      	movs	r2, #71	; 0x47
801000de:	f8c3 20a4 	str.w	r2, [r3, #164]	; 0xa4
801000e2:	2300      	movs	r3, #0
801000e4:	f2c0 2302 	movt	r3, #514	; 0x202
801000e8:	f640 4234 	movw	r2, #3124	; 0xc34
801000ec:	f8c3 20a8 	str.w	r2, [r3, #168]	; 0xa8
801000f0:	2300      	movs	r3, #0
801000f2:	f2c0 2302 	movt	r3, #514	; 0x202
801000f6:	2200      	movs	r2, #0
801000f8:	f2c0 2202 	movt	r2, #514	; 0x202
801000fc:	f8d2 2080 	ldr.w	r2, [r2, #128]	; 0x80
80100100:	f042 0201 	orr.w	r2, r2, #1
80100104:	f8c3 2080 	str.w	r2, [r3, #128]	; 0x80
80100108:	bf00      	nop
8010010a:	46bd      	mov	sp, r7
8010010c:	f85d 7b04 	ldr.w	r7, [sp], #4
80100110:	4770      	bx	lr

80100112 <PutChar>:
80100112:	b480      	push	{r7}
80100114:	b083      	sub	sp, #12
80100116:	af00      	add	r7, sp, #0
80100118:	6078      	str	r0, [r7, #4]
8010011a:	bf00      	nop
8010011c:	2300      	movs	r3, #0
8010011e:	f2c0 2302 	movt	r3, #514	; 0x202
80100122:	f8d3 3098 	ldr.w	r3, [r3, #152]	; 0x98
80100126:	f003 0308 	and.w	r3, r3, #8
8010012a:	2b00      	cmp	r3, #0
8010012c:	d0f6      	beq.n	8010011c <PutChar+0xa>
8010012e:	2300      	movs	r3, #0
80100130:	f2c0 2302 	movt	r3, #514	; 0x202
80100134:	687a      	ldr	r2, [r7, #4]
80100136:	b2d2      	uxtb	r2, r2
80100138:	641a      	str	r2, [r3, #64]	; 0x40
8010013a:	bf00      	nop
8010013c:	370c      	adds	r7, #12
8010013e:	46bd      	mov	sp, r7
80100140:	f85d 7b04 	ldr.w	r7, [sp], #4
80100144:	4770      	bx	lr

80100146 <GetChar>:
80100146:	b480      	push	{r7}
80100148:	af00      	add	r7, sp, #0
8010014a:	bf00      	nop
8010014c:	2300      	movs	r3, #0
8010014e:	f2c0 2302 	movt	r3, #514	; 0x202
80100152:	f8d3 3098 	ldr.w	r3, [r3, #152]	; 0x98
80100156:	f003 0301 	and.w	r3, r3, #1
8010015a:	2b00      	cmp	r3, #0
8010015c:	d0f6      	beq.n	8010014c <GetChar+0x6>
8010015e:	2300      	movs	r3, #0
80100160:	f2c0 2302 	movt	r3, #514	; 0x202
80100164:	681b      	ldr	r3, [r3, #0]
80100166:	b2db      	uxtb	r3, r3
80100168:	4618      	mov	r0, r3
8010016a:	46bd      	mov	sp, r7
8010016c:	f85d 7b04 	ldr.w	r7, [sp], #4
80100170:	4770      	bx	lr

80100172 <PutStr>:
80100172:	b580      	push	{r7, lr}
80100174:	b082      	sub	sp, #8
80100176:	af00      	add	r7, sp, #0
80100178:	6078      	str	r0, [r7, #4]
8010017a:	e007      	b.n	8010018c <PutStr+0x1a>
8010017c:	687b      	ldr	r3, [r7, #4]
8010017e:	781b      	ldrb	r3, [r3, #0]
80100180:	4618      	mov	r0, r3
80100182:	f7ff ffc6 	bl	80100112 <PutChar>
80100186:	687b      	ldr	r3, [r7, #4]
80100188:	3301      	adds	r3, #1
8010018a:	607b      	str	r3, [r7, #4]
8010018c:	687b      	ldr	r3, [r7, #4]
8010018e:	781b      	ldrb	r3, [r3, #0]
80100190:	2b00      	cmp	r3, #0
80100192:	d1f3      	bne.n	8010017c <PutStr+0xa>
80100194:	bf00      	nop
80100196:	3708      	adds	r7, #8
80100198:	46bd      	mov	sp, r7
8010019a:	bd80      	pop	{r7, pc}

8010019c <raise>:
8010019c:	b480      	push	{r7}
8010019e:	b083      	sub	sp, #12
801001a0:	af00      	add	r7, sp, #0
801001a2:	6078      	str	r0, [r7, #4]
801001a4:	2300      	movs	r3, #0
801001a6:	4618      	mov	r0, r3
801001a8:	370c      	adds	r7, #12
801001aa:	46bd      	mov	sp, r7
801001ac:	f85d 7b04 	ldr.w	r7, [sp], #4
801001b0:	4770      	bx	lr

801001b2 <delay>:
801001b2:	b480      	push	{r7}
801001b4:	b083      	sub	sp, #12
801001b6:	af00      	add	r7, sp, #0
801001b8:	6078      	str	r0, [r7, #4]
801001ba:	bf00      	nop
801001bc:	687b      	ldr	r3, [r7, #4]
801001be:	1e5a      	subs	r2, r3, #1
801001c0:	607a      	str	r2, [r7, #4]
801001c2:	2b00      	cmp	r3, #0
801001c4:	d1fa      	bne.n	801001bc <delay+0xa>
801001c6:	bf00      	nop
801001c8:	370c      	adds	r7, #12
801001ca:	46bd      	mov	sp, r7
801001cc:	f85d 7b04 	ldr.w	r7, [sp], #4
801001d0:	4770      	bx	lr

801001d2 <main>:
801001d2:	b580      	push	{r7, lr}
801001d4:	af00      	add	r7, sp, #0
801001d6:	f7ff ff31 	bl	8010003c <Uart_Init>
801001da:	f240 031c 	movw	r3, #28
801001de:	f2c8 0320 	movt	r3, #32800	; 0x8020
801001e2:	681b      	ldr	r3, [r3, #0]
801001e4:	4619      	mov	r1, r3
801001e6:	f640 0068 	movw	r0, #2152	; 0x868
801001ea:	f2c8 0010 	movt	r0, #32784	; 0x8010
801001ee:	f000 f963 	bl	801004b8 <printf>
801001f2:	f240 0320 	movw	r3, #32
801001f6:	f2c8 0320 	movt	r3, #32800	; 0x8020
801001fa:	681b      	ldr	r3, [r3, #0]
801001fc:	4619      	mov	r1, r3
801001fe:	f640 007c 	movw	r0, #2172	; 0x87c
80100202:	f2c8 0010 	movt	r0, #32784	; 0x8010
80100206:	f000 f957 	bl	801004b8 <printf>
8010020a:	2300      	movs	r3, #0
8010020c:	4618      	mov	r0, r3
8010020e:	bd80      	pop	{r7, pc}

80100210 <outc>:
80100210:	b580      	push	{r7, lr}
80100212:	b082      	sub	sp, #8
80100214:	af00      	add	r7, sp, #0
80100216:	6078      	str	r0, [r7, #4]
80100218:	6878      	ldr	r0, [r7, #4]
8010021a:	f7ff ff7a 	bl	80100112 <PutChar>
8010021e:	2300      	movs	r3, #0
80100220:	4618      	mov	r0, r3
80100222:	3708      	adds	r7, #8
80100224:	46bd      	mov	sp, r7
80100226:	bd80      	pop	{r7, pc}

80100228 <outs>:
80100228:	b580      	push	{r7, lr}
8010022a:	b082      	sub	sp, #8
8010022c:	af00      	add	r7, sp, #0
8010022e:	6078      	str	r0, [r7, #4]
80100230:	e006      	b.n	80100240 <outs+0x18>
80100232:	687b      	ldr	r3, [r7, #4]
80100234:	1c5a      	adds	r2, r3, #1
80100236:	607a      	str	r2, [r7, #4]
80100238:	781b      	ldrb	r3, [r3, #0]
8010023a:	4618      	mov	r0, r3
8010023c:	f7ff ff69 	bl	80100112 <PutChar>
80100240:	687b      	ldr	r3, [r7, #4]
80100242:	781b      	ldrb	r3, [r3, #0]
80100244:	2b00      	cmp	r3, #0
80100246:	d1f4      	bne.n	80100232 <outs+0xa>
80100248:	2300      	movs	r3, #0
8010024a:	4618      	mov	r0, r3
8010024c:	3708      	adds	r7, #8
8010024e:	46bd      	mov	sp, r7
80100250:	bd80      	pop	{r7, pc}

80100252 <out_num>:
80100252:	b580      	push	{r7, lr}
80100254:	b098      	sub	sp, #96	; 0x60
80100256:	af00      	add	r7, sp, #0
80100258:	60f8      	str	r0, [r7, #12]
8010025a:	60b9      	str	r1, [r7, #8]
8010025c:	603b      	str	r3, [r7, #0]
8010025e:	4613      	mov	r3, r2
80100260:	71fb      	strb	r3, [r7, #7]
80100262:	2300      	movs	r3, #0
80100264:	65fb      	str	r3, [r7, #92]	; 0x5c
80100266:	f107 0310 	add.w	r3, r7, #16
8010026a:	3340      	adds	r3, #64	; 0x40
8010026c:	65bb      	str	r3, [r7, #88]	; 0x58
8010026e:	2300      	movs	r3, #0
80100270:	657b      	str	r3, [r7, #84]	; 0x54
80100272:	2300      	movs	r3, #0
80100274:	653b      	str	r3, [r7, #80]	; 0x50
80100276:	6dbb      	ldr	r3, [r7, #88]	; 0x58
80100278:	3b01      	subs	r3, #1
8010027a:	65bb      	str	r3, [r7, #88]	; 0x58
8010027c:	6dbb      	ldr	r3, [r7, #88]	; 0x58
8010027e:	2200      	movs	r2, #0
80100280:	701a      	strb	r2, [r3, #0]
80100282:	68fb      	ldr	r3, [r7, #12]
80100284:	2b00      	cmp	r3, #0
80100286:	da03      	bge.n	80100290 <out_num+0x3e>
80100288:	68fb      	ldr	r3, [r7, #12]
8010028a:	425b      	negs	r3, r3
8010028c:	65fb      	str	r3, [r7, #92]	; 0x5c
8010028e:	e001      	b.n	80100294 <out_num+0x42>
80100290:	68fb      	ldr	r3, [r7, #12]
80100292:	65fb      	str	r3, [r7, #92]	; 0x5c
80100294:	6dbb      	ldr	r3, [r7, #88]	; 0x58
80100296:	3b01      	subs	r3, #1
80100298:	65bb      	str	r3, [r7, #88]	; 0x58
8010029a:	68ba      	ldr	r2, [r7, #8]
8010029c:	6dfb      	ldr	r3, [r7, #92]	; 0x5c
8010029e:	4611      	mov	r1, r2
801002a0:	4618      	mov	r0, r3
801002a2:	f000 facb 	bl	8010083c <__aeabi_uidivmod>
801002a6:	460b      	mov	r3, r1
801002a8:	461a      	mov	r2, r3
801002aa:	f240 0304 	movw	r3, #4
801002ae:	f2c8 0320 	movt	r3, #32800	; 0x8020
801002b2:	5c9a      	ldrb	r2, [r3, r2]
801002b4:	6dbb      	ldr	r3, [r7, #88]	; 0x58
801002b6:	701a      	strb	r2, [r3, #0]
801002b8:	6d7b      	ldr	r3, [r7, #84]	; 0x54
801002ba:	3301      	adds	r3, #1
801002bc:	657b      	str	r3, [r7, #84]	; 0x54
801002be:	68bb      	ldr	r3, [r7, #8]
801002c0:	4619      	mov	r1, r3
801002c2:	6df8      	ldr	r0, [r7, #92]	; 0x5c
801002c4:	f000 f98c 	bl	801005e0 <__aeabi_uidiv>
801002c8:	4603      	mov	r3, r0
801002ca:	65fb      	str	r3, [r7, #92]	; 0x5c
801002cc:	6dfb      	ldr	r3, [r7, #92]	; 0x5c
801002ce:	2b00      	cmp	r3, #0
801002d0:	d1e0      	bne.n	80100294 <out_num+0x42>
801002d2:	683b      	ldr	r3, [r7, #0]
801002d4:	2b00      	cmp	r3, #0
801002d6:	d014      	beq.n	80100302 <out_num+0xb0>
801002d8:	6d7a      	ldr	r2, [r7, #84]	; 0x54
801002da:	683b      	ldr	r3, [r7, #0]
801002dc:	429a      	cmp	r2, r3
801002de:	da10      	bge.n	80100302 <out_num+0xb0>
801002e0:	683a      	ldr	r2, [r7, #0]
801002e2:	6d7b      	ldr	r3, [r7, #84]	; 0x54
801002e4:	1ad3      	subs	r3, r2, r3
801002e6:	653b      	str	r3, [r7, #80]	; 0x50
801002e8:	e008      	b.n	801002fc <out_num+0xaa>
801002ea:	6dbb      	ldr	r3, [r7, #88]	; 0x58
801002ec:	3b01      	subs	r3, #1
801002ee:	65bb      	str	r3, [r7, #88]	; 0x58
801002f0:	6dbb      	ldr	r3, [r7, #88]	; 0x58
801002f2:	79fa      	ldrb	r2, [r7, #7]
801002f4:	701a      	strb	r2, [r3, #0]
801002f6:	6d3b      	ldr	r3, [r7, #80]	; 0x50
801002f8:	3b01      	subs	r3, #1
801002fa:	653b      	str	r3, [r7, #80]	; 0x50
801002fc:	6d3b      	ldr	r3, [r7, #80]	; 0x50
801002fe:	2b00      	cmp	r3, #0
80100300:	d1f3      	bne.n	801002ea <out_num+0x98>
80100302:	68fb      	ldr	r3, [r7, #12]
80100304:	2b00      	cmp	r3, #0
80100306:	da05      	bge.n	80100314 <out_num+0xc2>
80100308:	6dbb      	ldr	r3, [r7, #88]	; 0x58
8010030a:	3b01      	subs	r3, #1
8010030c:	65bb      	str	r3, [r7, #88]	; 0x58
8010030e:	6dbb      	ldr	r3, [r7, #88]	; 0x58
80100310:	222d      	movs	r2, #45	; 0x2d
80100312:	701a      	strb	r2, [r3, #0]
80100314:	6db8      	ldr	r0, [r7, #88]	; 0x58
80100316:	f7ff ff87 	bl	80100228 <outs>
8010031a:	4603      	mov	r3, r0
8010031c:	4618      	mov	r0, r3
8010031e:	3760      	adds	r7, #96	; 0x60
80100320:	46bd      	mov	sp, r7
80100322:	bd80      	pop	{r7, pc}

80100324 <my_vprintf>:
80100324:	b580      	push	{r7, lr}
80100326:	b084      	sub	sp, #16
80100328:	af00      	add	r7, sp, #0
8010032a:	6078      	str	r0, [r7, #4]
8010032c:	6039      	str	r1, [r7, #0]
8010032e:	2320      	movs	r3, #32
80100330:	73fb      	strb	r3, [r7, #15]
80100332:	2300      	movs	r3, #0
80100334:	60bb      	str	r3, [r7, #8]
80100336:	e0b5      	b.n	801004a4 <my_vprintf+0x180>
80100338:	687b      	ldr	r3, [r7, #4]
8010033a:	781b      	ldrb	r3, [r3, #0]
8010033c:	2b25      	cmp	r3, #37	; 0x25
8010033e:	d005      	beq.n	8010034c <my_vprintf+0x28>
80100340:	687b      	ldr	r3, [r7, #4]
80100342:	781b      	ldrb	r3, [r3, #0]
80100344:	4618      	mov	r0, r3
80100346:	f7ff ff63 	bl	80100210 <outc>
8010034a:	e0a8      	b.n	8010049e <my_vprintf+0x17a>
8010034c:	2320      	movs	r3, #32
8010034e:	73fb      	strb	r3, [r7, #15]
80100350:	2300      	movs	r3, #0
80100352:	60bb      	str	r3, [r7, #8]
80100354:	687b      	ldr	r3, [r7, #4]
80100356:	3301      	adds	r3, #1
80100358:	607b      	str	r3, [r7, #4]
8010035a:	687b      	ldr	r3, [r7, #4]
8010035c:	781b      	ldrb	r3, [r3, #0]
8010035e:	2b30      	cmp	r3, #48	; 0x30
80100360:	d114      	bne.n	8010038c <my_vprintf+0x68>
80100362:	2330      	movs	r3, #48	; 0x30
80100364:	73fb      	strb	r3, [r7, #15]
80100366:	687b      	ldr	r3, [r7, #4]
80100368:	3301      	adds	r3, #1
8010036a:	607b      	str	r3, [r7, #4]
8010036c:	e00e      	b.n	8010038c <my_vprintf+0x68>
8010036e:	68ba      	ldr	r2, [r7, #8]
80100370:	4613      	mov	r3, r2
80100372:	009b      	lsls	r3, r3, #2
80100374:	4413      	add	r3, r2
80100376:	005b      	lsls	r3, r3, #1
80100378:	60bb      	str	r3, [r7, #8]
8010037a:	687b      	ldr	r3, [r7, #4]
8010037c:	781b      	ldrb	r3, [r3, #0]
8010037e:	3b30      	subs	r3, #48	; 0x30
80100380:	68ba      	ldr	r2, [r7, #8]
80100382:	4413      	add	r3, r2
80100384:	60bb      	str	r3, [r7, #8]
80100386:	687b      	ldr	r3, [r7, #4]
80100388:	3301      	adds	r3, #1
8010038a:	607b      	str	r3, [r7, #4]
8010038c:	687b      	ldr	r3, [r7, #4]
8010038e:	781b      	ldrb	r3, [r3, #0]
80100390:	2b2f      	cmp	r3, #47	; 0x2f
80100392:	d903      	bls.n	8010039c <my_vprintf+0x78>
80100394:	687b      	ldr	r3, [r7, #4]
80100396:	781b      	ldrb	r3, [r3, #0]
80100398:	2b39      	cmp	r3, #57	; 0x39
8010039a:	d9e8      	bls.n	8010036e <my_vprintf+0x4a>
8010039c:	687b      	ldr	r3, [r7, #4]
8010039e:	781b      	ldrb	r3, [r3, #0]
801003a0:	3b63      	subs	r3, #99	; 0x63
801003a2:	2b15      	cmp	r3, #21
801003a4:	d875      	bhi.n	80100492 <my_vprintf+0x16e>
801003a6:	a201      	add	r2, pc, #4	; (adr r2, 801003ac <my_vprintf+0x88>)
801003a8:	f852 f023 	ldr.w	pc, [r2, r3, lsl #2]
801003ac:	8010046b 	andshi	r0, r0, fp, ror #8
801003b0:	80100405 	andshi	r0, r0, r5, lsl #8
801003b4:	80100493 	mulshi	r0, r3, r4
801003b8:	80100493 	mulshi	r0, r3, r4
801003bc:	80100493 	mulshi	r0, r3, r4
801003c0:	80100493 	mulshi	r0, r3, r4
801003c4:	80100493 	mulshi	r0, r3, r4
801003c8:	80100493 	mulshi	r0, r3, r4
801003cc:	80100493 	mulshi	r0, r3, r4
801003d0:	80100493 	mulshi	r0, r3, r4
801003d4:	80100493 	mulshi	r0, r3, r4
801003d8:	80100493 	mulshi	r0, r3, r4
801003dc:	8010041d 	andshi	r0, r0, sp, lsl r4
801003e0:	80100493 	mulshi	r0, r3, r4
801003e4:	80100493 	mulshi	r0, r3, r4
801003e8:	80100493 	mulshi	r0, r3, r4
801003ec:	8010047f 	andshi	r0, r0, pc, ror r4
801003f0:	80100493 	mulshi	r0, r3, r4
801003f4:	80100437 	andshi	r0, r0, r7, lsr r4
801003f8:	80100493 	mulshi	r0, r3, r4
801003fc:	80100493 	mulshi	r0, r3, r4
80100400:	80100451 	andshi	r0, r0, r1, asr r4
80100404:	683b      	ldr	r3, [r7, #0]
80100406:	3304      	adds	r3, #4
80100408:	603b      	str	r3, [r7, #0]
8010040a:	683b      	ldr	r3, [r7, #0]
8010040c:	3b04      	subs	r3, #4
8010040e:	6818      	ldr	r0, [r3, #0]
80100410:	7bfa      	ldrb	r2, [r7, #15]
80100412:	68bb      	ldr	r3, [r7, #8]
80100414:	210a      	movs	r1, #10
80100416:	f7ff ff1c 	bl	80100252 <out_num>
8010041a:	e040      	b.n	8010049e <my_vprintf+0x17a>
8010041c:	683b      	ldr	r3, [r7, #0]
8010041e:	3304      	adds	r3, #4
80100420:	603b      	str	r3, [r7, #0]
80100422:	683b      	ldr	r3, [r7, #0]
80100424:	3b04      	subs	r3, #4
80100426:	681b      	ldr	r3, [r3, #0]
80100428:	4618      	mov	r0, r3
8010042a:	7bfa      	ldrb	r2, [r7, #15]
8010042c:	68bb      	ldr	r3, [r7, #8]
8010042e:	2108      	movs	r1, #8
80100430:	f7ff ff0f 	bl	80100252 <out_num>
80100434:	e033      	b.n	8010049e <my_vprintf+0x17a>
80100436:	683b      	ldr	r3, [r7, #0]
80100438:	3304      	adds	r3, #4
8010043a:	603b      	str	r3, [r7, #0]
8010043c:	683b      	ldr	r3, [r7, #0]
8010043e:	3b04      	subs	r3, #4
80100440:	681b      	ldr	r3, [r3, #0]
80100442:	4618      	mov	r0, r3
80100444:	7bfa      	ldrb	r2, [r7, #15]
80100446:	68bb      	ldr	r3, [r7, #8]
80100448:	210a      	movs	r1, #10
8010044a:	f7ff ff02 	bl	80100252 <out_num>
8010044e:	e026      	b.n	8010049e <my_vprintf+0x17a>
80100450:	683b      	ldr	r3, [r7, #0]
80100452:	3304      	adds	r3, #4
80100454:	603b      	str	r3, [r7, #0]
80100456:	683b      	ldr	r3, [r7, #0]
80100458:	3b04      	subs	r3, #4
8010045a:	681b      	ldr	r3, [r3, #0]
8010045c:	4618      	mov	r0, r3
8010045e:	7bfa      	ldrb	r2, [r7, #15]
80100460:	68bb      	ldr	r3, [r7, #8]
80100462:	2110      	movs	r1, #16
80100464:	f7ff fef5 	bl	80100252 <out_num>
80100468:	e019      	b.n	8010049e <my_vprintf+0x17a>
8010046a:	683b      	ldr	r3, [r7, #0]
8010046c:	3304      	adds	r3, #4
8010046e:	603b      	str	r3, [r7, #0]
80100470:	683b      	ldr	r3, [r7, #0]
80100472:	3b04      	subs	r3, #4
80100474:	681b      	ldr	r3, [r3, #0]
80100476:	4618      	mov	r0, r3
80100478:	f7ff feca 	bl	80100210 <outc>
8010047c:	e00f      	b.n	8010049e <my_vprintf+0x17a>
8010047e:	683b      	ldr	r3, [r7, #0]
80100480:	3304      	adds	r3, #4
80100482:	603b      	str	r3, [r7, #0]
80100484:	683b      	ldr	r3, [r7, #0]
80100486:	3b04      	subs	r3, #4
80100488:	681b      	ldr	r3, [r3, #0]
8010048a:	4618      	mov	r0, r3
8010048c:	f7ff fecc 	bl	80100228 <outs>
80100490:	e005      	b.n	8010049e <my_vprintf+0x17a>
80100492:	687b      	ldr	r3, [r7, #4]
80100494:	781b      	ldrb	r3, [r3, #0]
80100496:	4618      	mov	r0, r3
80100498:	f7ff feba 	bl	80100210 <outc>
8010049c:	bf00      	nop
8010049e:	687b      	ldr	r3, [r7, #4]
801004a0:	3301      	adds	r3, #1
801004a2:	607b      	str	r3, [r7, #4]
801004a4:	687b      	ldr	r3, [r7, #4]
801004a6:	781b      	ldrb	r3, [r3, #0]
801004a8:	2b00      	cmp	r3, #0
801004aa:	f47f af45 	bne.w	80100338 <my_vprintf+0x14>
801004ae:	2300      	movs	r3, #0
801004b0:	4618      	mov	r0, r3
801004b2:	3710      	adds	r7, #16
801004b4:	46bd      	mov	sp, r7
801004b6:	bd80      	pop	{r7, pc}

801004b8 <printf>:
801004b8:	b40f      	push	{r0, r1, r2, r3}
801004ba:	b580      	push	{r7, lr}
801004bc:	b082      	sub	sp, #8
801004be:	af00      	add	r7, sp, #0
801004c0:	f107 0314 	add.w	r3, r7, #20
801004c4:	607b      	str	r3, [r7, #4]
801004c6:	693b      	ldr	r3, [r7, #16]
801004c8:	6879      	ldr	r1, [r7, #4]
801004ca:	4618      	mov	r0, r3
801004cc:	f7ff ff2a 	bl	80100324 <my_vprintf>
801004d0:	2300      	movs	r3, #0
801004d2:	607b      	str	r3, [r7, #4]
801004d4:	2300      	movs	r3, #0
801004d6:	4618      	mov	r0, r3
801004d8:	3708      	adds	r7, #8
801004da:	46bd      	mov	sp, r7
801004dc:	e8bd 4080 	ldmia.w	sp!, {r7, lr}
801004e0:	b004      	add	sp, #16
801004e2:	4770      	bx	lr

801004e4 <my_printf_test>:
801004e4:	b580      	push	{r7, lr}
801004e6:	af00      	add	r7, sp, #0
801004e8:	f640 0090 	movw	r0, #2192	; 0x890
801004ec:	f2c8 0010 	movt	r0, #32784	; 0x8010
801004f0:	f7ff ffe2 	bl	801004b8 <printf>
801004f4:	2261      	movs	r2, #97	; 0x61
801004f6:	2141      	movs	r1, #65	; 0x41
801004f8:	f640 00bc 	movw	r0, #2236	; 0x8bc
801004fc:	f2c8 0010 	movt	r0, #32784	; 0x8010
80100500:	f7ff ffda 	bl	801004b8 <printf>
80100504:	f24e 2140 	movw	r1, #57920	; 0xe240
80100508:	f2c0 0101 	movt	r1, #1
8010050c:	f640 00dc 	movw	r0, #2268	; 0x8dc
80100510:	f2c8 0010 	movt	r0, #32784	; 0x8010
80100514:	f7ff ffd0 	bl	801004b8 <printf>
80100518:	f44f 51ee 	mov.w	r1, #7616	; 0x1dc0
8010051c:	f6cf 71fe 	movt	r1, #65534	; 0xfffe
80100520:	f640 00dc 	movw	r0, #2268	; 0x8dc
80100524:	f2c8 0010 	movt	r0, #32784	; 0x8010
80100528:	f7ff ffc6 	bl	801004b8 <printf>
8010052c:	f245 51aa 	movw	r1, #21930	; 0x55aa
80100530:	f2c5 51aa 	movt	r1, #21930	; 0x55aa
80100534:	f640 00f8 	movw	r0, #2296	; 0x8f8
80100538:	f2c8 0010 	movt	r0, #32784	; 0x8010
8010053c:	f7ff ffbc 	bl	801004b8 <printf>
80100540:	f640 1114 	movw	r1, #2324	; 0x914
80100544:	f2c8 0110 	movt	r1, #32784	; 0x8010
80100548:	f640 1024 	movw	r0, #2340	; 0x924
8010054c:	f2c8 0010 	movt	r0, #32784	; 0x8010
80100550:	f7ff ffb2 	bl	801004b8 <printf>
80100554:	f243 0139 	movw	r1, #12345	; 0x3039
80100558:	f640 1040 	movw	r0, #2368	; 0x940
8010055c:	f2c8 0010 	movt	r0, #32784	; 0x8010
80100560:	f7ff ffaa 	bl	801004b8 <printf>
80100564:	f243 0139 	movw	r1, #12345	; 0x3039
80100568:	f640 104c 	movw	r0, #2380	; 0x94c
8010056c:	f2c8 0010 	movt	r0, #32784	; 0x8010
80100570:	f7ff ffa2 	bl	801004b8 <printf>
80100574:	f242 3145 	movw	r1, #9029	; 0x2345
80100578:	f2c0 0101 	movt	r1, #1
8010057c:	f640 1058 	movw	r0, #2392	; 0x958
80100580:	f2c8 0010 	movt	r0, #32784	; 0x8010
80100584:	f7ff ff98 	bl	801004b8 <printf>
80100588:	f242 3145 	movw	r1, #9029	; 0x2345
8010058c:	f2c0 0101 	movt	r1, #1
80100590:	f640 1068 	movw	r0, #2408	; 0x968
80100594:	f2c8 0010 	movt	r0, #32784	; 0x8010
80100598:	f7ff ff8e 	bl	801004b8 <printf>
8010059c:	2101      	movs	r1, #1
8010059e:	f640 1074 	movw	r0, #2420	; 0x974
801005a2:	f2c8 0010 	movt	r0, #32784	; 0x8010
801005a6:	f7ff ff87 	bl	801004b8 <printf>
801005aa:	2101      	movs	r1, #1
801005ac:	f640 1084 	movw	r0, #2436	; 0x984
801005b0:	f2c8 0010 	movt	r0, #32784	; 0x8010
801005b4:	f7ff ff80 	bl	801004b8 <printf>
801005b8:	2101      	movs	r1, #1
801005ba:	f640 1090 	movw	r0, #2448	; 0x990
801005be:	f2c8 0010 	movt	r0, #32784	; 0x8010
801005c2:	f7ff ff79 	bl	801004b8 <printf>
801005c6:	2101      	movs	r1, #1
801005c8:	f640 109c 	movw	r0, #2460	; 0x99c
801005cc:	f2c8 0010 	movt	r0, #32784	; 0x8010
801005d0:	f7ff ff72 	bl	801004b8 <printf>
801005d4:	2300      	movs	r3, #0
801005d6:	4618      	mov	r0, r3
801005d8:	bd80      	pop	{r7, pc}
801005da:	bf00      	nop
801005dc:	0000      	movs	r0, r0
	...

801005e0 <__aeabi_uidiv>:
801005e0:	1e4a      	subs	r2, r1, #1
801005e2:	bf08      	it	eq
801005e4:	4770      	bxeq	lr
801005e6:	f0c0 8124 	bcc.w	80100832 <__aeabi_uidiv+0x252>
801005ea:	4288      	cmp	r0, r1
801005ec:	f240 8116 	bls.w	8010081c <__aeabi_uidiv+0x23c>
801005f0:	4211      	tst	r1, r2
801005f2:	f000 8117 	beq.w	80100824 <__aeabi_uidiv+0x244>
801005f6:	fab0 f380 	clz	r3, r0
801005fa:	fab1 f281 	clz	r2, r1
801005fe:	eba2 0303 	sub.w	r3, r2, r3
80100602:	f1c3 031f 	rsb	r3, r3, #31
80100606:	a204      	add	r2, pc, #16	; (adr r2, 80100618 <__aeabi_uidiv+0x38>)
80100608:	eb02 1303 	add.w	r3, r2, r3, lsl #4
8010060c:	f04f 0200 	mov.w	r2, #0
80100610:	469f      	mov	pc, r3
80100612:	bf00      	nop
80100614:	f3af 8000 	nop.w
80100618:	ebb0 7fc1 	cmp.w	r0, r1, lsl #31
8010061c:	bf00      	nop
8010061e:	eb42 0202 	adc.w	r2, r2, r2
80100622:	bf28      	it	cs
80100624:	eba0 70c1 	subcs.w	r0, r0, r1, lsl #31
80100628:	ebb0 7f81 	cmp.w	r0, r1, lsl #30
8010062c:	bf00      	nop
8010062e:	eb42 0202 	adc.w	r2, r2, r2
80100632:	bf28      	it	cs
80100634:	eba0 7081 	subcs.w	r0, r0, r1, lsl #30
80100638:	ebb0 7f41 	cmp.w	r0, r1, lsl #29
8010063c:	bf00      	nop
8010063e:	eb42 0202 	adc.w	r2, r2, r2
80100642:	bf28      	it	cs
80100644:	eba0 7041 	subcs.w	r0, r0, r1, lsl #29
80100648:	ebb0 7f01 	cmp.w	r0, r1, lsl #28
8010064c:	bf00      	nop
8010064e:	eb42 0202 	adc.w	r2, r2, r2
80100652:	bf28      	it	cs
80100654:	eba0 7001 	subcs.w	r0, r0, r1, lsl #28
80100658:	ebb0 6fc1 	cmp.w	r0, r1, lsl #27
8010065c:	bf00      	nop
8010065e:	eb42 0202 	adc.w	r2, r2, r2
80100662:	bf28      	it	cs
80100664:	eba0 60c1 	subcs.w	r0, r0, r1, lsl #27
80100668:	ebb0 6f81 	cmp.w	r0, r1, lsl #26
8010066c:	bf00      	nop
8010066e:	eb42 0202 	adc.w	r2, r2, r2
80100672:	bf28      	it	cs
80100674:	eba0 6081 	subcs.w	r0, r0, r1, lsl #26
80100678:	ebb0 6f41 	cmp.w	r0, r1, lsl #25
8010067c:	bf00      	nop
8010067e:	eb42 0202 	adc.w	r2, r2, r2
80100682:	bf28      	it	cs
80100684:	eba0 6041 	subcs.w	r0, r0, r1, lsl #25
80100688:	ebb0 6f01 	cmp.w	r0, r1, lsl #24
8010068c:	bf00      	nop
8010068e:	eb42 0202 	adc.w	r2, r2, r2
80100692:	bf28      	it	cs
80100694:	eba0 6001 	subcs.w	r0, r0, r1, lsl #24
80100698:	ebb0 5fc1 	cmp.w	r0, r1, lsl #23
8010069c:	bf00      	nop
8010069e:	eb42 0202 	adc.w	r2, r2, r2
801006a2:	bf28      	it	cs
801006a4:	eba0 50c1 	subcs.w	r0, r0, r1, lsl #23
801006a8:	ebb0 5f81 	cmp.w	r0, r1, lsl #22
801006ac:	bf00      	nop
801006ae:	eb42 0202 	adc.w	r2, r2, r2
801006b2:	bf28      	it	cs
801006b4:	eba0 5081 	subcs.w	r0, r0, r1, lsl #22
801006b8:	ebb0 5f41 	cmp.w	r0, r1, lsl #21
801006bc:	bf00      	nop
801006be:	eb42 0202 	adc.w	r2, r2, r2
801006c2:	bf28      	it	cs
801006c4:	eba0 5041 	subcs.w	r0, r0, r1, lsl #21
801006c8:	ebb0 5f01 	cmp.w	r0, r1, lsl #20
801006cc:	bf00      	nop
801006ce:	eb42 0202 	adc.w	r2, r2, r2
801006d2:	bf28      	it	cs
801006d4:	eba0 5001 	subcs.w	r0, r0, r1, lsl #20
801006d8:	ebb0 4fc1 	cmp.w	r0, r1, lsl #19
801006dc:	bf00      	nop
801006de:	eb42 0202 	adc.w	r2, r2, r2
801006e2:	bf28      	it	cs
801006e4:	eba0 40c1 	subcs.w	r0, r0, r1, lsl #19
801006e8:	ebb0 4f81 	cmp.w	r0, r1, lsl #18
801006ec:	bf00      	nop
801006ee:	eb42 0202 	adc.w	r2, r2, r2
801006f2:	bf28      	it	cs
801006f4:	eba0 4081 	subcs.w	r0, r0, r1, lsl #18
801006f8:	ebb0 4f41 	cmp.w	r0, r1, lsl #17
801006fc:	bf00      	nop
801006fe:	eb42 0202 	adc.w	r2, r2, r2
80100702:	bf28      	it	cs
80100704:	eba0 4041 	subcs.w	r0, r0, r1, lsl #17
80100708:	ebb0 4f01 	cmp.w	r0, r1, lsl #16
8010070c:	bf00      	nop
8010070e:	eb42 0202 	adc.w	r2, r2, r2
80100712:	bf28      	it	cs
80100714:	eba0 4001 	subcs.w	r0, r0, r1, lsl #16
80100718:	ebb0 3fc1 	cmp.w	r0, r1, lsl #15
8010071c:	bf00      	nop
8010071e:	eb42 0202 	adc.w	r2, r2, r2
80100722:	bf28      	it	cs
80100724:	eba0 30c1 	subcs.w	r0, r0, r1, lsl #15
80100728:	ebb0 3f81 	cmp.w	r0, r1, lsl #14
8010072c:	bf00      	nop
8010072e:	eb42 0202 	adc.w	r2, r2, r2
80100732:	bf28      	it	cs
80100734:	eba0 3081 	subcs.w	r0, r0, r1, lsl #14
80100738:	ebb0 3f41 	cmp.w	r0, r1, lsl #13
8010073c:	bf00      	nop
8010073e:	eb42 0202 	adc.w	r2, r2, r2
80100742:	bf28      	it	cs
80100744:	eba0 3041 	subcs.w	r0, r0, r1, lsl #13
80100748:	ebb0 3f01 	cmp.w	r0, r1, lsl #12
8010074c:	bf00      	nop
8010074e:	eb42 0202 	adc.w	r2, r2, r2
80100752:	bf28      	it	cs
80100754:	eba0 3001 	subcs.w	r0, r0, r1, lsl #12
80100758:	ebb0 2fc1 	cmp.w	r0, r1, lsl #11
8010075c:	bf00      	nop
8010075e:	eb42 0202 	adc.w	r2, r2, r2
80100762:	bf28      	it	cs
80100764:	eba0 20c1 	subcs.w	r0, r0, r1, lsl #11
80100768:	ebb0 2f81 	cmp.w	r0, r1, lsl #10
8010076c:	bf00      	nop
8010076e:	eb42 0202 	adc.w	r2, r2, r2
80100772:	bf28      	it	cs
80100774:	eba0 2081 	subcs.w	r0, r0, r1, lsl #10
80100778:	ebb0 2f41 	cmp.w	r0, r1, lsl #9
8010077c:	bf00      	nop
8010077e:	eb42 0202 	adc.w	r2, r2, r2
80100782:	bf28      	it	cs
80100784:	eba0 2041 	subcs.w	r0, r0, r1, lsl #9
80100788:	ebb0 2f01 	cmp.w	r0, r1, lsl #8
8010078c:	bf00      	nop
8010078e:	eb42 0202 	adc.w	r2, r2, r2
80100792:	bf28      	it	cs
80100794:	eba0 2001 	subcs.w	r0, r0, r1, lsl #8
80100798:	ebb0 1fc1 	cmp.w	r0, r1, lsl #7
8010079c:	bf00      	nop
8010079e:	eb42 0202 	adc.w	r2, r2, r2
801007a2:	bf28      	it	cs
801007a4:	eba0 10c1 	subcs.w	r0, r0, r1, lsl #7
801007a8:	ebb0 1f81 	cmp.w	r0, r1, lsl #6
801007ac:	bf00      	nop
801007ae:	eb42 0202 	adc.w	r2, r2, r2
801007b2:	bf28      	it	cs
801007b4:	eba0 1081 	subcs.w	r0, r0, r1, lsl #6
801007b8:	ebb0 1f41 	cmp.w	r0, r1, lsl #5
801007bc:	bf00      	nop
801007be:	eb42 0202 	adc.w	r2, r2, r2
801007c2:	bf28      	it	cs
801007c4:	eba0 1041 	subcs.w	r0, r0, r1, lsl #5
801007c8:	ebb0 1f01 	cmp.w	r0, r1, lsl #4
801007cc:	bf00      	nop
801007ce:	eb42 0202 	adc.w	r2, r2, r2
801007d2:	bf28      	it	cs
801007d4:	eba0 1001 	subcs.w	r0, r0, r1, lsl #4
801007d8:	ebb0 0fc1 	cmp.w	r0, r1, lsl #3
801007dc:	bf00      	nop
801007de:	eb42 0202 	adc.w	r2, r2, r2
801007e2:	bf28      	it	cs
801007e4:	eba0 00c1 	subcs.w	r0, r0, r1, lsl #3
801007e8:	ebb0 0f81 	cmp.w	r0, r1, lsl #2
801007ec:	bf00      	nop
801007ee:	eb42 0202 	adc.w	r2, r2, r2
801007f2:	bf28      	it	cs
801007f4:	eba0 0081 	subcs.w	r0, r0, r1, lsl #2
801007f8:	ebb0 0f41 	cmp.w	r0, r1, lsl #1
801007fc:	bf00      	nop
801007fe:	eb42 0202 	adc.w	r2, r2, r2
80100802:	bf28      	it	cs
80100804:	eba0 0041 	subcs.w	r0, r0, r1, lsl #1
80100808:	ebb0 0f01 	cmp.w	r0, r1
8010080c:	bf00      	nop
8010080e:	eb42 0202 	adc.w	r2, r2, r2
80100812:	bf28      	it	cs
80100814:	eba0 0001 	subcs.w	r0, r0, r1
80100818:	4610      	mov	r0, r2
8010081a:	4770      	bx	lr
8010081c:	bf0c      	ite	eq
8010081e:	2001      	moveq	r0, #1
80100820:	2000      	movne	r0, #0
80100822:	4770      	bx	lr
80100824:	fab1 f281 	clz	r2, r1
80100828:	f1c2 021f 	rsb	r2, r2, #31
8010082c:	fa20 f002 	lsr.w	r0, r0, r2
80100830:	4770      	bx	lr
80100832:	b108      	cbz	r0, 80100838 <__aeabi_uidiv+0x258>
80100834:	f04f 30ff 	mov.w	r0, #4294967295	; 0xffffffff
80100838:	f000 b80e 	b.w	80100858 <__aeabi_idiv0>

8010083c <__aeabi_uidivmod>:
8010083c:	2900      	cmp	r1, #0
8010083e:	d0f8      	beq.n	80100832 <__aeabi_uidiv+0x252>
80100840:	e92d 4003 	stmdb	sp!, {r0, r1, lr}
80100844:	f7ff fecc 	bl	801005e0 <__aeabi_uidiv>
80100848:	e8bd 4006 	ldmia.w	sp!, {r1, r2, lr}
8010084c:	fb02 f300 	mul.w	r3, r2, r0
80100850:	eba1 0103 	sub.w	r1, r1, r3
80100854:	4770      	bx	lr
80100856:	bf00      	nop

80100858 <__aeabi_idiv0>:
80100858:	b502      	push	{r1, lr}
8010085a:	f04f 0008 	mov.w	r0, #8
8010085e:	f7ff fc9d 	bl	8010019c <raise>
80100862:	bd02      	pop	{r1, pc}

Disassembly of section .rodata:

80100864 <g_charB>:
80100864:	00000042 	andeq	r0, r0, r2, asr #32

80100868 <.LC0>:
80100868:	6e695f67 	cdpvs	15, 6, cr5, cr9, cr7, {3}
8010086c:	3d204174 	stfccs	f4, [r0, #-464]!	; 0xfffffe30
80100870:	25783020 	ldrbcs	r3, [r8, #-32]!	; 0xffffffe0
80100874:	0a783830 	beq	81f0e93c <__bss_end+0x1d0e917>
80100878:	0000000d 	andeq	r0, r0, sp

8010087c <.LC1>:
8010087c:	6e695f67 	cdpvs	15, 6, cr5, cr9, cr7, {3}
80100880:	3d204274 	sfmcc	f4, 4, [r0, #-464]!	; 0xfffffe30
80100884:	25783020 	ldrbcs	r3, [r8, #-32]!	; 0xffffffe0
80100888:	0a783830 	beq	81f0e950 <__bss_end+0x1d0e92b>
8010088c:	0000000d 	andeq	r0, r0, sp

80100890 <.LC0>:
80100890:	73696854 	cmnvc	r9, #84, 16	; 0x540000
80100894:	20736920 	rsbscs	r6, r3, r0, lsr #18
80100898:	2e777777 	mrccs	7, 3, r7, cr7, cr7, {3}
8010089c:	61303031 	teqvs	r0, r1, lsr r0
801008a0:	6f2e6b73 	svcvs	0x002e6b73
801008a4:	20206772 	eorcs	r6, r0, r2, ror r7
801008a8:	5f796d20 	svcpl	0x00796d20
801008ac:	6e697270 	mcrvs	2, 3, r7, cr9, cr0, {3}
801008b0:	74206674 	strtvc	r6, [r0], #-1652	; 0xfffff98c
801008b4:	0a747365 	beq	81e1d650 <__bss_end+0x1c1d62b>
801008b8:	0000000d 	andeq	r0, r0, sp

801008bc <.LC1>:
801008bc:	74736574 	ldrbtvc	r6, [r3], #-1396	; 0xfffffa8c
801008c0:	61686320 	cmnvs	r8, r0, lsr #6
801008c4:	20202072 	eorcs	r2, r0, r2, ror r0
801008c8:	20202020 	eorcs	r2, r0, r0, lsr #32
801008cc:	20202020 	eorcs	r2, r0, r0, lsr #32
801008d0:	2c63253d 	cfstr64cs	mvdx2, [r3], #-244	; 0xffffff0c
801008d4:	0d0a6325 	stceq	3, cr6, [sl, #-148]	; 0xffffff6c
801008d8:	00000000 	andeq	r0, r0, r0

801008dc <.LC2>:
801008dc:	74736574 	ldrbtvc	r6, [r3], #-1396	; 0xfffffa8c
801008e0:	63656420 	cmnvs	r5, #32, 8	; 0x20000000
801008e4:	6c616d69 	stclvs	13, cr6, [r1], #-420	; 0xfffffe5c
801008e8:	6d756e20 	ldclvs	14, cr6, [r5, #-128]!	; 0xffffff80
801008ec:	20726562 	rsbscs	r6, r2, r2, ror #10
801008f0:	0a64253d 	beq	81a09dec <__bss_end+0x1809dc7>
801008f4:	0000000d 	andeq	r0, r0, sp

801008f8 <.LC3>:
801008f8:	74736574 	ldrbtvc	r6, [r3], #-1396	; 0xfffffa8c
801008fc:	78656820 	stmdavc	r5!, {r5, fp, sp, lr}^
80100900:	20202020 	eorcs	r2, r0, r0, lsr #32
80100904:	6d756e20 	ldclvs	14, cr6, [r5, #-128]!	; 0xffffff80
80100908:	20726562 	rsbscs	r6, r2, r2, ror #10
8010090c:	2578303d 	ldrbcs	r3, [r8, #-61]!	; 0xffffffc3
80100910:	000d0a78 	andeq	r0, sp, r8, ror sl

80100914 <.LC4>:
80100914:	2e777777 	mrccs	7, 3, r7, cr7, cr7, {3}
80100918:	61303031 	teqvs	r0, r1, lsr r0
8010091c:	6f2e6b73 	svcvs	0x002e6b73
80100920:	00006772 	andeq	r6, r0, r2, ror r7

80100924 <.LC5>:
80100924:	74736574 	ldrbtvc	r6, [r3], #-1396	; 0xfffffa8c
80100928:	72747320 	rsbsvc	r7, r4, #32, 6	; 0x80000000
8010092c:	20676e69 	rsbcs	r6, r7, r9, ror #28
80100930:	20202020 	eorcs	r2, r0, r0, lsr #32
80100934:	20202020 	eorcs	r2, r0, r0, lsr #32
80100938:	0a73253d 	beq	81dc9e34 <__bss_end+0x1bc9e0f>
8010093c:	0000000d 	andeq	r0, r0, sp

80100940 <.LC6>:
80100940:	3d6d756e 	cfstr64cc	mvdx7, [sp, #-440]!	; 0xfffffe48
80100944:	64383025 	ldrtvs	r3, [r8], #-37	; 0xffffffdb
80100948:	00000d0a 	andeq	r0, r0, sl, lsl #26

8010094c <.LC7>:
8010094c:	3d6d756e 	cfstr64cc	mvdx7, [sp, #-440]!	; 0xfffffe48
80100950:	0a643825 	beq	81a0e9ec <__bss_end+0x180e9c7>
80100954:	0000000d 	andeq	r0, r0, sp

80100958 <.LC8>:
80100958:	3d6d756e 	cfstr64cc	mvdx7, [sp, #-440]!	; 0xfffffe48
8010095c:	30257830 	eorcc	r7, r5, r0, lsr r8
80100960:	0d0a7838 	stceq	8, cr7, [sl, #-224]	; 0xffffff20
80100964:	00000000 	andeq	r0, r0, r0

80100968 <.LC9>:
80100968:	3d6d756e 	cfstr64cc	mvdx7, [sp, #-440]!	; 0xfffffe48
8010096c:	38257830 	stmdacc	r5!, {r4, r5, fp, ip, sp, lr}
80100970:	000d0a78 	andeq	r0, sp, r8, ror sl

80100974 <.LC10>:
80100974:	3d6d756e 	cfstr64cc	mvdx7, [sp, #-440]!	; 0xfffffe48
80100978:	30257830 	eorcc	r7, r5, r0, lsr r8
8010097c:	0d0a7832 	stceq	8, cr7, [sl, #-200]	; 0xffffff38
80100980:	00000000 	andeq	r0, r0, r0

80100984 <.LC11>:
80100984:	3d6d756e 	cfstr64cc	mvdx7, [sp, #-440]!	; 0xfffffe48
80100988:	32257830 	eorcc	r7, r5, #48, 16	; 0x300000
8010098c:	000d0a78 	andeq	r0, sp, r8, ror sl

80100990 <.LC12>:
80100990:	3d6d756e 	cfstr64cc	mvdx7, [sp, #-440]!	; 0xfffffe48
80100994:	64353025 	ldrtvs	r3, [r5], #-37	; 0xffffffdb
80100998:	00000d0a 	andeq	r0, r0, sl, lsl #26

8010099c <.LC13>:
8010099c:	3d6d756e 	cfstr64cc	mvdx7, [sp, #-440]!	; 0xfffffe48
801009a0:	0a643525 	beq	81a0de3c <__bss_end+0x180de17>
801009a4:	Address 0x00000000801009a4 is out of bounds.


Disassembly of section .data:

80200000 <g_charA>:
80200000:	00000041 	andeq	r0, r0, r1, asr #32

80200004 <hex_tab>:
80200004:	33323130 	teqcc	r2, #48, 2
80200008:	37363534 			; <UNDEFINED> instruction: 0x37363534
8020000c:	62613938 	rsbvs	r3, r1, #56, 18	; 0xe0000
80200010:	66656463 	strbtvs	r6, [r5], -r3, ror #8

Disassembly of section .bss:

80200014 <__bss_start>:
80200014:	00000000 	andeq	r0, r0, r0

80200018 <IOMUXC_SW_MUX_CTL_PAD_UART1_RX_DATA>:
80200018:	00000000 	andeq	r0, r0, r0

8020001c <g_intA>:
8020001c:	00000000 	andeq	r0, r0, r0

80200020 <g_intB>:
80200020:	00000000 	andeq	r0, r0, r0

80200024 <g_charC>:
	...

Disassembly of section .ARM.attributes:

00000000 <.ARM.attributes>:
   0:	00002e41 	andeq	r2, r0, r1, asr #28
   4:	61656100 	cmnvs	r5, r0, lsl #2
   8:	01006962 	tsteq	r0, r2, ror #18
   c:	00000024 	andeq	r0, r0, r4, lsr #32
  10:	412d3705 			; <UNDEFINED> instruction: 0x412d3705
  14:	070a0600 	streq	r0, [sl, -r0, lsl #12]
  18:	09010841 	stmdbeq	r1, {r0, r6, fp}
  1c:	12040a02 	andne	r0, r4, #8192	; 0x2000
  20:	15011404 	strne	r1, [r1, #-1028]	; 0xfffffbfc
  24:	18031701 	stmdane	r3, {r0, r8, r9, sl, ip}
  28:	1c021a01 			; <UNDEFINED> instruction: 0x1c021a01
  2c:	Address 0x000000000000002c is out of bounds.


Disassembly of section .comment:

00000000 <.comment>:
   0:	3a434347 	bcc	10d0d24 <shift+0x10d0d24>
   4:	694c2820 	stmdbvs	ip, {r5, fp, sp}^
   8:	6f72616e 	svcvs	0x0072616e
   c:	43434720 	movtmi	r4, #14112	; 0x3720
  10:	322e3620 	eorcc	r3, lr, #32, 12	; 0x2000000
  14:	3130322d 	teqcc	r0, sp, lsr #4
  18:	31312e36 	teqcc	r1, r6, lsr lr
  1c:	2e362029 	cdpcs	0, 3, cr2, cr6, cr9, {1}
  20:	20312e32 	eorscs	r2, r1, r2, lsr lr
  24:	36313032 			; <UNDEFINED> instruction: 0x36313032
  28:	36313031 			; <UNDEFINED> instruction: 0x36313031
	...

Disassembly of section .debug_line:

00000000 <.debug_line>:
   0:	00000043 	andeq	r0, r0, r3, asr #32
   4:	001e0002 	andseq	r0, lr, r2
   8:	01020000 	mrseq	r0, (UNDEF: 2)
   c:	000d0efb 	strdeq	r0, [sp], -fp
  10:	01010101 	tsteq	r1, r1, lsl #2
  14:	01000000 	mrseq	r0, (UNDEF: 0)
  18:	00010000 	andeq	r0, r1, r0
  1c:	72617473 	rsbvc	r7, r1, #1929379840	; 0x73000000
  20:	00532e74 	subseq	r2, r3, r4, ror lr
  24:	00000000 	andeq	r0, r0, r0
  28:	00020500 	andeq	r0, r2, r0, lsl #10
  2c:	19801000 	stmibne	r0, {ip}
  30:	31313131 	teqcc	r1, r1, lsr r1
  34:	2f302f2f 	svccs	0x00302f2f
  38:	03302f2f 	teqeq	r0, #47, 30	; 0xbc
  3c:	0c032e6b 	stceq	14, cr2, [r3], {107}	; 0x6b
  40:	02022f2e 	andeq	r2, r2, #46, 30	; 0xb8
  44:	71010100 	mrsvc	r0, (UNDEF: 17)
  48:	02000000 	andeq	r0, r0, #0
  4c:	00002700 	andeq	r2, r0, r0, lsl #14
  50:	fb010200 	blx	4085a <shift+0x4085a>
  54:	01000d0e 	tsteq	r0, lr, lsl #26
  58:	00010101 	andeq	r0, r1, r1, lsl #2
  5c:	00010000 	andeq	r0, r1, r0
  60:	75000100 	strvc	r0, [r0, #-256]	; 0xffffff00
  64:	2e747261 	cdpcs	2, 7, cr7, cr4, cr1, {3}
  68:	00000063 	andeq	r0, r0, r3, rrx
  6c:	72617500 	rsbvc	r7, r1, #0, 10
  70:	00682e74 	rsbeq	r2, r8, r4, ror lr
  74:	00000000 	andeq	r0, r0, r0
  78:	3c020500 	cfstr32cc	mvfx0, [r2], {-0}
  7c:	03801000 	orreq	r1, r0, #0
  80:	83300111 	teqhi	r0, #1073741828	; 0x40000004
  84:	03767584 	cmneq	r6, #132, 10	; 0x21000000
  88:	03ddba0d 	bicseq	fp, sp, #53248	; 0xd000
  8c:	6775ba10 			; <UNDEFINED> instruction: 0x6775ba10
  90:	0d03bb76 	vstreq	d11, [r3, #-472]	; 0xfffffe28
  94:	02004b58 	andeq	r4, r0, #88, 22	; 0x16000
  98:	20060104 	andcs	r0, r6, r4, lsl #2
  9c:	03679106 	cmneq	r7, #-2147483647	; 0x80000001
  a0:	002f660d 	eoreq	r6, pc, sp, lsl #12
  a4:	06010402 	streq	r0, [r1], -r2, lsl #8
  a8:	59910620 	ldmibpl	r1, {r5, r9, sl}
  ac:	4b580d03 	blmi	16034c0 <shift+0x16034c0>
  b0:	4f395922 	svcmi	0x00395922
  b4:	02214b4c 	eoreq	r4, r1, #76, 22	; 0x13000
  b8:	01010006 	tsteq	r1, r6
  bc:	00000043 	andeq	r0, r0, r3, asr #32
  c0:	001d0002 	andseq	r0, sp, r2
  c4:	01020000 	mrseq	r0, (UNDEF: 2)
  c8:	000d0efb 	strdeq	r0, [sp], -fp
  cc:	01010101 	tsteq	r1, r1, lsl #2
  d0:	01000000 	mrseq	r0, (UNDEF: 0)
  d4:	00010000 	andeq	r0, r1, r0
  d8:	6e69616d 	powvsez	f6, f1, #5.0
  dc:	0000632e 	andeq	r6, r0, lr, lsr #6
  e0:	00000000 	andeq	r0, r0, r0
  e4:	01b20205 			; <UNDEFINED> instruction: 0x01b20205
  e8:	15038010 	strne	r8, [r3, #-16]
  ec:	02004b01 	andeq	r4, r0, #1024	; 0x400
  f0:	20060104 	andcs	r0, r6, r4, lsl #2
  f4:	0e035906 	vmlaeq.f16	s10, s6, s12	; <UNPREDICTABLE>
  f8:	bb302f66 	bllt	c0be98 <shift+0xc0be98>
  fc:	020221bc 	andeq	r2, r2, #188, 2	; 0x2f
 100:	c3010100 	movwgt	r0, #4352	; 0x1100
 104:	02000000 	andeq	r0, r0, #0
 108:	00002200 	andeq	r2, r0, r0, lsl #4
 10c:	fb010200 	blx	40916 <shift+0x40916>
 110:	01000d0e 	tsteq	r0, lr, lsl #26
 114:	00010101 	andeq	r0, r1, r1, lsl #2
 118:	00010000 	andeq	r0, r1, r0
 11c:	6d000100 	stfvss	f0, [r0, #-0]
 120:	72705f79 	rsbsvc	r5, r0, #484	; 0x1e4
 124:	66746e69 	ldrbtvs	r6, [r4], -r9, ror #28
 128:	0000632e 	andeq	r6, r0, lr, lsr #6
 12c:	00000000 	andeq	r0, r0, r0
 130:	02100205 	andseq	r0, r0, #1342177280	; 0x50000000
 134:	15038010 	strne	r8, [r3, #-16]
 138:	213d4b01 	teqcs	sp, r1, lsl #22
 13c:	73214b4d 			; <UNDEFINED> instruction: 0x73214b4d
 140:	834d214c 	movthi	r2, #53580	; 0xd14c
 144:	684d4b2f 	stmdavs	sp, {r0, r1, r2, r3, r5, r8, r9, fp, lr}^
 148:	02004d3d 	andeq	r4, r0, #3904	; 0xf40
 14c:	00320104 	eorseq	r0, r2, r4, lsl #2
 150:	08010402 	stmdaeq	r1, {r1, sl}
 154:	04020021 	streq	r0, [r2], #-33	; 0xffffffdf
 158:	00a03d01 	adceq	r3, r0, r1, lsl #26
 15c:	06010402 	streq	r0, [r1], -r2, lsl #8
 160:	004b063c 	subeq	r0, fp, ip, lsr r6
 164:	59030402 	stmdbpl	r3, {r1, sl}
 168:	03040200 	movweq	r0, #16896	; 0x4200
 16c:	04020065 	streq	r0, [r2], #-101	; 0xffffff9b
 170:	063c0601 	ldrteq	r0, [ip], -r1, lsl #12
 174:	4b683d40 	blmi	1a0f67c <shift+0x1a0f67c>
 178:	302f594f 	eorcc	r5, pc, pc, asr #18
 17c:	23594b22 	cmpcs	r9, #34816	; 0x8800
 180:	4b3d312f 	blmi	f4c644 <shift+0xf4c644>
 184:	6721402f 	strvs	r4, [r1, -pc, lsr #32]!
 188:	02003967 	andeq	r3, r0, #1687552	; 0x19c000
 18c:	4a060104 	bmi	1805a4 <shift+0x1805a4>
 190:	34025006 	strcc	r5, [r2], #-6
 194:	c9c9bb13 	stmibgt	r9, {r0, r1, r4, r8, r9, fp, ip, sp, pc}^
 198:	59a19fc9 	stmibpl	r1!, {r0, r3, r6, r7, r8, r9, sl, fp, ip, pc}
 19c:	00205e03 	eoreq	r5, r0, r3, lsl #28
 1a0:	06010402 	streq	r0, [r1], -r2, lsl #8
 1a4:	2503063c 	strcs	r0, [r3, #-1596]	; 0xfffff9c4
 1a8:	0f032158 	svceq	0x00032158
 1ac:	593d4d4a 	ldmdbpl	sp!, {r1, r3, r6, r8, sl, fp, lr}
 1b0:	0e03212f 	adfeqsp	f2, f3, #10.0
 1b4:	83672f74 	cmnhi	r7, #116, 30	; 0x1d0
 1b8:	9f9f9f9f 	svcls	0x009f9f9f
 1bc:	9f9f8383 	svcls	0x009f8383
 1c0:	76757675 			; <UNDEFINED> instruction: 0x76757675
 1c4:	00020221 	andeq	r0, r2, r1, lsr #4
 1c8:	00fc0101 	rscseq	r0, ip, r1, lsl #2
 1cc:	00020000 	andeq	r0, r2, r0
 1d0:	000000c7 	andeq	r0, r0, r7, asr #1
 1d4:	0efb0102 	cdpeq	1, 15, cr0, cr11, cr2, {0}
 1d8:	0101000d 	tsteq	r1, sp
 1dc:	00000101 	andeq	r0, r0, r1, lsl #2
 1e0:	00000100 	andeq	r0, r0, r0, lsl #2
 1e4:	6f682f01 	svcvs	0x00682f01
 1e8:	742f656d 	strtvc	r6, [pc], #-1389	; 1f0 <shift+0x1f0>
 1ec:	2d677763 	stclcs	7, cr7, [r7, #-396]!	; 0xfffffe74
 1f0:	6c697562 	cfstr64vs	mvdx7, [r9], #-392	; 0xfffffe78
 1f4:	616c7364 	cmnvs	ip, r4, ror #6
 1f8:	772f6576 			; <UNDEFINED> instruction: 0x772f6576
 1fc:	736b726f 	cmnvc	fp, #-268435450	; 0xf0000006
 200:	65636170 	strbvs	r6, [r3, #-368]!	; 0xfffffe90
 204:	7763742f 	strbvc	r7, [r3, -pc, lsr #8]!
 208:	616d2d67 	cmnvs	sp, r7, ror #26
 20c:	722d656b 	eorvc	r6, sp, #448790528	; 0x1ac00000
 210:	61656c65 	cmnvs	r5, r5, ror #24
 214:	6c2f6573 	cfstr32vs	mvfx6, [pc], #-460	; 50 <shift+0x50>
 218:	6c656261 	sfmvs	f6, 2, [r5], #-388	; 0xfffffe7c
 21c:	636f642f 	cmnvs	pc, #788529152	; 0x2f000000
 220:	2d72656b 	cfldr64cs	mvdx6, [r2, #-428]!	; 0xfffffe54
 224:	73757274 	cmnvc	r5, #116, 4	; 0x40000007
 228:	612d7974 			; <UNDEFINED> instruction: 0x612d7974
 22c:	3436646d 	ldrtcc	r6, [r6], #-1133	; 0xfffffb93
 230:	7763742d 	strbvc	r7, [r3, -sp, lsr #8]!
 234:	75622d67 	strbvc	r2, [r2, #-3431]!	; 0xfffff299
 238:	2f646c69 	svccs	0x00646c69
 23c:	67726174 			; <UNDEFINED> instruction: 0x67726174
 240:	612f7465 			; <UNDEFINED> instruction: 0x612f7465
 244:	6c2d6d72 	stcvs	13, cr6, [sp], #-456	; 0xfffffe38
 248:	78756e69 	ldmdavc	r5!, {r0, r3, r5, r6, r9, sl, fp, sp, lr}^
 24c:	756e672d 	strbvc	r6, [lr, #-1837]!	; 0xfffff8d3
 250:	69626165 	stmdbvs	r2!, {r0, r2, r5, r6, r8, sp, lr}^
 254:	732f6668 			; <UNDEFINED> instruction: 0x732f6668
 258:	7370616e 	cmnvc	r0, #-2147483621	; 0x8000001b
 25c:	73746f68 	cmnvc	r4, #104, 30	; 0x1a0
 260:	6363672f 	cmnvs	r3, #12320768	; 0xbc0000
 264:	6e696c2d 	cdpvs	12, 6, cr6, cr9, cr13, {1}
 268:	2d6f7261 	sfmcs	f7, 2, [pc, #-388]!	; ec <shift+0xec>
 26c:	2d322e36 	ldccs	14, cr2, [r2, #-216]!	; 0xffffff28
 270:	36313032 			; <UNDEFINED> instruction: 0x36313032
 274:	2f31312e 	svccs	0x0031312e
 278:	6762696c 	strbvs	r6, [r2, -ip, ror #18]!
 27c:	632f6363 			; <UNDEFINED> instruction: 0x632f6363
 280:	69666e6f 	stmdbvs	r6!, {r0, r1, r2, r3, r5, r6, r9, sl, fp, sp, lr}^
 284:	72612f67 	rsbvc	r2, r1, #412	; 0x19c
 288:	6c00006d 	stcvs	0, cr0, [r0], {109}	; 0x6d
 28c:	66316269 	ldrtvs	r6, [r1], -r9, ror #4
 290:	73636e75 	cmnvc	r3, #1872	; 0x750
 294:	0100532e 	tsteq	r0, lr, lsr #6
 298:	00000000 	andeq	r0, r0, r0
 29c:	05e00205 	strbeq	r0, [r0, #517]!	; 0x205
 2a0:	e6038010 			; <UNDEFINED> instruction: 0xe6038010
 2a4:	21210107 			; <UNDEFINED> instruction: 0x21210107
 2a8:	2f212f21 	svccs	0x00212f21
 2ac:	91023021 	tstls	r2, r1, lsr #32
 2b0:	22211402 	eorcs	r1, r1, #33554432	; 0x2000000
 2b4:	22212121 	eorcs	r2, r1, #1073741832	; 0x40000008
 2b8:	03242f4c 			; <UNDEFINED> instruction: 0x03242f4c
 2bc:	21215816 			; <UNDEFINED> instruction: 0x21215816
 2c0:	2f2f2f2f 	svccs	0x002f2f2f
 2c4:	0001022f 	andeq	r0, r1, pc, lsr #4
 2c8:	00e20101 	rsceq	r0, r2, r1, lsl #2
 2cc:	00020000 	andeq	r0, r2, r0
 2d0:	000000c7 	andeq	r0, r0, r7, asr #1
 2d4:	0efb0102 	cdpeq	1, 15, cr0, cr11, cr2, {0}
 2d8:	0101000d 	tsteq	r1, sp
 2dc:	00000101 	andeq	r0, r0, r1, lsl #2
 2e0:	00000100 	andeq	r0, r0, r0, lsl #2
 2e4:	6f682f01 	svcvs	0x00682f01
 2e8:	742f656d 	strtvc	r6, [pc], #-1389	; 2f0 <shift+0x2f0>
 2ec:	2d677763 	stclcs	7, cr7, [r7, #-396]!	; 0xfffffe74
 2f0:	6c697562 	cfstr64vs	mvdx7, [r9], #-392	; 0xfffffe78
 2f4:	616c7364 	cmnvs	ip, r4, ror #6
 2f8:	772f6576 			; <UNDEFINED> instruction: 0x772f6576
 2fc:	736b726f 	cmnvc	fp, #-268435450	; 0xf0000006
 300:	65636170 	strbvs	r6, [r3, #-368]!	; 0xfffffe90
 304:	7763742f 	strbvc	r7, [r3, -pc, lsr #8]!
 308:	616d2d67 	cmnvs	sp, r7, ror #26
 30c:	722d656b 	eorvc	r6, sp, #448790528	; 0x1ac00000
 310:	61656c65 	cmnvs	r5, r5, ror #24
 314:	6c2f6573 	cfstr32vs	mvfx6, [pc], #-460	; 150 <shift+0x150>
 318:	6c656261 	sfmvs	f6, 2, [r5], #-388	; 0xfffffe7c
 31c:	636f642f 	cmnvs	pc, #788529152	; 0x2f000000
 320:	2d72656b 	cfldr64cs	mvdx6, [r2, #-428]!	; 0xfffffe54
 324:	73757274 	cmnvc	r5, #116, 4	; 0x40000007
 328:	612d7974 			; <UNDEFINED> instruction: 0x612d7974
 32c:	3436646d 	ldrtcc	r6, [r6], #-1133	; 0xfffffb93
 330:	7763742d 	strbvc	r7, [r3, -sp, lsr #8]!
 334:	75622d67 	strbvc	r2, [r2, #-3431]!	; 0xfffff299
 338:	2f646c69 	svccs	0x00646c69
 33c:	67726174 			; <UNDEFINED> instruction: 0x67726174
 340:	612f7465 			; <UNDEFINED> instruction: 0x612f7465
 344:	6c2d6d72 	stcvs	13, cr6, [sp], #-456	; 0xfffffe38
 348:	78756e69 	ldmdavc	r5!, {r0, r3, r5, r6, r9, sl, fp, sp, lr}^
 34c:	756e672d 	strbvc	r6, [lr, #-1837]!	; 0xfffff8d3
 350:	69626165 	stmdbvs	r2!, {r0, r2, r5, r6, r8, sp, lr}^
 354:	732f6668 			; <UNDEFINED> instruction: 0x732f6668
 358:	7370616e 	cmnvc	r0, #-2147483621	; 0x8000001b
 35c:	73746f68 	cmnvc	r4, #104, 30	; 0x1a0
 360:	6363672f 	cmnvs	r3, #12320768	; 0xbc0000
 364:	6e696c2d 	cdpvs	12, 6, cr6, cr9, cr13, {1}
 368:	2d6f7261 	sfmcs	f7, 2, [pc, #-388]!	; 1ec <shift+0x1ec>
 36c:	2d322e36 	ldccs	14, cr2, [r2, #-216]!	; 0xffffff28
 370:	36313032 			; <UNDEFINED> instruction: 0x36313032
 374:	2f31312e 	svccs	0x0031312e
 378:	6762696c 	strbvs	r6, [r2, -ip, ror #18]!
 37c:	632f6363 			; <UNDEFINED> instruction: 0x632f6363
 380:	69666e6f 	stmdbvs	r6!, {r0, r1, r2, r3, r5, r6, r9, sl, fp, sp, lr}^
 384:	72612f67 	rsbvc	r2, r1, #412	; 0x19c
 388:	6c00006d 	stcvs	0, cr0, [r0], {109}	; 0x6d
 38c:	66316269 	ldrtvs	r6, [r1], -r9, ror #4
 390:	73636e75 	cmnvc	r3, #1872	; 0x750
 394:	0100532e 	tsteq	r0, lr, lsr #6
 398:	00000000 	andeq	r0, r0, r0
 39c:	08580205 	ldmdaeq	r8, {r0, r2, r9}^
 3a0:	c4038010 	strgt	r8, [r3], #-16
 3a4:	0903010a 	stmdbeq	r3, {r1, r3, r8}
 3a8:	022f2f20 	eoreq	r2, pc, #32, 30	; 0x80
 3ac:	01010001 	tsteq	r1, r1

Disassembly of section .debug_info:

00000000 <.debug_info>:
   0:	0000006c 	andeq	r0, r0, ip, rrx
   4:	00000002 	andeq	r0, r0, r2
   8:	01040000 	mrseq	r0, (UNDEF: 4)
   c:	00000000 	andeq	r0, r0, r0
  10:	80100000 	andshi	r0, r0, r0
  14:	8010003c 	andshi	r0, r0, ip, lsr r0
  18:	72617473 	rsbvc	r7, r1, #1929379840	; 0x73000000
  1c:	00532e74 	subseq	r2, r3, r4, ror lr
  20:	6d6f682f 	stclvs	8, cr6, [pc, #-188]!	; ffffff6c <__bss_end+0x7fdfff47>
  24:	6f622f65 	svcvs	0x00622f65
  28:	612f6b6f 			; <UNDEFINED> instruction: 0x612f6b6f
  2c:	6c5f6d72 	mrrcvs	13, 7, r6, pc, cr2	; <UNPREDICTABLE>
  30:	78756e69 	ldmdavc	r5!, {r0, r3, r5, r6, r9, sl, fp, sp, lr}^
  34:	786d692f 	stmdavc	sp!, {r0, r1, r2, r3, r5, r8, fp, sp, lr}^
  38:	6c6c7536 	cfstr64vs	mvdx7, [ip], #-216	; 0xffffff28
  3c:	635f312f 	cmpvs	pc, #-1073741813	; 0xc000000b
  40:	7365646f 	cmnvc	r5, #1862270976	; 0x6f000000
  44:	3930302f 	ldmdbcc	r0!, {r0, r1, r2, r3, r5, ip, sp}
  48:	6c65725f 	sfmvs	f7, 2, [r5], #-380	; 0xfffffe84
  4c:	7461636f 	strbtvc	r6, [r1], #-879	; 0xfffffc91
  50:	30302f65 	eorscc	r2, r0, r5, ror #30
  54:	6c635f32 	stclvs	15, cr5, [r3], #-200	; 0xffffff38
  58:	5f6e6165 	svcpl	0x006e6165
  5c:	00737362 	rsbseq	r7, r3, r2, ror #6
  60:	20554e47 	subscs	r4, r5, r7, asr #28
  64:	32205341 	eorcc	r5, r0, #67108865	; 0x4000001
  68:	2e37322e 	cdpcs	2, 3, cr3, cr7, cr14, {1}
  6c:	80010030 	andhi	r0, r1, r0, lsr r0
  70:	00000217 	andeq	r0, r0, r7, lsl r2
  74:	00140004 	andseq	r0, r4, r4
  78:	01040000 	mrseq	r0, (UNDEF: 4)
  7c:	00000005 	andeq	r0, r0, r5
  80:	0000ee0c 	andeq	lr, r0, ip, lsl #28
  84:	00010e00 	andeq	r0, r1, r0, lsl #28
  88:	10003c00 	andne	r3, r0, r0, lsl #24
  8c:	00017680 	andeq	r7, r1, r0, lsl #13
  90:	00004700 	andeq	r4, r0, r0, lsl #14
  94:	02bc0200 	adcseq	r0, ip, #0, 4
  98:	0001120b 	andeq	r1, r1, fp, lsl #4
  9c:	00c70300 	sbceq	r0, r7, r0, lsl #6
  a0:	0c020000 	stceq	0, cr0, [r2], {-0}
  a4:	00000119 	andeq	r0, r0, r9, lsl r1
  a8:	00bc0300 	adcseq	r0, ip, r0, lsl #6
  ac:	0d020000 	stceq	0, cr0, [r2, #-0]
  b0:	0000011e 	andeq	r0, r0, lr, lsl r1
  b4:	00df0304 	sbcseq	r0, pc, r4, lsl #6
  b8:	0e020000 	cdpeq	0, 0, cr0, cr2, cr0, {0}
  bc:	00000119 	andeq	r0, r0, r9, lsl r1
  c0:	01910340 	orrseq	r0, r1, r0, asr #6
  c4:	0f020000 	svceq	0x00020000
  c8:	0000011e 	andeq	r0, r0, lr, lsl r1
  cc:	00f50344 	rscseq	r0, r5, r4, asr #6
  d0:	10020000 	andne	r0, r2, r0
  d4:	00000119 	andeq	r0, r0, r9, lsl r1
  d8:	00fa0380 	rscseq	r0, sl, r0, lsl #7
  dc:	11020000 	mrsne	r0, (UNDEF: 2)
  e0:	00000119 	andeq	r0, r0, r9, lsl r1
  e4:	00ff0384 	rscseq	r0, pc, r4, lsl #7
  e8:	12020000 	andne	r0, r2, #0
  ec:	00000119 	andeq	r0, r0, r9, lsl r1
  f0:	01040388 	smlabbeq	r4, r8, r3, r0
  f4:	13020000 	movwne	r0, #8192	; 0x2000
  f8:	00000119 	andeq	r0, r0, r9, lsl r1
  fc:	00cc038c 	sbceq	r0, ip, ip, lsl #7
 100:	14020000 	strne	r0, [r2], #-0
 104:	00000119 	andeq	r0, r0, r9, lsl r1
 108:	01b50390 			; <UNDEFINED> instruction: 0x01b50390
 10c:	15020000 	strne	r0, [r2, #-0]
 110:	00000119 	andeq	r0, r0, r9, lsl r1
 114:	00000394 	muleq	r0, r4, r3
 118:	16020000 	strne	r0, [r2], -r0
 11c:	00000119 	andeq	r0, r0, r9, lsl r1
 120:	007a0398 			; <UNDEFINED> instruction: 0x007a0398
 124:	17020000 	strne	r0, [r2, -r0]
 128:	00000119 	andeq	r0, r0, r9, lsl r1
 12c:	0086039c 	umulleq	r0, r6, ip, r3
 130:	18020000 	stmdane	r2, {}	; <UNPREDICTABLE>
 134:	00000119 	andeq	r0, r0, r9, lsl r1
 138:	010903a0 	smlatbeq	r9, r0, r3, r0
 13c:	19020000 	stmdbne	r2, {}	; <UNPREDICTABLE>
 140:	00000119 	andeq	r0, r0, r9, lsl r1
 144:	00e403a4 	rsceq	r0, r4, r4, lsr #7
 148:	1a020000 	bne	80150 <shift+0x80150>
 14c:	00000119 	andeq	r0, r0, r9, lsl r1
 150:	00b703a8 	adcseq	r0, r7, r8, lsr #7
 154:	1b020000 	blne	8015c <shift+0x8015c>
 158:	00000119 	andeq	r0, r0, r9, lsl r1
 15c:	019c03ac 	orrseq	r0, ip, ip, lsr #7
 160:	1c020000 	stcne	0, cr0, [r2], {-0}
 164:	00000119 	andeq	r0, r0, r9, lsl r1
 168:	545504b0 	ldrbpl	r0, [r5], #-1200	; 0xfffffb50
 16c:	1d020053 	stcne	0, cr0, [r2, #-332]	; 0xfffffeb4
 170:	00000119 	andeq	r0, r0, r9, lsl r1
 174:	00e903b4 	strhteq	r0, [r9], #52	; 0x34
 178:	1e020000 	cdpne	0, 0, cr0, cr2, cr0, {0}
 17c:	00000119 	andeq	r0, r0, r9, lsl r1
 180:	040500b8 	streq	r0, [r5], #-184	; 0xffffff48
 184:	00023007 	andeq	r3, r2, r7
 188:	01120600 	tsteq	r2, r0, lsl #12
 18c:	35070000 	strcc	r0, [r7, #-0]
 190:	2e000001 	cdpcs	0, 0, cr0, cr0, cr1, {0}
 194:	08000001 	stmdaeq	r0, {r0}
 198:	0000012e 	andeq	r0, r0, lr, lsr #2
 19c:	0405003b 	streq	r0, [r5], #-59	; 0xffffffc5
 1a0:	0001ac07 	andeq	sl, r1, r7, lsl #24
 1a4:	08010500 	stmdaeq	r1, {r8, sl}
 1a8:	000000d1 	ldrdeq	r0, [r0], -r1
 1ac:	0001a209 	andeq	sl, r1, r9, lsl #4
 1b0:	251f0200 	ldrcs	r0, [pc, #-512]	; ffffffb8 <__bss_end+0x7fdfff93>
 1b4:	0a000000 	beq	1bc <shift+0x1bc>
 1b8:	00000093 	muleq	r0, r3, r0
 1bc:	01580401 	cmpeq	r8, r1, lsl #8
 1c0:	03050000 	movweq	r0, #20480	; 0x5000
 1c4:	80200014 	eorhi	r0, r0, r4, lsl r0
 1c8:	0119040b 	tsteq	r9, fp, lsl #8
 1cc:	660a0000 	strvs	r0, [sl], -r0
 1d0:	01000001 	tsteq	r0, r1
 1d4:	00015805 	andeq	r5, r1, r5, lsl #16
 1d8:	18030500 	stmdane	r3, {r8, sl}
 1dc:	0c802000 	stceq	0, cr2, [r0], {0}
 1e0:	00000160 	andeq	r0, r0, r0, ror #2
 1e4:	01977701 	orrseq	r7, r7, r1, lsl #14
 1e8:	019c0000 	orrseq	r0, ip, r0
 1ec:	00168010 	andseq	r8, r6, r0, lsl r0
 1f0:	9c010000 	stcls	0, cr0, [r1], {-0}
 1f4:	00000197 	muleq	r0, r7, r1
 1f8:	00007f0d 	andeq	r7, r0, sp, lsl #30
 1fc:	97770100 	ldrbls	r0, [r7, -r0, lsl #2]!
 200:	02000001 	andeq	r0, r0, #1
 204:	0e007491 	mcreq	4, 0, r7, cr0, cr1, {4}
 208:	6e690504 	cdpvs	5, 6, cr0, cr9, cr4, {0}
 20c:	8a0f0074 	bhi	3c03e4 <shift+0x3c03e4>
 210:	01000001 	tsteq	r0, r1
 214:	1001726f 	andne	r7, r1, pc, ror #4
 218:	00002a80 	andeq	r2, r0, r0, lsl #21
 21c:	c09c0100 	addsgt	r0, ip, r0, lsl #2
 220:	10000001 	andne	r0, r0, r1
 224:	6f010073 	svcvs	0x00010073
 228:	000001c0 	andeq	r0, r0, r0, asr #3
 22c:	00749102 	rsbseq	r9, r4, r2, lsl #2
 230:	01cd040b 	biceq	r0, sp, fp, lsl #8
 234:	01050000 	mrseq	r0, (UNDEF: 5)
 238:	0000da08 	andeq	sp, r0, r8, lsl #20
 23c:	01c61100 	biceq	r1, r6, r0, lsl #2
 240:	8b120000 	blhi	480248 <shift+0x480248>
 244:	01000000 	mrseq	r0, (UNDEF: 0)
 248:	0001355f 	andeq	r3, r1, pc, asr r5
 24c:	10014600 	andne	r4, r1, r0, lsl #12
 250:	00002c80 	andeq	r2, r0, r0, lsl #25
 254:	139c0100 	orrsne	r0, ip, #0, 2
 258:	0000014e 	andeq	r0, r0, lr, asr #2
 25c:	01124f01 	tsteq	r2, r1, lsl #30
 260:	00348010 	eorseq	r8, r4, r0, lsl r0
 264:	9c010000 	stcls	0, cr0, [r1], {-0}
 268:	00000209 	andeq	r0, r0, r9, lsl #4
 26c:	01006310 	tsteq	r0, r0, lsl r3
 270:	0001974f 	andeq	r9, r1, pc, asr #14
 274:	74910200 	ldrvc	r0, [r1], #512	; 0x200
 278:	01561400 	cmpeq	r6, r0, lsl #8
 27c:	11010000 	mrsne	r0, (UNDEF: 1)
 280:	8010003c 	andshi	r0, r0, ip, lsr r0
 284:	000000d6 	ldrdeq	r0, [r0], -r6
 288:	d9009c01 	stmdble	r0, {r0, sl, fp, ip, pc}
 28c:	04000000 	streq	r0, [r0], #-0
 290:	00014e00 	andeq	r4, r1, r0, lsl #28
 294:	05010400 	streq	r0, [r1, #-1024]	; 0xfffffc00
 298:	0c000000 	stceq	0, cr0, [r0], {-0}
 29c:	000001ba 			; <UNDEFINED> instruction: 0x000001ba
 2a0:	0000010e 	andeq	r0, r0, lr, lsl #2
 2a4:	801001b2 			; <UNDEFINED> instruction: 0x801001b2
 2a8:	0000005e 	andeq	r0, r0, lr, asr r0
 2ac:	000000bc 	strheq	r0, [r0], -ip
 2b0:	30070402 	andcc	r0, r7, r2, lsl #8
 2b4:	02000002 	andeq	r0, r0, #2
 2b8:	01ac0704 			; <UNDEFINED> instruction: 0x01ac0704
 2bc:	01020000 	mrseq	r0, (UNDEF: 2)
 2c0:	0000d108 	andeq	sp, r0, r8, lsl #2
 2c4:	01c60300 	biceq	r0, r6, r0, lsl #6
 2c8:	05010000 	streq	r0, [r1, #-0]
 2cc:	0000004b 	andeq	r0, r0, fp, asr #32
 2d0:	00000305 	andeq	r0, r0, r5, lsl #6
 2d4:	01028020 	tsteq	r2, r0, lsr #32
 2d8:	0000da08 	andeq	sp, r0, r8, lsl #20
 2dc:	004b0400 	subeq	r0, fp, r0, lsl #8
 2e0:	ce030000 	cdpgt	0, 0, cr0, cr3, cr0, {0}
 2e4:	01000001 	tsteq	r0, r1
 2e8:	00005206 	andeq	r5, r0, r6, lsl #4
 2ec:	64030500 	strvs	r0, [r3], #-1280	; 0xfffffb00
 2f0:	03801008 	orreq	r1, r0, #8
 2f4:	000001d6 	ldrdeq	r0, [r0], -r6
 2f8:	00520701 	subseq	r0, r2, r1, lsl #14
 2fc:	03050000 	movweq	r0, #20480	; 0x5000
 300:	80200024 	eorhi	r0, r0, r4, lsr #32
 304:	0001e903 	andeq	lr, r1, r3, lsl #18
 308:	8a080100 	bhi	200710 <shift+0x200710>
 30c:	05000000 	streq	r0, [r0, #-0]
 310:	20001c03 	andcs	r1, r0, r3, lsl #24
 314:	05040580 	streq	r0, [r4, #-1408]	; 0xfffffa80
 318:	00746e69 	rsbseq	r6, r4, r9, ror #28
 31c:	00008a06 	andeq	r8, r0, r6, lsl #20
 320:	01f00300 	mvnseq	r0, r0, lsl #6
 324:	09010000 	stmdbeq	r1, {}	; <UNPREDICTABLE>
 328:	0000008a 	andeq	r0, r0, sl, lsl #1
 32c:	00200305 	eoreq	r0, r0, r5, lsl #6
 330:	c1078020 	tstgt	r7, r0, lsr #32
 334:	01000001 	tsteq	r0, r1
 338:	00008a25 	andeq	r8, r0, r5, lsr #20
 33c:	1001d200 	andne	sp, r1, r0, lsl #4
 340:	00003e80 	andeq	r3, r0, r0, lsl #29
 344:	089c0100 	ldmeq	ip, {r8}
 348:	000001e3 	andeq	r0, r0, r3, ror #3
 34c:	01b21501 			; <UNDEFINED> instruction: 0x01b21501
 350:	00208010 	eoreq	r8, r0, r0, lsl r0
 354:	9c010000 	stcls	0, cr0, [r1], {-0}
 358:	0001de09 	andeq	sp, r1, r9, lsl #28
 35c:	91150100 	tstls	r5, r0, lsl #2
 360:	02000000 	andeq	r0, r0, #0
 364:	00007491 	muleq	r0, r1, r4
 368:	00000219 	andeq	r0, r0, r9, lsl r2
 36c:	01d80004 	bicseq	r0, r8, r4
 370:	01040000 	mrseq	r0, (UNDEF: 4)
 374:	00000005 	andeq	r0, r0, r5
 378:	0002420c 	andeq	r4, r2, ip, lsl #4
 37c:	00010e00 	andeq	r0, r1, r0, lsl #28
 380:	10021000 	andne	r1, r2, r0
 384:	0003ca80 	andeq	ip, r3, r0, lsl #21
 388:	00010300 	andeq	r0, r1, r0, lsl #6
 38c:	07040200 	streq	r0, [r4, -r0, lsl #4]
 390:	00000230 	andeq	r0, r0, r0, lsr r2
 394:	ac070402 	cfstrsge	mvf0, [r7], {2}
 398:	02000001 	andeq	r0, r0, #1
 39c:	00d10801 	sbcseq	r0, r1, r1, lsl #16
 3a0:	05030000 	streq	r0, [r3, #-0]
 3a4:	01000002 	tsteq	r0, r2
 3a8:	00004506 	andeq	r4, r0, r6, lsl #10
 3ac:	4b040400 	blmi	1013b4 <shift+0x1013b4>
 3b0:	02000000 	andeq	r0, r0, #0
 3b4:	00da0801 	sbcseq	r0, sl, r1, lsl #16
 3b8:	4b050000 	blmi	1403c0 <shift+0x1403c0>
 3bc:	06000000 	streq	r0, [r0], -r0
 3c0:	00000033 	andeq	r0, r0, r3, lsr r0
 3c4:	00000067 	andeq	r0, r0, r7, rrx
 3c8:	00002c07 	andeq	r2, r0, r7, lsl #24
 3cc:	08000f00 	stmdaeq	r0, {r8, r9, sl, fp}
 3d0:	0000025c 	andeq	r0, r0, ip, asr r2
 3d4:	00571101 	subseq	r1, r7, r1, lsl #2
 3d8:	03050000 	movweq	r0, #20480	; 0x5000
 3dc:	80200004 	eorhi	r0, r0, r4
 3e0:	00026409 	andeq	r6, r2, r9, lsl #8
 3e4:	8d920100 	ldfhis	f0, [r2]
 3e8:	e4000000 	str	r0, [r0], #-0
 3ec:	f6801004 			; <UNDEFINED> instruction: 0xf6801004
 3f0:	01000000 	mrseq	r0, (UNDEF: 0)
 3f4:	05040a9c 	streq	r0, [r4, #-2716]	; 0xfffff564
 3f8:	00746e69 	rsbseq	r6, r4, r9, ror #28
 3fc:	00021b0b 	andeq	r1, r2, fp, lsl #22
 400:	8d7d0100 	ldfhie	f0, [sp, #-0]
 404:	b8000000 	stmdalt	r0, {}	; <UNPREDICTABLE>
 408:	2c801004 	stccs	0, cr1, [r0], {4}
 40c:	01000000 	mrseq	r0, (UNDEF: 0)
 410:	0000ca9c 	muleq	r0, ip, sl
 414:	6d660c00 	stclvs	12, cr0, [r6, #-0]
 418:	7d010074 	stcvc	0, cr0, [r1, #-464]	; 0xfffffe30
 41c:	000000ca 	andeq	r0, r0, sl, asr #1
 420:	0d709102 	ldfeqp	f1, [r0, #-8]!
 424:	0070610e 	rsbseq	r6, r0, lr, lsl #2
 428:	003a7f01 	eorseq	r7, sl, r1, lsl #30
 42c:	91020000 	mrsls	r0, (UNDEF: 2)
 430:	04040064 	streq	r0, [r4], #-100	; 0xffffff9c
 434:	00000052 	andeq	r0, r0, r2, asr r0
 438:	0002170f 	andeq	r1, r2, pc, lsl #14
 43c:	8d440100 	stfhie	f0, [r4, #-0]
 440:	24000000 	strcs	r0, [r0], #-0
 444:	94801003 	strls	r1, [r0], #3
 448:	01000001 	tsteq	r0, r1
 44c:	0001219c 	muleq	r1, ip, r1
 450:	6d660c00 	stclvs	12, cr0, [r6, #-0]
 454:	44010074 	strmi	r0, [r1], #-116	; 0xffffff8c
 458:	000000ca 	andeq	r0, r0, sl, asr #1
 45c:	0c6c9102 	stfeqp	f1, [ip], #-8
 460:	01007061 	tsteq	r0, r1, rrx
 464:	00003a44 	andeq	r3, r0, r4, asr #20
 468:	68910200 	ldmvs	r1, {r9}
 46c:	00021210 	andeq	r1, r2, r0, lsl r2
 470:	4b460100 	blmi	1180878 <shift+0x1180878>
 474:	02000000 	andeq	r0, r0, #0
 478:	22107791 	andscs	r7, r0, #38010880	; 0x2440000
 47c:	01000002 	tsteq	r0, r2
 480:	00008d47 	andeq	r8, r0, r7, asr #26
 484:	70910200 	addsvc	r0, r1, r0, lsl #4
 488:	01f70f00 	mvnseq	r0, r0, lsl #30
 48c:	22010000 	andcs	r0, r1, #0
 490:	0000008d 	andeq	r0, r0, sp, lsl #1
 494:	80100252 	andshi	r0, r0, r2, asr r2
 498:	000000d2 	ldrdeq	r0, [r0], -r2
 49c:	01b69c01 			; <UNDEFINED> instruction: 0x01b69c01
 4a0:	6e0c0000 	cdpvs	0, 0, cr0, cr12, cr0, {0}
 4a4:	b6220100 	strtlt	r0, [r2], -r0, lsl #2
 4a8:	03000001 	movweq	r0, #1
 4ac:	117fa491 			; <UNDEFINED> instruction: 0x117fa491
 4b0:	0000020d 	andeq	r0, r0, sp, lsl #4
 4b4:	008d2201 	addeq	r2, sp, r1, lsl #4
 4b8:	91030000 	mrsls	r0, (UNDEF: 3)
 4bc:	12117fa0 	andsne	r7, r1, #160, 30	; 0x280
 4c0:	01000002 	tsteq	r0, r2
 4c4:	00004b22 	andeq	r4, r0, r2, lsr #22
 4c8:	9f910300 	svcls	0x00910300
 4cc:	0222117f 	eoreq	r1, r2, #-1073741793	; 0xc000001f
 4d0:	22010000 	andcs	r0, r1, #0
 4d4:	0000008d 	andeq	r0, r0, sp, lsl #1
 4d8:	7f989103 	svcvc	0x00989103
 4dc:	01006d0e 	tsteq	r0, lr, lsl #26
 4e0:	0001bd24 	andeq	fp, r1, r4, lsr #26
 4e4:	74910200 	ldrvc	r0, [r1], #512	; 0x200
 4e8:	6675620e 	ldrbtvs	r6, [r5], -lr, lsl #4
 4ec:	c4250100 	strtgt	r0, [r5], #-256	; 0xffffff00
 4f0:	03000001 	movweq	r0, #1
 4f4:	0e7fa891 	mrceq	8, 3, sl, cr15, cr1, {4}
 4f8:	25010073 	strcs	r0, [r1, #-115]	; 0xffffff8d
 4fc:	00000045 	andeq	r0, r0, r5, asr #32
 500:	10709102 	rsbsne	r9, r0, r2, lsl #2
 504:	000001ff 	strdeq	r0, [r0], -pc	; <UNPREDICTABLE>
 508:	008d2601 	addeq	r2, sp, r1, lsl #12
 50c:	91020000 	mrsls	r0, (UNDEF: 2)
 510:	00690e6c 	rsbeq	r0, r9, ip, ror #28
 514:	008d2601 	addeq	r2, sp, r1, lsl #12
 518:	91020000 	mrsls	r0, (UNDEF: 2)
 51c:	04020068 	streq	r0, [r2], #-104	; 0xffffff98
 520:	00025305 	andeq	r5, r2, r5, lsl #6
 524:	07040200 	streq	r0, [r4, -r0, lsl #4]
 528:	0000022b 	andeq	r0, r0, fp, lsr #4
 52c:	00004b06 	andeq	r4, r0, r6, lsl #22
 530:	0001d400 	andeq	sp, r1, r0, lsl #8
 534:	002c0700 	eoreq	r0, ip, r0, lsl #14
 538:	003f0000 	eorseq	r0, pc, r0
 53c:	00024e0f 	andeq	r4, r2, pc, lsl #28
 540:	8d1b0100 	ldfhis	f0, [fp, #-0]
 544:	28000000 	stmdacs	r0, {}	; <UNPREDICTABLE>
 548:	2a801002 	bcs	fe004558 <__bss_end+0x7de04533>
 54c:	01000000 	mrseq	r0, (UNDEF: 0)
 550:	0001fa9c 	muleq	r1, ip, sl
 554:	00730c00 	rsbseq	r0, r3, r0, lsl #24
 558:	00ca1b01 	sbceq	r1, sl, r1, lsl #22
 55c:	91020000 	mrsls	r0, (UNDEF: 2)
 560:	3d120074 	ldccc	0, cr0, [r2, #-464]	; 0xfffffe30
 564:	01000002 	tsteq	r0, r2
 568:	00008d15 	andeq	r8, r0, r5, lsl sp
 56c:	10021000 	andne	r1, r2, r0
 570:	00001880 	andeq	r1, r0, r0, lsl #17
 574:	0c9c0100 	ldfeqs	f0, [ip], {0}
 578:	15010063 	strne	r0, [r1, #-99]	; 0xffffff9d
 57c:	0000008d 	andeq	r0, r0, sp, lsl #1
 580:	00749102 	rsbseq	r9, r4, r2, lsl #2
 584:	0001bb00 	andeq	fp, r1, r0, lsl #22
 588:	eb000200 	bl	d90 <shift+0xd90>
 58c:	04000002 	streq	r0, [r0], #-2
 590:	0001ca01 	andeq	ip, r1, r1, lsl #20
 594:	1005e000 	andne	lr, r5, r0
 598:	10085680 	andne	r5, r8, r0, lsl #13
 59c:	6f682f80 	svcvs	0x00682f80
 5a0:	742f656d 	strtvc	r6, [pc], #-1389	; 5a8 <shift+0x5a8>
 5a4:	2d677763 	stclcs	7, cr7, [r7, #-396]!	; 0xfffffe74
 5a8:	6c697562 	cfstr64vs	mvdx7, [r9], #-392	; 0xfffffe78
 5ac:	616c7364 	cmnvs	ip, r4, ror #6
 5b0:	772f6576 			; <UNDEFINED> instruction: 0x772f6576
 5b4:	736b726f 	cmnvc	fp, #-268435450	; 0xf0000006
 5b8:	65636170 	strbvs	r6, [r3, #-368]!	; 0xfffffe90
 5bc:	7763742f 	strbvc	r7, [r3, -pc, lsr #8]!
 5c0:	616d2d67 	cmnvs	sp, r7, ror #26
 5c4:	722d656b 	eorvc	r6, sp, #448790528	; 0x1ac00000
 5c8:	61656c65 	cmnvs	r5, r5, ror #24
 5cc:	6c2f6573 	cfstr32vs	mvfx6, [pc], #-460	; 408 <shift+0x408>
 5d0:	6c656261 	sfmvs	f6, 2, [r5], #-388	; 0xfffffe7c
 5d4:	636f642f 	cmnvs	pc, #788529152	; 0x2f000000
 5d8:	2d72656b 	cfldr64cs	mvdx6, [r2, #-428]!	; 0xfffffe54
 5dc:	73757274 	cmnvc	r5, #116, 4	; 0x40000007
 5e0:	612d7974 			; <UNDEFINED> instruction: 0x612d7974
 5e4:	3436646d 	ldrtcc	r6, [r6], #-1133	; 0xfffffb93
 5e8:	7763742d 	strbvc	r7, [r3, -sp, lsr #8]!
 5ec:	75622d67 	strbvc	r2, [r2, #-3431]!	; 0xfffff299
 5f0:	2f646c69 	svccs	0x00646c69
 5f4:	67726174 			; <UNDEFINED> instruction: 0x67726174
 5f8:	612f7465 			; <UNDEFINED> instruction: 0x612f7465
 5fc:	6c2d6d72 	stcvs	13, cr6, [sp], #-456	; 0xfffffe38
 600:	78756e69 	ldmdavc	r5!, {r0, r3, r5, r6, r9, sl, fp, sp, lr}^
 604:	756e672d 	strbvc	r6, [lr, #-1837]!	; 0xfffff8d3
 608:	69626165 	stmdbvs	r2!, {r0, r2, r5, r6, r8, sp, lr}^
 60c:	732f6668 			; <UNDEFINED> instruction: 0x732f6668
 610:	7370616e 	cmnvc	r0, #-2147483621	; 0x8000001b
 614:	73746f68 	cmnvc	r4, #104, 30	; 0x1a0
 618:	6363672f 	cmnvs	r3, #12320768	; 0xbc0000
 61c:	6e696c2d 	cdpvs	12, 6, cr6, cr9, cr13, {1}
 620:	2d6f7261 	sfmcs	f7, 2, [pc, #-388]!	; 4a4 <shift+0x4a4>
 624:	2d322e36 	ldccs	14, cr2, [r2, #-216]!	; 0xffffff28
 628:	36313032 			; <UNDEFINED> instruction: 0x36313032
 62c:	2f31312e 	svccs	0x0031312e
 630:	6762696c 	strbvs	r6, [r2, -ip, ror #18]!
 634:	632f6363 			; <UNDEFINED> instruction: 0x632f6363
 638:	69666e6f 	stmdbvs	r6!, {r0, r1, r2, r3, r5, r6, r9, sl, fp, sp, lr}^
 63c:	72612f67 	rsbvc	r2, r1, #412	; 0x19c
 640:	696c2f6d 	stmdbvs	ip!, {r0, r2, r3, r5, r6, r8, r9, sl, fp, sp}^
 644:	75663162 	strbvc	r3, [r6, #-354]!	; 0xfffffe9e
 648:	2e73636e 	cdpcs	3, 7, cr6, cr3, cr14, {3}
 64c:	682f0053 	stmdavs	pc!, {r0, r1, r4, r6}	; <UNPREDICTABLE>
 650:	2f656d6f 	svccs	0x00656d6f
 654:	67776374 			; <UNDEFINED> instruction: 0x67776374
 658:	6975622d 	ldmdbvs	r5!, {r0, r2, r3, r5, r9, sp, lr}^
 65c:	6c73646c 	cfldrdvs	mvd6, [r3], #-432	; 0xfffffe50
 660:	2f657661 	svccs	0x00657661
 664:	6b726f77 	blvs	1c9c448 <shift+0x1c9c448>
 668:	63617073 	cmnvs	r1, #115	; 0x73
 66c:	63742f65 	cmnvs	r4, #404	; 0x194
 670:	6d2d6777 	stcvs	7, cr6, [sp, #-476]!	; 0xfffffe24
 674:	2d656b61 	fstmdbxcs	r5!, {d22-d69}	;@ Deprecated
 678:	656c6572 	strbvs	r6, [ip, #-1394]!	; 0xfffffa8e
 67c:	2f657361 	svccs	0x00657361
 680:	6562616c 	strbvs	r6, [r2, #-364]!	; 0xfffffe94
 684:	6f642f6c 	svcvs	0x00642f6c
 688:	72656b63 	rsbvc	r6, r5, #101376	; 0x18c00
 68c:	7572742d 	ldrbvc	r7, [r2, #-1069]!	; 0xfffffbd3
 690:	2d797473 	cfldrdcs	mvd7, [r9, #-460]!	; 0xfffffe34
 694:	36646d61 	strbtcc	r6, [r4], -r1, ror #26
 698:	63742d34 	cmnvs	r4, #52, 26	; 0xd00
 69c:	622d6777 	eorvs	r6, sp, #31195136	; 0x1dc0000
 6a0:	646c6975 	strbtvs	r6, [ip], #-2421	; 0xfffff68b
 6a4:	7261742f 	rsbvc	r7, r1, #788529152	; 0x2f000000
 6a8:	2f746567 	svccs	0x00746567
 6ac:	2d6d7261 	sfmcs	f7, 2, [sp, #-388]!	; 0xfffffe7c
 6b0:	756e696c 	strbvc	r6, [lr, #-2412]!	; 0xfffff694
 6b4:	6e672d78 	mcrvs	13, 3, r2, cr7, cr8, {3}
 6b8:	62616575 	rsbvs	r6, r1, #490733568	; 0x1d400000
 6bc:	2f666869 	svccs	0x00666869
 6c0:	6975625f 	ldmdbvs	r5!, {r0, r1, r2, r3, r4, r6, r9, sp, lr}^
 6c4:	622f646c 	eorvs	r6, pc, #108, 8	; 0x6c000000
 6c8:	646c6975 	strbtvs	r6, [ip], #-2421	; 0xfffff68b
 6cc:	38782f73 	ldmdacc	r8!, {r0, r1, r4, r5, r6, r8, r9, sl, fp, sp}^
 6d0:	34365f36 	ldrtcc	r5, [r6], #-3894	; 0xfffff0ca
 6d4:	6b6e752d 	blvs	1b9db90 <shift+0x1b9db90>
 6d8:	6e776f6e 	cdpvs	15, 7, cr6, cr7, cr14, {3}
 6dc:	6e696c2d 	cdpvs	12, 6, cr6, cr9, cr13, {1}
 6e0:	672d7875 			; <UNDEFINED> instruction: 0x672d7875
 6e4:	612f756e 			; <UNDEFINED> instruction: 0x612f756e
 6e8:	6c2d6d72 	stcvs	13, cr6, [sp], #-456	; 0xfffffe38
 6ec:	78756e69 	ldmdavc	r5!, {r0, r3, r5, r6, r9, sl, fp, sp, lr}^
 6f0:	756e672d 	strbvc	r6, [lr, #-1837]!	; 0xfffff8d3
 6f4:	69626165 	stmdbvs	r2!, {r0, r2, r5, r6, r8, sp, lr}^
 6f8:	672f6668 	strvs	r6, [pc, -r8, ror #12]!
 6fc:	6c2d6363 	stcvs	3, cr6, [sp], #-396	; 0xfffffe74
 700:	72616e69 	rsbvc	r6, r1, #1680	; 0x690
 704:	2e362d6f 	cdpcs	13, 3, cr2, cr6, cr15, {3}
 708:	30322d32 	eorscc	r2, r2, r2, lsr sp
 70c:	312e3631 			; <UNDEFINED> instruction: 0x312e3631
 710:	74732d31 	ldrbtvc	r2, [r3], #-3377	; 0xfffff2cf
 714:	32656761 	rsbcc	r6, r5, #25427968	; 0x1840000
 718:	6d72612f 	ldfvse	f6, [r2, #-188]!	; 0xffffff44
 71c:	6e696c2d 	cdpvs	12, 6, cr6, cr9, cr13, {1}
 720:	672d7875 			; <UNDEFINED> instruction: 0x672d7875
 724:	6165756e 	cmnvs	r5, lr, ror #10
 728:	66686962 	strbtvs	r6, [r8], -r2, ror #18
 72c:	62696c2f 	rsbvs	r6, r9, #12032	; 0x2f00
 730:	00636367 	rsbeq	r6, r3, r7, ror #6
 734:	20554e47 	subscs	r4, r5, r7, asr #28
 738:	32205341 	eorcc	r5, r0, #67108865	; 0x4000001
 73c:	2e37322e 	cdpcs	2, 3, cr3, cr7, cr14, {1}
 740:	80010030 	andhi	r0, r1, r0, lsr r0
 744:	000001bb 			; <UNDEFINED> instruction: 0x000001bb
 748:	02ff0002 	rscseq	r0, pc, #2
 74c:	01040000 	mrseq	r0, (UNDEF: 4)
 750:	000002ca 	andeq	r0, r0, sl, asr #5
 754:	80100858 	andshi	r0, r0, r8, asr r8
 758:	80100864 	andshi	r0, r0, r4, ror #16
 75c:	6d6f682f 	stclvs	8, cr6, [pc, #-188]!	; 6a8 <shift+0x6a8>
 760:	63742f65 	cmnvs	r4, #404	; 0x194
 764:	622d6777 	eorvs	r6, sp, #31195136	; 0x1dc0000
 768:	646c6975 	strbtvs	r6, [ip], #-2421	; 0xfffff68b
 76c:	76616c73 			; <UNDEFINED> instruction: 0x76616c73
 770:	6f772f65 	svcvs	0x00772f65
 774:	70736b72 	rsbsvc	r6, r3, r2, ror fp
 778:	2f656361 	svccs	0x00656361
 77c:	67776374 			; <UNDEFINED> instruction: 0x67776374
 780:	6b616d2d 	blvs	185bc3c <shift+0x185bc3c>
 784:	65722d65 	ldrbvs	r2, [r2, #-3429]!	; 0xfffff29b
 788:	7361656c 	cmnvc	r1, #108, 10	; 0x1b000000
 78c:	616c2f65 	cmnvs	ip, r5, ror #30
 790:	2f6c6562 	svccs	0x006c6562
 794:	6b636f64 	blvs	18dc52c <shift+0x18dc52c>
 798:	742d7265 	strtvc	r7, [sp], #-613	; 0xfffffd9b
 79c:	74737572 	ldrbtvc	r7, [r3], #-1394	; 0xfffffa8e
 7a0:	6d612d79 	stclvs	13, cr2, [r1, #-484]!	; 0xfffffe1c
 7a4:	2d343664 	ldccs	6, cr3, [r4, #-400]!	; 0xfffffe70
 7a8:	67776374 			; <UNDEFINED> instruction: 0x67776374
 7ac:	6975622d 	ldmdbvs	r5!, {r0, r2, r3, r5, r9, sp, lr}^
 7b0:	742f646c 	strtvc	r6, [pc], #-1132	; 7b8 <shift+0x7b8>
 7b4:	65677261 	strbvs	r7, [r7, #-609]!	; 0xfffffd9f
 7b8:	72612f74 	rsbvc	r2, r1, #116, 30	; 0x1d0
 7bc:	696c2d6d 	stmdbvs	ip!, {r0, r2, r3, r5, r6, r8, sl, fp, sp}^
 7c0:	2d78756e 	cfldr64cs	mvdx7, [r8, #-440]!	; 0xfffffe48
 7c4:	65756e67 	ldrbvs	r6, [r5, #-3687]!	; 0xfffff199
 7c8:	68696261 	stmdavs	r9!, {r0, r5, r6, r9, sp, lr}^
 7cc:	6e732f66 	cdpvs	15, 7, cr2, cr3, cr6, {3}
 7d0:	68737061 	ldmdavs	r3!, {r0, r5, r6, ip, sp, lr}^
 7d4:	2f73746f 	svccs	0x0073746f
 7d8:	2d636367 	stclcs	3, cr6, [r3, #-412]!	; 0xfffffe64
 7dc:	616e696c 	cmnvs	lr, ip, ror #18
 7e0:	362d6f72 	qsub16cc	r6, sp, r2
 7e4:	322d322e 	eorcc	r3, sp, #-536870910	; 0xe0000002
 7e8:	2e363130 	mrccs	1, 1, r3, cr6, cr0, {1}
 7ec:	6c2f3131 	stfvss	f3, [pc], #-196	; 730 <shift+0x730>
 7f0:	63676269 	cmnvs	r7, #-1879048186	; 0x90000006
 7f4:	6f632f63 	svcvs	0x00632f63
 7f8:	6769666e 	strbvs	r6, [r9, -lr, ror #12]!
 7fc:	6d72612f 	ldfvse	f6, [r2, #-188]!	; 0xffffff44
 800:	62696c2f 	rsbvs	r6, r9, #12032	; 0x2f00
 804:	6e756631 	mrcvs	6, 3, r6, cr5, cr1, {1}
 808:	532e7363 			; <UNDEFINED> instruction: 0x532e7363
 80c:	6f682f00 	svcvs	0x00682f00
 810:	742f656d 	strtvc	r6, [pc], #-1389	; 818 <shift+0x818>
 814:	2d677763 	stclcs	7, cr7, [r7, #-396]!	; 0xfffffe74
 818:	6c697562 	cfstr64vs	mvdx7, [r9], #-392	; 0xfffffe78
 81c:	616c7364 	cmnvs	ip, r4, ror #6
 820:	772f6576 			; <UNDEFINED> instruction: 0x772f6576
 824:	736b726f 	cmnvc	fp, #-268435450	; 0xf0000006
 828:	65636170 	strbvs	r6, [r3, #-368]!	; 0xfffffe90
 82c:	7763742f 	strbvc	r7, [r3, -pc, lsr #8]!
 830:	616d2d67 	cmnvs	sp, r7, ror #26
 834:	722d656b 	eorvc	r6, sp, #448790528	; 0x1ac00000
 838:	61656c65 	cmnvs	r5, r5, ror #24
 83c:	6c2f6573 	cfstr32vs	mvfx6, [pc], #-460	; 678 <shift+0x678>
 840:	6c656261 	sfmvs	f6, 2, [r5], #-388	; 0xfffffe7c
 844:	636f642f 	cmnvs	pc, #788529152	; 0x2f000000
 848:	2d72656b 	cfldr64cs	mvdx6, [r2, #-428]!	; 0xfffffe54
 84c:	73757274 	cmnvc	r5, #116, 4	; 0x40000007
 850:	612d7974 			; <UNDEFINED> instruction: 0x612d7974
 854:	3436646d 	ldrtcc	r6, [r6], #-1133	; 0xfffffb93
 858:	7763742d 	strbvc	r7, [r3, -sp, lsr #8]!
 85c:	75622d67 	strbvc	r2, [r2, #-3431]!	; 0xfffff299
 860:	2f646c69 	svccs	0x00646c69
 864:	67726174 			; <UNDEFINED> instruction: 0x67726174
 868:	612f7465 			; <UNDEFINED> instruction: 0x612f7465
 86c:	6c2d6d72 	stcvs	13, cr6, [sp], #-456	; 0xfffffe38
 870:	78756e69 	ldmdavc	r5!, {r0, r3, r5, r6, r9, sl, fp, sp, lr}^
 874:	756e672d 	strbvc	r6, [lr, #-1837]!	; 0xfffff8d3
 878:	69626165 	stmdbvs	r2!, {r0, r2, r5, r6, r8, sp, lr}^
 87c:	5f2f6668 	svcpl	0x002f6668
 880:	6c697562 	cfstr64vs	mvdx7, [r9], #-392	; 0xfffffe78
 884:	75622f64 	strbvc	r2, [r2, #-3940]!	; 0xfffff09c
 888:	73646c69 	cmnvc	r4, #26880	; 0x6900
 88c:	3638782f 	ldrtcc	r7, [r8], -pc, lsr #16
 890:	2d34365f 	ldccs	6, cr3, [r4, #-380]!	; 0xfffffe84
 894:	6e6b6e75 	mcrvs	14, 3, r6, cr11, cr5, {3}
 898:	2d6e776f 	stclcs	7, cr7, [lr, #-444]!	; 0xfffffe44
 89c:	756e696c 	strbvc	r6, [lr, #-2412]!	; 0xfffff694
 8a0:	6e672d78 	mcrvs	13, 3, r2, cr7, cr8, {3}
 8a4:	72612f75 	rsbvc	r2, r1, #468	; 0x1d4
 8a8:	696c2d6d 	stmdbvs	ip!, {r0, r2, r3, r5, r6, r8, sl, fp, sp}^
 8ac:	2d78756e 	cfldr64cs	mvdx7, [r8, #-440]!	; 0xfffffe48
 8b0:	65756e67 	ldrbvs	r6, [r5, #-3687]!	; 0xfffff199
 8b4:	68696261 	stmdavs	r9!, {r0, r5, r6, r9, sp, lr}^
 8b8:	63672f66 	cmnvs	r7, #408	; 0x198
 8bc:	696c2d63 	stmdbvs	ip!, {r0, r1, r5, r6, r8, sl, fp, sp}^
 8c0:	6f72616e 	svcvs	0x0072616e
 8c4:	322e362d 	eorcc	r3, lr, #47185920	; 0x2d00000
 8c8:	3130322d 	teqcc	r0, sp, lsr #4
 8cc:	31312e36 	teqcc	r1, r6, lsr lr
 8d0:	6174732d 	cmnvs	r4, sp, lsr #6
 8d4:	2f326567 	svccs	0x00326567
 8d8:	2d6d7261 	sfmcs	f7, 2, [sp, #-388]!	; 0xfffffe7c
 8dc:	756e696c 	strbvc	r6, [lr, #-2412]!	; 0xfffff694
 8e0:	6e672d78 	mcrvs	13, 3, r2, cr7, cr8, {3}
 8e4:	62616575 	rsbvs	r6, r1, #490733568	; 0x1d400000
 8e8:	2f666869 	svccs	0x00666869
 8ec:	6762696c 	strbvs	r6, [r2, -ip, ror #18]!
 8f0:	47006363 	strmi	r6, [r0, -r3, ror #6]
 8f4:	4120554e 			; <UNDEFINED> instruction: 0x4120554e
 8f8:	2e322053 	mrccs	0, 1, r2, cr2, cr3, {2}
 8fc:	302e3732 	eorcc	r3, lr, r2, lsr r7
 900:	Address 0x0000000000000900 is out of bounds.


Disassembly of section .debug_abbrev:

00000000 <.debug_abbrev>:
   0:	10001101 	andne	r1, r0, r1, lsl #2
   4:	12011106 	andne	r1, r1, #-2147483647	; 0x80000001
   8:	1b080301 	blne	200c14 <shift+0x200c14>
   c:	13082508 	movwne	r2, #34056	; 0x8508
  10:	00000005 	andeq	r0, r0, r5
  14:	25011101 	strcs	r1, [r1, #-257]	; 0xfffffeff
  18:	030b130e 	movweq	r1, #45838	; 0xb30e
  1c:	110e1b0e 	tstne	lr, lr, lsl #22
  20:	10061201 	andne	r1, r6, r1, lsl #4
  24:	02000017 	andeq	r0, r0, #23
  28:	0b0b0113 	bleq	2c047c <shift+0x2c047c>
  2c:	0b3b0b3a 	bleq	ec2d1c <shift+0xec2d1c>
  30:	00001301 	andeq	r1, r0, r1, lsl #6
  34:	03000d03 	movweq	r0, #3331	; 0xd03
  38:	3b0b3a0e 	blcc	2ce878 <shift+0x2ce878>
  3c:	3813490b 	ldmdacc	r3, {r0, r1, r3, r8, fp, lr}
  40:	0400000b 	streq	r0, [r0], #-11
  44:	0803000d 	stmdaeq	r3, {r0, r2, r3}
  48:	0b3b0b3a 	bleq	ec2d38 <shift+0xec2d38>
  4c:	0b381349 	bleq	e04d78 <shift+0xe04d78>
  50:	24050000 	strcs	r0, [r5], #-0
  54:	3e0b0b00 	vmlacc.f64	d0, d11, d0
  58:	000e030b 	andeq	r0, lr, fp, lsl #6
  5c:	00350600 	eorseq	r0, r5, r0, lsl #12
  60:	00001349 	andeq	r1, r0, r9, asr #6
  64:	49010107 	stmdbmi	r1, {r0, r1, r2, r8}
  68:	00130113 	andseq	r0, r3, r3, lsl r1
  6c:	00210800 	eoreq	r0, r1, r0, lsl #16
  70:	0b2f1349 	bleq	bc4d9c <shift+0xbc4d9c>
  74:	16090000 	strne	r0, [r9], -r0
  78:	3a0e0300 	bcc	380c80 <shift+0x380c80>
  7c:	490b3b0b 	stmdbmi	fp, {r0, r1, r3, r8, r9, fp, ip, sp}
  80:	0a000013 	beq	d4 <shift+0xd4>
  84:	0e030034 	mcreq	0, 0, r0, cr3, cr4, {1}
  88:	0b3b0b3a 	bleq	ec2d78 <shift+0xec2d78>
  8c:	18021349 	stmdane	r2, {r0, r3, r6, r8, r9, ip}
  90:	0f0b0000 	svceq	0x000b0000
  94:	490b0b00 	stmdbmi	fp, {r8, r9, fp}
  98:	0c000013 	stceq	0, cr0, [r0], {19}
  9c:	193f012e 	ldmdbne	pc!, {r1, r2, r3, r5, r8}	; <UNPREDICTABLE>
  a0:	0b3a0e03 	bleq	e838b4 <shift+0xe838b4>
  a4:	19270b3b 	stmdbne	r7!, {r0, r1, r3, r4, r5, r8, r9, fp}
  a8:	01111349 	tsteq	r1, r9, asr #6
  ac:	18400612 	stmdane	r0, {r1, r4, r9, sl}^
  b0:	01194297 			; <UNDEFINED> instruction: 0x01194297
  b4:	0d000013 	stceq	0, cr0, [r0, #-76]	; 0xffffffb4
  b8:	0e030005 	cdpeq	0, 0, cr0, cr3, cr5, {0}
  bc:	0b3b0b3a 	bleq	ec2dac <shift+0xec2dac>
  c0:	18021349 	stmdane	r2, {r0, r3, r6, r8, r9, ip}
  c4:	240e0000 	strcs	r0, [lr], #-0
  c8:	3e0b0b00 	vmlacc.f64	d0, d11, d0
  cc:	0008030b 	andeq	r0, r8, fp, lsl #6
  d0:	012e0f00 			; <UNDEFINED> instruction: 0x012e0f00
  d4:	0e03193f 			; <UNDEFINED> instruction: 0x0e03193f
  d8:	0b3b0b3a 	bleq	ec2dc8 <shift+0xec2dc8>
  dc:	01111927 	tsteq	r1, r7, lsr #18
  e0:	18400612 	stmdane	r0, {r1, r4, r9, sl}^
  e4:	01194296 			; <UNDEFINED> instruction: 0x01194296
  e8:	10000013 	andne	r0, r0, r3, lsl r0
  ec:	08030005 	stmdaeq	r3, {r0, r2}
  f0:	0b3b0b3a 	bleq	ec2de0 <shift+0xec2de0>
  f4:	18021349 	stmdane	r2, {r0, r3, r6, r8, r9, ip}
  f8:	26110000 	ldrcs	r0, [r1], -r0
  fc:	00134900 	andseq	r4, r3, r0, lsl #18
 100:	002e1200 	eoreq	r1, lr, r0, lsl #4
 104:	0e03193f 			; <UNDEFINED> instruction: 0x0e03193f
 108:	0b3b0b3a 	bleq	ec2df8 <shift+0xec2df8>
 10c:	13491927 	movtne	r1, #39207	; 0x9927
 110:	06120111 			; <UNDEFINED> instruction: 0x06120111
 114:	42971840 	addsmi	r1, r7, #64, 16	; 0x400000
 118:	13000019 	movwne	r0, #25
 11c:	193f012e 	ldmdbne	pc!, {r1, r2, r3, r5, r8}	; <UNPREDICTABLE>
 120:	0b3a0e03 	bleq	e83934 <shift+0xe83934>
 124:	19270b3b 	stmdbne	r7!, {r0, r1, r3, r4, r5, r8, r9, fp}
 128:	06120111 			; <UNDEFINED> instruction: 0x06120111
 12c:	42971840 	addsmi	r1, r7, #64, 16	; 0x400000
 130:	00130119 	andseq	r0, r3, r9, lsl r1
 134:	002e1400 	eoreq	r1, lr, r0, lsl #8
 138:	0e03193f 			; <UNDEFINED> instruction: 0x0e03193f
 13c:	0b3b0b3a 	bleq	ec2e2c <shift+0xec2e2c>
 140:	01111927 	tsteq	r1, r7, lsr #18
 144:	18400612 	stmdane	r0, {r1, r4, r9, sl}^
 148:	00194297 	mulseq	r9, r7, r2
 14c:	11010000 	mrsne	r0, (UNDEF: 1)
 150:	130e2501 	movwne	r2, #58625	; 0xe501
 154:	1b0e030b 	blne	380d88 <shift+0x380d88>
 158:	1201110e 	andne	r1, r1, #-2147483645	; 0x80000003
 15c:	00171006 	andseq	r1, r7, r6
 160:	00240200 	eoreq	r0, r4, r0, lsl #4
 164:	0b3e0b0b 	bleq	f82d98 <shift+0xf82d98>
 168:	00000e03 	andeq	r0, r0, r3, lsl #28
 16c:	03003403 	movweq	r3, #1027	; 0x403
 170:	3b0b3a0e 	blcc	2ce9b0 <shift+0x2ce9b0>
 174:	3f13490b 	svccc	0x0013490b
 178:	00180219 	andseq	r0, r8, r9, lsl r2
 17c:	00260400 	eoreq	r0, r6, r0, lsl #8
 180:	00001349 	andeq	r1, r0, r9, asr #6
 184:	0b002405 	bleq	91a0 <shift+0x91a0>
 188:	030b3e0b 	movweq	r3, #48651	; 0xbe0b
 18c:	06000008 	streq	r0, [r0], -r8
 190:	13490035 	movtne	r0, #36917	; 0x9035
 194:	2e070000 	cdpcs	0, 0, cr0, cr7, cr0, {0}
 198:	03193f00 	tsteq	r9, #0, 30
 19c:	3b0b3a0e 	blcc	2ce9dc <shift+0x2ce9dc>
 1a0:	4919270b 	ldmdbmi	r9, {r0, r1, r3, r8, r9, sl, sp}
 1a4:	12011113 	andne	r1, r1, #-1073741820	; 0xc0000004
 1a8:	96184006 	ldrls	r4, [r8], -r6
 1ac:	00001942 	andeq	r1, r0, r2, asr #18
 1b0:	3f012e08 	svccc	0x00012e08
 1b4:	3a0e0319 	bcc	380e20 <shift+0x380e20>
 1b8:	270b3b0b 	strcs	r3, [fp, -fp, lsl #22]
 1bc:	12011119 	andne	r1, r1, #1073741830	; 0x40000006
 1c0:	97184006 	ldrls	r4, [r8, -r6]
 1c4:	00001942 	andeq	r1, r0, r2, asr #18
 1c8:	03000509 	movweq	r0, #1289	; 0x509
 1cc:	3b0b3a0e 	blcc	2cea0c <shift+0x2cea0c>
 1d0:	0213490b 	andseq	r4, r3, #180224	; 0x2c000
 1d4:	00000018 	andeq	r0, r0, r8, lsl r0
 1d8:	25011101 	strcs	r1, [r1, #-257]	; 0xfffffeff
 1dc:	030b130e 	movweq	r1, #45838	; 0xb30e
 1e0:	110e1b0e 	tstne	lr, lr, lsl #22
 1e4:	10061201 	andne	r1, r6, r1, lsl #4
 1e8:	02000017 	andeq	r0, r0, #23
 1ec:	0b0b0024 	bleq	2c0284 <shift+0x2c0284>
 1f0:	0e030b3e 	vmoveq.16	d3[0], r0
 1f4:	16030000 	strne	r0, [r3], -r0
 1f8:	3a0e0300 	bcc	380e00 <shift+0x380e00>
 1fc:	490b3b0b 	stmdbmi	fp, {r0, r1, r3, r8, r9, fp, ip, sp}
 200:	04000013 	streq	r0, [r0], #-19	; 0xffffffed
 204:	0b0b000f 	bleq	2c0248 <shift+0x2c0248>
 208:	00001349 	andeq	r1, r0, r9, asr #6
 20c:	49002605 	stmdbmi	r0, {r0, r2, r9, sl, sp}
 210:	06000013 			; <UNDEFINED> instruction: 0x06000013
 214:	13490101 	movtne	r0, #37121	; 0x9101
 218:	00001301 	andeq	r1, r0, r1, lsl #6
 21c:	49002107 	stmdbmi	r0, {r0, r1, r2, r8, sp}
 220:	000b2f13 	andeq	r2, fp, r3, lsl pc
 224:	00340800 	eorseq	r0, r4, r0, lsl #16
 228:	0b3a0e03 	bleq	e83a3c <shift+0xe83a3c>
 22c:	13490b3b 	movtne	r0, #39739	; 0x9b3b
 230:	1802193f 	stmdane	r2, {r0, r1, r2, r3, r4, r5, r8, fp, ip}
 234:	2e090000 	cdpcs	0, 0, cr0, cr9, cr0, {0}
 238:	03193f00 	tsteq	r9, #0, 30
 23c:	3b0b3a0e 	blcc	2cea7c <shift+0x2cea7c>
 240:	4919270b 	ldmdbmi	r9, {r0, r1, r3, r8, r9, sl, sp}
 244:	12011113 	andne	r1, r1, #-1073741820	; 0xc0000004
 248:	96184006 	ldrls	r4, [r8], -r6
 24c:	00001942 	andeq	r1, r0, r2, asr #18
 250:	0b00240a 	bleq	9280 <shift+0x9280>
 254:	030b3e0b 	movweq	r3, #48651	; 0xbe0b
 258:	0b000008 	bleq	280 <shift+0x280>
 25c:	193f012e 	ldmdbne	pc!, {r1, r2, r3, r5, r8}	; <UNPREDICTABLE>
 260:	0b3a0e03 	bleq	e83a74 <shift+0xe83a74>
 264:	19270b3b 	stmdbne	r7!, {r0, r1, r3, r4, r5, r8, r9, fp}
 268:	01111349 	tsteq	r1, r9, asr #6
 26c:	18400612 	stmdane	r0, {r1, r4, r9, sl}^
 270:	01194296 			; <UNDEFINED> instruction: 0x01194296
 274:	0c000013 	stceq	0, cr0, [r0], {19}
 278:	08030005 	stmdaeq	r3, {r0, r2}
 27c:	0b3b0b3a 	bleq	ec2f6c <shift+0xec2f6c>
 280:	18021349 	stmdane	r2, {r0, r3, r6, r8, r9, ip}
 284:	180d0000 	stmdane	sp, {}	; <UNPREDICTABLE>
 288:	0e000000 	cdpeq	0, 0, cr0, cr0, cr0, {0}
 28c:	08030034 	stmdaeq	r3, {r2, r4, r5}
 290:	0b3b0b3a 	bleq	ec2f80 <shift+0xec2f80>
 294:	18021349 	stmdane	r2, {r0, r3, r6, r8, r9, ip}
 298:	2e0f0000 	cdpcs	0, 0, cr0, cr15, cr0, {0}
 29c:	3a0e0301 	bcc	380ea8 <shift+0x380ea8>
 2a0:	270b3b0b 	strcs	r3, [fp, -fp, lsl #22]
 2a4:	11134919 	tstne	r3, r9, lsl r9
 2a8:	40061201 	andmi	r1, r6, r1, lsl #4
 2ac:	19429618 	stmdbne	r2, {r3, r4, r9, sl, ip, pc}^
 2b0:	00001301 	andeq	r1, r0, r1, lsl #6
 2b4:	03003410 	movweq	r3, #1040	; 0x410
 2b8:	3b0b3a0e 	blcc	2ceaf8 <shift+0x2ceaf8>
 2bc:	0213490b 	andseq	r4, r3, #180224	; 0x2c000
 2c0:	11000018 	tstne	r0, r8, lsl r0
 2c4:	0e030005 	cdpeq	0, 0, cr0, cr3, cr5, {0}
 2c8:	0b3b0b3a 	bleq	ec2fb8 <shift+0xec2fb8>
 2cc:	18021349 	stmdane	r2, {r0, r3, r6, r8, r9, ip}
 2d0:	2e120000 	cdpcs	0, 1, cr0, cr2, cr0, {0}
 2d4:	3a0e0301 	bcc	380ee0 <shift+0x380ee0>
 2d8:	270b3b0b 	strcs	r3, [fp, -fp, lsl #22]
 2dc:	11134919 	tstne	r3, r9, lsl r9
 2e0:	40061201 	andmi	r1, r6, r1, lsl #4
 2e4:	19429618 	stmdbne	r2, {r3, r4, r9, sl, ip, pc}^
 2e8:	01000000 	mrseq	r0, (UNDEF: 0)
 2ec:	06100011 			; <UNDEFINED> instruction: 0x06100011
 2f0:	01120111 	tsteq	r2, r1, lsl r1
 2f4:	081b0803 	ldmdaeq	fp, {r0, r1, fp}
 2f8:	05130825 	ldreq	r0, [r3, #-2085]	; 0xfffff7db
 2fc:	01000000 	mrseq	r0, (UNDEF: 0)
 300:	06100011 			; <UNDEFINED> instruction: 0x06100011
 304:	01120111 	tsteq	r2, r1, lsl r1
 308:	081b0803 	ldmdaeq	fp, {r0, r1, fp}
 30c:	05130825 	ldreq	r0, [r3, #-2085]	; 0xfffff7db
 310:	Address 0x0000000000000310 is out of bounds.


Disassembly of section .debug_aranges:

00000000 <.debug_aranges>:
   0:	0000001c 	andeq	r0, r0, ip, lsl r0
   4:	00000002 	andeq	r0, r0, r2
   8:	00040000 	andeq	r0, r4, r0
   c:	00000000 	andeq	r0, r0, r0
  10:	80100000 	andshi	r0, r0, r0
  14:	0000003c 	andeq	r0, r0, ip, lsr r0
	...
  20:	0000001c 	andeq	r0, r0, ip, lsl r0
  24:	00700002 	rsbseq	r0, r0, r2
  28:	00040000 	andeq	r0, r4, r0
  2c:	00000000 	andeq	r0, r0, r0
  30:	8010003c 	andshi	r0, r0, ip, lsr r0
  34:	00000176 	andeq	r0, r0, r6, ror r1
	...
  40:	0000001c 	andeq	r0, r0, ip, lsl r0
  44:	028b0002 	addeq	r0, fp, #2
  48:	00040000 	andeq	r0, r4, r0
  4c:	00000000 	andeq	r0, r0, r0
  50:	801001b2 			; <UNDEFINED> instruction: 0x801001b2
  54:	0000005e 	andeq	r0, r0, lr, asr r0
	...
  60:	0000001c 	andeq	r0, r0, ip, lsl r0
  64:	03680002 	cmneq	r8, #2
  68:	00040000 	andeq	r0, r4, r0
  6c:	00000000 	andeq	r0, r0, r0
  70:	80100210 	andshi	r0, r0, r0, lsl r2
  74:	000003ca 	andeq	r0, r0, sl, asr #7
	...
  80:	0000001c 	andeq	r0, r0, ip, lsl r0
  84:	05850002 	streq	r0, [r5, #2]
  88:	00040000 	andeq	r0, r4, r0
  8c:	00000000 	andeq	r0, r0, r0
  90:	801005e0 	andshi	r0, r0, r0, ror #11
  94:	00000276 	andeq	r0, r0, r6, ror r2
	...
  a0:	0000001c 	andeq	r0, r0, ip, lsl r0
  a4:	07440002 	strbeq	r0, [r4, -r2]
  a8:	00040000 	andeq	r0, r4, r0
  ac:	00000000 	andeq	r0, r0, r0
  b0:	80100858 	andshi	r0, r0, r8, asr r8
  b4:	0000000c 	andeq	r0, r0, ip
	...

Disassembly of section .debug_str:

00000000 <.debug_str>:
   0:	32525355 	subscc	r5, r2, #1409286145	; 0x54000001
   4:	554e4700 	strbpl	r4, [lr, #-1792]	; 0xfffff900
   8:	31314320 	teqcc	r1, r0, lsr #6
   c:	322e3620 	eorcc	r3, lr, #32, 12	; 0x2000000
  10:	3220312e 	eorcc	r3, r0, #-2147483637	; 0x8000000b
  14:	31363130 	teqcc	r6, r0, lsr r1
  18:	20363130 	eorscs	r3, r6, r0, lsr r1
  1c:	72616d2d 	rsbvc	r6, r1, #2880	; 0xb40
  20:	613d6863 	teqvs	sp, r3, ror #16
  24:	37766d72 			; <UNDEFINED> instruction: 0x37766d72
  28:	2d20612d 	stfcss	f6, [r0, #-180]!	; 0xffffff4c
  2c:	6e75746d 	cdpvs	4, 7, cr7, cr5, cr13, {3}
  30:	6f633d65 	svcvs	0x00633d65
  34:	78657472 	stmdavc	r5!, {r1, r4, r5, r6, sl, ip, sp, lr}^
  38:	2039612d 	eorscs	r6, r9, sp, lsr #2
  3c:	6c666d2d 	stclvs	13, cr6, [r6], #-180	; 0xffffff4c
  40:	2d74616f 	ldfcse	f6, [r4, #-444]!	; 0xfffffe44
  44:	3d696261 	sfmcc	f6, 2, [r9, #-388]!	; 0xfffffe7c
  48:	64726168 	ldrbtvs	r6, [r2], #-360	; 0xfffffe98
  4c:	666d2d20 	strbtvs	r2, [sp], -r0, lsr #26
  50:	763d7570 			; <UNDEFINED> instruction: 0x763d7570
  54:	33767066 	cmncc	r6, #102	; 0x66
  58:	3631642d 	ldrtcc	r6, [r1], -sp, lsr #8
  5c:	746d2d20 	strbtvc	r2, [sp], #-3360	; 0xfffff2e0
  60:	626d7568 	rsbvs	r7, sp, #104, 10	; 0x1a000000
  64:	746d2d20 	strbtvc	r2, [sp], #-3360	; 0xfffff2e0
  68:	642d736c 	strtvs	r7, [sp], #-876	; 0xfffffc94
  6c:	656c6169 	strbvs	r6, [ip, #-361]!	; 0xfffffe97
  70:	673d7463 	ldrvs	r7, [sp, -r3, ror #8]!
  74:	2d20756e 	cfstr32cs	mvfx7, [r0, #-440]!	; 0xfffffe48
  78:	45550067 	ldrbmi	r0, [r5, #-103]	; 0xffffff99
  7c:	73004353 	movwvc	r4, #851	; 0x353
  80:	756e6769 	strbvc	r6, [lr, #-1897]!	; 0xfffff897
  84:	5455006d 	ldrbpl	r0, [r5], #-109	; 0xffffff93
  88:	47004d49 	strmi	r4, [r0, -r9, asr #26]
  8c:	68437465 	stmdavs	r3, {r0, r2, r5, r6, sl, ip, sp, lr}^
  90:	49007261 	stmdbmi	r0, {r0, r5, r6, r9, ip, sp, lr}
  94:	58554d4f 	ldmdapl	r5, {r0, r1, r2, r3, r6, r8, sl, fp, lr}^
  98:	57535f43 	ldrbpl	r5, [r3, -r3, asr #30]
  9c:	58554d5f 	ldmdapl	r5, {r0, r1, r2, r3, r4, r6, r8, sl, fp, lr}^
  a0:	4c54435f 	mrrcmi	3, 5, r4, r4, cr15	; <UNPREDICTABLE>
  a4:	4441505f 	strbmi	r5, [r1], #-95	; 0xffffffa1
  a8:	5241555f 	subpl	r5, r1, #398458880	; 0x17c00000
  ac:	545f3154 	ldrbpl	r3, [pc], #-340	; b4 <shift+0xb4>
  b0:	41445f58 	cmpmi	r4, r8, asr pc
  b4:	55004154 	strpl	r4, [r0, #-340]	; 0xfffffeac
  b8:	00435242 	subeq	r5, r3, r2, asr #4
  bc:	45534552 	ldrbmi	r4, [r3, #-1362]	; 0xfffffaae
  c0:	44455652 	strbmi	r5, [r5], #-1618	; 0xfffff9ae
  c4:	5500305f 	strpl	r3, [r0, #-95]	; 0xffffffa1
  c8:	00445852 	subeq	r5, r4, r2, asr r8
  cc:	52434655 	subpl	r4, r3, #89128960	; 0x5500000
  d0:	736e7500 	cmnvc	lr, #0, 10
  d4:	656e6769 	strbvs	r6, [lr, #-1897]!	; 0xfffff897
  d8:	68632064 	stmdavs	r3!, {r2, r5, r6, sp}^
  dc:	55007261 	strpl	r7, [r0, #-609]	; 0xfffffd9f
  e0:	00445854 	subeq	r5, r4, r4, asr r8
  e4:	524d4255 	subpl	r4, sp, #1342177285	; 0x50000005
  e8:	434d5500 	movtmi	r5, #54528	; 0xd500
  ec:	61750052 	cmnvs	r5, r2, asr r0
  f0:	632e7472 			; <UNDEFINED> instruction: 0x632e7472
  f4:	52435500 	subpl	r5, r3, #0, 10
  f8:	43550031 	cmpmi	r5, #49	; 0x31
  fc:	55003252 	strpl	r3, [r0, #-594]	; 0xfffffdae
 100:	00335243 	eorseq	r5, r3, r3, asr #4
 104:	34524355 	ldrbcc	r4, [r2], #-853	; 0xfffffcab
 108:	49425500 	stmdbmi	r2, {r8, sl, ip, lr}^
 10c:	682f0052 	stmdavs	pc!, {r1, r4, r6}	; <UNPREDICTABLE>
 110:	2f656d6f 	svccs	0x00656d6f
 114:	6b6f6f62 	blvs	1bdbea4 <shift+0x1bdbea4>
 118:	6d72612f 	ldfvse	f6, [r2, #-188]!	; 0xffffff44
 11c:	6e696c5f 	mcrvs	12, 3, r6, cr9, cr15, {2}
 120:	692f7875 	stmdbvs	pc!, {r0, r2, r4, r5, r6, fp, ip, sp, lr}	; <UNPREDICTABLE>
 124:	7536786d 	ldrvc	r7, [r6, #-2157]!	; 0xfffff793
 128:	312f6c6c 			; <UNDEFINED> instruction: 0x312f6c6c
 12c:	646f635f 	strbtvs	r6, [pc], #-863	; 134 <shift+0x134>
 130:	302f7365 	eorcc	r7, pc, r5, ror #6
 134:	725f3930 	subsvc	r3, pc, #48, 18	; 0xc0000
 138:	636f6c65 	cmnvs	pc, #25856	; 0x6500
 13c:	2f657461 	svccs	0x00657461
 140:	5f323030 	svcpl	0x00323030
 144:	61656c63 	cmnvs	r5, r3, ror #24
 148:	73625f6e 	cmnvc	r2, #440	; 0x1b8
 14c:	75500073 	ldrbvc	r0, [r0, #-115]	; 0xffffff8d
 150:	61684374 	smcvs	33844	; 0x8434
 154:	61550072 	cmpvs	r5, r2, ror r0
 158:	495f7472 	ldmdbmi	pc, {r1, r4, r5, r6, sl, ip, sp, lr}^	; <UNPREDICTABLE>
 15c:	0074696e 	rsbseq	r6, r4, lr, ror #18
 160:	73696172 	cmnvc	r9, #-2147483620	; 0x8000001c
 164:	4f490065 	svcmi	0x00490065
 168:	4358554d 	cmpmi	r8, #322961408	; 0x13400000
 16c:	5f57535f 	svcpl	0x0057535f
 170:	5f58554d 	svcpl	0x0058554d
 174:	5f4c5443 	svcpl	0x004c5443
 178:	5f444150 	svcpl	0x00444150
 17c:	54524155 	ldrbpl	r4, [r2], #-341	; 0xfffffeab
 180:	58525f31 	ldmdapl	r2, {r0, r4, r5, r8, r9, sl, fp, ip, lr}^
 184:	5441445f 	strbpl	r4, [r1], #-1119	; 0xfffffba1
 188:	75500041 	ldrbvc	r0, [r0, #-65]	; 0xffffffbf
 18c:	72745374 	rsbsvc	r5, r4, #116, 6	; 0xd0000001
 190:	53455200 	movtpl	r5, #20992	; 0x5200
 194:	45565245 	ldrbmi	r5, [r6, #-581]	; 0xfffffdbb
 198:	00315f44 	eorseq	r5, r1, r4, asr #30
 19c:	4d454e4f 	stclmi	14, cr4, [r5, #-316]	; 0xfffffec4
 1a0:	41550053 	cmpmi	r5, r3, asr r0
 1a4:	545f5452 	ldrbpl	r5, [pc], #-1106	; 1ac <shift+0x1ac>
 1a8:	00657079 	rsbeq	r7, r5, r9, ror r0
 1ac:	657a6973 	ldrbvs	r6, [sl, #-2419]!	; 0xfffff68d
 1b0:	65707974 	ldrbvs	r7, [r0, #-2420]!	; 0xfffff68c
 1b4:	52535500 	subspl	r5, r3, #0, 10
 1b8:	616d0031 	cmnvs	sp, r1, lsr r0
 1bc:	632e6e69 			; <UNDEFINED> instruction: 0x632e6e69
 1c0:	69616d00 	stmdbvs	r1!, {r8, sl, fp, sp, lr}^
 1c4:	5f67006e 	svcpl	0x0067006e
 1c8:	72616863 	rsbvc	r6, r1, #6488064	; 0x630000
 1cc:	5f670041 	svcpl	0x00670041
 1d0:	72616863 	rsbvc	r6, r1, #6488064	; 0x630000
 1d4:	5f670042 	svcpl	0x00670042
 1d8:	72616863 	rsbvc	r6, r1, #6488064	; 0x630000
 1dc:	69740043 	ldmdbvs	r4!, {r0, r1, r6}^
 1e0:	6400656d 	strvs	r6, [r0], #-1389	; 0xfffffa93
 1e4:	79616c65 	stmdbvc	r1!, {r0, r2, r5, r6, sl, fp, sp, lr}^
 1e8:	695f6700 	ldmdbvs	pc, {r8, r9, sl, sp, lr}^	; <UNPREDICTABLE>
 1ec:	0041746e 	subeq	r7, r1, lr, ror #8
 1f0:	6e695f67 	cdpvs	15, 6, cr5, cr9, cr7, {3}
 1f4:	6f004274 	svcvs	0x00004274
 1f8:	6e5f7475 	mrcvs	4, 2, r7, cr15, cr5, {3}
 1fc:	63006d75 	movwvs	r6, #3445	; 0xd75
 200:	746e756f 	strbtvc	r7, [lr], #-1391	; 0xfffffa91
 204:	5f617600 	svcpl	0x00617600
 208:	7473696c 	ldrbtvc	r6, [r3], #-2412	; 0xfffff694
 20c:	73616200 	cmnvc	r1, #0, 4
 210:	656c0065 	strbvs	r0, [ip, #-101]!	; 0xffffff9b
 214:	6d006461 	cfstrsvs	mvf6, [r0, #-388]	; 0xfffffe7c
 218:	70765f79 	rsbsvc	r5, r6, r9, ror pc
 21c:	746e6972 	strbtvc	r6, [lr], #-2418	; 0xfffff68e
 220:	616d0066 	cmnvs	sp, r6, rrx
 224:	64697778 	strbtvs	r7, [r9], #-1912	; 0xfffff888
 228:	6c006874 	stcvs	8, cr6, [r0], {116}	; 0x74
 22c:	20676e6f 	rsbcs	r6, r7, pc, ror #28
 230:	69736e75 	ldmdbvs	r3!, {r0, r2, r4, r5, r6, r9, sl, fp, sp, lr}^
 234:	64656e67 	strbtvs	r6, [r5], #-3687	; 0xfffff199
 238:	746e6920 	strbtvc	r6, [lr], #-2336	; 0xfffff6e0
 23c:	74756f00 	ldrbtvc	r6, [r5], #-3840	; 0xfffff100
 240:	796d0063 	stmdbvc	sp!, {r0, r1, r5, r6}^
 244:	6972705f 	ldmdbvs	r2!, {r0, r1, r2, r3, r4, r6, ip, sp, lr}^
 248:	2e66746e 	cdpcs	4, 6, cr7, cr6, cr14, {3}
 24c:	756f0063 	strbvc	r0, [pc, #-99]!	; 1f1 <shift+0x1f1>
 250:	6c007374 	stcvs	3, cr7, [r0], {116}	; 0x74
 254:	20676e6f 	rsbcs	r6, r7, pc, ror #28
 258:	00746e69 	rsbseq	r6, r4, r9, ror #28
 25c:	5f786568 	svcpl	0x00786568
 260:	00626174 	rsbeq	r6, r2, r4, ror r1
 264:	705f796d 	subsvc	r7, pc, sp, ror #18
 268:	746e6972 	strbtvc	r6, [lr], #-2418	; 0xfffff68e
 26c:	65745f66 	ldrbvs	r5, [r4, #-3942]!	; 0xfffff09a
 270:	Address 0x0000000000000270 is out of bounds.


Disassembly of section .debug_frame:

00000000 <.debug_frame>:
   0:	0000000c 	andeq	r0, r0, ip
   4:	ffffffff 			; <UNDEFINED> instruction: 0xffffffff
   8:	7c020001 	stcvc	0, cr0, [r2], {1}
   c:	000d0c0e 	andeq	r0, sp, lr, lsl #24
  10:	0000001c 	andeq	r0, r0, ip, lsl r0
  14:	00000000 	andeq	r0, r0, r0
  18:	8010003c 	andshi	r0, r0, ip, lsr r0
  1c:	000000d6 	ldrdeq	r0, [r0], -r6
  20:	87040e41 	strhi	r0, [r4, -r1, asr #28]
  24:	070d4101 	streq	r4, [sp, -r1, lsl #2]
  28:	0d0d6602 	stceq	6, cr6, [sp, #-8]
  2c:	000ec742 	andeq	ip, lr, r2, asr #14
  30:	00000024 	andeq	r0, r0, r4, lsr #32
  34:	00000000 	andeq	r0, r0, r0
  38:	80100112 	andshi	r0, r0, r2, lsl r1
  3c:	00000034 	andeq	r0, r0, r4, lsr r0
  40:	87040e41 	strhi	r0, [r4, -r1, asr #28]
  44:	100e4101 	andne	r4, lr, r1, lsl #2
  48:	53070d41 	movwpl	r0, #32065	; 0x7d41
  4c:	0d41040e 	cfstrdeq	mvd0, [r1, #-56]	; 0xffffffc8
  50:	0ec7420d 	cdpeq	2, 12, cr4, cr7, cr13, {0}
  54:	00000000 	andeq	r0, r0, r0
  58:	0000001c 	andeq	r0, r0, ip, lsl r0
  5c:	00000000 	andeq	r0, r0, r0
  60:	80100146 	andshi	r0, r0, r6, asr #2
  64:	0000002c 	andeq	r0, r0, ip, lsr #32
  68:	87040e41 	strhi	r0, [r4, -r1, asr #28]
  6c:	070d4101 	streq	r4, [sp, -r1, lsl #2]
  70:	420d0d51 	andmi	r0, sp, #5184	; 0x1440
  74:	00000ec7 	andeq	r0, r0, r7, asr #29
  78:	00000020 	andeq	r0, r0, r0, lsr #32
  7c:	00000000 	andeq	r0, r0, r0
  80:	80100172 	andshi	r0, r0, r2, ror r1
  84:	0000002a 	andeq	r0, r0, sl, lsr #32
  88:	87080e41 	strhi	r0, [r8, -r1, asr #28]
  8c:	41018e02 	tstmi	r1, r2, lsl #28
  90:	0d41100e 	stcleq	0, cr1, [r1, #-56]	; 0xffffffc8
  94:	080e5007 	stmdaeq	lr, {r0, r1, r2, ip, lr}
  98:	000d0d41 	andeq	r0, sp, r1, asr #26
  9c:	00000024 	andeq	r0, r0, r4, lsr #32
  a0:	00000000 	andeq	r0, r0, r0
  a4:	8010019c 	mulshi	r0, ip, r1
  a8:	00000016 	andeq	r0, r0, r6, lsl r0
  ac:	87040e41 	strhi	r0, [r4, -r1, asr #28]
  b0:	100e4101 	andne	r4, lr, r1, lsl #2
  b4:	44070d41 	strmi	r0, [r7], #-3393	; 0xfffff2bf
  b8:	0d41040e 	cfstrdeq	mvd0, [r1, #-56]	; 0xffffffc8
  bc:	0ec7420d 	cdpeq	2, 12, cr4, cr7, cr13, {0}
  c0:	00000000 	andeq	r0, r0, r0
  c4:	0000000c 	andeq	r0, r0, ip
  c8:	ffffffff 			; <UNDEFINED> instruction: 0xffffffff
  cc:	7c020001 	stcvc	0, cr0, [r2], {1}
  d0:	000d0c0e 	andeq	r0, sp, lr, lsl #24
  d4:	00000024 	andeq	r0, r0, r4, lsr #32
  d8:	000000c4 	andeq	r0, r0, r4, asr #1
  dc:	801001b2 			; <UNDEFINED> instruction: 0x801001b2
  e0:	00000020 	andeq	r0, r0, r0, lsr #32
  e4:	87040e41 	strhi	r0, [r4, -r1, asr #28]
  e8:	100e4101 	andne	r4, lr, r1, lsl #2
  ec:	49070d41 	stmdbmi	r7, {r0, r6, r8, sl, fp}
  f0:	0d41040e 	cfstrdeq	mvd0, [r1, #-56]	; 0xffffffc8
  f4:	0ec7420d 	cdpeq	2, 12, cr4, cr7, cr13, {0}
  f8:	00000000 	andeq	r0, r0, r0
  fc:	00000018 	andeq	r0, r0, r8, lsl r0
 100:	000000c4 	andeq	r0, r0, r4, asr #1
 104:	801001d2 			; <UNDEFINED> instruction: 0x801001d2
 108:	0000003e 	andeq	r0, r0, lr, lsr r0
 10c:	87080e41 	strhi	r0, [r8, -r1, asr #28]
 110:	41018e02 	tstmi	r1, r2, lsl #28
 114:	0000070d 	andeq	r0, r0, sp, lsl #14
 118:	0000000c 	andeq	r0, r0, ip
 11c:	ffffffff 			; <UNDEFINED> instruction: 0xffffffff
 120:	7c020001 	stcvc	0, cr0, [r2], {1}
 124:	000d0c0e 	andeq	r0, sp, lr, lsl #24
 128:	00000020 	andeq	r0, r0, r0, lsr #32
 12c:	00000118 	andeq	r0, r0, r8, lsl r1
 130:	80100210 	andshi	r0, r0, r0, lsl r2
 134:	00000018 	andeq	r0, r0, r8, lsl r0
 138:	87080e41 	strhi	r0, [r8, -r1, asr #28]
 13c:	41018e02 	tstmi	r1, r2, lsl #28
 140:	0d41100e 	stcleq	0, cr1, [r1, #-56]	; 0xffffffc8
 144:	080e4707 	stmdaeq	lr, {r0, r1, r2, r8, r9, sl, lr}
 148:	000d0d41 	andeq	r0, sp, r1, asr #26
 14c:	00000020 	andeq	r0, r0, r0, lsr #32
 150:	00000118 	andeq	r0, r0, r8, lsl r1
 154:	80100228 	andshi	r0, r0, r8, lsr #4
 158:	0000002a 	andeq	r0, r0, sl, lsr #32
 15c:	87080e41 	strhi	r0, [r8, -r1, asr #28]
 160:	41018e02 	tstmi	r1, r2, lsl #28
 164:	0d41100e 	stcleq	0, cr1, [r1, #-56]	; 0xffffffc8
 168:	080e5007 	stmdaeq	lr, {r0, r1, r2, ip, lr}
 16c:	000d0d41 	andeq	r0, sp, r1, asr #26
 170:	00000020 	andeq	r0, r0, r0, lsr #32
 174:	00000118 	andeq	r0, r0, r8, lsl r1
 178:	80100252 	andshi	r0, r0, r2, asr r2
 17c:	000000d2 	ldrdeq	r0, [r0], -r2
 180:	87080e41 	strhi	r0, [r8, -r1, asr #28]
 184:	41018e02 	tstmi	r1, r2, lsl #28
 188:	0d41680e 	stcleq	8, cr6, [r1, #-56]	; 0xffffffc8
 18c:	0e640207 	cdpeq	2, 6, cr0, cr4, cr7, {0}
 190:	0d0d4108 	stfeqs	f4, [sp, #-32]	; 0xffffffe0
 194:	00000020 	andeq	r0, r0, r0, lsr #32
 198:	00000118 	andeq	r0, r0, r8, lsl r1
 19c:	80100324 	andshi	r0, r0, r4, lsr #6
 1a0:	00000194 	muleq	r0, r4, r1
 1a4:	87080e41 	strhi	r0, [r8, -r1, asr #28]
 1a8:	41018e02 	tstmi	r1, r2, lsl #28
 1ac:	0d41180e 	stcleq	8, cr1, [r1, #-56]	; 0xffffffc8
 1b0:	0ec50207 	cdpeq	2, 12, cr0, cr5, cr7, {0}
 1b4:	0d0d4108 	stfeqs	f4, [sp, #-32]	; 0xffffffe0
 1b8:	00000038 	andeq	r0, r0, r8, lsr r0
 1bc:	00000118 	andeq	r0, r0, r8, lsl r1
 1c0:	801004b8 			; <UNDEFINED> instruction: 0x801004b8
 1c4:	0000002c 	andeq	r0, r0, ip, lsr #32
 1c8:	80100e41 	andshi	r0, r0, r1, asr #28
 1cc:	82038104 	andhi	r8, r3, #4, 2
 1d0:	41018302 	tstmi	r1, r2, lsl #6
 1d4:	0687180e 	streq	r1, [r7], lr, lsl #16
 1d8:	0e41058e 	cdpeq	5, 4, cr0, cr1, cr14, {4}
 1dc:	070d4120 	streq	r4, [sp, -r0, lsr #2]
 1e0:	41180e4d 	tstmi	r8, sp, asr #28
 1e4:	ce420d0d 	cdpgt	13, 4, cr0, cr2, cr13, {0}
 1e8:	41100ec7 	tstmi	r0, r7, asr #29
 1ec:	c0c1c2c3 	sbcgt	ip, r1, r3, asr #5
 1f0:	0000000e 	andeq	r0, r0, lr
 1f4:	00000018 	andeq	r0, r0, r8, lsl r0
 1f8:	00000118 	andeq	r0, r0, r8, lsl r1
 1fc:	801004e4 	andshi	r0, r0, r4, ror #9
 200:	000000f6 	strdeq	r0, [r0], -r6
 204:	87080e41 	strhi	r0, [r8, -r1, asr #28]
 208:	41018e02 	tstmi	r1, r2, lsl #28
 20c:	0000070d 	andeq	r0, r0, sp, lsl #14
 210:	0000000c 	andeq	r0, r0, ip
 214:	ffffffff 			; <UNDEFINED> instruction: 0xffffffff
 218:	7c010001 	stcvc	0, cr0, [r1], {1}
 21c:	000d0c0e 	andeq	r0, sp, lr, lsl #24
 220:	0000000c 	andeq	r0, r0, ip
 224:	00000210 	andeq	r0, r0, r0, lsl r2
 228:	801005e1 	andshi	r0, r0, r1, ror #11
 22c:	0000025c 	andeq	r0, r0, ip, asr r2
 230:	0000000c 	andeq	r0, r0, ip
 234:	ffffffff 			; <UNDEFINED> instruction: 0xffffffff
 238:	7c010001 	stcvc	0, cr0, [r1], {1}
 23c:	000d0c0e 	andeq	r0, sp, lr, lsl #24
 240:	00000014 	andeq	r0, r0, r4, lsl r0
 244:	00000230 	andeq	r0, r0, r0, lsr r2
 248:	80100859 	andshi	r0, r0, r9, asr r8
 24c:	0000000c 	andeq	r0, r0, ip
 250:	0e018e42 	cdpeq	14, 0, cr8, cr1, cr2, {2}
 254:	00000008 	andeq	r0, r0, r8
