
sd.elf:     file format elf32-littlearm


Disassembly of section .text:

80100000 <_start>:
80100000:	e59fd028 	ldr	sp, [pc, #40]	; 80100030 <clean+0x14>
80100004:	eb000001 	bl	80100010 <clean_bss>
80100008:	fb00026a 	blx	801009ba <main>

8010000c <halt>:
8010000c:	eafffffe 	b	8010000c <halt>

80100010 <clean_bss>:
80100010:	e59f101c 	ldr	r1, [pc, #28]	; 80100034 <clean+0x18>
80100014:	e59f201c 	ldr	r2, [pc, #28]	; 80100038 <clean+0x1c>
80100018:	e3a03000 	mov	r3, #0

8010001c <clean>:
8010001c:	e1510002 	cmp	r1, r2
80100020:	b5813000 	strlt	r3, [r1]
80100024:	e2811004 	add	r1, r1, #4
80100028:	bafffffb 	blt	8010001c <clean>
8010002c:	e1a0f00e 	mov	pc, lr
80100030:	80200000 	eorhi	r0, r0, r0
80100034:	80106828 	andshi	r6, r0, r8, lsr #16
80100038:	80108438 	andshi	r8, r0, r8, lsr r4

8010003c <IOMUXC_SetPinMux>:
8010003c:	b480      	push	{r7}
8010003e:	b085      	sub	sp, #20
80100040:	af00      	add	r7, sp, #0
80100042:	60f8      	str	r0, [r7, #12]
80100044:	60b9      	str	r1, [r7, #8]
80100046:	607a      	str	r2, [r7, #4]
80100048:	603b      	str	r3, [r7, #0]
8010004a:	68fb      	ldr	r3, [r7, #12]
8010004c:	68ba      	ldr	r2, [r7, #8]
8010004e:	f002 010f 	and.w	r1, r2, #15
80100052:	69fa      	ldr	r2, [r7, #28]
80100054:	0112      	lsls	r2, r2, #4
80100056:	f002 0210 	and.w	r2, r2, #16
8010005a:	430a      	orrs	r2, r1
8010005c:	601a      	str	r2, [r3, #0]
8010005e:	687b      	ldr	r3, [r7, #4]
80100060:	2b00      	cmp	r3, #0
80100062:	d004      	beq.n	8010006e <IOMUXC_SetPinMux+0x32>
80100064:	687b      	ldr	r3, [r7, #4]
80100066:	683a      	ldr	r2, [r7, #0]
80100068:	f002 0207 	and.w	r2, r2, #7
8010006c:	601a      	str	r2, [r3, #0]
8010006e:	bf00      	nop
80100070:	3714      	adds	r7, #20
80100072:	46bd      	mov	sp, r7
80100074:	f85d 7b04 	ldr.w	r7, [sp], #4
80100078:	4770      	bx	lr

8010007a <IOMUXC_SetPinConfig>:
8010007a:	b480      	push	{r7}
8010007c:	b085      	sub	sp, #20
8010007e:	af00      	add	r7, sp, #0
80100080:	60f8      	str	r0, [r7, #12]
80100082:	60b9      	str	r1, [r7, #8]
80100084:	607a      	str	r2, [r7, #4]
80100086:	603b      	str	r3, [r7, #0]
80100088:	69bb      	ldr	r3, [r7, #24]
8010008a:	2b00      	cmp	r3, #0
8010008c:	d002      	beq.n	80100094 <IOMUXC_SetPinConfig+0x1a>
8010008e:	69bb      	ldr	r3, [r7, #24]
80100090:	69fa      	ldr	r2, [r7, #28]
80100092:	601a      	str	r2, [r3, #0]
80100094:	bf00      	nop
80100096:	3714      	adds	r7, #20
80100098:	46bd      	mov	sp, r7
8010009a:	f85d 7b04 	ldr.w	r7, [sp], #4
8010009e:	4770      	bx	lr

801000a0 <init_pins>:
801000a0:	b580      	push	{r7, lr}
801000a2:	b082      	sub	sp, #8
801000a4:	af02      	add	r7, sp, #8
801000a6:	2300      	movs	r3, #0
801000a8:	9301      	str	r3, [sp, #4]
801000aa:	2358      	movs	r3, #88	; 0x58
801000ac:	f2c0 2329 	movt	r3, #553	; 0x229
801000b0:	9300      	str	r3, [sp, #0]
801000b2:	2300      	movs	r3, #0
801000b4:	2200      	movs	r2, #0
801000b6:	2105      	movs	r1, #5
801000b8:	2014      	movs	r0, #20
801000ba:	f2c0 2029 	movt	r0, #553	; 0x229
801000be:	f7ff ffbd 	bl	8010003c <IOMUXC_SetPinMux>
801000c2:	2309      	movs	r3, #9
801000c4:	f2c0 0301 	movt	r3, #1
801000c8:	9301      	str	r3, [sp, #4]
801000ca:	2358      	movs	r3, #88	; 0x58
801000cc:	f2c0 2329 	movt	r3, #553	; 0x229
801000d0:	9300      	str	r3, [sp, #0]
801000d2:	2300      	movs	r3, #0
801000d4:	2200      	movs	r2, #0
801000d6:	2105      	movs	r1, #5
801000d8:	2014      	movs	r0, #20
801000da:	f2c0 2029 	movt	r0, #553	; 0x229
801000de:	f7ff ffcc 	bl	8010007a <IOMUXC_SetPinConfig>
801000e2:	2300      	movs	r3, #0
801000e4:	9301      	str	r3, [sp, #4]
801000e6:	f44f 7345 	mov.w	r3, #788	; 0x314
801000ea:	f2c0 230e 	movt	r3, #526	; 0x20e
801000ee:	9300      	str	r3, [sp, #0]
801000f0:	2303      	movs	r3, #3
801000f2:	f240 6224 	movw	r2, #1572	; 0x624
801000f6:	f2c0 220e 	movt	r2, #526	; 0x20e
801000fa:	2100      	movs	r1, #0
801000fc:	2088      	movs	r0, #136	; 0x88
801000fe:	f2c0 200e 	movt	r0, #526	; 0x20e
80100102:	f7ff ff9b 	bl	8010003c <IOMUXC_SetPinMux>
80100106:	f241 0390 	movw	r3, #4240	; 0x1090
8010010a:	9301      	str	r3, [sp, #4]
8010010c:	f44f 7345 	mov.w	r3, #788	; 0x314
80100110:	f2c0 230e 	movt	r3, #526	; 0x20e
80100114:	9300      	str	r3, [sp, #0]
80100116:	2303      	movs	r3, #3
80100118:	f240 6224 	movw	r2, #1572	; 0x624
8010011c:	f2c0 220e 	movt	r2, #526	; 0x20e
80100120:	2100      	movs	r1, #0
80100122:	2088      	movs	r0, #136	; 0x88
80100124:	f2c0 200e 	movt	r0, #526	; 0x20e
80100128:	f7ff ffa7 	bl	8010007a <IOMUXC_SetPinConfig>
8010012c:	2300      	movs	r3, #0
8010012e:	9301      	str	r3, [sp, #4]
80100130:	f44f 7344 	mov.w	r3, #784	; 0x310
80100134:	f2c0 230e 	movt	r3, #526	; 0x20e
80100138:	9300      	str	r3, [sp, #0]
8010013a:	2300      	movs	r3, #0
8010013c:	2200      	movs	r2, #0
8010013e:	2100      	movs	r1, #0
80100140:	2084      	movs	r0, #132	; 0x84
80100142:	f2c0 200e 	movt	r0, #526	; 0x20e
80100146:	f7ff ff79 	bl	8010003c <IOMUXC_SetPinMux>
8010014a:	f241 0390 	movw	r3, #4240	; 0x1090
8010014e:	9301      	str	r3, [sp, #4]
80100150:	f44f 7344 	mov.w	r3, #784	; 0x310
80100154:	f2c0 230e 	movt	r3, #526	; 0x20e
80100158:	9300      	str	r3, [sp, #0]
8010015a:	2300      	movs	r3, #0
8010015c:	2200      	movs	r2, #0
8010015e:	2100      	movs	r1, #0
80100160:	2084      	movs	r0, #132	; 0x84
80100162:	f2c0 200e 	movt	r0, #526	; 0x20e
80100166:	f7ff ff88 	bl	8010007a <IOMUXC_SetPinConfig>
8010016a:	2300      	movs	r3, #0
8010016c:	9301      	str	r3, [sp, #4]
8010016e:	f44f 7347 	mov.w	r3, #796	; 0x31c
80100172:	f2c0 230e 	movt	r3, #526	; 0x20e
80100176:	9300      	str	r3, [sp, #0]
80100178:	2301      	movs	r3, #1
8010017a:	f44f 62cd 	mov.w	r2, #1640	; 0x668
8010017e:	f2c0 220e 	movt	r2, #526	; 0x20e
80100182:	2102      	movs	r1, #2
80100184:	2090      	movs	r0, #144	; 0x90
80100186:	f2c0 200e 	movt	r0, #526	; 0x20e
8010018a:	f7ff ff57 	bl	8010003c <IOMUXC_SetPinMux>
8010018e:	2309      	movs	r3, #9
80100190:	f2c0 0301 	movt	r3, #1
80100194:	9301      	str	r3, [sp, #4]
80100196:	f44f 7347 	mov.w	r3, #796	; 0x31c
8010019a:	f2c0 230e 	movt	r3, #526	; 0x20e
8010019e:	9300      	str	r3, [sp, #0]
801001a0:	2301      	movs	r3, #1
801001a2:	f44f 62cd 	mov.w	r2, #1640	; 0x668
801001a6:	f2c0 220e 	movt	r2, #526	; 0x20e
801001aa:	2102      	movs	r1, #2
801001ac:	2090      	movs	r0, #144	; 0x90
801001ae:	f2c0 200e 	movt	r0, #526	; 0x20e
801001b2:	f7ff ff62 	bl	8010007a <IOMUXC_SetPinConfig>
801001b6:	2300      	movs	r3, #0
801001b8:	9301      	str	r3, [sp, #4]
801001ba:	f240 434c 	movw	r3, #1100	; 0x44c
801001be:	f2c0 230e 	movt	r3, #526	; 0x20e
801001c2:	9300      	str	r3, [sp, #0]
801001c4:	2300      	movs	r3, #0
801001c6:	2200      	movs	r2, #0
801001c8:	2100      	movs	r1, #0
801001ca:	f44f 70e0 	mov.w	r0, #448	; 0x1c0
801001ce:	f2c0 200e 	movt	r0, #526	; 0x20e
801001d2:	f7ff ff33 	bl	8010003c <IOMUXC_SetPinMux>
801001d6:	f247 0349 	movw	r3, #28745	; 0x7049
801001da:	f2c0 0301 	movt	r3, #1
801001de:	9301      	str	r3, [sp, #4]
801001e0:	f240 434c 	movw	r3, #1100	; 0x44c
801001e4:	f2c0 230e 	movt	r3, #526	; 0x20e
801001e8:	9300      	str	r3, [sp, #0]
801001ea:	2300      	movs	r3, #0
801001ec:	2200      	movs	r2, #0
801001ee:	2100      	movs	r1, #0
801001f0:	f44f 70e0 	mov.w	r0, #448	; 0x1c0
801001f4:	f2c0 200e 	movt	r0, #526	; 0x20e
801001f8:	f7ff ff3f 	bl	8010007a <IOMUXC_SetPinConfig>
801001fc:	2300      	movs	r3, #0
801001fe:	9301      	str	r3, [sp, #4]
80100200:	f44f 6389 	mov.w	r3, #1096	; 0x448
80100204:	f2c0 230e 	movt	r3, #526	; 0x20e
80100208:	9300      	str	r3, [sp, #0]
8010020a:	2300      	movs	r3, #0
8010020c:	2200      	movs	r2, #0
8010020e:	2100      	movs	r1, #0
80100210:	f44f 70de 	mov.w	r0, #444	; 0x1bc
80100214:	f2c0 200e 	movt	r0, #526	; 0x20e
80100218:	f7ff ff10 	bl	8010003c <IOMUXC_SetPinMux>
8010021c:	f247 0389 	movw	r3, #28809	; 0x7089
80100220:	f2c0 0301 	movt	r3, #1
80100224:	9301      	str	r3, [sp, #4]
80100226:	f44f 6389 	mov.w	r3, #1096	; 0x448
8010022a:	f2c0 230e 	movt	r3, #526	; 0x20e
8010022e:	9300      	str	r3, [sp, #0]
80100230:	2300      	movs	r3, #0
80100232:	2200      	movs	r2, #0
80100234:	2100      	movs	r1, #0
80100236:	f44f 70de 	mov.w	r0, #444	; 0x1bc
8010023a:	f2c0 200e 	movt	r0, #526	; 0x20e
8010023e:	f7ff ff1c 	bl	8010007a <IOMUXC_SetPinConfig>
80100242:	2300      	movs	r3, #0
80100244:	9301      	str	r3, [sp, #4]
80100246:	f44f 638a 	mov.w	r3, #1104	; 0x450
8010024a:	f2c0 230e 	movt	r3, #526	; 0x20e
8010024e:	9300      	str	r3, [sp, #0]
80100250:	2300      	movs	r3, #0
80100252:	2200      	movs	r2, #0
80100254:	2100      	movs	r1, #0
80100256:	f44f 70e2 	mov.w	r0, #452	; 0x1c4
8010025a:	f2c0 200e 	movt	r0, #526	; 0x20e
8010025e:	f7ff feed 	bl	8010003c <IOMUXC_SetPinMux>
80100262:	f247 0389 	movw	r3, #28809	; 0x7089
80100266:	f2c0 0301 	movt	r3, #1
8010026a:	9301      	str	r3, [sp, #4]
8010026c:	f44f 638a 	mov.w	r3, #1104	; 0x450
80100270:	f2c0 230e 	movt	r3, #526	; 0x20e
80100274:	9300      	str	r3, [sp, #0]
80100276:	2300      	movs	r3, #0
80100278:	2200      	movs	r2, #0
8010027a:	2100      	movs	r1, #0
8010027c:	f44f 70e2 	mov.w	r0, #452	; 0x1c4
80100280:	f2c0 200e 	movt	r0, #526	; 0x20e
80100284:	f7ff fef9 	bl	8010007a <IOMUXC_SetPinConfig>
80100288:	2300      	movs	r3, #0
8010028a:	9301      	str	r3, [sp, #4]
8010028c:	f240 4354 	movw	r3, #1108	; 0x454
80100290:	f2c0 230e 	movt	r3, #526	; 0x20e
80100294:	9300      	str	r3, [sp, #0]
80100296:	2300      	movs	r3, #0
80100298:	2200      	movs	r2, #0
8010029a:	2100      	movs	r1, #0
8010029c:	f44f 70e4 	mov.w	r0, #456	; 0x1c8
801002a0:	f2c0 200e 	movt	r0, #526	; 0x20e
801002a4:	f7ff feca 	bl	8010003c <IOMUXC_SetPinMux>
801002a8:	f247 0389 	movw	r3, #28809	; 0x7089
801002ac:	f2c0 0301 	movt	r3, #1
801002b0:	9301      	str	r3, [sp, #4]
801002b2:	f240 4354 	movw	r3, #1108	; 0x454
801002b6:	f2c0 230e 	movt	r3, #526	; 0x20e
801002ba:	9300      	str	r3, [sp, #0]
801002bc:	2300      	movs	r3, #0
801002be:	2200      	movs	r2, #0
801002c0:	2100      	movs	r1, #0
801002c2:	f44f 70e4 	mov.w	r0, #456	; 0x1c8
801002c6:	f2c0 200e 	movt	r0, #526	; 0x20e
801002ca:	f7ff fed6 	bl	8010007a <IOMUXC_SetPinConfig>
801002ce:	2300      	movs	r3, #0
801002d0:	9301      	str	r3, [sp, #4]
801002d2:	f44f 638b 	mov.w	r3, #1112	; 0x458
801002d6:	f2c0 230e 	movt	r3, #526	; 0x20e
801002da:	9300      	str	r3, [sp, #0]
801002dc:	2300      	movs	r3, #0
801002de:	2200      	movs	r2, #0
801002e0:	2100      	movs	r1, #0
801002e2:	f44f 70e6 	mov.w	r0, #460	; 0x1cc
801002e6:	f2c0 200e 	movt	r0, #526	; 0x20e
801002ea:	f7ff fea7 	bl	8010003c <IOMUXC_SetPinMux>
801002ee:	f247 0389 	movw	r3, #28809	; 0x7089
801002f2:	f2c0 0301 	movt	r3, #1
801002f6:	9301      	str	r3, [sp, #4]
801002f8:	f44f 638b 	mov.w	r3, #1112	; 0x458
801002fc:	f2c0 230e 	movt	r3, #526	; 0x20e
80100300:	9300      	str	r3, [sp, #0]
80100302:	2300      	movs	r3, #0
80100304:	2200      	movs	r2, #0
80100306:	2100      	movs	r1, #0
80100308:	f44f 70e6 	mov.w	r0, #460	; 0x1cc
8010030c:	f2c0 200e 	movt	r0, #526	; 0x20e
80100310:	f7ff feb3 	bl	8010007a <IOMUXC_SetPinConfig>
80100314:	2300      	movs	r3, #0
80100316:	9301      	str	r3, [sp, #4]
80100318:	f240 435c 	movw	r3, #1116	; 0x45c
8010031c:	f2c0 230e 	movt	r3, #526	; 0x20e
80100320:	9300      	str	r3, [sp, #0]
80100322:	2300      	movs	r3, #0
80100324:	2200      	movs	r2, #0
80100326:	2100      	movs	r1, #0
80100328:	f44f 70e8 	mov.w	r0, #464	; 0x1d0
8010032c:	f2c0 200e 	movt	r0, #526	; 0x20e
80100330:	f7ff fe84 	bl	8010003c <IOMUXC_SetPinMux>
80100334:	f247 0389 	movw	r3, #28809	; 0x7089
80100338:	f2c0 0301 	movt	r3, #1
8010033c:	9301      	str	r3, [sp, #4]
8010033e:	f240 435c 	movw	r3, #1116	; 0x45c
80100342:	f2c0 230e 	movt	r3, #526	; 0x20e
80100346:	9300      	str	r3, [sp, #0]
80100348:	2300      	movs	r3, #0
8010034a:	2200      	movs	r2, #0
8010034c:	2100      	movs	r1, #0
8010034e:	f44f 70e8 	mov.w	r0, #464	; 0x1d0
80100352:	f2c0 200e 	movt	r0, #526	; 0x20e
80100356:	f7ff fe90 	bl	8010007a <IOMUXC_SetPinConfig>
8010035a:	2300      	movs	r3, #0
8010035c:	9301      	str	r3, [sp, #4]
8010035e:	f44f 6381 	mov.w	r3, #1032	; 0x408
80100362:	f2c0 230e 	movt	r3, #526	; 0x20e
80100366:	9300      	str	r3, [sp, #0]
80100368:	2302      	movs	r3, #2
8010036a:	f44f 62cf 	mov.w	r2, #1656	; 0x678
8010036e:	f2c0 220e 	movt	r2, #526	; 0x20e
80100372:	2101      	movs	r1, #1
80100374:	f44f 70be 	mov.w	r0, #380	; 0x17c
80100378:	f2c0 200e 	movt	r0, #526	; 0x20e
8010037c:	f7ff fe5e 	bl	8010003c <IOMUXC_SetPinMux>
80100380:	f247 03b9 	movw	r3, #28857	; 0x70b9
80100384:	f2c0 0301 	movt	r3, #1
80100388:	9301      	str	r3, [sp, #4]
8010038a:	f44f 6381 	mov.w	r3, #1032	; 0x408
8010038e:	f2c0 230e 	movt	r3, #526	; 0x20e
80100392:	9300      	str	r3, [sp, #0]
80100394:	2302      	movs	r3, #2
80100396:	f44f 62cf 	mov.w	r2, #1656	; 0x678
8010039a:	f2c0 220e 	movt	r2, #526	; 0x20e
8010039e:	2101      	movs	r1, #1
801003a0:	f44f 70be 	mov.w	r0, #380	; 0x17c
801003a4:	f2c0 200e 	movt	r0, #526	; 0x20e
801003a8:	f7ff fe67 	bl	8010007a <IOMUXC_SetPinConfig>
801003ac:	2300      	movs	r3, #0
801003ae:	9301      	str	r3, [sp, #4]
801003b0:	f240 4304 	movw	r3, #1028	; 0x404
801003b4:	f2c0 230e 	movt	r3, #526	; 0x20e
801003b8:	9300      	str	r3, [sp, #0]
801003ba:	2302      	movs	r3, #2
801003bc:	f44f 62ce 	mov.w	r2, #1648	; 0x670
801003c0:	f2c0 220e 	movt	r2, #526	; 0x20e
801003c4:	2101      	movs	r1, #1
801003c6:	f44f 70bc 	mov.w	r0, #376	; 0x178
801003ca:	f2c0 200e 	movt	r0, #526	; 0x20e
801003ce:	f7ff fe35 	bl	8010003c <IOMUXC_SetPinMux>
801003d2:	f247 0389 	movw	r3, #28809	; 0x7089
801003d6:	f2c0 0301 	movt	r3, #1
801003da:	9301      	str	r3, [sp, #4]
801003dc:	f240 4304 	movw	r3, #1028	; 0x404
801003e0:	f2c0 230e 	movt	r3, #526	; 0x20e
801003e4:	9300      	str	r3, [sp, #0]
801003e6:	2302      	movs	r3, #2
801003e8:	f44f 62ce 	mov.w	r2, #1648	; 0x670
801003ec:	f2c0 220e 	movt	r2, #526	; 0x20e
801003f0:	2101      	movs	r1, #1
801003f2:	f44f 70bc 	mov.w	r0, #376	; 0x178
801003f6:	f2c0 200e 	movt	r0, #526	; 0x20e
801003fa:	f7ff fe3e 	bl	8010007a <IOMUXC_SetPinConfig>
801003fe:	2300      	movs	r3, #0
80100400:	9301      	str	r3, [sp, #4]
80100402:	f240 432c 	movw	r3, #1068	; 0x42c
80100406:	f2c0 230e 	movt	r3, #526	; 0x20e
8010040a:	9300      	str	r3, [sp, #0]
8010040c:	2300      	movs	r3, #0
8010040e:	2200      	movs	r2, #0
80100410:	2101      	movs	r1, #1
80100412:	f44f 70d0 	mov.w	r0, #416	; 0x1a0
80100416:	f2c0 200e 	movt	r0, #526	; 0x20e
8010041a:	f7ff fe0f 	bl	8010003c <IOMUXC_SetPinMux>
8010041e:	f247 0389 	movw	r3, #28809	; 0x7089
80100422:	f2c0 0301 	movt	r3, #1
80100426:	9301      	str	r3, [sp, #4]
80100428:	f240 432c 	movw	r3, #1068	; 0x42c
8010042c:	f2c0 230e 	movt	r3, #526	; 0x20e
80100430:	9300      	str	r3, [sp, #0]
80100432:	2300      	movs	r3, #0
80100434:	2200      	movs	r2, #0
80100436:	2101      	movs	r1, #1
80100438:	f44f 70d0 	mov.w	r0, #416	; 0x1a0
8010043c:	f2c0 200e 	movt	r0, #526	; 0x20e
80100440:	f7ff fe1b 	bl	8010007a <IOMUXC_SetPinConfig>
80100444:	2300      	movs	r3, #0
80100446:	9301      	str	r3, [sp, #4]
80100448:	f240 430c 	movw	r3, #1036	; 0x40c
8010044c:	f2c0 230e 	movt	r3, #526	; 0x20e
80100450:	9300      	str	r3, [sp, #0]
80100452:	2302      	movs	r3, #2
80100454:	f240 627c 	movw	r2, #1660	; 0x67c
80100458:	f2c0 220e 	movt	r2, #526	; 0x20e
8010045c:	2101      	movs	r1, #1
8010045e:	f44f 70c0 	mov.w	r0, #384	; 0x180
80100462:	f2c0 200e 	movt	r0, #526	; 0x20e
80100466:	f7ff fde9 	bl	8010003c <IOMUXC_SetPinMux>
8010046a:	f247 03b9 	movw	r3, #28857	; 0x70b9
8010046e:	f2c0 0301 	movt	r3, #1
80100472:	9301      	str	r3, [sp, #4]
80100474:	f240 430c 	movw	r3, #1036	; 0x40c
80100478:	f2c0 230e 	movt	r3, #526	; 0x20e
8010047c:	9300      	str	r3, [sp, #0]
8010047e:	2302      	movs	r3, #2
80100480:	f240 627c 	movw	r2, #1660	; 0x67c
80100484:	f2c0 220e 	movt	r2, #526	; 0x20e
80100488:	2101      	movs	r1, #1
8010048a:	f44f 70c0 	mov.w	r0, #384	; 0x180
8010048e:	f2c0 200e 	movt	r0, #526	; 0x20e
80100492:	f7ff fdf2 	bl	8010007a <IOMUXC_SetPinConfig>
80100496:	2300      	movs	r3, #0
80100498:	9301      	str	r3, [sp, #4]
8010049a:	f44f 6382 	mov.w	r3, #1040	; 0x410
8010049e:	f2c0 230e 	movt	r3, #526	; 0x20e
801004a2:	9300      	str	r3, [sp, #0]
801004a4:	2302      	movs	r3, #2
801004a6:	f44f 62d0 	mov.w	r2, #1664	; 0x680
801004aa:	f2c0 220e 	movt	r2, #526	; 0x20e
801004ae:	2101      	movs	r1, #1
801004b0:	f44f 70c2 	mov.w	r0, #388	; 0x184
801004b4:	f2c0 200e 	movt	r0, #526	; 0x20e
801004b8:	f7ff fdc0 	bl	8010003c <IOMUXC_SetPinMux>
801004bc:	f247 03b9 	movw	r3, #28857	; 0x70b9
801004c0:	f2c0 0301 	movt	r3, #1
801004c4:	9301      	str	r3, [sp, #4]
801004c6:	f44f 6382 	mov.w	r3, #1040	; 0x410
801004ca:	f2c0 230e 	movt	r3, #526	; 0x20e
801004ce:	9300      	str	r3, [sp, #0]
801004d0:	2302      	movs	r3, #2
801004d2:	f44f 62d0 	mov.w	r2, #1664	; 0x680
801004d6:	f2c0 220e 	movt	r2, #526	; 0x20e
801004da:	2101      	movs	r1, #1
801004dc:	f44f 70c2 	mov.w	r0, #388	; 0x184
801004e0:	f2c0 200e 	movt	r0, #526	; 0x20e
801004e4:	f7ff fdc9 	bl	8010007a <IOMUXC_SetPinConfig>
801004e8:	2300      	movs	r3, #0
801004ea:	9301      	str	r3, [sp, #4]
801004ec:	f240 4314 	movw	r3, #1044	; 0x414
801004f0:	f2c0 230e 	movt	r3, #526	; 0x20e
801004f4:	9300      	str	r3, [sp, #0]
801004f6:	2301      	movs	r3, #1
801004f8:	f240 6284 	movw	r2, #1668	; 0x684
801004fc:	f2c0 220e 	movt	r2, #526	; 0x20e
80100500:	2101      	movs	r1, #1
80100502:	f44f 70c4 	mov.w	r0, #392	; 0x188
80100506:	f2c0 200e 	movt	r0, #526	; 0x20e
8010050a:	f7ff fd97 	bl	8010003c <IOMUXC_SetPinMux>
8010050e:	f247 03b9 	movw	r3, #28857	; 0x70b9
80100512:	f2c0 0301 	movt	r3, #1
80100516:	9301      	str	r3, [sp, #4]
80100518:	f240 4314 	movw	r3, #1044	; 0x414
8010051c:	f2c0 230e 	movt	r3, #526	; 0x20e
80100520:	9300      	str	r3, [sp, #0]
80100522:	2301      	movs	r3, #1
80100524:	f240 6284 	movw	r2, #1668	; 0x684
80100528:	f2c0 220e 	movt	r2, #526	; 0x20e
8010052c:	2101      	movs	r1, #1
8010052e:	f44f 70c4 	mov.w	r0, #392	; 0x188
80100532:	f2c0 200e 	movt	r0, #526	; 0x20e
80100536:	f7ff fda0 	bl	8010007a <IOMUXC_SetPinConfig>
8010053a:	2300      	movs	r3, #0
8010053c:	9301      	str	r3, [sp, #4]
8010053e:	f44f 6383 	mov.w	r3, #1048	; 0x418
80100542:	f2c0 230e 	movt	r3, #526	; 0x20e
80100546:	9300      	str	r3, [sp, #0]
80100548:	2302      	movs	r3, #2
8010054a:	f44f 62d1 	mov.w	r2, #1672	; 0x688
8010054e:	f2c0 220e 	movt	r2, #526	; 0x20e
80100552:	2101      	movs	r1, #1
80100554:	f44f 70c6 	mov.w	r0, #396	; 0x18c
80100558:	f2c0 200e 	movt	r0, #526	; 0x20e
8010055c:	f7ff fd6e 	bl	8010003c <IOMUXC_SetPinMux>
80100560:	f247 03b9 	movw	r3, #28857	; 0x70b9
80100564:	f2c0 0301 	movt	r3, #1
80100568:	9301      	str	r3, [sp, #4]
8010056a:	f44f 6383 	mov.w	r3, #1048	; 0x418
8010056e:	f2c0 230e 	movt	r3, #526	; 0x20e
80100572:	9300      	str	r3, [sp, #0]
80100574:	2302      	movs	r3, #2
80100576:	f44f 62d1 	mov.w	r2, #1672	; 0x688
8010057a:	f2c0 220e 	movt	r2, #526	; 0x20e
8010057e:	2101      	movs	r1, #1
80100580:	f44f 70c6 	mov.w	r0, #396	; 0x18c
80100584:	f2c0 200e 	movt	r0, #526	; 0x20e
80100588:	f7ff fd77 	bl	8010007a <IOMUXC_SetPinConfig>
8010058c:	2300      	movs	r3, #0
8010058e:	9301      	str	r3, [sp, #4]
80100590:	f240 431c 	movw	r3, #1052	; 0x41c
80100594:	f2c0 230e 	movt	r3, #526	; 0x20e
80100598:	9300      	str	r3, [sp, #0]
8010059a:	2301      	movs	r3, #1
8010059c:	f240 628c 	movw	r2, #1676	; 0x68c
801005a0:	f2c0 220e 	movt	r2, #526	; 0x20e
801005a4:	2101      	movs	r1, #1
801005a6:	f44f 70c8 	mov.w	r0, #400	; 0x190
801005aa:	f2c0 200e 	movt	r0, #526	; 0x20e
801005ae:	f7ff fd45 	bl	8010003c <IOMUXC_SetPinMux>
801005b2:	f247 03b9 	movw	r3, #28857	; 0x70b9
801005b6:	f2c0 0301 	movt	r3, #1
801005ba:	9301      	str	r3, [sp, #4]
801005bc:	f240 431c 	movw	r3, #1052	; 0x41c
801005c0:	f2c0 230e 	movt	r3, #526	; 0x20e
801005c4:	9300      	str	r3, [sp, #0]
801005c6:	2301      	movs	r3, #1
801005c8:	f240 628c 	movw	r2, #1676	; 0x68c
801005cc:	f2c0 220e 	movt	r2, #526	; 0x20e
801005d0:	2101      	movs	r1, #1
801005d2:	f44f 70c8 	mov.w	r0, #400	; 0x190
801005d6:	f2c0 200e 	movt	r0, #526	; 0x20e
801005da:	f7ff fd4e 	bl	8010007a <IOMUXC_SetPinConfig>
801005de:	2300      	movs	r3, #0
801005e0:	9301      	str	r3, [sp, #4]
801005e2:	f44f 6384 	mov.w	r3, #1056	; 0x420
801005e6:	f2c0 230e 	movt	r3, #526	; 0x20e
801005ea:	9300      	str	r3, [sp, #0]
801005ec:	2301      	movs	r3, #1
801005ee:	f44f 62d2 	mov.w	r2, #1680	; 0x690
801005f2:	f2c0 220e 	movt	r2, #526	; 0x20e
801005f6:	2101      	movs	r1, #1
801005f8:	f44f 70ca 	mov.w	r0, #404	; 0x194
801005fc:	f2c0 200e 	movt	r0, #526	; 0x20e
80100600:	f7ff fd1c 	bl	8010003c <IOMUXC_SetPinMux>
80100604:	f247 03b9 	movw	r3, #28857	; 0x70b9
80100608:	f2c0 0301 	movt	r3, #1
8010060c:	9301      	str	r3, [sp, #4]
8010060e:	f44f 6384 	mov.w	r3, #1056	; 0x420
80100612:	f2c0 230e 	movt	r3, #526	; 0x20e
80100616:	9300      	str	r3, [sp, #0]
80100618:	2301      	movs	r3, #1
8010061a:	f44f 62d2 	mov.w	r2, #1680	; 0x690
8010061e:	f2c0 220e 	movt	r2, #526	; 0x20e
80100622:	2101      	movs	r1, #1
80100624:	f44f 70ca 	mov.w	r0, #404	; 0x194
80100628:	f2c0 200e 	movt	r0, #526	; 0x20e
8010062c:	f7ff fd25 	bl	8010007a <IOMUXC_SetPinConfig>
80100630:	2300      	movs	r3, #0
80100632:	9301      	str	r3, [sp, #4]
80100634:	f240 4324 	movw	r3, #1060	; 0x424
80100638:	f2c0 230e 	movt	r3, #526	; 0x20e
8010063c:	9300      	str	r3, [sp, #0]
8010063e:	2301      	movs	r3, #1
80100640:	f240 6294 	movw	r2, #1684	; 0x694
80100644:	f2c0 220e 	movt	r2, #526	; 0x20e
80100648:	2101      	movs	r1, #1
8010064a:	f44f 70cc 	mov.w	r0, #408	; 0x198
8010064e:	f2c0 200e 	movt	r0, #526	; 0x20e
80100652:	f7ff fcf3 	bl	8010003c <IOMUXC_SetPinMux>
80100656:	f24f 03b9 	movw	r3, #61625	; 0xf0b9
8010065a:	f2c0 0301 	movt	r3, #1
8010065e:	9301      	str	r3, [sp, #4]
80100660:	f240 4324 	movw	r3, #1060	; 0x424
80100664:	f2c0 230e 	movt	r3, #526	; 0x20e
80100668:	9300      	str	r3, [sp, #0]
8010066a:	2301      	movs	r3, #1
8010066c:	f240 6294 	movw	r2, #1684	; 0x694
80100670:	f2c0 220e 	movt	r2, #526	; 0x20e
80100674:	2101      	movs	r1, #1
80100676:	f44f 70cc 	mov.w	r0, #408	; 0x198
8010067a:	f2c0 200e 	movt	r0, #526	; 0x20e
8010067e:	f7ff fcfc 	bl	8010007a <IOMUXC_SetPinConfig>
80100682:	2300      	movs	r3, #0
80100684:	9301      	str	r3, [sp, #4]
80100686:	f44f 6385 	mov.w	r3, #1064	; 0x428
8010068a:	f2c0 230e 	movt	r3, #526	; 0x20e
8010068e:	9300      	str	r3, [sp, #0]
80100690:	2301      	movs	r3, #1
80100692:	f44f 62d3 	mov.w	r2, #1688	; 0x698
80100696:	f2c0 220e 	movt	r2, #526	; 0x20e
8010069a:	2101      	movs	r1, #1
8010069c:	f44f 70ce 	mov.w	r0, #412	; 0x19c
801006a0:	f2c0 200e 	movt	r0, #526	; 0x20e
801006a4:	f7ff fcca 	bl	8010003c <IOMUXC_SetPinMux>
801006a8:	f247 03b9 	movw	r3, #28857	; 0x70b9
801006ac:	f2c0 0301 	movt	r3, #1
801006b0:	9301      	str	r3, [sp, #4]
801006b2:	f44f 6385 	mov.w	r3, #1064	; 0x428
801006b6:	f2c0 230e 	movt	r3, #526	; 0x20e
801006ba:	9300      	str	r3, [sp, #0]
801006bc:	2301      	movs	r3, #1
801006be:	f44f 62d3 	mov.w	r2, #1688	; 0x698
801006c2:	f2c0 220e 	movt	r2, #526	; 0x20e
801006c6:	2101      	movs	r1, #1
801006c8:	f44f 70ce 	mov.w	r0, #412	; 0x19c
801006cc:	f2c0 200e 	movt	r0, #526	; 0x20e
801006d0:	f7ff fcd3 	bl	8010007a <IOMUXC_SetPinConfig>
801006d4:	bf00      	nop
801006d6:	46bd      	mov	sp, r7
801006d8:	bd80      	pop	{r7, pc}

801006da <delay>:
801006da:	b480      	push	{r7}
801006dc:	b083      	sub	sp, #12
801006de:	af00      	add	r7, sp, #0
801006e0:	6078      	str	r0, [r7, #4]
801006e2:	bf00      	nop
801006e4:	687b      	ldr	r3, [r7, #4]
801006e6:	1e5a      	subs	r2, r3, #1
801006e8:	607a      	str	r2, [r7, #4]
801006ea:	2b00      	cmp	r3, #0
801006ec:	d1fa      	bne.n	801006e4 <delay+0xa>
801006ee:	bf00      	nop
801006f0:	370c      	adds	r7, #12
801006f2:	46bd      	mov	sp, r7
801006f4:	f85d 7b04 	ldr.w	r7, [sp], #4
801006f8:	4770      	bx	lr

801006fa <boot_clk_gate_init>:
801006fa:	b480      	push	{r7}
801006fc:	af00      	add	r7, sp, #0
801006fe:	f44f 4380 	mov.w	r3, #16384	; 0x4000
80100702:	f2c0 230c 	movt	r3, #524	; 0x20c
80100706:	f04f 32ff 	mov.w	r2, #4294967295	; 0xffffffff
8010070a:	669a      	str	r2, [r3, #104]	; 0x68
8010070c:	f44f 4380 	mov.w	r3, #16384	; 0x4000
80100710:	f2c0 230c 	movt	r3, #524	; 0x20c
80100714:	f04f 32ff 	mov.w	r2, #4294967295	; 0xffffffff
80100718:	66da      	str	r2, [r3, #108]	; 0x6c
8010071a:	f44f 4380 	mov.w	r3, #16384	; 0x4000
8010071e:	f2c0 230c 	movt	r3, #524	; 0x20c
80100722:	f04f 32ff 	mov.w	r2, #4294967295	; 0xffffffff
80100726:	671a      	str	r2, [r3, #112]	; 0x70
80100728:	f44f 4380 	mov.w	r3, #16384	; 0x4000
8010072c:	f2c0 230c 	movt	r3, #524	; 0x20c
80100730:	f04f 32ff 	mov.w	r2, #4294967295	; 0xffffffff
80100734:	675a      	str	r2, [r3, #116]	; 0x74
80100736:	f44f 4380 	mov.w	r3, #16384	; 0x4000
8010073a:	f2c0 230c 	movt	r3, #524	; 0x20c
8010073e:	f04f 32ff 	mov.w	r2, #4294967295	; 0xffffffff
80100742:	679a      	str	r2, [r3, #120]	; 0x78
80100744:	f44f 4380 	mov.w	r3, #16384	; 0x4000
80100748:	f2c0 230c 	movt	r3, #524	; 0x20c
8010074c:	f04f 32ff 	mov.w	r2, #4294967295	; 0xffffffff
80100750:	67da      	str	r2, [r3, #124]	; 0x7c
80100752:	f44f 4380 	mov.w	r3, #16384	; 0x4000
80100756:	f2c0 230c 	movt	r3, #524	; 0x20c
8010075a:	f04f 32ff 	mov.w	r2, #4294967295	; 0xffffffff
8010075e:	f8c3 2080 	str.w	r2, [r3, #128]	; 0x80
80100762:	bf00      	nop
80100764:	46bd      	mov	sp, r7
80100766:	f85d 7b04 	ldr.w	r7, [sp], #4
8010076a:	4770      	bx	lr

8010076c <boot_clk_init>:
8010076c:	b480      	push	{r7}
8010076e:	af00      	add	r7, sp, #0
80100770:	f44f 4380 	mov.w	r3, #16384	; 0x4000
80100774:	f2c0 230c 	movt	r3, #524	; 0x20c
80100778:	68db      	ldr	r3, [r3, #12]
8010077a:	f003 0304 	and.w	r3, r3, #4
8010077e:	2b00      	cmp	r3, #0
80100780:	d117      	bne.n	801007b2 <boot_clk_init+0x46>
80100782:	f44f 4380 	mov.w	r3, #16384	; 0x4000
80100786:	f2c0 230c 	movt	r3, #524	; 0x20c
8010078a:	f44f 4280 	mov.w	r2, #16384	; 0x4000
8010078e:	f2c0 220c 	movt	r2, #524	; 0x20c
80100792:	68d2      	ldr	r2, [r2, #12]
80100794:	f422 7280 	bic.w	r2, r2, #256	; 0x100
80100798:	60da      	str	r2, [r3, #12]
8010079a:	f44f 4380 	mov.w	r3, #16384	; 0x4000
8010079e:	f2c0 230c 	movt	r3, #524	; 0x20c
801007a2:	f44f 4280 	mov.w	r2, #16384	; 0x4000
801007a6:	f2c0 220c 	movt	r2, #524	; 0x20c
801007aa:	68d2      	ldr	r2, [r2, #12]
801007ac:	f042 0204 	orr.w	r2, r2, #4
801007b0:	60da      	str	r2, [r3, #12]
801007b2:	f44f 4300 	mov.w	r3, #32768	; 0x8000
801007b6:	f2c0 230c 	movt	r3, #524	; 0x20c
801007ba:	f242 0258 	movw	r2, #8280	; 0x2058
801007be:	601a      	str	r2, [r3, #0]
801007c0:	f44f 4380 	mov.w	r3, #16384	; 0x4000
801007c4:	f2c0 230c 	movt	r3, #524	; 0x20c
801007c8:	f44f 4280 	mov.w	r2, #16384	; 0x4000
801007cc:	f2c0 220c 	movt	r2, #524	; 0x20c
801007d0:	68d2      	ldr	r2, [r2, #12]
801007d2:	f022 0204 	bic.w	r2, r2, #4
801007d6:	60da      	str	r2, [r3, #12]
801007d8:	f44f 4380 	mov.w	r3, #16384	; 0x4000
801007dc:	f2c0 230c 	movt	r3, #524	; 0x20c
801007e0:	2201      	movs	r2, #1
801007e2:	611a      	str	r2, [r3, #16]
801007e4:	f44f 4300 	mov.w	r3, #32768	; 0x8000
801007e8:	f2c0 230c 	movt	r3, #524	; 0x20c
801007ec:	f44f 4200 	mov.w	r2, #32768	; 0x8000
801007f0:	f2c0 220c 	movt	r2, #524	; 0x20c
801007f4:	f8d2 2100 	ldr.w	r2, [r2, #256]	; 0x100
801007f8:	f002 32c0 	and.w	r2, r2, #3233857728	; 0xc0c0c0c0
801007fc:	f8c3 2100 	str.w	r2, [r3, #256]	; 0x100
80100800:	f44f 4200 	mov.w	r2, #32768	; 0x8000
80100804:	f2c0 220c 	movt	r2, #524	; 0x20c
80100808:	f44f 4300 	mov.w	r3, #32768	; 0x8000
8010080c:	f2c0 230c 	movt	r3, #524	; 0x20c
80100810:	f8d3 1100 	ldr.w	r1, [r3, #256]	; 0x100
80100814:	f241 031b 	movw	r3, #4123	; 0x101b
80100818:	f2c3 0318 	movt	r3, #12312	; 0x3018
8010081c:	430b      	orrs	r3, r1
8010081e:	f8c2 3100 	str.w	r3, [r2, #256]	; 0x100
80100822:	f44f 4300 	mov.w	r3, #32768	; 0x8000
80100826:	f2c0 230c 	movt	r3, #524	; 0x20c
8010082a:	f44f 4200 	mov.w	r2, #32768	; 0x8000
8010082e:	f2c0 220c 	movt	r2, #524	; 0x20c
80100832:	f8d2 20f0 	ldr.w	r2, [r2, #240]	; 0xf0
80100836:	f002 32c0 	and.w	r2, r2, #3233857728	; 0xc0c0c0c0
8010083a:	f8c3 20f0 	str.w	r2, [r3, #240]	; 0xf0
8010083e:	f44f 4200 	mov.w	r2, #32768	; 0x8000
80100842:	f2c0 220c 	movt	r2, #524	; 0x20c
80100846:	f44f 4300 	mov.w	r3, #32768	; 0x8000
8010084a:	f2c0 230c 	movt	r3, #524	; 0x20c
8010084e:	f8d3 10f0 	ldr.w	r1, [r3, #240]	; 0xf0
80100852:	f241 030c 	movw	r3, #4108	; 0x100c
80100856:	f2c1 3311 	movt	r3, #4881	; 0x1311
8010085a:	430b      	orrs	r3, r1
8010085c:	f8c2 30f0 	str.w	r3, [r2, #240]	; 0xf0
80100860:	f44f 4380 	mov.w	r3, #16384	; 0x4000
80100864:	f2c0 230c 	movt	r3, #524	; 0x20c
80100868:	f44f 4280 	mov.w	r2, #16384	; 0x4000
8010086c:	f2c0 220c 	movt	r2, #524	; 0x20c
80100870:	6992      	ldr	r2, [r2, #24]
80100872:	f422 02d8 	bic.w	r2, r2, #7077888	; 0x6c0000
80100876:	619a      	str	r2, [r3, #24]
80100878:	f44f 4380 	mov.w	r3, #16384	; 0x4000
8010087c:	f2c0 230c 	movt	r3, #524	; 0x20c
80100880:	f44f 4280 	mov.w	r2, #16384	; 0x4000
80100884:	f2c0 220c 	movt	r2, #524	; 0x20c
80100888:	6992      	ldr	r2, [r2, #24]
8010088a:	f442 1210 	orr.w	r2, r2, #2359296	; 0x240000
8010088e:	619a      	str	r2, [r3, #24]
80100890:	f44f 4380 	mov.w	r3, #16384	; 0x4000
80100894:	f2c0 230c 	movt	r3, #524	; 0x20c
80100898:	f44f 4280 	mov.w	r2, #16384	; 0x4000
8010089c:	f2c0 220c 	movt	r2, #524	; 0x20c
801008a0:	6952      	ldr	r2, [r2, #20]
801008a2:	f022 62c0 	bic.w	r2, r2, #100663296	; 0x6000000
801008a6:	615a      	str	r2, [r3, #20]
801008a8:	f44f 4380 	mov.w	r3, #16384	; 0x4000
801008ac:	f2c0 230c 	movt	r3, #524	; 0x20c
801008b0:	f44f 4280 	mov.w	r2, #16384	; 0x4000
801008b4:	f2c0 220c 	movt	r2, #524	; 0x20c
801008b8:	6952      	ldr	r2, [r2, #20]
801008ba:	615a      	str	r2, [r3, #20]
801008bc:	f44f 4280 	mov.w	r2, #16384	; 0x4000
801008c0:	f2c0 220c 	movt	r2, #524	; 0x20c
801008c4:	f44f 4380 	mov.w	r3, #16384	; 0x4000
801008c8:	f2c0 230c 	movt	r3, #524	; 0x20c
801008cc:	695b      	ldr	r3, [r3, #20]
801008ce:	f423 23e0 	bic.w	r3, r3, #458752	; 0x70000
801008d2:	f423 7340 	bic.w	r3, r3, #768	; 0x300
801008d6:	6153      	str	r3, [r2, #20]
801008d8:	f44f 4280 	mov.w	r2, #16384	; 0x4000
801008dc:	f2c0 220c 	movt	r2, #524	; 0x20c
801008e0:	f44f 4380 	mov.w	r3, #16384	; 0x4000
801008e4:	f2c0 230c 	movt	r3, #524	; 0x20c
801008e8:	695b      	ldr	r3, [r3, #20]
801008ea:	f443 3380 	orr.w	r3, r3, #65536	; 0x10000
801008ee:	f443 7380 	orr.w	r3, r3, #256	; 0x100
801008f2:	6153      	str	r3, [r2, #20]
801008f4:	f44f 4280 	mov.w	r2, #16384	; 0x4000
801008f8:	f2c0 220c 	movt	r2, #524	; 0x20c
801008fc:	f44f 4380 	mov.w	r3, #16384	; 0x4000
80100900:	f2c0 230c 	movt	r3, #524	; 0x20c
80100904:	695b      	ldr	r3, [r3, #20]
80100906:	f023 5360 	bic.w	r3, r3, #939524096	; 0x38000000
8010090a:	f023 0387 	bic.w	r3, r3, #135	; 0x87
8010090e:	6153      	str	r3, [r2, #20]
80100910:	f44f 4380 	mov.w	r3, #16384	; 0x4000
80100914:	f2c0 230c 	movt	r3, #524	; 0x20c
80100918:	f44f 4280 	mov.w	r2, #16384	; 0x4000
8010091c:	f2c0 220c 	movt	r2, #524	; 0x20c
80100920:	6952      	ldr	r2, [r2, #20]
80100922:	615a      	str	r2, [r3, #20]
80100924:	bf00      	nop
80100926:	f44f 4380 	mov.w	r3, #16384	; 0x4000
8010092a:	f2c0 230c 	movt	r3, #524	; 0x20c
8010092e:	6c9b      	ldr	r3, [r3, #72]	; 0x48
80100930:	f003 032f 	and.w	r3, r3, #47	; 0x2f
80100934:	2b00      	cmp	r3, #0
80100936:	d1f6      	bne.n	80100926 <boot_clk_init+0x1ba>
80100938:	f44f 4380 	mov.w	r3, #16384	; 0x4000
8010093c:	f2c0 230c 	movt	r3, #524	; 0x20c
80100940:	f44f 4280 	mov.w	r2, #16384	; 0x4000
80100944:	f2c0 220c 	movt	r2, #524	; 0x20c
80100948:	68d2      	ldr	r2, [r2, #12]
8010094a:	f022 0201 	bic.w	r2, r2, #1
8010094e:	60da      	str	r2, [r3, #12]
80100950:	f44f 4380 	mov.w	r3, #16384	; 0x4000
80100954:	f2c0 230c 	movt	r3, #524	; 0x20c
80100958:	f44f 4280 	mov.w	r2, #16384	; 0x4000
8010095c:	f2c0 220c 	movt	r2, #524	; 0x20c
80100960:	6a52      	ldr	r2, [r2, #36]	; 0x24
80100962:	f022 0240 	bic.w	r2, r2, #64	; 0x40
80100966:	625a      	str	r2, [r3, #36]	; 0x24
80100968:	f44f 4380 	mov.w	r3, #16384	; 0x4000
8010096c:	f2c0 230c 	movt	r3, #524	; 0x20c
80100970:	f44f 4280 	mov.w	r2, #16384	; 0x4000
80100974:	f2c0 220c 	movt	r2, #524	; 0x20c
80100978:	6a52      	ldr	r2, [r2, #36]	; 0x24
8010097a:	f022 023f 	bic.w	r2, r2, #63	; 0x3f
8010097e:	625a      	str	r2, [r3, #36]	; 0x24
80100980:	f44f 4380 	mov.w	r3, #16384	; 0x4000
80100984:	f2c0 230c 	movt	r3, #524	; 0x20c
80100988:	f44f 4280 	mov.w	r2, #16384	; 0x4000
8010098c:	f2c0 220c 	movt	r2, #524	; 0x20c
80100990:	69d2      	ldr	r2, [r2, #28]
80100992:	f022 0240 	bic.w	r2, r2, #64	; 0x40
80100996:	61da      	str	r2, [r3, #28]
80100998:	f44f 4380 	mov.w	r3, #16384	; 0x4000
8010099c:	f2c0 230c 	movt	r3, #524	; 0x20c
801009a0:	f44f 4280 	mov.w	r2, #16384	; 0x4000
801009a4:	f2c0 220c 	movt	r2, #524	; 0x20c
801009a8:	69d2      	ldr	r2, [r2, #28]
801009aa:	f022 023f 	bic.w	r2, r2, #63	; 0x3f
801009ae:	61da      	str	r2, [r3, #28]
801009b0:	bf00      	nop
801009b2:	46bd      	mov	sp, r7
801009b4:	f85d 7b04 	ldr.w	r7, [sp], #4
801009b8:	4770      	bx	lr

801009ba <main>:
801009ba:	b580      	push	{r7, lr}
801009bc:	b082      	sub	sp, #8
801009be:	af00      	add	r7, sp, #0
801009c0:	f7ff fb6e 	bl	801000a0 <init_pins>
801009c4:	f000 f9b6 	bl	80100d34 <led_gpio_init>
801009c8:	2000      	movs	r0, #0
801009ca:	f000 f9c6 	bl	80100d5a <led_ctl>
801009ce:	f7ff fe94 	bl	801006fa <boot_clk_gate_init>
801009d2:	f7ff fecb 	bl	8010076c <boot_clk_init>
801009d6:	f000 fb4e 	bl	80101076 <uart1_init>
801009da:	2061      	movs	r0, #97	; 0x61
801009dc:	f000 fbea 	bl	801011b4 <putchar>
801009e0:	2062      	movs	r0, #98	; 0x62
801009e2:	f000 fbe7 	bl	801011b4 <putchar>
801009e6:	2063      	movs	r0, #99	; 0x63
801009e8:	f000 fbe4 	bl	801011b4 <putchar>
801009ec:	f643 6034 	movw	r0, #15924	; 0x3e34
801009f0:	f2c8 0010 	movt	r0, #32784	; 0x8010
801009f4:	f000 fc0e 	bl	80101214 <puts>
801009f8:	f44f 4380 	mov.w	r3, #16384	; 0x4000
801009fc:	f2c0 230c 	movt	r3, #524	; 0x20c
80100a00:	6a5b      	ldr	r3, [r3, #36]	; 0x24
80100a02:	4619      	mov	r1, r3
80100a04:	f643 6044 	movw	r0, #15940	; 0x3e44
80100a08:	f2c8 0010 	movt	r0, #32784	; 0x8010
80100a0c:	f000 fd8f 	bl	8010152e <printf>
80100a10:	f643 605c 	movw	r0, #15964	; 0x3e5c
80100a14:	f2c8 0010 	movt	r0, #32784	; 0x8010
80100a18:	f000 fd89 	bl	8010152e <printf>
80100a1c:	f643 6068 	movw	r0, #15976	; 0x3e68
80100a20:	f2c8 0010 	movt	r0, #32784	; 0x8010
80100a24:	f000 fd83 	bl	8010152e <printf>
80100a28:	f643 6078 	movw	r0, #15992	; 0x3e78
80100a2c:	f2c8 0010 	movt	r0, #32784	; 0x8010
80100a30:	f000 fd7d 	bl	8010152e <printf>
80100a34:	f000 fbd8 	bl	801011e8 <getchar>
80100a38:	4603      	mov	r3, r0
80100a3a:	70fb      	strb	r3, [r7, #3]
80100a3c:	78fb      	ldrb	r3, [r7, #3]
80100a3e:	2b31      	cmp	r3, #49	; 0x31
80100a40:	f040 80b7 	bne.w	80100bb2 <main+0x1f8>
80100a44:	f643 6094 	movw	r0, #16020	; 0x3e94
80100a48:	f2c8 0010 	movt	r0, #32784	; 0x8010
80100a4c:	f000 fd6f 	bl	8010152e <printf>
80100a50:	f000 fbca 	bl	801011e8 <getchar>
80100a54:	4603      	mov	r3, r0
80100a56:	70fb      	strb	r3, [r7, #3]
80100a58:	78fb      	ldrb	r3, [r7, #3]
80100a5a:	2b63      	cmp	r3, #99	; 0x63
80100a5c:	f040 80a2 	bne.w	80100ba4 <main+0x1ea>
80100a60:	f643 60c8 	movw	r0, #16072	; 0x3ec8
80100a64:	f2c8 0010 	movt	r0, #32784	; 0x8010
80100a68:	f000 fd61 	bl	8010152e <printf>
80100a6c:	2000      	movs	r0, #0
80100a6e:	f2c0 2019 	movt	r0, #537	; 0x219
80100a72:	f001 fe09 	bl	80102688 <sd_init>
80100a76:	f44f 5280 	mov.w	r2, #4096	; 0x1000
80100a7a:	2100      	movs	r1, #0
80100a7c:	f646 4000 	movw	r0, #27648	; 0x6c00
80100a80:	f2c8 0010 	movt	r0, #32784	; 0x8010
80100a84:	f000 fe23 	bl	801016ce <memset>
80100a88:	2302      	movs	r3, #2
80100a8a:	2202      	movs	r2, #2
80100a8c:	f646 4100 	movw	r1, #27648	; 0x6c00
80100a90:	f2c8 0110 	movt	r1, #32784	; 0x8010
80100a94:	2000      	movs	r0, #0
80100a96:	f2c0 2019 	movt	r0, #537	; 0x219
80100a9a:	f002 f8c6 	bl	80102c2a <sd_read_blocks>
80100a9e:	f643 60d8 	movw	r0, #16088	; 0x3ed8
80100aa2:	f2c8 0010 	movt	r0, #32784	; 0x8010
80100aa6:	f000 fd42 	bl	8010152e <printf>
80100aaa:	2300      	movs	r3, #0
80100aac:	607b      	str	r3, [r7, #4]
80100aae:	e01c      	b.n	80100aea <main+0x130>
80100ab0:	f646 4300 	movw	r3, #27648	; 0x6c00
80100ab4:	f2c8 0310 	movt	r3, #32784	; 0x8010
80100ab8:	687a      	ldr	r2, [r7, #4]
80100aba:	4413      	add	r3, r2
80100abc:	781b      	ldrb	r3, [r3, #0]
80100abe:	4619      	mov	r1, r3
80100ac0:	f643 60fc 	movw	r0, #16124	; 0x3efc
80100ac4:	f2c8 0010 	movt	r0, #32784	; 0x8010
80100ac8:	f000 fd31 	bl	8010152e <printf>
80100acc:	687b      	ldr	r3, [r7, #4]
80100ace:	3301      	adds	r3, #1
80100ad0:	f003 030f 	and.w	r3, r3, #15
80100ad4:	2b00      	cmp	r3, #0
80100ad6:	d105      	bne.n	80100ae4 <main+0x12a>
80100ad8:	f643 7004 	movw	r0, #16132	; 0x3f04
80100adc:	f2c8 0010 	movt	r0, #32784	; 0x8010
80100ae0:	f000 fd25 	bl	8010152e <printf>
80100ae4:	687b      	ldr	r3, [r7, #4]
80100ae6:	3301      	adds	r3, #1
80100ae8:	607b      	str	r3, [r7, #4]
80100aea:	687b      	ldr	r3, [r7, #4]
80100aec:	f5b3 6f80 	cmp.w	r3, #1024	; 0x400
80100af0:	dbde      	blt.n	80100ab0 <main+0xf6>
80100af2:	f643 7008 	movw	r0, #16136	; 0x3f08
80100af6:	f2c8 0010 	movt	r0, #32784	; 0x8010
80100afa:	f000 fd18 	bl	8010152e <printf>
80100afe:	498c      	ldr	r1, [pc, #560]	; (80100d30 <main+0x376>)
80100b00:	230e      	movs	r3, #14
80100b02:	2202      	movs	r2, #2
80100b04:	2000      	movs	r0, #0
80100b06:	f2c0 2019 	movt	r0, #537	; 0x219
80100b0a:	f002 f92d 	bl	80102d68 <sd_write_blocks>
80100b0e:	f643 7020 	movw	r0, #16160	; 0x3f20
80100b12:	f2c8 0010 	movt	r0, #32784	; 0x8010
80100b16:	f000 fd0a 	bl	8010152e <printf>
80100b1a:	f44f 5280 	mov.w	r2, #4096	; 0x1000
80100b1e:	2100      	movs	r1, #0
80100b20:	f646 4000 	movw	r0, #27648	; 0x6c00
80100b24:	f2c8 0010 	movt	r0, #32784	; 0x8010
80100b28:	f000 fdd1 	bl	801016ce <memset>
80100b2c:	2302      	movs	r3, #2
80100b2e:	2202      	movs	r2, #2
80100b30:	f646 4100 	movw	r1, #27648	; 0x6c00
80100b34:	f2c8 0110 	movt	r1, #32784	; 0x8010
80100b38:	2000      	movs	r0, #0
80100b3a:	f2c0 2019 	movt	r0, #537	; 0x219
80100b3e:	f002 f874 	bl	80102c2a <sd_read_blocks>
80100b42:	f643 706c 	movw	r0, #16236	; 0x3f6c
80100b46:	f2c8 0010 	movt	r0, #32784	; 0x8010
80100b4a:	f000 fcf0 	bl	8010152e <printf>
80100b4e:	2300      	movs	r3, #0
80100b50:	607b      	str	r3, [r7, #4]
80100b52:	e01c      	b.n	80100b8e <main+0x1d4>
80100b54:	f646 4300 	movw	r3, #27648	; 0x6c00
80100b58:	f2c8 0310 	movt	r3, #32784	; 0x8010
80100b5c:	687a      	ldr	r2, [r7, #4]
80100b5e:	4413      	add	r3, r2
80100b60:	781b      	ldrb	r3, [r3, #0]
80100b62:	4619      	mov	r1, r3
80100b64:	f643 60fc 	movw	r0, #16124	; 0x3efc
80100b68:	f2c8 0010 	movt	r0, #32784	; 0x8010
80100b6c:	f000 fcdf 	bl	8010152e <printf>
80100b70:	687b      	ldr	r3, [r7, #4]
80100b72:	3301      	adds	r3, #1
80100b74:	f003 030f 	and.w	r3, r3, #15
80100b78:	2b00      	cmp	r3, #0
80100b7a:	d105      	bne.n	80100b88 <main+0x1ce>
80100b7c:	f643 7004 	movw	r0, #16132	; 0x3f04
80100b80:	f2c8 0010 	movt	r0, #32784	; 0x8010
80100b84:	f000 fcd3 	bl	8010152e <printf>
80100b88:	687b      	ldr	r3, [r7, #4]
80100b8a:	3301      	adds	r3, #1
80100b8c:	607b      	str	r3, [r7, #4]
80100b8e:	687b      	ldr	r3, [r7, #4]
80100b90:	f5b3 6f80 	cmp.w	r3, #1024	; 0x400
80100b94:	dbde      	blt.n	80100b54 <main+0x19a>
80100b96:	f643 7020 	movw	r0, #16160	; 0x3f20
80100b9a:	f2c8 0010 	movt	r0, #32784	; 0x8010
80100b9e:	f000 fcc6 	bl	8010152e <printf>
80100ba2:	e0b0      	b.n	80100d06 <main+0x34c>
80100ba4:	f643 70a8 	movw	r0, #16296	; 0x3fa8
80100ba8:	f2c8 0010 	movt	r0, #32784	; 0x8010
80100bac:	f000 fcbf 	bl	8010152e <printf>
80100bb0:	e0a9      	b.n	80100d06 <main+0x34c>
80100bb2:	78fb      	ldrb	r3, [r7, #3]
80100bb4:	2b32      	cmp	r3, #50	; 0x32
80100bb6:	f040 80a0 	bne.w	80100cfa <main+0x340>
80100bba:	f44f 4080 	mov.w	r0, #16384	; 0x4000
80100bbe:	f2c0 2019 	movt	r0, #537	; 0x219
80100bc2:	f002 fda8 	bl	80103716 <mmc_init>
80100bc6:	f44f 4080 	mov.w	r0, #16384	; 0x4000
80100bca:	f2c0 2019 	movt	r0, #537	; 0x219
80100bce:	f002 fd86 	bl	801036de <MMC_SelectBoot1Partition>
80100bd2:	f44f 5280 	mov.w	r2, #4096	; 0x1000
80100bd6:	2100      	movs	r1, #0
80100bd8:	f646 4000 	movw	r0, #27648	; 0x6c00
80100bdc:	f2c8 0010 	movt	r0, #32784	; 0x8010
80100be0:	f000 fd75 	bl	801016ce <memset>
80100be4:	2302      	movs	r3, #2
80100be6:	2202      	movs	r2, #2
80100be8:	f646 4100 	movw	r1, #27648	; 0x6c00
80100bec:	f2c8 0110 	movt	r1, #32784	; 0x8010
80100bf0:	f44f 4080 	mov.w	r0, #16384	; 0x4000
80100bf4:	f2c0 2019 	movt	r0, #537	; 0x219
80100bf8:	f002 f817 	bl	80102c2a <sd_read_blocks>
80100bfc:	f643 70c4 	movw	r0, #16324	; 0x3fc4
80100c00:	f2c8 0010 	movt	r0, #32784	; 0x8010
80100c04:	f000 fc93 	bl	8010152e <printf>
80100c08:	2300      	movs	r3, #0
80100c0a:	607b      	str	r3, [r7, #4]
80100c0c:	e01c      	b.n	80100c48 <main+0x28e>
80100c0e:	f646 4300 	movw	r3, #27648	; 0x6c00
80100c12:	f2c8 0310 	movt	r3, #32784	; 0x8010
80100c16:	687a      	ldr	r2, [r7, #4]
80100c18:	4413      	add	r3, r2
80100c1a:	781b      	ldrb	r3, [r3, #0]
80100c1c:	4619      	mov	r1, r3
80100c1e:	f643 60fc 	movw	r0, #16124	; 0x3efc
80100c22:	f2c8 0010 	movt	r0, #32784	; 0x8010
80100c26:	f000 fc82 	bl	8010152e <printf>
80100c2a:	687b      	ldr	r3, [r7, #4]
80100c2c:	3301      	adds	r3, #1
80100c2e:	f003 030f 	and.w	r3, r3, #15
80100c32:	2b00      	cmp	r3, #0
80100c34:	d105      	bne.n	80100c42 <main+0x288>
80100c36:	f643 7004 	movw	r0, #16132	; 0x3f04
80100c3a:	f2c8 0010 	movt	r0, #32784	; 0x8010
80100c3e:	f000 fc76 	bl	8010152e <printf>
80100c42:	687b      	ldr	r3, [r7, #4]
80100c44:	3301      	adds	r3, #1
80100c46:	607b      	str	r3, [r7, #4]
80100c48:	687b      	ldr	r3, [r7, #4]
80100c4a:	f5b3 6f80 	cmp.w	r3, #1024	; 0x400
80100c4e:	dbde      	blt.n	80100c0e <main+0x254>
80100c50:	4937      	ldr	r1, [pc, #220]	; (80100d30 <main+0x376>)
80100c52:	230e      	movs	r3, #14
80100c54:	2202      	movs	r2, #2
80100c56:	f44f 4080 	mov.w	r0, #16384	; 0x4000
80100c5a:	f2c0 2019 	movt	r0, #537	; 0x219
80100c5e:	f002 f883 	bl	80102d68 <sd_write_blocks>
80100c62:	f643 70fc 	movw	r0, #16380	; 0x3ffc
80100c66:	f2c8 0010 	movt	r0, #32784	; 0x8010
80100c6a:	f000 fc60 	bl	8010152e <printf>
80100c6e:	f244 0048 	movw	r0, #16456	; 0x4048
80100c72:	f2c8 0010 	movt	r0, #32784	; 0x8010
80100c76:	f000 fc5a 	bl	8010152e <printf>
80100c7a:	f44f 5280 	mov.w	r2, #4096	; 0x1000
80100c7e:	2100      	movs	r1, #0
80100c80:	f646 4000 	movw	r0, #27648	; 0x6c00
80100c84:	f2c8 0010 	movt	r0, #32784	; 0x8010
80100c88:	f000 fd21 	bl	801016ce <memset>
80100c8c:	2302      	movs	r3, #2
80100c8e:	2202      	movs	r2, #2
80100c90:	f646 4100 	movw	r1, #27648	; 0x6c00
80100c94:	f2c8 0110 	movt	r1, #32784	; 0x8010
80100c98:	f44f 4080 	mov.w	r0, #16384	; 0x4000
80100c9c:	f2c0 2019 	movt	r0, #537	; 0x219
80100ca0:	f001 ffc3 	bl	80102c2a <sd_read_blocks>
80100ca4:	f44f 4080 	mov.w	r0, #16384	; 0x4000
80100ca8:	f2c0 2019 	movt	r0, #537	; 0x219
80100cac:	f002 fd25 	bl	801036fa <MMC_ExitBoot1Partition>
80100cb0:	2300      	movs	r3, #0
80100cb2:	607b      	str	r3, [r7, #4]
80100cb4:	e01c      	b.n	80100cf0 <main+0x336>
80100cb6:	f646 4300 	movw	r3, #27648	; 0x6c00
80100cba:	f2c8 0310 	movt	r3, #32784	; 0x8010
80100cbe:	687a      	ldr	r2, [r7, #4]
80100cc0:	4413      	add	r3, r2
80100cc2:	781b      	ldrb	r3, [r3, #0]
80100cc4:	4619      	mov	r1, r3
80100cc6:	f643 60fc 	movw	r0, #16124	; 0x3efc
80100cca:	f2c8 0010 	movt	r0, #32784	; 0x8010
80100cce:	f000 fc2e 	bl	8010152e <printf>
80100cd2:	687b      	ldr	r3, [r7, #4]
80100cd4:	3301      	adds	r3, #1
80100cd6:	f003 030f 	and.w	r3, r3, #15
80100cda:	2b00      	cmp	r3, #0
80100cdc:	d105      	bne.n	80100cea <main+0x330>
80100cde:	f643 7004 	movw	r0, #16132	; 0x3f04
80100ce2:	f2c8 0010 	movt	r0, #32784	; 0x8010
80100ce6:	f000 fc22 	bl	8010152e <printf>
80100cea:	687b      	ldr	r3, [r7, #4]
80100cec:	3301      	adds	r3, #1
80100cee:	607b      	str	r3, [r7, #4]
80100cf0:	687b      	ldr	r3, [r7, #4]
80100cf2:	f5b3 6f80 	cmp.w	r3, #1024	; 0x400
80100cf6:	dbde      	blt.n	80100cb6 <main+0x2fc>
80100cf8:	e005      	b.n	80100d06 <main+0x34c>
80100cfa:	f643 70a8 	movw	r0, #16296	; 0x3fa8
80100cfe:	f2c8 0010 	movt	r0, #32784	; 0x8010
80100d02:	f000 fc14 	bl	8010152e <printf>
80100d06:	f000 fa6f 	bl	801011e8 <getchar>
80100d0a:	4603      	mov	r3, r0
80100d0c:	70fb      	strb	r3, [r7, #3]
80100d0e:	78fb      	ldrb	r3, [r7, #3]
80100d10:	2b0d      	cmp	r3, #13
80100d12:	d102      	bne.n	80100d1a <main+0x360>
80100d14:	200a      	movs	r0, #10
80100d16:	f000 fa4d 	bl	801011b4 <putchar>
80100d1a:	78fb      	ldrb	r3, [r7, #3]
80100d1c:	2b0a      	cmp	r3, #10
80100d1e:	d102      	bne.n	80100d26 <main+0x36c>
80100d20:	200d      	movs	r0, #13
80100d22:	f000 fa47 	bl	801011b4 <putchar>
80100d26:	78fb      	ldrb	r3, [r7, #3]
80100d28:	4618      	mov	r0, r3
80100d2a:	f000 fa43 	bl	801011b4 <putchar>
80100d2e:	e7ea      	b.n	80100d06 <main+0x34c>
80100d30:	80104c18 	andshi	r4, r0, r8, lsl ip

80100d34 <led_gpio_init>:
80100d34:	b480      	push	{r7}
80100d36:	af00      	add	r7, sp, #0
80100d38:	f44f 4340 	mov.w	r3, #49152	; 0xc000
80100d3c:	f2c0 230a 	movt	r3, #522	; 0x20a
80100d40:	f44f 4240 	mov.w	r2, #49152	; 0xc000
80100d44:	f2c0 220a 	movt	r2, #522	; 0x20a
80100d48:	6852      	ldr	r2, [r2, #4]
80100d4a:	f042 0208 	orr.w	r2, r2, #8
80100d4e:	605a      	str	r2, [r3, #4]
80100d50:	bf00      	nop
80100d52:	46bd      	mov	sp, r7
80100d54:	f85d 7b04 	ldr.w	r7, [sp], #4
80100d58:	4770      	bx	lr

80100d5a <led_ctl>:
80100d5a:	b480      	push	{r7}
80100d5c:	b083      	sub	sp, #12
80100d5e:	af00      	add	r7, sp, #0
80100d60:	6078      	str	r0, [r7, #4]
80100d62:	687b      	ldr	r3, [r7, #4]
80100d64:	2b00      	cmp	r3, #0
80100d66:	d00c      	beq.n	80100d82 <led_ctl+0x28>
80100d68:	f44f 4340 	mov.w	r3, #49152	; 0xc000
80100d6c:	f2c0 230a 	movt	r3, #522	; 0x20a
80100d70:	f44f 4240 	mov.w	r2, #49152	; 0xc000
80100d74:	f2c0 220a 	movt	r2, #522	; 0x20a
80100d78:	6812      	ldr	r2, [r2, #0]
80100d7a:	f022 0208 	bic.w	r2, r2, #8
80100d7e:	601a      	str	r2, [r3, #0]
80100d80:	e00b      	b.n	80100d9a <led_ctl+0x40>
80100d82:	f44f 4340 	mov.w	r3, #49152	; 0xc000
80100d86:	f2c0 230a 	movt	r3, #522	; 0x20a
80100d8a:	f44f 4240 	mov.w	r2, #49152	; 0xc000
80100d8e:	f2c0 220a 	movt	r2, #522	; 0x20a
80100d92:	6812      	ldr	r2, [r2, #0]
80100d94:	f042 0208 	orr.w	r2, r2, #8
80100d98:	601a      	str	r2, [r3, #0]
80100d9a:	bf00      	nop
80100d9c:	370c      	adds	r7, #12
80100d9e:	46bd      	mov	sp, r7
80100da0:	f85d 7b04 	ldr.w	r7, [sp], #4
80100da4:	4770      	bx	lr
	...

80100da8 <UART_SetBaudRate>:
80100da8:	b590      	push	{r4, r7, lr}
80100daa:	b091      	sub	sp, #68	; 0x44
80100dac:	af00      	add	r7, sp, #0
80100dae:	6078      	str	r0, [r7, #4]
80100db0:	6039      	str	r1, [r7, #0]
80100db2:	2300      	movs	r3, #0
80100db4:	63fb      	str	r3, [r7, #60]	; 0x3c
80100db6:	2300      	movs	r3, #0
80100db8:	63bb      	str	r3, [r7, #56]	; 0x38
80100dba:	2300      	movs	r3, #0
80100dbc:	637b      	str	r3, [r7, #52]	; 0x34
80100dbe:	2300      	movs	r3, #0
80100dc0:	633b      	str	r3, [r7, #48]	; 0x30
80100dc2:	2301      	movs	r3, #1
80100dc4:	623b      	str	r3, [r7, #32]
80100dc6:	f04f 0300 	mov.w	r3, #0
80100dca:	f04f 0400 	mov.w	r4, #0
80100dce:	e9c7 3406 	strd	r3, r4, [r7, #24]
80100dd2:	f04f 0300 	mov.w	r3, #0
80100dd6:	f04f 0400 	mov.w	r4, #0
80100dda:	e9c7 340a 	strd	r3, r4, [r7, #40]	; 0x28
80100dde:	2300      	movs	r3, #0
80100de0:	627b      	str	r3, [r7, #36]	; 0x24
80100de2:	683b      	ldr	r3, [r7, #0]
80100de4:	63fb      	str	r3, [r7, #60]	; 0x3c
80100de6:	687b      	ldr	r3, [r7, #4]
80100de8:	011b      	lsls	r3, r3, #4
80100dea:	63bb      	str	r3, [r7, #56]	; 0x38
80100dec:	2301      	movs	r3, #1
80100dee:	637b      	str	r3, [r7, #52]	; 0x34
80100df0:	e00a      	b.n	80100e08 <UART_SetBaudRate+0x60>
80100df2:	6bbb      	ldr	r3, [r7, #56]	; 0x38
80100df4:	637b      	str	r3, [r7, #52]	; 0x34
80100df6:	6bfb      	ldr	r3, [r7, #60]	; 0x3c
80100df8:	6bb9      	ldr	r1, [r7, #56]	; 0x38
80100dfa:	4618      	mov	r0, r3
80100dfc:	f002 ff62 	bl	80103cc4 <__aeabi_uidivmod>
80100e00:	460b      	mov	r3, r1
80100e02:	63bb      	str	r3, [r7, #56]	; 0x38
80100e04:	6b7b      	ldr	r3, [r7, #52]	; 0x34
80100e06:	63fb      	str	r3, [r7, #60]	; 0x3c
80100e08:	6bbb      	ldr	r3, [r7, #56]	; 0x38
80100e0a:	2b00      	cmp	r3, #0
80100e0c:	d1f1      	bne.n	80100df2 <UART_SetBaudRate+0x4a>
80100e0e:	6b79      	ldr	r1, [r7, #52]	; 0x34
80100e10:	6838      	ldr	r0, [r7, #0]
80100e12:	f002 fe29 	bl	80103a68 <__aeabi_uidiv>
80100e16:	4603      	mov	r3, r0
80100e18:	63fb      	str	r3, [r7, #60]	; 0x3c
80100e1a:	687b      	ldr	r3, [r7, #4]
80100e1c:	011b      	lsls	r3, r3, #4
80100e1e:	6b79      	ldr	r1, [r7, #52]	; 0x34
80100e20:	4618      	mov	r0, r3
80100e22:	f002 fe21 	bl	80103a68 <__aeabi_uidiv>
80100e26:	4603      	mov	r3, r0
80100e28:	63bb      	str	r3, [r7, #56]	; 0x38
80100e2a:	6bfa      	ldr	r2, [r7, #60]	; 0x3c
80100e2c:	f64f 73f9 	movw	r3, #65529	; 0xfff9
80100e30:	f2c0 0306 	movt	r3, #6
80100e34:	429a      	cmp	r2, r3
80100e36:	d803      	bhi.n	80100e40 <UART_SetBaudRate+0x98>
80100e38:	6bbb      	ldr	r3, [r7, #56]	; 0x38
80100e3a:	f5b3 3f80 	cmp.w	r3, #65536	; 0x10000
80100e3e:	d334      	bcc.n	80100eaa <UART_SetBaudRate+0x102>
80100e40:	6bfb      	ldr	r3, [r7, #60]	; 0x3c
80100e42:	1e5a      	subs	r2, r3, #1
80100e44:	f646 53b9 	movw	r3, #28089	; 0x6db9
80100e48:	f2c2 4393 	movt	r3, #9363	; 0x2493
80100e4c:	fba2 3403 	umull	r3, r4, r2, r3
80100e50:	1b12      	subs	r2, r2, r4
80100e52:	0852      	lsrs	r2, r2, #1
80100e54:	1913      	adds	r3, r2, r4
80100e56:	0c9b      	lsrs	r3, r3, #18
80100e58:	3301      	adds	r3, #1
80100e5a:	617b      	str	r3, [r7, #20]
80100e5c:	6bbb      	ldr	r3, [r7, #56]	; 0x38
80100e5e:	1e5a      	subs	r2, r3, #1
80100e60:	f248 0301 	movw	r3, #32769	; 0x8001
80100e64:	f2c8 0300 	movt	r3, #32768	; 0x8000
80100e68:	fba2 3403 	umull	r3, r4, r2, r3
80100e6c:	0be3      	lsrs	r3, r4, #15
80100e6e:	3301      	adds	r3, #1
80100e70:	613b      	str	r3, [r7, #16]
80100e72:	693a      	ldr	r2, [r7, #16]
80100e74:	697b      	ldr	r3, [r7, #20]
80100e76:	4293      	cmp	r3, r2
80100e78:	bf38      	it	cc
80100e7a:	4613      	movcc	r3, r2
80100e7c:	60fb      	str	r3, [r7, #12]
80100e7e:	68f9      	ldr	r1, [r7, #12]
80100e80:	6bf8      	ldr	r0, [r7, #60]	; 0x3c
80100e82:	f002 fdf1 	bl	80103a68 <__aeabi_uidiv>
80100e86:	4603      	mov	r3, r0
80100e88:	63fb      	str	r3, [r7, #60]	; 0x3c
80100e8a:	68f9      	ldr	r1, [r7, #12]
80100e8c:	6bb8      	ldr	r0, [r7, #56]	; 0x38
80100e8e:	f002 fdeb 	bl	80103a68 <__aeabi_uidiv>
80100e92:	4603      	mov	r3, r0
80100e94:	63bb      	str	r3, [r7, #56]	; 0x38
80100e96:	6bfb      	ldr	r3, [r7, #60]	; 0x3c
80100e98:	2b00      	cmp	r3, #0
80100e9a:	d101      	bne.n	80100ea0 <UART_SetBaudRate+0xf8>
80100e9c:	2301      	movs	r3, #1
80100e9e:	63fb      	str	r3, [r7, #60]	; 0x3c
80100ea0:	6bbb      	ldr	r3, [r7, #56]	; 0x38
80100ea2:	2b00      	cmp	r3, #0
80100ea4:	d101      	bne.n	80100eaa <UART_SetBaudRate+0x102>
80100ea6:	2301      	movs	r3, #1
80100ea8:	63bb      	str	r3, [r7, #56]	; 0x38
80100eaa:	6bfb      	ldr	r3, [r7, #60]	; 0x3c
80100eac:	1e5a      	subs	r2, r3, #1
80100eae:	f248 0301 	movw	r3, #32769	; 0x8001
80100eb2:	f2c8 0300 	movt	r3, #32768	; 0x8000
80100eb6:	fba2 3403 	umull	r3, r4, r2, r3
80100eba:	0be3      	lsrs	r3, r4, #15
80100ebc:	3301      	adds	r3, #1
80100ebe:	623b      	str	r3, [r7, #32]
80100ec0:	6a3b      	ldr	r3, [r7, #32]
80100ec2:	3b01      	subs	r3, #1
80100ec4:	2b06      	cmp	r3, #6
80100ec6:	d826      	bhi.n	80100f16 <UART_SetBaudRate+0x16e>
80100ec8:	a201      	add	r2, pc, #4	; (adr r2, 80100ed0 <UART_SetBaudRate+0x128>)
80100eca:	f852 f023 	ldr.w	pc, [r2, r3, lsl #2]
80100ece:	bf00      	nop
80100ed0:	80100eed 	andshi	r0, r0, sp, ror #29
80100ed4:	80100ef3 			; <UNDEFINED> instruction: 0x80100ef3
80100ed8:	80100ef9 			; <UNDEFINED> instruction: 0x80100ef9
80100edc:	80100eff 			; <UNDEFINED> instruction: 0x80100eff
80100ee0:	80100f05 	andshi	r0, r0, r5, lsl #30
80100ee4:	80100f0b 	andshi	r0, r0, fp, lsl #30
80100ee8:	80100f11 	andshi	r0, r0, r1, lsl pc
80100eec:	2305      	movs	r3, #5
80100eee:	633b      	str	r3, [r7, #48]	; 0x30
80100ef0:	e014      	b.n	80100f1c <UART_SetBaudRate+0x174>
80100ef2:	2304      	movs	r3, #4
80100ef4:	633b      	str	r3, [r7, #48]	; 0x30
80100ef6:	e011      	b.n	80100f1c <UART_SetBaudRate+0x174>
80100ef8:	2303      	movs	r3, #3
80100efa:	633b      	str	r3, [r7, #48]	; 0x30
80100efc:	e00e      	b.n	80100f1c <UART_SetBaudRate+0x174>
80100efe:	2302      	movs	r3, #2
80100f00:	633b      	str	r3, [r7, #48]	; 0x30
80100f02:	e00b      	b.n	80100f1c <UART_SetBaudRate+0x174>
80100f04:	2301      	movs	r3, #1
80100f06:	633b      	str	r3, [r7, #48]	; 0x30
80100f08:	e008      	b.n	80100f1c <UART_SetBaudRate+0x174>
80100f0a:	2300      	movs	r3, #0
80100f0c:	633b      	str	r3, [r7, #48]	; 0x30
80100f0e:	e005      	b.n	80100f1c <UART_SetBaudRate+0x174>
80100f10:	2306      	movs	r3, #6
80100f12:	633b      	str	r3, [r7, #48]	; 0x30
80100f14:	e002      	b.n	80100f1c <UART_SetBaudRate+0x174>
80100f16:	2305      	movs	r3, #5
80100f18:	633b      	str	r3, [r7, #48]	; 0x30
80100f1a:	bf00      	nop
80100f1c:	683b      	ldr	r3, [r7, #0]
80100f1e:	f04f 0400 	mov.w	r4, #0
80100f22:	e9c7 340a 	strd	r3, r4, [r7, #40]	; 0x28
80100f26:	6bfb      	ldr	r3, [r7, #60]	; 0x3c
80100f28:	011b      	lsls	r3, r3, #4
80100f2a:	627b      	str	r3, [r7, #36]	; 0x24
80100f2c:	2301      	movs	r3, #1
80100f2e:	637b      	str	r3, [r7, #52]	; 0x34
80100f30:	e012      	b.n	80100f58 <UART_SetBaudRate+0x1b0>
80100f32:	6a7b      	ldr	r3, [r7, #36]	; 0x24
80100f34:	637b      	str	r3, [r7, #52]	; 0x34
80100f36:	6a7b      	ldr	r3, [r7, #36]	; 0x24
80100f38:	f04f 0400 	mov.w	r4, #0
80100f3c:	e9d7 010a 	ldrd	r0, r1, [r7, #40]	; 0x28
80100f40:	461a      	mov	r2, r3
80100f42:	4623      	mov	r3, r4
80100f44:	f002 fecc 	bl	80103ce0 <__aeabi_uldivmod>
80100f48:	461c      	mov	r4, r3
80100f4a:	4613      	mov	r3, r2
80100f4c:	627b      	str	r3, [r7, #36]	; 0x24
80100f4e:	6b7b      	ldr	r3, [r7, #52]	; 0x34
80100f50:	f04f 0400 	mov.w	r4, #0
80100f54:	e9c7 340a 	strd	r3, r4, [r7, #40]	; 0x28
80100f58:	6a7b      	ldr	r3, [r7, #36]	; 0x24
80100f5a:	2b00      	cmp	r3, #0
80100f5c:	d1e9      	bne.n	80100f32 <UART_SetBaudRate+0x18a>
80100f5e:	6b79      	ldr	r1, [r7, #52]	; 0x34
80100f60:	6838      	ldr	r0, [r7, #0]
80100f62:	f002 fd81 	bl	80103a68 <__aeabi_uidiv>
80100f66:	4603      	mov	r3, r0
80100f68:	f04f 0400 	mov.w	r4, #0
80100f6c:	e9c7 340a 	strd	r3, r4, [r7, #40]	; 0x28
80100f70:	6bfb      	ldr	r3, [r7, #60]	; 0x3c
80100f72:	011b      	lsls	r3, r3, #4
80100f74:	6b79      	ldr	r1, [r7, #52]	; 0x34
80100f76:	4618      	mov	r0, r3
80100f78:	f002 fd76 	bl	80103a68 <__aeabi_uidiv>
80100f7c:	4603      	mov	r3, r0
80100f7e:	627b      	str	r3, [r7, #36]	; 0x24
80100f80:	6bbb      	ldr	r3, [r7, #56]	; 0x38
80100f82:	f04f 0400 	mov.w	r4, #0
80100f86:	6aba      	ldr	r2, [r7, #40]	; 0x28
80100f88:	fb04 f102 	mul.w	r1, r4, r2
80100f8c:	6afa      	ldr	r2, [r7, #44]	; 0x2c
80100f8e:	fb03 f202 	mul.w	r2, r3, r2
80100f92:	440a      	add	r2, r1
80100f94:	6ab9      	ldr	r1, [r7, #40]	; 0x28
80100f96:	fba1 0103 	umull	r0, r1, r1, r3
80100f9a:	1853      	adds	r3, r2, r1
80100f9c:	4619      	mov	r1, r3
80100f9e:	6a7b      	ldr	r3, [r7, #36]	; 0x24
80100fa0:	f04f 0400 	mov.w	r4, #0
80100fa4:	461a      	mov	r2, r3
80100fa6:	4623      	mov	r3, r4
80100fa8:	f002 fe9a 	bl	80103ce0 <__aeabi_uldivmod>
80100fac:	4603      	mov	r3, r0
80100fae:	460c      	mov	r4, r1
80100fb0:	e9c7 3406 	strd	r3, r4, [r7, #24]
80100fb4:	687b      	ldr	r3, [r7, #4]
80100fb6:	f04f 0400 	mov.w	r4, #0
80100fba:	e9d7 1206 	ldrd	r1, r2, [r7, #24]
80100fbe:	42a2      	cmp	r2, r4
80100fc0:	bf08      	it	eq
80100fc2:	4299      	cmpeq	r1, r3
80100fc4:	d308      	bcc.n	80100fd8 <UART_SetBaudRate+0x230>
80100fc6:	687b      	ldr	r3, [r7, #4]
80100fc8:	f04f 0400 	mov.w	r4, #0
80100fcc:	e9d7 1206 	ldrd	r1, r2, [r7, #24]
80100fd0:	1acb      	subs	r3, r1, r3
80100fd2:	eb62 0404 	sbc.w	r4, r2, r4
80100fd6:	e008      	b.n	80100fea <UART_SetBaudRate+0x242>
80100fd8:	687b      	ldr	r3, [r7, #4]
80100fda:	4619      	mov	r1, r3
80100fdc:	f04f 0200 	mov.w	r2, #0
80100fe0:	e9d7 3406 	ldrd	r3, r4, [r7, #24]
80100fe4:	1acb      	subs	r3, r1, r3
80100fe6:	eb62 0404 	sbc.w	r4, r2, r4
80100fea:	e9c7 3406 	strd	r3, r4, [r7, #24]
80100fee:	2300      	movs	r3, #0
80100ff0:	f2c0 2302 	movt	r3, #514	; 0x202
80100ff4:	2200      	movs	r2, #0
80100ff6:	f2c0 2202 	movt	r2, #514	; 0x202
80100ffa:	f8d2 2090 	ldr.w	r2, [r2, #144]	; 0x90
80100ffe:	f422 7260 	bic.w	r2, r2, #896	; 0x380
80101002:	f8c3 2090 	str.w	r2, [r3, #144]	; 0x90
80101006:	2300      	movs	r3, #0
80101008:	f2c0 2302 	movt	r3, #514	; 0x202
8010100c:	2200      	movs	r2, #0
8010100e:	f2c0 2202 	movt	r2, #514	; 0x202
80101012:	f8d2 1090 	ldr.w	r1, [r2, #144]	; 0x90
80101016:	6b3a      	ldr	r2, [r7, #48]	; 0x30
80101018:	01d2      	lsls	r2, r2, #7
8010101a:	f402 7260 	and.w	r2, r2, #896	; 0x380
8010101e:	430a      	orrs	r2, r1
80101020:	f8c3 2090 	str.w	r2, [r3, #144]	; 0x90
80101024:	2300      	movs	r3, #0
80101026:	f2c0 2302 	movt	r3, #514	; 0x202
8010102a:	6bba      	ldr	r2, [r7, #56]	; 0x38
8010102c:	3a01      	subs	r2, #1
8010102e:	b292      	uxth	r2, r2
80101030:	f8c3 20a4 	str.w	r2, [r3, #164]	; 0xa4
80101034:	2400      	movs	r4, #0
80101036:	f2c0 2402 	movt	r4, #514	; 0x202
8010103a:	6a39      	ldr	r1, [r7, #32]
8010103c:	6bf8      	ldr	r0, [r7, #60]	; 0x3c
8010103e:	f002 fd13 	bl	80103a68 <__aeabi_uidiv>
80101042:	4603      	mov	r3, r0
80101044:	3b01      	subs	r3, #1
80101046:	b29b      	uxth	r3, r3
80101048:	f8c4 30a8 	str.w	r3, [r4, #168]	; 0xa8
8010104c:	2400      	movs	r4, #0
8010104e:	f2c0 2402 	movt	r4, #514	; 0x202
80101052:	6a3b      	ldr	r3, [r7, #32]
80101054:	f44f 727a 	mov.w	r2, #1000	; 0x3e8
80101058:	fb02 f303 	mul.w	r3, r2, r3
8010105c:	4619      	mov	r1, r3
8010105e:	6838      	ldr	r0, [r7, #0]
80101060:	f002 fd02 	bl	80103a68 <__aeabi_uidiv>
80101064:	4603      	mov	r3, r0
80101066:	f023 437f 	bic.w	r3, r3, #4278190080	; 0xff000000
8010106a:	f8c4 30b0 	str.w	r3, [r4, #176]	; 0xb0
8010106e:	bf00      	nop
80101070:	3744      	adds	r7, #68	; 0x44
80101072:	46bd      	mov	sp, r7
80101074:	bd90      	pop	{r4, r7, pc}

80101076 <uart1_init>:
80101076:	b580      	push	{r7, lr}
80101078:	af00      	add	r7, sp, #0
8010107a:	2300      	movs	r3, #0
8010107c:	f2c0 2302 	movt	r3, #514	; 0x202
80101080:	2200      	movs	r2, #0
80101082:	f2c0 2202 	movt	r2, #514	; 0x202
80101086:	f8d2 2080 	ldr.w	r2, [r2, #128]	; 0x80
8010108a:	f022 0201 	bic.w	r2, r2, #1
8010108e:	f8c3 2080 	str.w	r2, [r3, #128]	; 0x80
80101092:	2300      	movs	r3, #0
80101094:	f2c0 2302 	movt	r3, #514	; 0x202
80101098:	2200      	movs	r2, #0
8010109a:	f2c0 2202 	movt	r2, #514	; 0x202
8010109e:	f8d2 2084 	ldr.w	r2, [r2, #132]	; 0x84
801010a2:	f022 0201 	bic.w	r2, r2, #1
801010a6:	f8c3 2084 	str.w	r2, [r3, #132]	; 0x84
801010aa:	bf00      	nop
801010ac:	2300      	movs	r3, #0
801010ae:	f2c0 2302 	movt	r3, #514	; 0x202
801010b2:	f8d3 3084 	ldr.w	r3, [r3, #132]	; 0x84
801010b6:	f003 0301 	and.w	r3, r3, #1
801010ba:	2b00      	cmp	r3, #0
801010bc:	d0f6      	beq.n	801010ac <uart1_init+0x36>
801010be:	2300      	movs	r3, #0
801010c0:	f2c0 2302 	movt	r3, #514	; 0x202
801010c4:	2200      	movs	r2, #0
801010c6:	f8c3 2080 	str.w	r2, [r3, #128]	; 0x80
801010ca:	2300      	movs	r3, #0
801010cc:	f2c0 2302 	movt	r3, #514	; 0x202
801010d0:	2201      	movs	r2, #1
801010d2:	f8c3 2084 	str.w	r2, [r3, #132]	; 0x84
801010d6:	2300      	movs	r3, #0
801010d8:	f2c0 2302 	movt	r3, #514	; 0x202
801010dc:	f44f 62e0 	mov.w	r2, #1792	; 0x700
801010e0:	f8c3 2088 	str.w	r2, [r3, #136]	; 0x88
801010e4:	2300      	movs	r3, #0
801010e6:	f2c0 2302 	movt	r3, #514	; 0x202
801010ea:	f44f 4200 	mov.w	r2, #32768	; 0x8000
801010ee:	f8c3 208c 	str.w	r2, [r3, #140]	; 0x8c
801010f2:	2300      	movs	r3, #0
801010f4:	f2c0 2302 	movt	r3, #514	; 0x202
801010f8:	f640 0201 	movw	r2, #2049	; 0x801
801010fc:	f8c3 2090 	str.w	r2, [r3, #144]	; 0x90
80101100:	2300      	movs	r3, #0
80101102:	f2c0 2302 	movt	r3, #514	; 0x202
80101106:	222b      	movs	r2, #43	; 0x2b
80101108:	f8c3 209c 	str.w	r2, [r3, #156]	; 0x9c
8010110c:	2300      	movs	r3, #0
8010110e:	f2c0 2302 	movt	r3, #514	; 0x202
80101112:	2200      	movs	r2, #0
80101114:	f8c3 20a0 	str.w	r2, [r3, #160]	; 0xa0
80101118:	2300      	movs	r3, #0
8010111a:	f2c0 2302 	movt	r3, #514	; 0x202
8010111e:	2200      	movs	r2, #0
80101120:	f8c3 20b0 	str.w	r2, [r3, #176]	; 0xb0
80101124:	2300      	movs	r3, #0
80101126:	f2c0 2302 	movt	r3, #514	; 0x202
8010112a:	2260      	movs	r2, #96	; 0x60
8010112c:	f8c3 20b4 	str.w	r2, [r3, #180]	; 0xb4
80101130:	2300      	movs	r3, #0
80101132:	f2c0 2302 	movt	r3, #514	; 0x202
80101136:	2200      	movs	r2, #0
80101138:	f8c3 20b8 	str.w	r2, [r3, #184]	; 0xb8
8010113c:	2200      	movs	r2, #0
8010113e:	f2c0 2202 	movt	r2, #514	; 0x202
80101142:	2300      	movs	r3, #0
80101144:	f2c0 2302 	movt	r3, #514	; 0x202
80101148:	f8d3 3084 	ldr.w	r3, [r3, #132]	; 0x84
8010114c:	f443 4380 	orr.w	r3, r3, #16384	; 0x4000
80101150:	f043 0366 	orr.w	r3, r3, #102	; 0x66
80101154:	f8c2 3084 	str.w	r3, [r2, #132]	; 0x84
80101158:	2300      	movs	r3, #0
8010115a:	f2c0 2302 	movt	r3, #514	; 0x202
8010115e:	2200      	movs	r2, #0
80101160:	f2c0 2202 	movt	r2, #514	; 0x202
80101164:	f8d2 2088 	ldr.w	r2, [r2, #136]	; 0x88
80101168:	f042 0204 	orr.w	r2, r2, #4
8010116c:	f8c3 2088 	str.w	r2, [r3, #136]	; 0x88
80101170:	2300      	movs	r3, #0
80101172:	f2c0 2302 	movt	r3, #514	; 0x202
80101176:	2200      	movs	r2, #0
80101178:	f2c0 2202 	movt	r2, #514	; 0x202
8010117c:	f8d2 2080 	ldr.w	r2, [r2, #128]	; 0x80
80101180:	f422 4280 	bic.w	r2, r2, #16384	; 0x4000
80101184:	f8c3 2080 	str.w	r2, [r3, #128]	; 0x80
80101188:	f44f 4134 	mov.w	r1, #46080	; 0xb400
8010118c:	f2c0 41c4 	movt	r1, #1220	; 0x4c4
80101190:	f44f 30e1 	mov.w	r0, #115200	; 0x1c200
80101194:	f7ff fe08 	bl	80100da8 <UART_SetBaudRate>
80101198:	2300      	movs	r3, #0
8010119a:	f2c0 2302 	movt	r3, #514	; 0x202
8010119e:	2200      	movs	r2, #0
801011a0:	f2c0 2202 	movt	r2, #514	; 0x202
801011a4:	f8d2 2080 	ldr.w	r2, [r2, #128]	; 0x80
801011a8:	f042 0201 	orr.w	r2, r2, #1
801011ac:	f8c3 2080 	str.w	r2, [r3, #128]	; 0x80
801011b0:	bf00      	nop
801011b2:	bd80      	pop	{r7, pc}

801011b4 <putchar>:
801011b4:	b480      	push	{r7}
801011b6:	b083      	sub	sp, #12
801011b8:	af00      	add	r7, sp, #0
801011ba:	6078      	str	r0, [r7, #4]
801011bc:	bf00      	nop
801011be:	2300      	movs	r3, #0
801011c0:	f2c0 2302 	movt	r3, #514	; 0x202
801011c4:	f8d3 3098 	ldr.w	r3, [r3, #152]	; 0x98
801011c8:	f003 0308 	and.w	r3, r3, #8
801011cc:	2b00      	cmp	r3, #0
801011ce:	d0f6      	beq.n	801011be <putchar+0xa>
801011d0:	2300      	movs	r3, #0
801011d2:	f2c0 2302 	movt	r3, #514	; 0x202
801011d6:	687a      	ldr	r2, [r7, #4]
801011d8:	b2d2      	uxtb	r2, r2
801011da:	641a      	str	r2, [r3, #64]	; 0x40
801011dc:	bf00      	nop
801011de:	370c      	adds	r7, #12
801011e0:	46bd      	mov	sp, r7
801011e2:	f85d 7b04 	ldr.w	r7, [sp], #4
801011e6:	4770      	bx	lr

801011e8 <getchar>:
801011e8:	b480      	push	{r7}
801011ea:	af00      	add	r7, sp, #0
801011ec:	bf00      	nop
801011ee:	2300      	movs	r3, #0
801011f0:	f2c0 2302 	movt	r3, #514	; 0x202
801011f4:	f8d3 3098 	ldr.w	r3, [r3, #152]	; 0x98
801011f8:	f003 0301 	and.w	r3, r3, #1
801011fc:	2b00      	cmp	r3, #0
801011fe:	d0f6      	beq.n	801011ee <getchar+0x6>
80101200:	2300      	movs	r3, #0
80101202:	f2c0 2302 	movt	r3, #514	; 0x202
80101206:	681b      	ldr	r3, [r3, #0]
80101208:	b2db      	uxtb	r3, r3
8010120a:	4618      	mov	r0, r3
8010120c:	46bd      	mov	sp, r7
8010120e:	f85d 7b04 	ldr.w	r7, [sp], #4
80101212:	4770      	bx	lr

80101214 <puts>:
80101214:	b580      	push	{r7, lr}
80101216:	b082      	sub	sp, #8
80101218:	af00      	add	r7, sp, #0
8010121a:	6078      	str	r0, [r7, #4]
8010121c:	e007      	b.n	8010122e <puts+0x1a>
8010121e:	687b      	ldr	r3, [r7, #4]
80101220:	781b      	ldrb	r3, [r3, #0]
80101222:	4618      	mov	r0, r3
80101224:	f7ff ffc6 	bl	801011b4 <putchar>
80101228:	687b      	ldr	r3, [r7, #4]
8010122a:	3301      	adds	r3, #1
8010122c:	607b      	str	r3, [r7, #4]
8010122e:	687b      	ldr	r3, [r7, #4]
80101230:	781b      	ldrb	r3, [r3, #0]
80101232:	2b00      	cmp	r3, #0
80101234:	d1f3      	bne.n	8010121e <puts+0xa>
80101236:	bf00      	nop
80101238:	3708      	adds	r7, #8
8010123a:	46bd      	mov	sp, r7
8010123c:	bd80      	pop	{r7, pc}
8010123e:	bf00      	nop

80101240 <raise>:
80101240:	b480      	push	{r7}
80101242:	b083      	sub	sp, #12
80101244:	af00      	add	r7, sp, #0
80101246:	6078      	str	r0, [r7, #4]
80101248:	2300      	movs	r3, #0
8010124a:	4618      	mov	r0, r3
8010124c:	370c      	adds	r7, #12
8010124e:	46bd      	mov	sp, r7
80101250:	f85d 7b04 	ldr.w	r7, [sp], #4
80101254:	4770      	bx	lr
	...

80101258 <outc>:
80101258:	b580      	push	{r7, lr}
8010125a:	b082      	sub	sp, #8
8010125c:	af00      	add	r7, sp, #0
8010125e:	6078      	str	r0, [r7, #4]
80101260:	6878      	ldr	r0, [r7, #4]
80101262:	f7ff ffa7 	bl	801011b4 <putchar>
80101266:	2300      	movs	r3, #0
80101268:	4618      	mov	r0, r3
8010126a:	3708      	adds	r7, #8
8010126c:	46bd      	mov	sp, r7
8010126e:	bd80      	pop	{r7, pc}

80101270 <outs>:
80101270:	b580      	push	{r7, lr}
80101272:	b082      	sub	sp, #8
80101274:	af00      	add	r7, sp, #0
80101276:	6078      	str	r0, [r7, #4]
80101278:	e006      	b.n	80101288 <outs+0x18>
8010127a:	687b      	ldr	r3, [r7, #4]
8010127c:	1c5a      	adds	r2, r3, #1
8010127e:	607a      	str	r2, [r7, #4]
80101280:	781b      	ldrb	r3, [r3, #0]
80101282:	4618      	mov	r0, r3
80101284:	f7ff ff96 	bl	801011b4 <putchar>
80101288:	687b      	ldr	r3, [r7, #4]
8010128a:	781b      	ldrb	r3, [r3, #0]
8010128c:	2b00      	cmp	r3, #0
8010128e:	d1f4      	bne.n	8010127a <outs+0xa>
80101290:	2300      	movs	r3, #0
80101292:	4618      	mov	r0, r3
80101294:	3708      	adds	r7, #8
80101296:	46bd      	mov	sp, r7
80101298:	bd80      	pop	{r7, pc}

8010129a <out_num>:
8010129a:	b590      	push	{r4, r7, lr}
8010129c:	b099      	sub	sp, #100	; 0x64
8010129e:	af00      	add	r7, sp, #0
801012a0:	e9c7 0102 	strd	r0, r1, [r7, #8]
801012a4:	607a      	str	r2, [r7, #4]
801012a6:	70fb      	strb	r3, [r7, #3]
801012a8:	2300      	movs	r3, #0
801012aa:	65fb      	str	r3, [r7, #92]	; 0x5c
801012ac:	f107 0310 	add.w	r3, r7, #16
801012b0:	3340      	adds	r3, #64	; 0x40
801012b2:	65bb      	str	r3, [r7, #88]	; 0x58
801012b4:	2300      	movs	r3, #0
801012b6:	657b      	str	r3, [r7, #84]	; 0x54
801012b8:	2300      	movs	r3, #0
801012ba:	653b      	str	r3, [r7, #80]	; 0x50
801012bc:	6dbb      	ldr	r3, [r7, #88]	; 0x58
801012be:	3b01      	subs	r3, #1
801012c0:	65bb      	str	r3, [r7, #88]	; 0x58
801012c2:	6dbb      	ldr	r3, [r7, #88]	; 0x58
801012c4:	2200      	movs	r2, #0
801012c6:	701a      	strb	r2, [r3, #0]
801012c8:	e9d7 3402 	ldrd	r3, r4, [r7, #8]
801012cc:	2b00      	cmp	r3, #0
801012ce:	f174 0300 	sbcs.w	r3, r4, #0
801012d2:	da03      	bge.n	801012dc <out_num+0x42>
801012d4:	68bb      	ldr	r3, [r7, #8]
801012d6:	425b      	negs	r3, r3
801012d8:	65fb      	str	r3, [r7, #92]	; 0x5c
801012da:	e001      	b.n	801012e0 <out_num+0x46>
801012dc:	68bb      	ldr	r3, [r7, #8]
801012de:	65fb      	str	r3, [r7, #92]	; 0x5c
801012e0:	6dbb      	ldr	r3, [r7, #88]	; 0x58
801012e2:	3b01      	subs	r3, #1
801012e4:	65bb      	str	r3, [r7, #88]	; 0x58
801012e6:	687a      	ldr	r2, [r7, #4]
801012e8:	6dfb      	ldr	r3, [r7, #92]	; 0x5c
801012ea:	4611      	mov	r1, r2
801012ec:	4618      	mov	r0, r3
801012ee:	f002 fce9 	bl	80103cc4 <__aeabi_uidivmod>
801012f2:	460b      	mov	r3, r1
801012f4:	461a      	mov	r2, r3
801012f6:	f646 0318 	movw	r3, #26648	; 0x6818
801012fa:	f2c8 0310 	movt	r3, #32784	; 0x8010
801012fe:	5c9a      	ldrb	r2, [r3, r2]
80101300:	6dbb      	ldr	r3, [r7, #88]	; 0x58
80101302:	701a      	strb	r2, [r3, #0]
80101304:	6d7b      	ldr	r3, [r7, #84]	; 0x54
80101306:	3301      	adds	r3, #1
80101308:	657b      	str	r3, [r7, #84]	; 0x54
8010130a:	687b      	ldr	r3, [r7, #4]
8010130c:	4619      	mov	r1, r3
8010130e:	6df8      	ldr	r0, [r7, #92]	; 0x5c
80101310:	f002 fbaa 	bl	80103a68 <__aeabi_uidiv>
80101314:	4603      	mov	r3, r0
80101316:	65fb      	str	r3, [r7, #92]	; 0x5c
80101318:	6dfb      	ldr	r3, [r7, #92]	; 0x5c
8010131a:	2b00      	cmp	r3, #0
8010131c:	d1e0      	bne.n	801012e0 <out_num+0x46>
8010131e:	6f3b      	ldr	r3, [r7, #112]	; 0x70
80101320:	2b00      	cmp	r3, #0
80101322:	d014      	beq.n	8010134e <out_num+0xb4>
80101324:	6d7a      	ldr	r2, [r7, #84]	; 0x54
80101326:	6f3b      	ldr	r3, [r7, #112]	; 0x70
80101328:	429a      	cmp	r2, r3
8010132a:	da10      	bge.n	8010134e <out_num+0xb4>
8010132c:	6f3a      	ldr	r2, [r7, #112]	; 0x70
8010132e:	6d7b      	ldr	r3, [r7, #84]	; 0x54
80101330:	1ad3      	subs	r3, r2, r3
80101332:	653b      	str	r3, [r7, #80]	; 0x50
80101334:	e008      	b.n	80101348 <out_num+0xae>
80101336:	6dbb      	ldr	r3, [r7, #88]	; 0x58
80101338:	3b01      	subs	r3, #1
8010133a:	65bb      	str	r3, [r7, #88]	; 0x58
8010133c:	6dbb      	ldr	r3, [r7, #88]	; 0x58
8010133e:	78fa      	ldrb	r2, [r7, #3]
80101340:	701a      	strb	r2, [r3, #0]
80101342:	6d3b      	ldr	r3, [r7, #80]	; 0x50
80101344:	3b01      	subs	r3, #1
80101346:	653b      	str	r3, [r7, #80]	; 0x50
80101348:	6d3b      	ldr	r3, [r7, #80]	; 0x50
8010134a:	2b00      	cmp	r3, #0
8010134c:	d1f3      	bne.n	80101336 <out_num+0x9c>
8010134e:	e9d7 3402 	ldrd	r3, r4, [r7, #8]
80101352:	2b00      	cmp	r3, #0
80101354:	f174 0300 	sbcs.w	r3, r4, #0
80101358:	da05      	bge.n	80101366 <out_num+0xcc>
8010135a:	6dbb      	ldr	r3, [r7, #88]	; 0x58
8010135c:	3b01      	subs	r3, #1
8010135e:	65bb      	str	r3, [r7, #88]	; 0x58
80101360:	6dbb      	ldr	r3, [r7, #88]	; 0x58
80101362:	222d      	movs	r2, #45	; 0x2d
80101364:	701a      	strb	r2, [r3, #0]
80101366:	6db8      	ldr	r0, [r7, #88]	; 0x58
80101368:	f7ff ff82 	bl	80101270 <outs>
8010136c:	4603      	mov	r3, r0
8010136e:	4618      	mov	r0, r3
80101370:	3764      	adds	r7, #100	; 0x64
80101372:	46bd      	mov	sp, r7
80101374:	bd90      	pop	{r4, r7, pc}

80101376 <my_vprintf>:
80101376:	b580      	push	{r7, lr}
80101378:	b086      	sub	sp, #24
8010137a:	af02      	add	r7, sp, #8
8010137c:	6078      	str	r0, [r7, #4]
8010137e:	6039      	str	r1, [r7, #0]
80101380:	2320      	movs	r3, #32
80101382:	72fb      	strb	r3, [r7, #11]
80101384:	2300      	movs	r3, #0
80101386:	60fb      	str	r3, [r7, #12]
80101388:	e0c7      	b.n	8010151a <my_vprintf+0x1a4>
8010138a:	687b      	ldr	r3, [r7, #4]
8010138c:	781b      	ldrb	r3, [r3, #0]
8010138e:	2b25      	cmp	r3, #37	; 0x25
80101390:	d005      	beq.n	8010139e <my_vprintf+0x28>
80101392:	687b      	ldr	r3, [r7, #4]
80101394:	781b      	ldrb	r3, [r3, #0]
80101396:	4618      	mov	r0, r3
80101398:	f7ff ff5e 	bl	80101258 <outc>
8010139c:	e0ba      	b.n	80101514 <my_vprintf+0x19e>
8010139e:	687b      	ldr	r3, [r7, #4]
801013a0:	3301      	adds	r3, #1
801013a2:	607b      	str	r3, [r7, #4]
801013a4:	687b      	ldr	r3, [r7, #4]
801013a6:	781b      	ldrb	r3, [r3, #0]
801013a8:	2b30      	cmp	r3, #48	; 0x30
801013aa:	d104      	bne.n	801013b6 <my_vprintf+0x40>
801013ac:	2330      	movs	r3, #48	; 0x30
801013ae:	72fb      	strb	r3, [r7, #11]
801013b0:	687b      	ldr	r3, [r7, #4]
801013b2:	3301      	adds	r3, #1
801013b4:	607b      	str	r3, [r7, #4]
801013b6:	2320      	movs	r3, #32
801013b8:	72fb      	strb	r3, [r7, #11]
801013ba:	2300      	movs	r3, #0
801013bc:	60fb      	str	r3, [r7, #12]
801013be:	e00e      	b.n	801013de <my_vprintf+0x68>
801013c0:	68fa      	ldr	r2, [r7, #12]
801013c2:	4613      	mov	r3, r2
801013c4:	009b      	lsls	r3, r3, #2
801013c6:	4413      	add	r3, r2
801013c8:	005b      	lsls	r3, r3, #1
801013ca:	60fb      	str	r3, [r7, #12]
801013cc:	687b      	ldr	r3, [r7, #4]
801013ce:	781b      	ldrb	r3, [r3, #0]
801013d0:	3b30      	subs	r3, #48	; 0x30
801013d2:	68fa      	ldr	r2, [r7, #12]
801013d4:	4413      	add	r3, r2
801013d6:	60fb      	str	r3, [r7, #12]
801013d8:	687b      	ldr	r3, [r7, #4]
801013da:	3301      	adds	r3, #1
801013dc:	607b      	str	r3, [r7, #4]
801013de:	687b      	ldr	r3, [r7, #4]
801013e0:	781b      	ldrb	r3, [r3, #0]
801013e2:	2b2f      	cmp	r3, #47	; 0x2f
801013e4:	d903      	bls.n	801013ee <my_vprintf+0x78>
801013e6:	687b      	ldr	r3, [r7, #4]
801013e8:	781b      	ldrb	r3, [r3, #0]
801013ea:	2b39      	cmp	r3, #57	; 0x39
801013ec:	d9e8      	bls.n	801013c0 <my_vprintf+0x4a>
801013ee:	687b      	ldr	r3, [r7, #4]
801013f0:	781b      	ldrb	r3, [r3, #0]
801013f2:	3b63      	subs	r3, #99	; 0x63
801013f4:	2b15      	cmp	r3, #21
801013f6:	f200 8087 	bhi.w	80101508 <my_vprintf+0x192>
801013fa:	a201      	add	r2, pc, #4	; (adr r2, 80101400 <my_vprintf+0x8a>)
801013fc:	f852 f023 	ldr.w	pc, [r2, r3, lsl #2]
80101400:	801014e1 	andshi	r1, r0, r1, ror #9
80101404:	80101459 	andshi	r1, r0, r9, asr r4
80101408:	80101509 	andshi	r1, r0, r9, lsl #10
8010140c:	80101509 	andshi	r1, r0, r9, lsl #10
80101410:	80101509 	andshi	r1, r0, r9, lsl #10
80101414:	80101509 	andshi	r1, r0, r9, lsl #10
80101418:	80101509 	andshi	r1, r0, r9, lsl #10
8010141c:	80101509 	andshi	r1, r0, r9, lsl #10
80101420:	80101509 	andshi	r1, r0, r9, lsl #10
80101424:	80101509 	andshi	r1, r0, r9, lsl #10
80101428:	80101509 	andshi	r1, r0, r9, lsl #10
8010142c:	80101509 	andshi	r1, r0, r9, lsl #10
80101430:	8010147b 	andshi	r1, r0, fp, ror r4
80101434:	80101509 	andshi	r1, r0, r9, lsl #10
80101438:	80101509 	andshi	r1, r0, r9, lsl #10
8010143c:	80101509 	andshi	r1, r0, r9, lsl #10
80101440:	801014f5 			; <UNDEFINED> instruction: 0x801014f5
80101444:	80101509 	andshi	r1, r0, r9, lsl #10
80101448:	8010149d 	mulshi	r0, sp, r4
8010144c:	80101509 	andshi	r1, r0, r9, lsl #10
80101450:	80101509 	andshi	r1, r0, r9, lsl #10
80101454:	801014bf 			; <UNDEFINED> instruction: 0x801014bf
80101458:	683b      	ldr	r3, [r7, #0]
8010145a:	3304      	adds	r3, #4
8010145c:	603b      	str	r3, [r7, #0]
8010145e:	683b      	ldr	r3, [r7, #0]
80101460:	3b04      	subs	r3, #4
80101462:	681b      	ldr	r3, [r3, #0]
80101464:	4618      	mov	r0, r3
80101466:	ea4f 71e0 	mov.w	r1, r0, asr #31
8010146a:	7afa      	ldrb	r2, [r7, #11]
8010146c:	68fb      	ldr	r3, [r7, #12]
8010146e:	9300      	str	r3, [sp, #0]
80101470:	4613      	mov	r3, r2
80101472:	220a      	movs	r2, #10
80101474:	f7ff ff11 	bl	8010129a <out_num>
80101478:	e04c      	b.n	80101514 <my_vprintf+0x19e>
8010147a:	683b      	ldr	r3, [r7, #0]
8010147c:	3304      	adds	r3, #4
8010147e:	603b      	str	r3, [r7, #0]
80101480:	683b      	ldr	r3, [r7, #0]
80101482:	3b04      	subs	r3, #4
80101484:	681b      	ldr	r3, [r3, #0]
80101486:	4618      	mov	r0, r3
80101488:	f04f 0100 	mov.w	r1, #0
8010148c:	7afa      	ldrb	r2, [r7, #11]
8010148e:	68fb      	ldr	r3, [r7, #12]
80101490:	9300      	str	r3, [sp, #0]
80101492:	4613      	mov	r3, r2
80101494:	2208      	movs	r2, #8
80101496:	f7ff ff00 	bl	8010129a <out_num>
8010149a:	e03b      	b.n	80101514 <my_vprintf+0x19e>
8010149c:	683b      	ldr	r3, [r7, #0]
8010149e:	3304      	adds	r3, #4
801014a0:	603b      	str	r3, [r7, #0]
801014a2:	683b      	ldr	r3, [r7, #0]
801014a4:	3b04      	subs	r3, #4
801014a6:	681b      	ldr	r3, [r3, #0]
801014a8:	4618      	mov	r0, r3
801014aa:	f04f 0100 	mov.w	r1, #0
801014ae:	7afa      	ldrb	r2, [r7, #11]
801014b0:	68fb      	ldr	r3, [r7, #12]
801014b2:	9300      	str	r3, [sp, #0]
801014b4:	4613      	mov	r3, r2
801014b6:	220a      	movs	r2, #10
801014b8:	f7ff feef 	bl	8010129a <out_num>
801014bc:	e02a      	b.n	80101514 <my_vprintf+0x19e>
801014be:	683b      	ldr	r3, [r7, #0]
801014c0:	3304      	adds	r3, #4
801014c2:	603b      	str	r3, [r7, #0]
801014c4:	683b      	ldr	r3, [r7, #0]
801014c6:	3b04      	subs	r3, #4
801014c8:	681b      	ldr	r3, [r3, #0]
801014ca:	4618      	mov	r0, r3
801014cc:	f04f 0100 	mov.w	r1, #0
801014d0:	7afa      	ldrb	r2, [r7, #11]
801014d2:	68fb      	ldr	r3, [r7, #12]
801014d4:	9300      	str	r3, [sp, #0]
801014d6:	4613      	mov	r3, r2
801014d8:	2210      	movs	r2, #16
801014da:	f7ff fede 	bl	8010129a <out_num>
801014de:	e019      	b.n	80101514 <my_vprintf+0x19e>
801014e0:	683b      	ldr	r3, [r7, #0]
801014e2:	3304      	adds	r3, #4
801014e4:	603b      	str	r3, [r7, #0]
801014e6:	683b      	ldr	r3, [r7, #0]
801014e8:	3b04      	subs	r3, #4
801014ea:	681b      	ldr	r3, [r3, #0]
801014ec:	4618      	mov	r0, r3
801014ee:	f7ff feb3 	bl	80101258 <outc>
801014f2:	e00f      	b.n	80101514 <my_vprintf+0x19e>
801014f4:	683b      	ldr	r3, [r7, #0]
801014f6:	3304      	adds	r3, #4
801014f8:	603b      	str	r3, [r7, #0]
801014fa:	683b      	ldr	r3, [r7, #0]
801014fc:	3b04      	subs	r3, #4
801014fe:	681b      	ldr	r3, [r3, #0]
80101500:	4618      	mov	r0, r3
80101502:	f7ff feb5 	bl	80101270 <outs>
80101506:	e005      	b.n	80101514 <my_vprintf+0x19e>
80101508:	687b      	ldr	r3, [r7, #4]
8010150a:	781b      	ldrb	r3, [r3, #0]
8010150c:	4618      	mov	r0, r3
8010150e:	f7ff fea3 	bl	80101258 <outc>
80101512:	bf00      	nop
80101514:	687b      	ldr	r3, [r7, #4]
80101516:	3301      	adds	r3, #1
80101518:	607b      	str	r3, [r7, #4]
8010151a:	687b      	ldr	r3, [r7, #4]
8010151c:	781b      	ldrb	r3, [r3, #0]
8010151e:	2b00      	cmp	r3, #0
80101520:	f47f af33 	bne.w	8010138a <my_vprintf+0x14>
80101524:	2300      	movs	r3, #0
80101526:	4618      	mov	r0, r3
80101528:	3710      	adds	r7, #16
8010152a:	46bd      	mov	sp, r7
8010152c:	bd80      	pop	{r7, pc}

8010152e <printf>:
8010152e:	b40f      	push	{r0, r1, r2, r3}
80101530:	b580      	push	{r7, lr}
80101532:	b082      	sub	sp, #8
80101534:	af00      	add	r7, sp, #0
80101536:	f107 0314 	add.w	r3, r7, #20
8010153a:	607b      	str	r3, [r7, #4]
8010153c:	693b      	ldr	r3, [r7, #16]
8010153e:	6879      	ldr	r1, [r7, #4]
80101540:	4618      	mov	r0, r3
80101542:	f7ff ff18 	bl	80101376 <my_vprintf>
80101546:	2300      	movs	r3, #0
80101548:	607b      	str	r3, [r7, #4]
8010154a:	2300      	movs	r3, #0
8010154c:	4618      	mov	r0, r3
8010154e:	3708      	adds	r7, #8
80101550:	46bd      	mov	sp, r7
80101552:	e8bd 4080 	ldmia.w	sp!, {r7, lr}
80101556:	b004      	add	sp, #16
80101558:	4770      	bx	lr

8010155a <my_printf_test>:
8010155a:	b580      	push	{r7, lr}
8010155c:	af00      	add	r7, sp, #0
8010155e:	f244 0094 	movw	r0, #16532	; 0x4094
80101562:	f2c8 0010 	movt	r0, #32784	; 0x8010
80101566:	f7ff ffe2 	bl	8010152e <printf>
8010156a:	2261      	movs	r2, #97	; 0x61
8010156c:	2141      	movs	r1, #65	; 0x41
8010156e:	f244 00c0 	movw	r0, #16576	; 0x40c0
80101572:	f2c8 0010 	movt	r0, #32784	; 0x8010
80101576:	f7ff ffda 	bl	8010152e <printf>
8010157a:	f24e 2140 	movw	r1, #57920	; 0xe240
8010157e:	f2c0 0101 	movt	r1, #1
80101582:	f244 00e0 	movw	r0, #16608	; 0x40e0
80101586:	f2c8 0010 	movt	r0, #32784	; 0x8010
8010158a:	f7ff ffd0 	bl	8010152e <printf>
8010158e:	f44f 51ee 	mov.w	r1, #7616	; 0x1dc0
80101592:	f6cf 71fe 	movt	r1, #65534	; 0xfffe
80101596:	f244 00e0 	movw	r0, #16608	; 0x40e0
8010159a:	f2c8 0010 	movt	r0, #32784	; 0x8010
8010159e:	f7ff ffc6 	bl	8010152e <printf>
801015a2:	f245 51aa 	movw	r1, #21930	; 0x55aa
801015a6:	f2c5 51aa 	movt	r1, #21930	; 0x55aa
801015aa:	f244 00fc 	movw	r0, #16636	; 0x40fc
801015ae:	f2c8 0010 	movt	r0, #32784	; 0x8010
801015b2:	f7ff ffbc 	bl	8010152e <printf>
801015b6:	f244 1118 	movw	r1, #16664	; 0x4118
801015ba:	f2c8 0110 	movt	r1, #32784	; 0x8010
801015be:	f244 1028 	movw	r0, #16680	; 0x4128
801015c2:	f2c8 0010 	movt	r0, #32784	; 0x8010
801015c6:	f7ff ffb2 	bl	8010152e <printf>
801015ca:	f243 0139 	movw	r1, #12345	; 0x3039
801015ce:	f244 1044 	movw	r0, #16708	; 0x4144
801015d2:	f2c8 0010 	movt	r0, #32784	; 0x8010
801015d6:	f7ff ffaa 	bl	8010152e <printf>
801015da:	f243 0139 	movw	r1, #12345	; 0x3039
801015de:	f244 1050 	movw	r0, #16720	; 0x4150
801015e2:	f2c8 0010 	movt	r0, #32784	; 0x8010
801015e6:	f7ff ffa2 	bl	8010152e <printf>
801015ea:	f242 3145 	movw	r1, #9029	; 0x2345
801015ee:	f2c0 0101 	movt	r1, #1
801015f2:	f244 105c 	movw	r0, #16732	; 0x415c
801015f6:	f2c8 0010 	movt	r0, #32784	; 0x8010
801015fa:	f7ff ff98 	bl	8010152e <printf>
801015fe:	f242 3145 	movw	r1, #9029	; 0x2345
80101602:	f2c0 0101 	movt	r1, #1
80101606:	f244 106c 	movw	r0, #16748	; 0x416c
8010160a:	f2c8 0010 	movt	r0, #32784	; 0x8010
8010160e:	f7ff ff8e 	bl	8010152e <printf>
80101612:	2101      	movs	r1, #1
80101614:	f244 1078 	movw	r0, #16760	; 0x4178
80101618:	f2c8 0010 	movt	r0, #32784	; 0x8010
8010161c:	f7ff ff87 	bl	8010152e <printf>
80101620:	2101      	movs	r1, #1
80101622:	f244 1088 	movw	r0, #16776	; 0x4188
80101626:	f2c8 0010 	movt	r0, #32784	; 0x8010
8010162a:	f7ff ff80 	bl	8010152e <printf>
8010162e:	2101      	movs	r1, #1
80101630:	f244 1094 	movw	r0, #16788	; 0x4194
80101634:	f2c8 0010 	movt	r0, #32784	; 0x8010
80101638:	f7ff ff79 	bl	8010152e <printf>
8010163c:	2101      	movs	r1, #1
8010163e:	f244 10a0 	movw	r0, #16800	; 0x41a0
80101642:	f2c8 0010 	movt	r0, #32784	; 0x8010
80101646:	f7ff ff72 	bl	8010152e <printf>
8010164a:	2300      	movs	r3, #0
8010164c:	4618      	mov	r0, r3
8010164e:	bd80      	pop	{r7, pc}

80101650 <memcpy>:
80101650:	b480      	push	{r7}
80101652:	b089      	sub	sp, #36	; 0x24
80101654:	af00      	add	r7, sp, #0
80101656:	60f8      	str	r0, [r7, #12]
80101658:	60b9      	str	r1, [r7, #8]
8010165a:	607a      	str	r2, [r7, #4]
8010165c:	68fb      	ldr	r3, [r7, #12]
8010165e:	61fb      	str	r3, [r7, #28]
80101660:	68bb      	ldr	r3, [r7, #8]
80101662:	61bb      	str	r3, [r7, #24]
80101664:	68ba      	ldr	r2, [r7, #8]
80101666:	68fb      	ldr	r3, [r7, #12]
80101668:	429a      	cmp	r2, r3
8010166a:	d101      	bne.n	80101670 <memcpy+0x20>
8010166c:	68fb      	ldr	r3, [r7, #12]
8010166e:	e028      	b.n	801016c2 <memcpy+0x72>
80101670:	68fa      	ldr	r2, [r7, #12]
80101672:	68bb      	ldr	r3, [r7, #8]
80101674:	4313      	orrs	r3, r2
80101676:	f003 0303 	and.w	r3, r3, #3
8010167a:	2b00      	cmp	r3, #0
8010167c:	d10e      	bne.n	8010169c <memcpy+0x4c>
8010167e:	e00a      	b.n	80101696 <memcpy+0x46>
80101680:	69fb      	ldr	r3, [r7, #28]
80101682:	1d1a      	adds	r2, r3, #4
80101684:	61fa      	str	r2, [r7, #28]
80101686:	69ba      	ldr	r2, [r7, #24]
80101688:	1d11      	adds	r1, r2, #4
8010168a:	61b9      	str	r1, [r7, #24]
8010168c:	6812      	ldr	r2, [r2, #0]
8010168e:	601a      	str	r2, [r3, #0]
80101690:	687b      	ldr	r3, [r7, #4]
80101692:	3b04      	subs	r3, #4
80101694:	607b      	str	r3, [r7, #4]
80101696:	687b      	ldr	r3, [r7, #4]
80101698:	2b03      	cmp	r3, #3
8010169a:	d8f1      	bhi.n	80101680 <memcpy+0x30>
8010169c:	69fb      	ldr	r3, [r7, #28]
8010169e:	617b      	str	r3, [r7, #20]
801016a0:	69bb      	ldr	r3, [r7, #24]
801016a2:	613b      	str	r3, [r7, #16]
801016a4:	e007      	b.n	801016b6 <memcpy+0x66>
801016a6:	697b      	ldr	r3, [r7, #20]
801016a8:	1c5a      	adds	r2, r3, #1
801016aa:	617a      	str	r2, [r7, #20]
801016ac:	693a      	ldr	r2, [r7, #16]
801016ae:	1c51      	adds	r1, r2, #1
801016b0:	6139      	str	r1, [r7, #16]
801016b2:	7812      	ldrb	r2, [r2, #0]
801016b4:	701a      	strb	r2, [r3, #0]
801016b6:	687b      	ldr	r3, [r7, #4]
801016b8:	1e5a      	subs	r2, r3, #1
801016ba:	607a      	str	r2, [r7, #4]
801016bc:	2b00      	cmp	r3, #0
801016be:	d1f2      	bne.n	801016a6 <memcpy+0x56>
801016c0:	68fb      	ldr	r3, [r7, #12]
801016c2:	4618      	mov	r0, r3
801016c4:	3724      	adds	r7, #36	; 0x24
801016c6:	46bd      	mov	sp, r7
801016c8:	f85d 7b04 	ldr.w	r7, [sp], #4
801016cc:	4770      	bx	lr

801016ce <memset>:
801016ce:	b480      	push	{r7}
801016d0:	b089      	sub	sp, #36	; 0x24
801016d2:	af00      	add	r7, sp, #0
801016d4:	60f8      	str	r0, [r7, #12]
801016d6:	60b9      	str	r1, [r7, #8]
801016d8:	607a      	str	r2, [r7, #4]
801016da:	68fb      	ldr	r3, [r7, #12]
801016dc:	61fb      	str	r3, [r7, #28]
801016de:	2300      	movs	r3, #0
801016e0:	61bb      	str	r3, [r7, #24]
801016e2:	68fb      	ldr	r3, [r7, #12]
801016e4:	f003 0303 	and.w	r3, r3, #3
801016e8:	2b00      	cmp	r3, #0
801016ea:	d11c      	bne.n	80101726 <memset+0x58>
801016ec:	2300      	movs	r3, #0
801016ee:	613b      	str	r3, [r7, #16]
801016f0:	e00a      	b.n	80101708 <memset+0x3a>
801016f2:	69bb      	ldr	r3, [r7, #24]
801016f4:	021b      	lsls	r3, r3, #8
801016f6:	61bb      	str	r3, [r7, #24]
801016f8:	68bb      	ldr	r3, [r7, #8]
801016fa:	b2db      	uxtb	r3, r3
801016fc:	69ba      	ldr	r2, [r7, #24]
801016fe:	4313      	orrs	r3, r2
80101700:	61bb      	str	r3, [r7, #24]
80101702:	693b      	ldr	r3, [r7, #16]
80101704:	3301      	adds	r3, #1
80101706:	613b      	str	r3, [r7, #16]
80101708:	693b      	ldr	r3, [r7, #16]
8010170a:	2b03      	cmp	r3, #3
8010170c:	d9f1      	bls.n	801016f2 <memset+0x24>
8010170e:	e007      	b.n	80101720 <memset+0x52>
80101710:	69fb      	ldr	r3, [r7, #28]
80101712:	1d1a      	adds	r2, r3, #4
80101714:	61fa      	str	r2, [r7, #28]
80101716:	69ba      	ldr	r2, [r7, #24]
80101718:	601a      	str	r2, [r3, #0]
8010171a:	687b      	ldr	r3, [r7, #4]
8010171c:	3b04      	subs	r3, #4
8010171e:	607b      	str	r3, [r7, #4]
80101720:	687b      	ldr	r3, [r7, #4]
80101722:	2b03      	cmp	r3, #3
80101724:	d8f4      	bhi.n	80101710 <memset+0x42>
80101726:	69fb      	ldr	r3, [r7, #28]
80101728:	617b      	str	r3, [r7, #20]
8010172a:	e005      	b.n	80101738 <memset+0x6a>
8010172c:	697b      	ldr	r3, [r7, #20]
8010172e:	1c5a      	adds	r2, r3, #1
80101730:	617a      	str	r2, [r7, #20]
80101732:	68ba      	ldr	r2, [r7, #8]
80101734:	b2d2      	uxtb	r2, r2
80101736:	701a      	strb	r2, [r3, #0]
80101738:	687b      	ldr	r3, [r7, #4]
8010173a:	1e5a      	subs	r2, r3, #1
8010173c:	607a      	str	r2, [r7, #4]
8010173e:	2b00      	cmp	r3, #0
80101740:	d1f4      	bne.n	8010172c <memset+0x5e>
80101742:	68fb      	ldr	r3, [r7, #12]
80101744:	4618      	mov	r0, r3
80101746:	3724      	adds	r7, #36	; 0x24
80101748:	46bd      	mov	sp, r7
8010174a:	f85d 7b04 	ldr.w	r7, [sp], #4
8010174e:	4770      	bx	lr

80101750 <USDHC_Dump_All>:
80101750:	b580      	push	{r7, lr}
80101752:	b082      	sub	sp, #8
80101754:	af00      	add	r7, sp, #0
80101756:	6078      	str	r0, [r7, #4]
80101758:	687b      	ldr	r3, [r7, #4]
8010175a:	681b      	ldr	r3, [r3, #0]
8010175c:	4619      	mov	r1, r3
8010175e:	f244 10ac 	movw	r0, #16812	; 0x41ac
80101762:	f2c8 0010 	movt	r0, #32784	; 0x8010
80101766:	f7ff fee2 	bl	8010152e <printf>
8010176a:	687b      	ldr	r3, [r7, #4]
8010176c:	685b      	ldr	r3, [r3, #4]
8010176e:	4619      	mov	r1, r3
80101770:	f244 10c0 	movw	r0, #16832	; 0x41c0
80101774:	f2c8 0010 	movt	r0, #32784	; 0x8010
80101778:	f7ff fed9 	bl	8010152e <printf>
8010177c:	687b      	ldr	r3, [r7, #4]
8010177e:	689b      	ldr	r3, [r3, #8]
80101780:	4619      	mov	r1, r3
80101782:	f244 10d4 	movw	r0, #16852	; 0x41d4
80101786:	f2c8 0010 	movt	r0, #32784	; 0x8010
8010178a:	f7ff fed0 	bl	8010152e <printf>
8010178e:	687b      	ldr	r3, [r7, #4]
80101790:	68db      	ldr	r3, [r3, #12]
80101792:	4619      	mov	r1, r3
80101794:	f244 10e8 	movw	r0, #16872	; 0x41e8
80101798:	f2c8 0010 	movt	r0, #32784	; 0x8010
8010179c:	f7ff fec7 	bl	8010152e <printf>
801017a0:	687b      	ldr	r3, [r7, #4]
801017a2:	691b      	ldr	r3, [r3, #16]
801017a4:	4619      	mov	r1, r3
801017a6:	f244 2000 	movw	r0, #16896	; 0x4200
801017aa:	f2c8 0010 	movt	r0, #32784	; 0x8010
801017ae:	f7ff febe 	bl	8010152e <printf>
801017b2:	687b      	ldr	r3, [r7, #4]
801017b4:	695b      	ldr	r3, [r3, #20]
801017b6:	4619      	mov	r1, r3
801017b8:	f244 2014 	movw	r0, #16916	; 0x4214
801017bc:	f2c8 0010 	movt	r0, #32784	; 0x8010
801017c0:	f7ff feb5 	bl	8010152e <printf>
801017c4:	687b      	ldr	r3, [r7, #4]
801017c6:	699b      	ldr	r3, [r3, #24]
801017c8:	4619      	mov	r1, r3
801017ca:	f244 2028 	movw	r0, #16936	; 0x4228
801017ce:	f2c8 0010 	movt	r0, #32784	; 0x8010
801017d2:	f7ff feac 	bl	8010152e <printf>
801017d6:	687b      	ldr	r3, [r7, #4]
801017d8:	69db      	ldr	r3, [r3, #28]
801017da:	4619      	mov	r1, r3
801017dc:	f244 203c 	movw	r0, #16956	; 0x423c
801017e0:	f2c8 0010 	movt	r0, #32784	; 0x8010
801017e4:	f7ff fea3 	bl	8010152e <printf>
801017e8:	687b      	ldr	r3, [r7, #4]
801017ea:	6a1b      	ldr	r3, [r3, #32]
801017ec:	4619      	mov	r1, r3
801017ee:	f244 2050 	movw	r0, #16976	; 0x4250
801017f2:	f2c8 0010 	movt	r0, #32784	; 0x8010
801017f6:	f7ff fe9a 	bl	8010152e <printf>
801017fa:	687b      	ldr	r3, [r7, #4]
801017fc:	6a5b      	ldr	r3, [r3, #36]	; 0x24
801017fe:	4619      	mov	r1, r3
80101800:	f244 2070 	movw	r0, #17008	; 0x4270
80101804:	f2c8 0010 	movt	r0, #32784	; 0x8010
80101808:	f7ff fe91 	bl	8010152e <printf>
8010180c:	687b      	ldr	r3, [r7, #4]
8010180e:	6a9b      	ldr	r3, [r3, #40]	; 0x28
80101810:	4619      	mov	r1, r3
80101812:	f244 2088 	movw	r0, #17032	; 0x4288
80101816:	f2c8 0010 	movt	r0, #32784	; 0x8010
8010181a:	f7ff fe88 	bl	8010152e <printf>
8010181e:	687b      	ldr	r3, [r7, #4]
80101820:	6adb      	ldr	r3, [r3, #44]	; 0x2c
80101822:	4619      	mov	r1, r3
80101824:	f244 209c 	movw	r0, #17052	; 0x429c
80101828:	f2c8 0010 	movt	r0, #32784	; 0x8010
8010182c:	f7ff fe7f 	bl	8010152e <printf>
80101830:	687b      	ldr	r3, [r7, #4]
80101832:	6b1b      	ldr	r3, [r3, #48]	; 0x30
80101834:	4619      	mov	r1, r3
80101836:	f244 20b0 	movw	r0, #17072	; 0x42b0
8010183a:	f2c8 0010 	movt	r0, #32784	; 0x8010
8010183e:	f7ff fe76 	bl	8010152e <printf>
80101842:	687b      	ldr	r3, [r7, #4]
80101844:	6b5b      	ldr	r3, [r3, #52]	; 0x34
80101846:	4619      	mov	r1, r3
80101848:	f244 20c8 	movw	r0, #17096	; 0x42c8
8010184c:	f2c8 0010 	movt	r0, #32784	; 0x8010
80101850:	f7ff fe6d 	bl	8010152e <printf>
80101854:	687b      	ldr	r3, [r7, #4]
80101856:	6b9b      	ldr	r3, [r3, #56]	; 0x38
80101858:	4619      	mov	r1, r3
8010185a:	f244 20e0 	movw	r0, #17120	; 0x42e0
8010185e:	f2c8 0010 	movt	r0, #32784	; 0x8010
80101862:	f7ff fe64 	bl	8010152e <printf>
80101866:	687b      	ldr	r3, [r7, #4]
80101868:	6bdb      	ldr	r3, [r3, #60]	; 0x3c
8010186a:	4619      	mov	r1, r3
8010186c:	f244 20f8 	movw	r0, #17144	; 0x42f8
80101870:	f2c8 0010 	movt	r0, #32784	; 0x8010
80101874:	f7ff fe5b 	bl	8010152e <printf>
80101878:	687b      	ldr	r3, [r7, #4]
8010187a:	6c1b      	ldr	r3, [r3, #64]	; 0x40
8010187c:	4619      	mov	r1, r3
8010187e:	f244 3018 	movw	r0, #17176	; 0x4318
80101882:	f2c8 0010 	movt	r0, #32784	; 0x8010
80101886:	f7ff fe52 	bl	8010152e <printf>
8010188a:	687b      	ldr	r3, [r7, #4]
8010188c:	6c5b      	ldr	r3, [r3, #68]	; 0x44
8010188e:	4619      	mov	r1, r3
80101890:	f244 3030 	movw	r0, #17200	; 0x4330
80101894:	f2c8 0010 	movt	r0, #32784	; 0x8010
80101898:	f7ff fe49 	bl	8010152e <printf>
8010189c:	687b      	ldr	r3, [r7, #4]
8010189e:	6c9b      	ldr	r3, [r3, #72]	; 0x48
801018a0:	4619      	mov	r1, r3
801018a2:	f244 3044 	movw	r0, #17220	; 0x4344
801018a6:	f2c8 0010 	movt	r0, #32784	; 0x8010
801018aa:	f7ff fe40 	bl	8010152e <printf>
801018ae:	687b      	ldr	r3, [r7, #4]
801018b0:	6d1b      	ldr	r3, [r3, #80]	; 0x50
801018b2:	4619      	mov	r1, r3
801018b4:	f244 3058 	movw	r0, #17240	; 0x4358
801018b8:	f2c8 0010 	movt	r0, #32784	; 0x8010
801018bc:	f7ff fe37 	bl	8010152e <printf>
801018c0:	687b      	ldr	r3, [r7, #4]
801018c2:	6d5b      	ldr	r3, [r3, #84]	; 0x54
801018c4:	4619      	mov	r1, r3
801018c6:	f244 3070 	movw	r0, #17264	; 0x4370
801018ca:	f2c8 0010 	movt	r0, #32784	; 0x8010
801018ce:	f7ff fe2e 	bl	8010152e <printf>
801018d2:	687b      	ldr	r3, [r7, #4]
801018d4:	6d9b      	ldr	r3, [r3, #88]	; 0x58
801018d6:	4619      	mov	r1, r3
801018d8:	f244 308c 	movw	r0, #17292	; 0x438c
801018dc:	f2c8 0010 	movt	r0, #32784	; 0x8010
801018e0:	f7ff fe25 	bl	8010152e <printf>
801018e4:	687b      	ldr	r3, [r7, #4]
801018e6:	6e1b      	ldr	r3, [r3, #96]	; 0x60
801018e8:	4619      	mov	r1, r3
801018ea:	f244 30a4 	movw	r0, #17316	; 0x43a4
801018ee:	f2c8 0010 	movt	r0, #32784	; 0x8010
801018f2:	f7ff fe1c 	bl	8010152e <printf>
801018f6:	687b      	ldr	r3, [r7, #4]
801018f8:	6e5b      	ldr	r3, [r3, #100]	; 0x64
801018fa:	4619      	mov	r1, r3
801018fc:	f244 30b8 	movw	r0, #17336	; 0x43b8
80101900:	f2c8 0010 	movt	r0, #32784	; 0x8010
80101904:	f7ff fe13 	bl	8010152e <printf>
80101908:	687b      	ldr	r3, [r7, #4]
8010190a:	6e9b      	ldr	r3, [r3, #104]	; 0x68
8010190c:	4619      	mov	r1, r3
8010190e:	f244 30d0 	movw	r0, #17360	; 0x43d0
80101912:	f2c8 0010 	movt	r0, #32784	; 0x8010
80101916:	f7ff fe0a 	bl	8010152e <printf>
8010191a:	687b      	ldr	r3, [r7, #4]
8010191c:	f8d3 30c0 	ldr.w	r3, [r3, #192]	; 0xc0
80101920:	4619      	mov	r1, r3
80101922:	f244 30f0 	movw	r0, #17392	; 0x43f0
80101926:	f2c8 0010 	movt	r0, #32784	; 0x8010
8010192a:	f7ff fe00 	bl	8010152e <printf>
8010192e:	687b      	ldr	r3, [r7, #4]
80101930:	f8d3 30c4 	ldr.w	r3, [r3, #196]	; 0xc4
80101934:	4619      	mov	r1, r3
80101936:	f244 4004 	movw	r0, #17412	; 0x4404
8010193a:	f2c8 0010 	movt	r0, #32784	; 0x8010
8010193e:	f7ff fdf6 	bl	8010152e <printf>
80101942:	687b      	ldr	r3, [r7, #4]
80101944:	f8d3 30c8 	ldr.w	r3, [r3, #200]	; 0xc8
80101948:	4619      	mov	r1, r3
8010194a:	f244 4018 	movw	r0, #17432	; 0x4418
8010194e:	f2c8 0010 	movt	r0, #32784	; 0x8010
80101952:	f7ff fdec 	bl	8010152e <printf>
80101956:	687b      	ldr	r3, [r7, #4]
80101958:	f8d3 30cc 	ldr.w	r3, [r3, #204]	; 0xcc
8010195c:	4619      	mov	r1, r3
8010195e:	f244 4030 	movw	r0, #17456	; 0x4430
80101962:	f2c8 0010 	movt	r0, #32784	; 0x8010
80101966:	f7ff fde2 	bl	8010152e <printf>
8010196a:	bf00      	nop
8010196c:	3708      	adds	r7, #8
8010196e:	46bd      	mov	sp, r7
80101970:	bd80      	pop	{r7, pc}

80101972 <USDHC_Reset>:
80101972:	b480      	push	{r7}
80101974:	b085      	sub	sp, #20
80101976:	af00      	add	r7, sp, #0
80101978:	60f8      	str	r0, [r7, #12]
8010197a:	60b9      	str	r1, [r7, #8]
8010197c:	607a      	str	r2, [r7, #4]
8010197e:	68fb      	ldr	r3, [r7, #12]
80101980:	6ada      	ldr	r2, [r3, #44]	; 0x2c
80101982:	68bb      	ldr	r3, [r7, #8]
80101984:	f003 63e0 	and.w	r3, r3, #117440512	; 0x7000000
80101988:	431a      	orrs	r2, r3
8010198a:	68fb      	ldr	r3, [r7, #12]
8010198c:	62da      	str	r2, [r3, #44]	; 0x2c
8010198e:	e005      	b.n	8010199c <USDHC_Reset+0x2a>
80101990:	687b      	ldr	r3, [r7, #4]
80101992:	2b00      	cmp	r3, #0
80101994:	d009      	beq.n	801019aa <USDHC_Reset+0x38>
80101996:	687b      	ldr	r3, [r7, #4]
80101998:	3b01      	subs	r3, #1
8010199a:	607b      	str	r3, [r7, #4]
8010199c:	68fb      	ldr	r3, [r7, #12]
8010199e:	6ada      	ldr	r2, [r3, #44]	; 0x2c
801019a0:	68bb      	ldr	r3, [r7, #8]
801019a2:	4013      	ands	r3, r2
801019a4:	2b00      	cmp	r3, #0
801019a6:	d1f3      	bne.n	80101990 <USDHC_Reset+0x1e>
801019a8:	e000      	b.n	801019ac <USDHC_Reset+0x3a>
801019aa:	bf00      	nop
801019ac:	687b      	ldr	r3, [r7, #4]
801019ae:	2b00      	cmp	r3, #0
801019b0:	bf14      	ite	ne
801019b2:	2301      	movne	r3, #1
801019b4:	2300      	moveq	r3, #0
801019b6:	b2db      	uxtb	r3, r3
801019b8:	4618      	mov	r0, r3
801019ba:	3714      	adds	r7, #20
801019bc:	46bd      	mov	sp, r7
801019be:	f85d 7b04 	ldr.w	r7, [sp], #4
801019c2:	4770      	bx	lr

801019c4 <USDHC_Reset_All>:
801019c4:	b580      	push	{r7, lr}
801019c6:	b082      	sub	sp, #8
801019c8:	af00      	add	r7, sp, #0
801019ca:	6078      	str	r0, [r7, #4]
801019cc:	6039      	str	r1, [r7, #0]
801019ce:	683a      	ldr	r2, [r7, #0]
801019d0:	f04f 7180 	mov.w	r1, #16777216	; 0x1000000
801019d4:	6878      	ldr	r0, [r7, #4]
801019d6:	f7ff ffcc 	bl	80101972 <USDHC_Reset>
801019da:	4603      	mov	r3, r0
801019dc:	4618      	mov	r0, r3
801019de:	3708      	adds	r7, #8
801019e0:	46bd      	mov	sp, r7
801019e2:	bd80      	pop	{r7, pc}

801019e4 <USDHC_Reset_Cmd_Line>:
801019e4:	b580      	push	{r7, lr}
801019e6:	b082      	sub	sp, #8
801019e8:	af00      	add	r7, sp, #0
801019ea:	6078      	str	r0, [r7, #4]
801019ec:	6039      	str	r1, [r7, #0]
801019ee:	683a      	ldr	r2, [r7, #0]
801019f0:	f04f 7100 	mov.w	r1, #33554432	; 0x2000000
801019f4:	6878      	ldr	r0, [r7, #4]
801019f6:	f7ff ffbc 	bl	80101972 <USDHC_Reset>
801019fa:	4603      	mov	r3, r0
801019fc:	4618      	mov	r0, r3
801019fe:	3708      	adds	r7, #8
80101a00:	46bd      	mov	sp, r7
80101a02:	bd80      	pop	{r7, pc}

80101a04 <USDHC_Reset_Data_Line>:
80101a04:	b580      	push	{r7, lr}
80101a06:	b082      	sub	sp, #8
80101a08:	af00      	add	r7, sp, #0
80101a0a:	6078      	str	r0, [r7, #4]
80101a0c:	6039      	str	r1, [r7, #0]
80101a0e:	683a      	ldr	r2, [r7, #0]
80101a10:	f04f 6180 	mov.w	r1, #67108864	; 0x4000000
80101a14:	6878      	ldr	r0, [r7, #4]
80101a16:	f7ff ffac 	bl	80101972 <USDHC_Reset>
80101a1a:	4603      	mov	r3, r0
80101a1c:	4618      	mov	r0, r3
80101a1e:	3708      	adds	r7, #8
80101a20:	46bd      	mov	sp, r7
80101a22:	bd80      	pop	{r7, pc}

80101a24 <USDHC_CreateDescTable>:
80101a24:	b490      	push	{r4, r7}
80101a26:	b086      	sub	sp, #24
80101a28:	af00      	add	r7, sp, #0
80101a2a:	6078      	str	r0, [r7, #4]
80101a2c:	6039      	str	r1, [r7, #0]
80101a2e:	683b      	ldr	r3, [r7, #0]
80101a30:	089a      	lsrs	r2, r3, #2
80101a32:	2305      	movs	r3, #5
80101a34:	f2c4 0301 	movt	r3, #16385	; 0x4001
80101a38:	fba2 3403 	umull	r3, r4, r2, r3
80101a3c:	0b23      	lsrs	r3, r4, #12
80101a3e:	60fb      	str	r3, [r7, #12]
80101a40:	6839      	ldr	r1, [r7, #0]
80101a42:	088a      	lsrs	r2, r1, #2
80101a44:	2305      	movs	r3, #5
80101a46:	f2c4 0301 	movt	r3, #16385	; 0x4001
80101a4a:	fba2 3403 	umull	r3, r4, r2, r3
80101a4e:	0b22      	lsrs	r2, r4, #12
80101a50:	4613      	mov	r3, r2
80101a52:	039b      	lsls	r3, r3, #14
80101a54:	1a9b      	subs	r3, r3, r2
80101a56:	009b      	lsls	r3, r3, #2
80101a58:	1aca      	subs	r2, r1, r3
80101a5a:	2a00      	cmp	r2, #0
80101a5c:	d002      	beq.n	80101a64 <USDHC_CreateDescTable+0x40>
80101a5e:	68fb      	ldr	r3, [r7, #12]
80101a60:	3301      	adds	r3, #1
80101a62:	60fb      	str	r3, [r7, #12]
80101a64:	2300      	movs	r3, #0
80101a66:	617b      	str	r3, [r7, #20]
80101a68:	e038      	b.n	80101adc <USDHC_CreateDescTable+0xb8>
80101a6a:	683b      	ldr	r3, [r7, #0]
80101a6c:	f64f 72fc 	movw	r2, #65532	; 0xfffc
80101a70:	4293      	cmp	r3, r2
80101a72:	d908      	bls.n	80101a86 <USDHC_CreateDescTable+0x62>
80101a74:	f64f 73fc 	movw	r3, #65532	; 0xfffc
80101a78:	613b      	str	r3, [r7, #16]
80101a7a:	683b      	ldr	r3, [r7, #0]
80101a7c:	f5a3 437f 	sub.w	r3, r3, #65280	; 0xff00
80101a80:	3bfc      	subs	r3, #252	; 0xfc
80101a82:	603b      	str	r3, [r7, #0]
80101a84:	e001      	b.n	80101a8a <USDHC_CreateDescTable+0x66>
80101a86:	683b      	ldr	r3, [r7, #0]
80101a88:	613b      	str	r3, [r7, #16]
80101a8a:	f248 32f8 	movw	r2, #33784	; 0x83f8
80101a8e:	f2c8 0210 	movt	r2, #32784	; 0x8010
80101a92:	697b      	ldr	r3, [r7, #20]
80101a94:	00db      	lsls	r3, r3, #3
80101a96:	4413      	add	r3, r2
80101a98:	687a      	ldr	r2, [r7, #4]
80101a9a:	605a      	str	r2, [r3, #4]
80101a9c:	693b      	ldr	r3, [r7, #16]
80101a9e:	0419      	lsls	r1, r3, #16
80101aa0:	f248 33f8 	movw	r3, #33784	; 0x83f8
80101aa4:	f2c8 0310 	movt	r3, #32784	; 0x8010
80101aa8:	697a      	ldr	r2, [r7, #20]
80101aaa:	f843 1032 	str.w	r1, [r3, r2, lsl #3]
80101aae:	f248 33f8 	movw	r3, #33784	; 0x83f8
80101ab2:	f2c8 0310 	movt	r3, #32784	; 0x8010
80101ab6:	697a      	ldr	r2, [r7, #20]
80101ab8:	f853 3032 	ldr.w	r3, [r3, r2, lsl #3]
80101abc:	f043 0121 	orr.w	r1, r3, #33	; 0x21
80101ac0:	f248 33f8 	movw	r3, #33784	; 0x83f8
80101ac4:	f2c8 0310 	movt	r3, #32784	; 0x8010
80101ac8:	697a      	ldr	r2, [r7, #20]
80101aca:	f843 1032 	str.w	r1, [r3, r2, lsl #3]
80101ace:	687a      	ldr	r2, [r7, #4]
80101ad0:	693b      	ldr	r3, [r7, #16]
80101ad2:	4413      	add	r3, r2
80101ad4:	607b      	str	r3, [r7, #4]
80101ad6:	697b      	ldr	r3, [r7, #20]
80101ad8:	3301      	adds	r3, #1
80101ada:	617b      	str	r3, [r7, #20]
80101adc:	697a      	ldr	r2, [r7, #20]
80101ade:	68fb      	ldr	r3, [r7, #12]
80101ae0:	429a      	cmp	r2, r3
80101ae2:	d3c2      	bcc.n	80101a6a <USDHC_CreateDescTable+0x46>
80101ae4:	68fb      	ldr	r3, [r7, #12]
80101ae6:	1e5a      	subs	r2, r3, #1
80101ae8:	68fb      	ldr	r3, [r7, #12]
80101aea:	1e59      	subs	r1, r3, #1
80101aec:	f248 33f8 	movw	r3, #33784	; 0x83f8
80101af0:	f2c8 0310 	movt	r3, #32784	; 0x8010
80101af4:	f853 3031 	ldr.w	r3, [r3, r1, lsl #3]
80101af8:	f043 0102 	orr.w	r1, r3, #2
80101afc:	f248 33f8 	movw	r3, #33784	; 0x83f8
80101b00:	f2c8 0310 	movt	r3, #32784	; 0x8010
80101b04:	f843 1032 	str.w	r1, [r3, r2, lsl #3]
80101b08:	2300      	movs	r3, #0
80101b0a:	4618      	mov	r0, r3
80101b0c:	3718      	adds	r7, #24
80101b0e:	46bd      	mov	sp, r7
80101b10:	bc90      	pop	{r4, r7}
80101b12:	4770      	bx	lr

80101b14 <USDHC_ClearInterruptStatusFlags>:
80101b14:	b480      	push	{r7}
80101b16:	b083      	sub	sp, #12
80101b18:	af00      	add	r7, sp, #0
80101b1a:	6078      	str	r0, [r7, #4]
80101b1c:	6039      	str	r1, [r7, #0]
80101b1e:	687b      	ldr	r3, [r7, #4]
80101b20:	683a      	ldr	r2, [r7, #0]
80101b22:	631a      	str	r2, [r3, #48]	; 0x30
80101b24:	bf00      	nop
80101b26:	370c      	adds	r7, #12
80101b28:	46bd      	mov	sp, r7
80101b2a:	f85d 7b04 	ldr.w	r7, [sp], #4
80101b2e:	4770      	bx	lr

80101b30 <USDHC_WaitCommandDone>:
80101b30:	b580      	push	{r7, lr}
80101b32:	b084      	sub	sp, #16
80101b34:	af00      	add	r7, sp, #0
80101b36:	6078      	str	r0, [r7, #4]
80101b38:	2300      	movs	r3, #0
80101b3a:	60fb      	str	r3, [r7, #12]
80101b3c:	2300      	movs	r3, #0
80101b3e:	60bb      	str	r3, [r7, #8]
80101b40:	bf00      	nop
80101b42:	687b      	ldr	r3, [r7, #4]
80101b44:	6b1a      	ldr	r2, [r3, #48]	; 0x30
80101b46:	2301      	movs	r3, #1
80101b48:	f2c0 030f 	movt	r3, #15
80101b4c:	4013      	ands	r3, r2
80101b4e:	2b00      	cmp	r3, #0
80101b50:	d0f7      	beq.n	80101b42 <USDHC_WaitCommandDone+0x12>
80101b52:	687b      	ldr	r3, [r7, #4]
80101b54:	6b1b      	ldr	r3, [r3, #48]	; 0x30
80101b56:	60bb      	str	r3, [r7, #8]
80101b58:	68bb      	ldr	r3, [r7, #8]
80101b5a:	f403 2370 	and.w	r3, r3, #983040	; 0xf0000
80101b5e:	2b00      	cmp	r3, #0
80101b60:	d00f      	beq.n	80101b82 <USDHC_WaitCommandDone+0x52>
80101b62:	687b      	ldr	r3, [r7, #4]
80101b64:	68db      	ldr	r3, [r3, #12]
80101b66:	68ba      	ldr	r2, [r7, #8]
80101b68:	4619      	mov	r1, r3
80101b6a:	f244 4048 	movw	r0, #17480	; 0x4448
80101b6e:	f2c8 0010 	movt	r0, #32784	; 0x8010
80101b72:	f7ff fcdc 	bl	8010152e <printf>
80101b76:	6878      	ldr	r0, [r7, #4]
80101b78:	f7ff fdea 	bl	80101750 <USDHC_Dump_All>
80101b7c:	f04f 33ff 	mov.w	r3, #4294967295	; 0xffffffff
80101b80:	60fb      	str	r3, [r7, #12]
80101b82:	2101      	movs	r1, #1
80101b84:	f2c0 410f 	movt	r1, #1039	; 0x40f
80101b88:	6878      	ldr	r0, [r7, #4]
80101b8a:	f7ff ffc3 	bl	80101b14 <USDHC_ClearInterruptStatusFlags>
80101b8e:	68fb      	ldr	r3, [r7, #12]
80101b90:	4618      	mov	r0, r3
80101b92:	3710      	adds	r7, #16
80101b94:	46bd      	mov	sp, r7
80101b96:	bd80      	pop	{r7, pc}

80101b98 <USDHC_WaitDataDone>:
80101b98:	b580      	push	{r7, lr}
80101b9a:	b084      	sub	sp, #16
80101b9c:	af00      	add	r7, sp, #0
80101b9e:	6078      	str	r0, [r7, #4]
80101ba0:	2300      	movs	r3, #0
80101ba2:	60fb      	str	r3, [r7, #12]
80101ba4:	2300      	movs	r3, #0
80101ba6:	60bb      	str	r3, [r7, #8]
80101ba8:	bf00      	nop
80101baa:	687b      	ldr	r3, [r7, #4]
80101bac:	6b1a      	ldr	r2, [r3, #48]	; 0x30
80101bae:	2302      	movs	r3, #2
80101bb0:	f2c0 1370 	movt	r3, #368	; 0x170
80101bb4:	4013      	ands	r3, r2
80101bb6:	2b00      	cmp	r3, #0
80101bb8:	d0f7      	beq.n	80101baa <USDHC_WaitDataDone+0x12>
80101bba:	687b      	ldr	r3, [r7, #4]
80101bbc:	6b1b      	ldr	r3, [r3, #48]	; 0x30
80101bbe:	60bb      	str	r3, [r7, #8]
80101bc0:	68bb      	ldr	r3, [r7, #8]
80101bc2:	f003 73b8 	and.w	r3, r3, #24117248	; 0x1700000
80101bc6:	2b00      	cmp	r3, #0
80101bc8:	d00f      	beq.n	80101bea <USDHC_WaitDataDone+0x52>
80101bca:	687b      	ldr	r3, [r7, #4]
80101bcc:	68db      	ldr	r3, [r3, #12]
80101bce:	68ba      	ldr	r2, [r7, #8]
80101bd0:	4619      	mov	r1, r3
80101bd2:	f244 4078 	movw	r0, #17528	; 0x4478
80101bd6:	f2c8 0010 	movt	r0, #32784	; 0x8010
80101bda:	f7ff fca8 	bl	8010152e <printf>
80101bde:	6878      	ldr	r0, [r7, #4]
80101be0:	f7ff fdb6 	bl	80101750 <USDHC_Dump_All>
80101be4:	f04f 33ff 	mov.w	r3, #4294967295	; 0xffffffff
80101be8:	60fb      	str	r3, [r7, #12]
80101bea:	2102      	movs	r1, #2
80101bec:	f2c0 1170 	movt	r1, #368	; 0x170
80101bf0:	6878      	ldr	r0, [r7, #4]
80101bf2:	f7ff ff8f 	bl	80101b14 <USDHC_ClearInterruptStatusFlags>
80101bf6:	68fb      	ldr	r3, [r7, #12]
80101bf8:	4618      	mov	r0, r3
80101bfa:	3710      	adds	r7, #16
80101bfc:	46bd      	mov	sp, r7
80101bfe:	bd80      	pop	{r7, pc}

80101c00 <USDHC_SendCommand>:
80101c00:	b580      	push	{r7, lr}
80101c02:	b084      	sub	sp, #16
80101c04:	af00      	add	r7, sp, #0
80101c06:	60f8      	str	r0, [r7, #12]
80101c08:	60b9      	str	r1, [r7, #8]
80101c0a:	607a      	str	r2, [r7, #4]
80101c0c:	bf00      	nop
80101c0e:	68fb      	ldr	r3, [r7, #12]
80101c10:	6a5b      	ldr	r3, [r3, #36]	; 0x24
80101c12:	f003 0301 	and.w	r3, r3, #1
80101c16:	2b00      	cmp	r3, #0
80101c18:	d1f9      	bne.n	80101c0e <USDHC_SendCommand+0xe>
80101c1a:	68fb      	ldr	r3, [r7, #12]
80101c1c:	687a      	ldr	r2, [r7, #4]
80101c1e:	609a      	str	r2, [r3, #8]
80101c20:	68bb      	ldr	r3, [r7, #8]
80101c22:	041a      	lsls	r2, r3, #16
80101c24:	68fb      	ldr	r3, [r7, #12]
80101c26:	60da      	str	r2, [r3, #12]
80101c28:	68f8      	ldr	r0, [r7, #12]
80101c2a:	f7ff ff81 	bl	80101b30 <USDHC_WaitCommandDone>
80101c2e:	4603      	mov	r3, r0
80101c30:	4618      	mov	r0, r3
80101c32:	3710      	adds	r7, #16
80101c34:	46bd      	mov	sp, r7
80101c36:	bd80      	pop	{r7, pc}

80101c38 <USDHC_SendCommand_with_data>:
80101c38:	b580      	push	{r7, lr}
80101c3a:	b086      	sub	sp, #24
80101c3c:	af00      	add	r7, sp, #0
80101c3e:	60f8      	str	r0, [r7, #12]
80101c40:	60b9      	str	r1, [r7, #8]
80101c42:	607a      	str	r2, [r7, #4]
80101c44:	603b      	str	r3, [r7, #0]
80101c46:	bf00      	nop
80101c48:	68fb      	ldr	r3, [r7, #12]
80101c4a:	6a5b      	ldr	r3, [r3, #36]	; 0x24
80101c4c:	f003 0301 	and.w	r3, r3, #1
80101c50:	2b00      	cmp	r3, #0
80101c52:	d1f9      	bne.n	80101c48 <USDHC_SendCommand_with_data+0x10>
80101c54:	bf00      	nop
80101c56:	68fb      	ldr	r3, [r7, #12]
80101c58:	6a5b      	ldr	r3, [r3, #36]	; 0x24
80101c5a:	f003 0302 	and.w	r3, r3, #2
80101c5e:	2b00      	cmp	r3, #0
80101c60:	d1f9      	bne.n	80101c56 <USDHC_SendCommand_with_data+0x1e>
80101c62:	6a39      	ldr	r1, [r7, #32]
80101c64:	f647 4000 	movw	r0, #31744	; 0x7c00
80101c68:	f2c8 0010 	movt	r0, #32784	; 0x8010
80101c6c:	f7ff feda 	bl	80101a24 <USDHC_CreateDescTable>
80101c70:	68fb      	ldr	r3, [r7, #12]
80101c72:	2200      	movs	r2, #0
80101c74:	601a      	str	r2, [r3, #0]
80101c76:	f248 33f8 	movw	r3, #33784	; 0x83f8
80101c7a:	f2c8 0310 	movt	r3, #32784	; 0x8010
80101c7e:	68fa      	ldr	r2, [r7, #12]
80101c80:	6593      	str	r3, [r2, #88]	; 0x58
80101c82:	6a3b      	ldr	r3, [r7, #32]
80101c84:	f3c3 030c 	ubfx	r3, r3, #0, #13
80101c88:	f443 3280 	orr.w	r2, r3, #65536	; 0x10000
80101c8c:	68fb      	ldr	r3, [r7, #12]
80101c8e:	605a      	str	r2, [r3, #4]
80101c90:	68fb      	ldr	r3, [r7, #12]
80101c92:	f8d3 30c0 	ldr.w	r3, [r3, #192]	; 0xc0
80101c96:	f023 0201 	bic.w	r2, r3, #1
80101c9a:	68fb      	ldr	r3, [r7, #12]
80101c9c:	f8c3 20c0 	str.w	r2, [r3, #192]	; 0xc0
80101ca0:	68fb      	ldr	r3, [r7, #12]
80101ca2:	6a9b      	ldr	r3, [r3, #40]	; 0x28
80101ca4:	f023 5360 	bic.w	r3, r3, #939524096	; 0x38000000
80101ca8:	f423 7340 	bic.w	r3, r3, #768	; 0x300
80101cac:	68fa      	ldr	r2, [r7, #12]
80101cae:	6293      	str	r3, [r2, #40]	; 0x28
80101cb0:	68fb      	ldr	r3, [r7, #12]
80101cb2:	6a9b      	ldr	r3, [r3, #40]	; 0x28
80101cb4:	f043 6300 	orr.w	r3, r3, #134217728	; 0x8000000
80101cb8:	f443 7300 	orr.w	r3, r3, #512	; 0x200
80101cbc:	68fa      	ldr	r2, [r7, #12]
80101cbe:	6293      	str	r3, [r2, #40]	; 0x28
80101cc0:	68fb      	ldr	r3, [r7, #12]
80101cc2:	6c9b      	ldr	r3, [r3, #72]	; 0x48
80101cc4:	f043 0211 	orr.w	r2, r3, #17
80101cc8:	68fb      	ldr	r3, [r7, #12]
80101cca:	649a      	str	r2, [r3, #72]	; 0x48
80101ccc:	68fb      	ldr	r3, [r7, #12]
80101cce:	687a      	ldr	r2, [r7, #4]
80101cd0:	609a      	str	r2, [r3, #8]
80101cd2:	68bb      	ldr	r3, [r7, #8]
80101cd4:	041a      	lsls	r2, r3, #16
80101cd6:	68fb      	ldr	r3, [r7, #12]
80101cd8:	60da      	str	r2, [r3, #12]
80101cda:	68f8      	ldr	r0, [r7, #12]
80101cdc:	f7ff ff28 	bl	80101b30 <USDHC_WaitCommandDone>
80101ce0:	6178      	str	r0, [r7, #20]
80101ce2:	697b      	ldr	r3, [r7, #20]
80101ce4:	2b00      	cmp	r3, #0
80101ce6:	da01      	bge.n	80101cec <USDHC_SendCommand_with_data+0xb4>
80101ce8:	697b      	ldr	r3, [r7, #20]
80101cea:	e014      	b.n	80101d16 <USDHC_SendCommand_with_data+0xde>
80101cec:	68f8      	ldr	r0, [r7, #12]
80101cee:	f7ff ff53 	bl	80101b98 <USDHC_WaitDataDone>
80101cf2:	6178      	str	r0, [r7, #20]
80101cf4:	697b      	ldr	r3, [r7, #20]
80101cf6:	2b00      	cmp	r3, #0
80101cf8:	da01      	bge.n	80101cfe <USDHC_SendCommand_with_data+0xc6>
80101cfa:	697b      	ldr	r3, [r7, #20]
80101cfc:	e00b      	b.n	80101d16 <USDHC_SendCommand_with_data+0xde>
80101cfe:	683b      	ldr	r3, [r7, #0]
80101d00:	2b00      	cmp	r3, #0
80101d02:	d007      	beq.n	80101d14 <USDHC_SendCommand_with_data+0xdc>
80101d04:	6a3a      	ldr	r2, [r7, #32]
80101d06:	f647 4100 	movw	r1, #31744	; 0x7c00
80101d0a:	f2c8 0110 	movt	r1, #32784	; 0x8010
80101d0e:	6838      	ldr	r0, [r7, #0]
80101d10:	f7ff fc9e 	bl	80101650 <memcpy>
80101d14:	2300      	movs	r3, #0
80101d16:	4618      	mov	r0, r3
80101d18:	3718      	adds	r7, #24
80101d1a:	46bd      	mov	sp, r7
80101d1c:	bd80      	pop	{r7, pc}

80101d1e <USDHC_Init>:
80101d1e:	b580      	push	{r7, lr}
80101d20:	b086      	sub	sp, #24
80101d22:	af00      	add	r7, sp, #0
80101d24:	6078      	str	r0, [r7, #4]
80101d26:	2164      	movs	r1, #100	; 0x64
80101d28:	6878      	ldr	r0, [r7, #4]
80101d2a:	f7ff fe4b 	bl	801019c4 <USDHC_Reset_All>
80101d2e:	687b      	ldr	r3, [r7, #4]
80101d30:	6a9b      	ldr	r3, [r3, #40]	; 0x28
80101d32:	617b      	str	r3, [r7, #20]
80101d34:	687b      	ldr	r3, [r7, #4]
80101d36:	6c5b      	ldr	r3, [r3, #68]	; 0x44
80101d38:	613b      	str	r3, [r7, #16]
80101d3a:	687b      	ldr	r3, [r7, #4]
80101d3c:	6adb      	ldr	r3, [r3, #44]	; 0x2c
80101d3e:	60fb      	str	r3, [r7, #12]
80101d40:	697b      	ldr	r3, [r7, #20]
80101d42:	f423 734c 	bic.w	r3, r3, #816	; 0x330
80101d46:	617b      	str	r3, [r7, #20]
80101d48:	697b      	ldr	r3, [r7, #20]
80101d4a:	f043 0320 	orr.w	r3, r3, #32
80101d4e:	617b      	str	r3, [r7, #20]
80101d50:	693b      	ldr	r3, [r7, #16]
80101d52:	f003 23e0 	and.w	r3, r3, #3758153728	; 0xe000e000
80101d56:	613b      	str	r3, [r7, #16]
80101d58:	693b      	ldr	r3, [r7, #16]
80101d5a:	f043 6308 	orr.w	r3, r3, #142606336	; 0x8800000
80101d5e:	f443 6308 	orr.w	r3, r3, #2176	; 0x880
80101d62:	613b      	str	r3, [r7, #16]
80101d64:	68fb      	ldr	r3, [r7, #12]
80101d66:	f423 2370 	bic.w	r3, r3, #983040	; 0xf0000
80101d6a:	60fb      	str	r3, [r7, #12]
80101d6c:	68fb      	ldr	r3, [r7, #12]
80101d6e:	f443 2370 	orr.w	r3, r3, #983040	; 0xf0000
80101d72:	60fb      	str	r3, [r7, #12]
80101d74:	687b      	ldr	r3, [r7, #4]
80101d76:	68fa      	ldr	r2, [r7, #12]
80101d78:	62da      	str	r2, [r3, #44]	; 0x2c
80101d7a:	687b      	ldr	r3, [r7, #4]
80101d7c:	693a      	ldr	r2, [r7, #16]
80101d7e:	645a      	str	r2, [r3, #68]	; 0x44
80101d80:	687b      	ldr	r3, [r7, #4]
80101d82:	697a      	ldr	r2, [r7, #20]
80101d84:	629a      	str	r2, [r3, #40]	; 0x28
80101d86:	687b      	ldr	r3, [r7, #4]
80101d88:	2200      	movs	r2, #0
80101d8a:	635a      	str	r2, [r3, #52]	; 0x34
80101d8c:	687b      	ldr	r3, [r7, #4]
80101d8e:	2200      	movs	r2, #0
80101d90:	639a      	str	r2, [r3, #56]	; 0x38
80101d92:	687a      	ldr	r2, [r7, #4]
80101d94:	f245 03fb 	movw	r3, #20731	; 0x50fb
80101d98:	f2c1 537f 	movt	r3, #5503	; 0x157f
80101d9c:	6353      	str	r3, [r2, #52]	; 0x34
80101d9e:	687a      	ldr	r2, [r7, #4]
80101da0:	f245 03fb 	movw	r3, #20731	; 0x50fb
80101da4:	f2c1 537f 	movt	r3, #5503	; 0x157f
80101da8:	6393      	str	r3, [r2, #56]	; 0x38
80101daa:	bf00      	nop
80101dac:	3718      	adds	r7, #24
80101dae:	46bd      	mov	sp, r7
80101db0:	bd80      	pop	{r7, pc}

80101db2 <CardInsertDetect>:
80101db2:	b580      	push	{r7, lr}
80101db4:	b082      	sub	sp, #8
80101db6:	af00      	add	r7, sp, #0
80101db8:	6078      	str	r0, [r7, #4]
80101dba:	687b      	ldr	r3, [r7, #4]
80101dbc:	6a5b      	ldr	r3, [r3, #36]	; 0x24
80101dbe:	f403 2380 	and.w	r3, r3, #262144	; 0x40000
80101dc2:	2b00      	cmp	r3, #0
80101dc4:	d105      	bne.n	80101dd2 <CardInsertDetect+0x20>
80101dc6:	f244 40a8 	movw	r0, #17576	; 0x44a8
80101dca:	f2c8 0010 	movt	r0, #32784	; 0x8010
80101dce:	f7ff fbae 	bl	8010152e <printf>
80101dd2:	bf00      	nop
80101dd4:	687b      	ldr	r3, [r7, #4]
80101dd6:	6a5b      	ldr	r3, [r3, #36]	; 0x24
80101dd8:	0c9b      	lsrs	r3, r3, #18
80101dda:	f003 0301 	and.w	r3, r3, #1
80101dde:	2b00      	cmp	r3, #0
80101de0:	d0f8      	beq.n	80101dd4 <CardInsertDetect+0x22>
80101de2:	f244 40c0 	movw	r0, #17600	; 0x44c0
80101de6:	f2c8 0010 	movt	r0, #32784	; 0x8010
80101dea:	f7ff fba0 	bl	8010152e <printf>
80101dee:	bf00      	nop
80101df0:	3708      	adds	r7, #8
80101df2:	46bd      	mov	sp, r7
80101df4:	bd80      	pop	{r7, pc}

80101df6 <USDHC_SetDataBusWidth>:
80101df6:	b480      	push	{r7}
80101df8:	b083      	sub	sp, #12
80101dfa:	af00      	add	r7, sp, #0
80101dfc:	6078      	str	r0, [r7, #4]
80101dfe:	6039      	str	r1, [r7, #0]
80101e00:	687b      	ldr	r3, [r7, #4]
80101e02:	6a9b      	ldr	r3, [r3, #40]	; 0x28
80101e04:	f023 0206 	bic.w	r2, r3, #6
80101e08:	683b      	ldr	r3, [r7, #0]
80101e0a:	005b      	lsls	r3, r3, #1
80101e0c:	f003 0306 	and.w	r3, r3, #6
80101e10:	431a      	orrs	r2, r3
80101e12:	687b      	ldr	r3, [r7, #4]
80101e14:	629a      	str	r2, [r3, #40]	; 0x28
80101e16:	bf00      	nop
80101e18:	370c      	adds	r7, #12
80101e1a:	46bd      	mov	sp, r7
80101e1c:	f85d 7b04 	ldr.w	r7, [sp], #4
80101e20:	4770      	bx	lr

80101e22 <USDHC_SetSdClock>:
80101e22:	b580      	push	{r7, lr}
80101e24:	b08c      	sub	sp, #48	; 0x30
80101e26:	af00      	add	r7, sp, #0
80101e28:	60f8      	str	r0, [r7, #12]
80101e2a:	60b9      	str	r1, [r7, #8]
80101e2c:	607a      	str	r2, [r7, #4]
80101e2e:	2300      	movs	r3, #0
80101e30:	62fb      	str	r3, [r7, #44]	; 0x2c
80101e32:	2300      	movs	r3, #0
80101e34:	62bb      	str	r3, [r7, #40]	; 0x28
80101e36:	2300      	movs	r3, #0
80101e38:	627b      	str	r3, [r7, #36]	; 0x24
80101e3a:	2300      	movs	r3, #0
80101e3c:	617b      	str	r3, [r7, #20]
80101e3e:	2300      	movs	r3, #0
80101e40:	623b      	str	r3, [r7, #32]
80101e42:	f44f 7380 	mov.w	r3, #256	; 0x100
80101e46:	61fb      	str	r3, [r7, #28]
80101e48:	2300      	movs	r3, #0
80101e4a:	61bb      	str	r3, [r7, #24]
80101e4c:	68fb      	ldr	r3, [r7, #12]
80101e4e:	6c9b      	ldr	r3, [r3, #72]	; 0x48
80101e50:	f003 0308 	and.w	r3, r3, #8
80101e54:	2b00      	cmp	r3, #0
80101e56:	d004      	beq.n	80101e62 <USDHC_SetSdClock+0x40>
80101e58:	2301      	movs	r3, #1
80101e5a:	61bb      	str	r3, [r7, #24]
80101e5c:	69fb      	ldr	r3, [r7, #28]
80101e5e:	005b      	lsls	r3, r3, #1
80101e60:	61fb      	str	r3, [r7, #28]
80101e62:	6879      	ldr	r1, [r7, #4]
80101e64:	68b8      	ldr	r0, [r7, #8]
80101e66:	f001 fdff 	bl	80103a68 <__aeabi_uidiv>
80101e6a:	4603      	mov	r3, r0
80101e6c:	62fb      	str	r3, [r7, #44]	; 0x2c
80101e6e:	6afb      	ldr	r3, [r7, #44]	; 0x2c
80101e70:	2b00      	cmp	r3, #0
80101e72:	d055      	beq.n	80101f20 <USDHC_SetSdClock+0xfe>
80101e74:	6af9      	ldr	r1, [r7, #44]	; 0x2c
80101e76:	68b8      	ldr	r0, [r7, #8]
80101e78:	f001 fdf6 	bl	80103a68 <__aeabi_uidiv>
80101e7c:	4603      	mov	r3, r0
80101e7e:	461a      	mov	r2, r3
80101e80:	687b      	ldr	r3, [r7, #4]
80101e82:	429a      	cmp	r2, r3
80101e84:	d902      	bls.n	80101e8c <USDHC_SetSdClock+0x6a>
80101e86:	6afb      	ldr	r3, [r7, #44]	; 0x2c
80101e88:	3301      	adds	r3, #1
80101e8a:	62fb      	str	r3, [r7, #44]	; 0x2c
80101e8c:	6afb      	ldr	r3, [r7, #44]	; 0x2c
80101e8e:	2b10      	cmp	r3, #16
80101e90:	d92e      	bls.n	80101ef0 <USDHC_SetSdClock+0xce>
80101e92:	6afb      	ldr	r3, [r7, #44]	; 0x2c
80101e94:	091b      	lsrs	r3, r3, #4
80101e96:	627b      	str	r3, [r7, #36]	; 0x24
80101e98:	e002      	b.n	80101ea0 <USDHC_SetSdClock+0x7e>
80101e9a:	6a7b      	ldr	r3, [r7, #36]	; 0x24
80101e9c:	3301      	adds	r3, #1
80101e9e:	627b      	str	r3, [r7, #36]	; 0x24
80101ea0:	69fb      	ldr	r3, [r7, #28]
80101ea2:	6a79      	ldr	r1, [r7, #36]	; 0x24
80101ea4:	4618      	mov	r0, r3
80101ea6:	f001 ff0d 	bl	80103cc4 <__aeabi_uidivmod>
80101eaa:	460b      	mov	r3, r1
80101eac:	2b00      	cmp	r3, #0
80101eae:	d1f4      	bne.n	80101e9a <USDHC_SetSdClock+0x78>
80101eb0:	6a7b      	ldr	r3, [r7, #36]	; 0x24
80101eb2:	2b01      	cmp	r3, #1
80101eb4:	d0f1      	beq.n	80101e9a <USDHC_SetSdClock+0x78>
80101eb6:	6a79      	ldr	r1, [r7, #36]	; 0x24
80101eb8:	6af8      	ldr	r0, [r7, #44]	; 0x2c
80101eba:	f001 fdd5 	bl	80103a68 <__aeabi_uidiv>
80101ebe:	4603      	mov	r3, r0
80101ec0:	62bb      	str	r3, [r7, #40]	; 0x28
80101ec2:	e002      	b.n	80101eca <USDHC_SetSdClock+0xa8>
80101ec4:	6abb      	ldr	r3, [r7, #40]	; 0x28
80101ec6:	3301      	adds	r3, #1
80101ec8:	62bb      	str	r3, [r7, #40]	; 0x28
80101eca:	6abb      	ldr	r3, [r7, #40]	; 0x28
80101ecc:	6a7a      	ldr	r2, [r7, #36]	; 0x24
80101ece:	fb02 f203 	mul.w	r2, r2, r3
80101ed2:	6afb      	ldr	r3, [r7, #44]	; 0x2c
80101ed4:	429a      	cmp	r2, r3
80101ed6:	d3f5      	bcc.n	80101ec4 <USDHC_SetSdClock+0xa2>
80101ed8:	6ab9      	ldr	r1, [r7, #40]	; 0x28
80101eda:	68b8      	ldr	r0, [r7, #8]
80101edc:	f001 fdc4 	bl	80103a68 <__aeabi_uidiv>
80101ee0:	4603      	mov	r3, r0
80101ee2:	6a79      	ldr	r1, [r7, #36]	; 0x24
80101ee4:	4618      	mov	r0, r3
80101ee6:	f001 fdbf 	bl	80103a68 <__aeabi_uidiv>
80101eea:	4603      	mov	r3, r0
80101eec:	623b      	str	r3, [r7, #32]
80101eee:	e01d      	b.n	80101f2c <USDHC_SetSdClock+0x10a>
80101ef0:	2310      	movs	r3, #16
80101ef2:	6af9      	ldr	r1, [r7, #44]	; 0x2c
80101ef4:	4618      	mov	r0, r3
80101ef6:	f001 fee5 	bl	80103cc4 <__aeabi_uidivmod>
80101efa:	460b      	mov	r3, r1
80101efc:	2b00      	cmp	r3, #0
80101efe:	d104      	bne.n	80101f0a <USDHC_SetSdClock+0xe8>
80101f00:	2300      	movs	r3, #0
80101f02:	62bb      	str	r3, [r7, #40]	; 0x28
80101f04:	6afb      	ldr	r3, [r7, #44]	; 0x2c
80101f06:	627b      	str	r3, [r7, #36]	; 0x24
80101f08:	e003      	b.n	80101f12 <USDHC_SetSdClock+0xf0>
80101f0a:	6afb      	ldr	r3, [r7, #44]	; 0x2c
80101f0c:	62bb      	str	r3, [r7, #40]	; 0x28
80101f0e:	2300      	movs	r3, #0
80101f10:	627b      	str	r3, [r7, #36]	; 0x24
80101f12:	6af9      	ldr	r1, [r7, #44]	; 0x2c
80101f14:	68b8      	ldr	r0, [r7, #8]
80101f16:	f001 fda7 	bl	80103a68 <__aeabi_uidiv>
80101f1a:	4603      	mov	r3, r0
80101f1c:	623b      	str	r3, [r7, #32]
80101f1e:	e005      	b.n	80101f2c <USDHC_SetSdClock+0x10a>
80101f20:	2300      	movs	r3, #0
80101f22:	62bb      	str	r3, [r7, #40]	; 0x28
80101f24:	2300      	movs	r3, #0
80101f26:	627b      	str	r3, [r7, #36]	; 0x24
80101f28:	68bb      	ldr	r3, [r7, #8]
80101f2a:	623b      	str	r3, [r7, #32]
80101f2c:	6abb      	ldr	r3, [r7, #40]	; 0x28
80101f2e:	2b00      	cmp	r3, #0
80101f30:	d002      	beq.n	80101f38 <USDHC_SetSdClock+0x116>
80101f32:	6abb      	ldr	r3, [r7, #40]	; 0x28
80101f34:	3b01      	subs	r3, #1
80101f36:	62bb      	str	r3, [r7, #40]	; 0x28
80101f38:	6a7b      	ldr	r3, [r7, #36]	; 0x24
80101f3a:	2b00      	cmp	r3, #0
80101f3c:	d009      	beq.n	80101f52 <USDHC_SetSdClock+0x130>
80101f3e:	69bb      	ldr	r3, [r7, #24]
80101f40:	2b00      	cmp	r3, #0
80101f42:	d001      	beq.n	80101f48 <USDHC_SetSdClock+0x126>
80101f44:	2302      	movs	r3, #2
80101f46:	e000      	b.n	80101f4a <USDHC_SetSdClock+0x128>
80101f48:	2301      	movs	r3, #1
80101f4a:	6a7a      	ldr	r2, [r7, #36]	; 0x24
80101f4c:	fa22 f303 	lsr.w	r3, r2, r3
80101f50:	627b      	str	r3, [r7, #36]	; 0x24
80101f52:	68fb      	ldr	r3, [r7, #12]
80101f54:	6adb      	ldr	r3, [r3, #44]	; 0x2c
80101f56:	617b      	str	r3, [r7, #20]
80101f58:	697b      	ldr	r3, [r7, #20]
80101f5a:	f423 437f 	bic.w	r3, r3, #65280	; 0xff00
80101f5e:	f023 03f0 	bic.w	r3, r3, #240	; 0xf0
80101f62:	617b      	str	r3, [r7, #20]
80101f64:	6abb      	ldr	r3, [r7, #40]	; 0x28
80101f66:	011b      	lsls	r3, r3, #4
80101f68:	b2da      	uxtb	r2, r3
80101f6a:	6a7b      	ldr	r3, [r7, #36]	; 0x24
80101f6c:	021b      	lsls	r3, r3, #8
80101f6e:	b29b      	uxth	r3, r3
80101f70:	4313      	orrs	r3, r2
80101f72:	697a      	ldr	r2, [r7, #20]
80101f74:	4313      	orrs	r3, r2
80101f76:	617b      	str	r3, [r7, #20]
80101f78:	68fb      	ldr	r3, [r7, #12]
80101f7a:	697a      	ldr	r2, [r7, #20]
80101f7c:	62da      	str	r2, [r3, #44]	; 0x2c
80101f7e:	bf00      	nop
80101f80:	68fb      	ldr	r3, [r7, #12]
80101f82:	6a5b      	ldr	r3, [r3, #36]	; 0x24
80101f84:	f003 0308 	and.w	r3, r3, #8
80101f88:	2b00      	cmp	r3, #0
80101f8a:	d0f9      	beq.n	80101f80 <USDHC_SetSdClock+0x15e>
80101f8c:	6a3b      	ldr	r3, [r7, #32]
80101f8e:	4618      	mov	r0, r3
80101f90:	3730      	adds	r7, #48	; 0x30
80101f92:	46bd      	mov	sp, r7
80101f94:	bd80      	pop	{r7, pc}

80101f96 <USDHC_SetCardActive>:
80101f96:	b480      	push	{r7}
80101f98:	b083      	sub	sp, #12
80101f9a:	af00      	add	r7, sp, #0
80101f9c:	6078      	str	r0, [r7, #4]
80101f9e:	6039      	str	r1, [r7, #0]
80101fa0:	687b      	ldr	r3, [r7, #4]
80101fa2:	6adb      	ldr	r3, [r3, #44]	; 0x2c
80101fa4:	f043 6200 	orr.w	r2, r3, #134217728	; 0x8000000
80101fa8:	687b      	ldr	r3, [r7, #4]
80101faa:	62da      	str	r2, [r3, #44]	; 0x2c
80101fac:	e005      	b.n	80101fba <USDHC_SetCardActive+0x24>
80101fae:	683b      	ldr	r3, [r7, #0]
80101fb0:	2b00      	cmp	r3, #0
80101fb2:	d00a      	beq.n	80101fca <USDHC_SetCardActive+0x34>
80101fb4:	683b      	ldr	r3, [r7, #0]
80101fb6:	3b01      	subs	r3, #1
80101fb8:	603b      	str	r3, [r7, #0]
80101fba:	687b      	ldr	r3, [r7, #4]
80101fbc:	6adb      	ldr	r3, [r3, #44]	; 0x2c
80101fbe:	f003 6300 	and.w	r3, r3, #134217728	; 0x8000000
80101fc2:	f1b3 6f00 	cmp.w	r3, #134217728	; 0x8000000
80101fc6:	d0f2      	beq.n	80101fae <USDHC_SetCardActive+0x18>
80101fc8:	e000      	b.n	80101fcc <USDHC_SetCardActive+0x36>
80101fca:	bf00      	nop
80101fcc:	683b      	ldr	r3, [r7, #0]
80101fce:	2b00      	cmp	r3, #0
80101fd0:	bf14      	ite	ne
80101fd2:	2301      	movne	r3, #1
80101fd4:	2300      	moveq	r3, #0
80101fd6:	b2db      	uxtb	r3, r3
80101fd8:	4618      	mov	r0, r3
80101fda:	370c      	adds	r7, #12
80101fdc:	46bd      	mov	sp, r7
80101fde:	f85d 7b04 	ldr.w	r7, [sp], #4
80101fe2:	4770      	bx	lr

80101fe4 <USDHC_GetResponse>:
80101fe4:	b480      	push	{r7}
80101fe6:	b083      	sub	sp, #12
80101fe8:	af00      	add	r7, sp, #0
80101fea:	6078      	str	r0, [r7, #4]
80101fec:	6039      	str	r1, [r7, #0]
80101fee:	683b      	ldr	r3, [r7, #0]
80101ff0:	330c      	adds	r3, #12
80101ff2:	687a      	ldr	r2, [r7, #4]
80101ff4:	69d2      	ldr	r2, [r2, #28]
80101ff6:	0211      	lsls	r1, r2, #8
80101ff8:	687a      	ldr	r2, [r7, #4]
80101ffa:	6992      	ldr	r2, [r2, #24]
80101ffc:	0e12      	lsrs	r2, r2, #24
80101ffe:	430a      	orrs	r2, r1
80102000:	601a      	str	r2, [r3, #0]
80102002:	683b      	ldr	r3, [r7, #0]
80102004:	3308      	adds	r3, #8
80102006:	687a      	ldr	r2, [r7, #4]
80102008:	6992      	ldr	r2, [r2, #24]
8010200a:	0211      	lsls	r1, r2, #8
8010200c:	687a      	ldr	r2, [r7, #4]
8010200e:	6952      	ldr	r2, [r2, #20]
80102010:	0e12      	lsrs	r2, r2, #24
80102012:	430a      	orrs	r2, r1
80102014:	601a      	str	r2, [r3, #0]
80102016:	683b      	ldr	r3, [r7, #0]
80102018:	3304      	adds	r3, #4
8010201a:	687a      	ldr	r2, [r7, #4]
8010201c:	6952      	ldr	r2, [r2, #20]
8010201e:	0211      	lsls	r1, r2, #8
80102020:	687a      	ldr	r2, [r7, #4]
80102022:	6912      	ldr	r2, [r2, #16]
80102024:	0e12      	lsrs	r2, r2, #24
80102026:	430a      	orrs	r2, r1
80102028:	601a      	str	r2, [r3, #0]
8010202a:	687b      	ldr	r3, [r7, #4]
8010202c:	691b      	ldr	r3, [r3, #16]
8010202e:	021a      	lsls	r2, r3, #8
80102030:	683b      	ldr	r3, [r7, #0]
80102032:	601a      	str	r2, [r3, #0]
80102034:	bf00      	nop
80102036:	370c      	adds	r7, #12
80102038:	46bd      	mov	sp, r7
8010203a:	f85d 7b04 	ldr.w	r7, [sp], #4
8010203e:	4770      	bx	lr

80102040 <SD_DecodeCid>:
80102040:	b480      	push	{r7}
80102042:	b085      	sub	sp, #20
80102044:	af00      	add	r7, sp, #0
80102046:	6078      	str	r0, [r7, #4]
80102048:	6039      	str	r1, [r7, #0]
8010204a:	687b      	ldr	r3, [r7, #4]
8010204c:	3340      	adds	r3, #64	; 0x40
8010204e:	60fb      	str	r3, [r7, #12]
80102050:	683b      	ldr	r3, [r7, #0]
80102052:	330c      	adds	r3, #12
80102054:	681b      	ldr	r3, [r3, #0]
80102056:	0e1b      	lsrs	r3, r3, #24
80102058:	b2da      	uxtb	r2, r3
8010205a:	68fb      	ldr	r3, [r7, #12]
8010205c:	701a      	strb	r2, [r3, #0]
8010205e:	683b      	ldr	r3, [r7, #0]
80102060:	330c      	adds	r3, #12
80102062:	681b      	ldr	r3, [r3, #0]
80102064:	0a1b      	lsrs	r3, r3, #8
80102066:	b29a      	uxth	r2, r3
80102068:	68fb      	ldr	r3, [r7, #12]
8010206a:	805a      	strh	r2, [r3, #2]
8010206c:	683b      	ldr	r3, [r7, #0]
8010206e:	330c      	adds	r3, #12
80102070:	681b      	ldr	r3, [r3, #0]
80102072:	b2da      	uxtb	r2, r3
80102074:	68fb      	ldr	r3, [r7, #12]
80102076:	711a      	strb	r2, [r3, #4]
80102078:	683b      	ldr	r3, [r7, #0]
8010207a:	3308      	adds	r3, #8
8010207c:	681b      	ldr	r3, [r3, #0]
8010207e:	0e1b      	lsrs	r3, r3, #24
80102080:	b2da      	uxtb	r2, r3
80102082:	68fb      	ldr	r3, [r7, #12]
80102084:	715a      	strb	r2, [r3, #5]
80102086:	683b      	ldr	r3, [r7, #0]
80102088:	3308      	adds	r3, #8
8010208a:	681b      	ldr	r3, [r3, #0]
8010208c:	0c1b      	lsrs	r3, r3, #16
8010208e:	b2da      	uxtb	r2, r3
80102090:	68fb      	ldr	r3, [r7, #12]
80102092:	719a      	strb	r2, [r3, #6]
80102094:	683b      	ldr	r3, [r7, #0]
80102096:	3308      	adds	r3, #8
80102098:	681b      	ldr	r3, [r3, #0]
8010209a:	0a1b      	lsrs	r3, r3, #8
8010209c:	b2da      	uxtb	r2, r3
8010209e:	68fb      	ldr	r3, [r7, #12]
801020a0:	71da      	strb	r2, [r3, #7]
801020a2:	683b      	ldr	r3, [r7, #0]
801020a4:	3308      	adds	r3, #8
801020a6:	681b      	ldr	r3, [r3, #0]
801020a8:	b2da      	uxtb	r2, r3
801020aa:	68fb      	ldr	r3, [r7, #12]
801020ac:	721a      	strb	r2, [r3, #8]
801020ae:	683b      	ldr	r3, [r7, #0]
801020b0:	3304      	adds	r3, #4
801020b2:	681b      	ldr	r3, [r3, #0]
801020b4:	0e1b      	lsrs	r3, r3, #24
801020b6:	b2da      	uxtb	r2, r3
801020b8:	68fb      	ldr	r3, [r7, #12]
801020ba:	725a      	strb	r2, [r3, #9]
801020bc:	683b      	ldr	r3, [r7, #0]
801020be:	3304      	adds	r3, #4
801020c0:	681b      	ldr	r3, [r3, #0]
801020c2:	021a      	lsls	r2, r3, #8
801020c4:	68fb      	ldr	r3, [r7, #12]
801020c6:	60da      	str	r2, [r3, #12]
801020c8:	68fb      	ldr	r3, [r7, #12]
801020ca:	68da      	ldr	r2, [r3, #12]
801020cc:	683b      	ldr	r3, [r7, #0]
801020ce:	681b      	ldr	r3, [r3, #0]
801020d0:	0e1b      	lsrs	r3, r3, #24
801020d2:	431a      	orrs	r2, r3
801020d4:	68fb      	ldr	r3, [r7, #12]
801020d6:	60da      	str	r2, [r3, #12]
801020d8:	683b      	ldr	r3, [r7, #0]
801020da:	681b      	ldr	r3, [r3, #0]
801020dc:	0a1b      	lsrs	r3, r3, #8
801020de:	b29b      	uxth	r3, r3
801020e0:	f3c3 030b 	ubfx	r3, r3, #0, #12
801020e4:	b29a      	uxth	r2, r3
801020e6:	68fb      	ldr	r3, [r7, #12]
801020e8:	821a      	strh	r2, [r3, #16]
801020ea:	bf00      	nop
801020ec:	3714      	adds	r7, #20
801020ee:	46bd      	mov	sp, r7
801020f0:	f85d 7b04 	ldr.w	r7, [sp], #4
801020f4:	4770      	bx	lr

801020f6 <SD_DecodeCsd>:
801020f6:	b590      	push	{r4, r7, lr}
801020f8:	b085      	sub	sp, #20
801020fa:	af00      	add	r7, sp, #0
801020fc:	6078      	str	r0, [r7, #4]
801020fe:	6039      	str	r1, [r7, #0]
80102100:	687b      	ldr	r3, [r7, #4]
80102102:	3354      	adds	r3, #84	; 0x54
80102104:	60fb      	str	r3, [r7, #12]
80102106:	683b      	ldr	r3, [r7, #0]
80102108:	330c      	adds	r3, #12
8010210a:	681b      	ldr	r3, [r3, #0]
8010210c:	0f9b      	lsrs	r3, r3, #30
8010210e:	b2da      	uxtb	r2, r3
80102110:	68fb      	ldr	r3, [r7, #12]
80102112:	701a      	strb	r2, [r3, #0]
80102114:	683b      	ldr	r3, [r7, #0]
80102116:	330c      	adds	r3, #12
80102118:	681b      	ldr	r3, [r3, #0]
8010211a:	0c1b      	lsrs	r3, r3, #16
8010211c:	b2da      	uxtb	r2, r3
8010211e:	68fb      	ldr	r3, [r7, #12]
80102120:	705a      	strb	r2, [r3, #1]
80102122:	683b      	ldr	r3, [r7, #0]
80102124:	330c      	adds	r3, #12
80102126:	681b      	ldr	r3, [r3, #0]
80102128:	0a1b      	lsrs	r3, r3, #8
8010212a:	b2da      	uxtb	r2, r3
8010212c:	68fb      	ldr	r3, [r7, #12]
8010212e:	709a      	strb	r2, [r3, #2]
80102130:	683b      	ldr	r3, [r7, #0]
80102132:	330c      	adds	r3, #12
80102134:	681b      	ldr	r3, [r3, #0]
80102136:	b2da      	uxtb	r2, r3
80102138:	68fb      	ldr	r3, [r7, #12]
8010213a:	70da      	strb	r2, [r3, #3]
8010213c:	683b      	ldr	r3, [r7, #0]
8010213e:	3308      	adds	r3, #8
80102140:	681b      	ldr	r3, [r3, #0]
80102142:	0d1b      	lsrs	r3, r3, #20
80102144:	b29a      	uxth	r2, r3
80102146:	68fb      	ldr	r3, [r7, #12]
80102148:	809a      	strh	r2, [r3, #4]
8010214a:	683b      	ldr	r3, [r7, #0]
8010214c:	3308      	adds	r3, #8
8010214e:	681b      	ldr	r3, [r3, #0]
80102150:	0c1b      	lsrs	r3, r3, #16
80102152:	b2db      	uxtb	r3, r3
80102154:	f003 030f 	and.w	r3, r3, #15
80102158:	b2da      	uxtb	r2, r3
8010215a:	68fb      	ldr	r3, [r7, #12]
8010215c:	719a      	strb	r2, [r3, #6]
8010215e:	683b      	ldr	r3, [r7, #0]
80102160:	3308      	adds	r3, #8
80102162:	681b      	ldr	r3, [r3, #0]
80102164:	f403 4300 	and.w	r3, r3, #32768	; 0x8000
80102168:	2b00      	cmp	r3, #0
8010216a:	d006      	beq.n	8010217a <SD_DecodeCsd+0x84>
8010216c:	68fb      	ldr	r3, [r7, #12]
8010216e:	891b      	ldrh	r3, [r3, #8]
80102170:	f043 0301 	orr.w	r3, r3, #1
80102174:	b29a      	uxth	r2, r3
80102176:	68fb      	ldr	r3, [r7, #12]
80102178:	811a      	strh	r2, [r3, #8]
8010217a:	683b      	ldr	r3, [r7, #0]
8010217c:	3308      	adds	r3, #8
8010217e:	681b      	ldr	r3, [r3, #0]
80102180:	f403 4380 	and.w	r3, r3, #16384	; 0x4000
80102184:	2b00      	cmp	r3, #0
80102186:	d006      	beq.n	80102196 <SD_DecodeCsd+0xa0>
80102188:	68fb      	ldr	r3, [r7, #12]
8010218a:	891b      	ldrh	r3, [r3, #8]
8010218c:	f043 0301 	orr.w	r3, r3, #1
80102190:	b29a      	uxth	r2, r3
80102192:	68fb      	ldr	r3, [r7, #12]
80102194:	811a      	strh	r2, [r3, #8]
80102196:	683b      	ldr	r3, [r7, #0]
80102198:	3308      	adds	r3, #8
8010219a:	681b      	ldr	r3, [r3, #0]
8010219c:	f403 5300 	and.w	r3, r3, #8192	; 0x2000
801021a0:	2b00      	cmp	r3, #0
801021a2:	d006      	beq.n	801021b2 <SD_DecodeCsd+0xbc>
801021a4:	68fb      	ldr	r3, [r7, #12]
801021a6:	891b      	ldrh	r3, [r3, #8]
801021a8:	f043 0304 	orr.w	r3, r3, #4
801021ac:	b29a      	uxth	r2, r3
801021ae:	68fb      	ldr	r3, [r7, #12]
801021b0:	811a      	strh	r2, [r3, #8]
801021b2:	683b      	ldr	r3, [r7, #0]
801021b4:	3308      	adds	r3, #8
801021b6:	681b      	ldr	r3, [r3, #0]
801021b8:	f403 5380 	and.w	r3, r3, #4096	; 0x1000
801021bc:	2b00      	cmp	r3, #0
801021be:	d006      	beq.n	801021ce <SD_DecodeCsd+0xd8>
801021c0:	68fb      	ldr	r3, [r7, #12]
801021c2:	891b      	ldrh	r3, [r3, #8]
801021c4:	f043 0308 	orr.w	r3, r3, #8
801021c8:	b29a      	uxth	r2, r3
801021ca:	68fb      	ldr	r3, [r7, #12]
801021cc:	811a      	strh	r2, [r3, #8]
801021ce:	68fb      	ldr	r3, [r7, #12]
801021d0:	781b      	ldrb	r3, [r3, #0]
801021d2:	2b00      	cmp	r3, #0
801021d4:	d003      	beq.n	801021de <SD_DecodeCsd+0xe8>
801021d6:	2b01      	cmp	r3, #1
801021d8:	f000 8085 	beq.w	801022e6 <SD_DecodeCsd+0x1f0>
801021dc:	e0ac      	b.n	80102338 <SD_DecodeCsd+0x242>
801021de:	683b      	ldr	r3, [r7, #0]
801021e0:	3308      	adds	r3, #8
801021e2:	681b      	ldr	r3, [r3, #0]
801021e4:	009a      	lsls	r2, r3, #2
801021e6:	f640 73fc 	movw	r3, #4092	; 0xffc
801021ea:	4013      	ands	r3, r2
801021ec:	68fa      	ldr	r2, [r7, #12]
801021ee:	60d3      	str	r3, [r2, #12]
801021f0:	68fb      	ldr	r3, [r7, #12]
801021f2:	68da      	ldr	r2, [r3, #12]
801021f4:	683b      	ldr	r3, [r7, #0]
801021f6:	3304      	adds	r3, #4
801021f8:	681b      	ldr	r3, [r3, #0]
801021fa:	0f9b      	lsrs	r3, r3, #30
801021fc:	431a      	orrs	r2, r3
801021fe:	68fb      	ldr	r3, [r7, #12]
80102200:	60da      	str	r2, [r3, #12]
80102202:	683b      	ldr	r3, [r7, #0]
80102204:	3304      	adds	r3, #4
80102206:	681b      	ldr	r3, [r3, #0]
80102208:	0edb      	lsrs	r3, r3, #27
8010220a:	b2db      	uxtb	r3, r3
8010220c:	f003 0307 	and.w	r3, r3, #7
80102210:	b2da      	uxtb	r2, r3
80102212:	68fb      	ldr	r3, [r7, #12]
80102214:	741a      	strb	r2, [r3, #16]
80102216:	683b      	ldr	r3, [r7, #0]
80102218:	3304      	adds	r3, #4
8010221a:	681b      	ldr	r3, [r3, #0]
8010221c:	0e1b      	lsrs	r3, r3, #24
8010221e:	b2db      	uxtb	r3, r3
80102220:	f003 0307 	and.w	r3, r3, #7
80102224:	b2da      	uxtb	r2, r3
80102226:	68fb      	ldr	r3, [r7, #12]
80102228:	745a      	strb	r2, [r3, #17]
8010222a:	683b      	ldr	r3, [r7, #0]
8010222c:	3304      	adds	r3, #4
8010222e:	681b      	ldr	r3, [r3, #0]
80102230:	0d1b      	lsrs	r3, r3, #20
80102232:	b2db      	uxtb	r3, r3
80102234:	f003 030e 	and.w	r3, r3, #14
80102238:	b2da      	uxtb	r2, r3
8010223a:	68fb      	ldr	r3, [r7, #12]
8010223c:	749a      	strb	r2, [r3, #18]
8010223e:	683b      	ldr	r3, [r7, #0]
80102240:	3304      	adds	r3, #4
80102242:	681b      	ldr	r3, [r3, #0]
80102244:	0c9b      	lsrs	r3, r3, #18
80102246:	b2db      	uxtb	r3, r3
80102248:	f003 0307 	and.w	r3, r3, #7
8010224c:	b2da      	uxtb	r2, r3
8010224e:	68fb      	ldr	r3, [r7, #12]
80102250:	74da      	strb	r2, [r3, #19]
80102252:	683b      	ldr	r3, [r7, #0]
80102254:	3304      	adds	r3, #4
80102256:	681b      	ldr	r3, [r3, #0]
80102258:	0bdb      	lsrs	r3, r3, #15
8010225a:	b2db      	uxtb	r3, r3
8010225c:	f003 0307 	and.w	r3, r3, #7
80102260:	b2da      	uxtb	r2, r3
80102262:	68fb      	ldr	r3, [r7, #12]
80102264:	751a      	strb	r2, [r3, #20]
80102266:	68fb      	ldr	r3, [r7, #12]
80102268:	68db      	ldr	r3, [r3, #12]
8010226a:	1c5a      	adds	r2, r3, #1
8010226c:	68fb      	ldr	r3, [r7, #12]
8010226e:	7d1b      	ldrb	r3, [r3, #20]
80102270:	3302      	adds	r3, #2
80102272:	409a      	lsls	r2, r3
80102274:	687b      	ldr	r3, [r7, #4]
80102276:	67da      	str	r2, [r3, #124]	; 0x7c
80102278:	68fb      	ldr	r3, [r7, #12]
8010227a:	799b      	ldrb	r3, [r3, #6]
8010227c:	461a      	mov	r2, r3
8010227e:	2301      	movs	r3, #1
80102280:	fa03 f202 	lsl.w	r2, r3, r2
80102284:	687b      	ldr	r3, [r7, #4]
80102286:	f8c3 2080 	str.w	r2, [r3, #128]	; 0x80
8010228a:	687b      	ldr	r3, [r7, #4]
8010228c:	f8d3 3080 	ldr.w	r3, [r3, #128]	; 0x80
80102290:	f5b3 7f00 	cmp.w	r3, #512	; 0x200
80102294:	d01a      	beq.n	801022cc <SD_DecodeCsd+0x1d6>
80102296:	687b      	ldr	r3, [r7, #4]
80102298:	6fdb      	ldr	r3, [r3, #124]	; 0x7c
8010229a:	687a      	ldr	r2, [r7, #4]
8010229c:	f8d2 2080 	ldr.w	r2, [r2, #128]	; 0x80
801022a0:	fb02 f203 	mul.w	r2, r2, r3
801022a4:	687b      	ldr	r3, [r7, #4]
801022a6:	67da      	str	r2, [r3, #124]	; 0x7c
801022a8:	687b      	ldr	r3, [r7, #4]
801022aa:	f44f 7200 	mov.w	r2, #512	; 0x200
801022ae:	f8c3 2080 	str.w	r2, [r3, #128]	; 0x80
801022b2:	687b      	ldr	r3, [r7, #4]
801022b4:	6fda      	ldr	r2, [r3, #124]	; 0x7c
801022b6:	687b      	ldr	r3, [r7, #4]
801022b8:	f8d3 3080 	ldr.w	r3, [r3, #128]	; 0x80
801022bc:	4619      	mov	r1, r3
801022be:	4610      	mov	r0, r2
801022c0:	f001 fbd2 	bl	80103a68 <__aeabi_uidiv>
801022c4:	4603      	mov	r3, r0
801022c6:	461a      	mov	r2, r3
801022c8:	687b      	ldr	r3, [r7, #4]
801022ca:	67da      	str	r2, [r3, #124]	; 0x7c
801022cc:	687b      	ldr	r3, [r7, #4]
801022ce:	6fdb      	ldr	r3, [r3, #124]	; 0x7c
801022d0:	687a      	ldr	r2, [r7, #4]
801022d2:	f8d2 2080 	ldr.w	r2, [r2, #128]	; 0x80
801022d6:	fb02 f303 	mul.w	r3, r2, r3
801022da:	f04f 0400 	mov.w	r4, #0
801022de:	687a      	ldr	r2, [r7, #4]
801022e0:	e9c2 3422 	strd	r3, r4, [r2, #136]	; 0x88
801022e4:	e028      	b.n	80102338 <SD_DecodeCsd+0x242>
801022e6:	687b      	ldr	r3, [r7, #4]
801022e8:	f44f 7200 	mov.w	r2, #512	; 0x200
801022ec:	f8c3 2080 	str.w	r2, [r3, #128]	; 0x80
801022f0:	683b      	ldr	r3, [r7, #0]
801022f2:	3308      	adds	r3, #8
801022f4:	681b      	ldr	r3, [r3, #0]
801022f6:	041b      	lsls	r3, r3, #16
801022f8:	f403 127c 	and.w	r2, r3, #4128768	; 0x3f0000
801022fc:	68fb      	ldr	r3, [r7, #12]
801022fe:	60da      	str	r2, [r3, #12]
80102300:	68fb      	ldr	r3, [r7, #12]
80102302:	68da      	ldr	r2, [r3, #12]
80102304:	683b      	ldr	r3, [r7, #0]
80102306:	3304      	adds	r3, #4
80102308:	681b      	ldr	r3, [r3, #0]
8010230a:	0c1b      	lsrs	r3, r3, #16
8010230c:	431a      	orrs	r2, r3
8010230e:	68fb      	ldr	r3, [r7, #12]
80102310:	60da      	str	r2, [r3, #12]
80102312:	68fb      	ldr	r3, [r7, #12]
80102314:	68db      	ldr	r3, [r3, #12]
80102316:	3301      	adds	r3, #1
80102318:	029a      	lsls	r2, r3, #10
8010231a:	687b      	ldr	r3, [r7, #4]
8010231c:	67da      	str	r2, [r3, #124]	; 0x7c
8010231e:	687b      	ldr	r3, [r7, #4]
80102320:	f8d3 3080 	ldr.w	r3, [r3, #128]	; 0x80
80102324:	687a      	ldr	r2, [r7, #4]
80102326:	6fd2      	ldr	r2, [r2, #124]	; 0x7c
80102328:	fb02 f303 	mul.w	r3, r2, r3
8010232c:	f04f 0400 	mov.w	r4, #0
80102330:	687a      	ldr	r2, [r7, #4]
80102332:	e9c2 3422 	strd	r3, r4, [r2, #136]	; 0x88
80102336:	bf00      	nop
80102338:	683b      	ldr	r3, [r7, #0]
8010233a:	3304      	adds	r3, #4
8010233c:	681b      	ldr	r3, [r3, #0]
8010233e:	0b9b      	lsrs	r3, r3, #14
80102340:	b2db      	uxtb	r3, r3
80102342:	f003 0301 	and.w	r3, r3, #1
80102346:	b2db      	uxtb	r3, r3
80102348:	2b00      	cmp	r3, #0
8010234a:	d006      	beq.n	8010235a <SD_DecodeCsd+0x264>
8010234c:	68fb      	ldr	r3, [r7, #12]
8010234e:	891b      	ldrh	r3, [r3, #8]
80102350:	f043 0310 	orr.w	r3, r3, #16
80102354:	b29a      	uxth	r2, r3
80102356:	68fb      	ldr	r3, [r7, #12]
80102358:	811a      	strh	r2, [r3, #8]
8010235a:	683b      	ldr	r3, [r7, #0]
8010235c:	3304      	adds	r3, #4
8010235e:	681b      	ldr	r3, [r3, #0]
80102360:	09db      	lsrs	r3, r3, #7
80102362:	b2db      	uxtb	r3, r3
80102364:	f003 037f 	and.w	r3, r3, #127	; 0x7f
80102368:	b2da      	uxtb	r2, r3
8010236a:	68fb      	ldr	r3, [r7, #12]
8010236c:	755a      	strb	r2, [r3, #21]
8010236e:	683b      	ldr	r3, [r7, #0]
80102370:	3304      	adds	r3, #4
80102372:	681b      	ldr	r3, [r3, #0]
80102374:	b2db      	uxtb	r3, r3
80102376:	f003 037f 	and.w	r3, r3, #127	; 0x7f
8010237a:	b2da      	uxtb	r2, r3
8010237c:	68fb      	ldr	r3, [r7, #12]
8010237e:	759a      	strb	r2, [r3, #22]
80102380:	683b      	ldr	r3, [r7, #0]
80102382:	681b      	ldr	r3, [r3, #0]
80102384:	0e9b      	lsrs	r3, r3, #26
80102386:	b2db      	uxtb	r3, r3
80102388:	f003 0307 	and.w	r3, r3, #7
8010238c:	b2da      	uxtb	r2, r3
8010238e:	68fb      	ldr	r3, [r7, #12]
80102390:	75da      	strb	r2, [r3, #23]
80102392:	683b      	ldr	r3, [r7, #0]
80102394:	681b      	ldr	r3, [r3, #0]
80102396:	0d9b      	lsrs	r3, r3, #22
80102398:	b2db      	uxtb	r3, r3
8010239a:	f003 030f 	and.w	r3, r3, #15
8010239e:	b2da      	uxtb	r2, r3
801023a0:	68fb      	ldr	r3, [r7, #12]
801023a2:	761a      	strb	r2, [r3, #24]
801023a4:	683b      	ldr	r3, [r7, #0]
801023a6:	681b      	ldr	r3, [r3, #0]
801023a8:	0d5b      	lsrs	r3, r3, #21
801023aa:	b2db      	uxtb	r3, r3
801023ac:	f003 0301 	and.w	r3, r3, #1
801023b0:	b2db      	uxtb	r3, r3
801023b2:	2b00      	cmp	r3, #0
801023b4:	d006      	beq.n	801023c4 <SD_DecodeCsd+0x2ce>
801023b6:	68fb      	ldr	r3, [r7, #12]
801023b8:	891b      	ldrh	r3, [r3, #8]
801023ba:	f043 0340 	orr.w	r3, r3, #64	; 0x40
801023be:	b29a      	uxth	r2, r3
801023c0:	68fb      	ldr	r3, [r7, #12]
801023c2:	811a      	strh	r2, [r3, #8]
801023c4:	683b      	ldr	r3, [r7, #0]
801023c6:	681b      	ldr	r3, [r3, #0]
801023c8:	0bdb      	lsrs	r3, r3, #15
801023ca:	b2db      	uxtb	r3, r3
801023cc:	f003 0301 	and.w	r3, r3, #1
801023d0:	b2db      	uxtb	r3, r3
801023d2:	2b00      	cmp	r3, #0
801023d4:	d006      	beq.n	801023e4 <SD_DecodeCsd+0x2ee>
801023d6:	68fb      	ldr	r3, [r7, #12]
801023d8:	891b      	ldrh	r3, [r3, #8]
801023da:	f043 0380 	orr.w	r3, r3, #128	; 0x80
801023de:	b29a      	uxth	r2, r3
801023e0:	68fb      	ldr	r3, [r7, #12]
801023e2:	811a      	strh	r2, [r3, #8]
801023e4:	683b      	ldr	r3, [r7, #0]
801023e6:	681b      	ldr	r3, [r3, #0]
801023e8:	0b9b      	lsrs	r3, r3, #14
801023ea:	b2db      	uxtb	r3, r3
801023ec:	f003 0301 	and.w	r3, r3, #1
801023f0:	b2db      	uxtb	r3, r3
801023f2:	2b00      	cmp	r3, #0
801023f4:	d006      	beq.n	80102404 <SD_DecodeCsd+0x30e>
801023f6:	68fb      	ldr	r3, [r7, #12]
801023f8:	891b      	ldrh	r3, [r3, #8]
801023fa:	f443 7380 	orr.w	r3, r3, #256	; 0x100
801023fe:	b29a      	uxth	r2, r3
80102400:	68fb      	ldr	r3, [r7, #12]
80102402:	811a      	strh	r2, [r3, #8]
80102404:	683b      	ldr	r3, [r7, #0]
80102406:	681b      	ldr	r3, [r3, #0]
80102408:	0b5b      	lsrs	r3, r3, #13
8010240a:	b2db      	uxtb	r3, r3
8010240c:	f003 0301 	and.w	r3, r3, #1
80102410:	b2db      	uxtb	r3, r3
80102412:	2b00      	cmp	r3, #0
80102414:	d006      	beq.n	80102424 <SD_DecodeCsd+0x32e>
80102416:	68fb      	ldr	r3, [r7, #12]
80102418:	891b      	ldrh	r3, [r3, #8]
8010241a:	f443 7300 	orr.w	r3, r3, #512	; 0x200
8010241e:	b29a      	uxth	r2, r3
80102420:	68fb      	ldr	r3, [r7, #12]
80102422:	811a      	strh	r2, [r3, #8]
80102424:	683b      	ldr	r3, [r7, #0]
80102426:	681b      	ldr	r3, [r3, #0]
80102428:	0b1b      	lsrs	r3, r3, #12
8010242a:	b2db      	uxtb	r3, r3
8010242c:	f003 0301 	and.w	r3, r3, #1
80102430:	b2db      	uxtb	r3, r3
80102432:	2b00      	cmp	r3, #0
80102434:	d006      	beq.n	80102444 <SD_DecodeCsd+0x34e>
80102436:	68fb      	ldr	r3, [r7, #12]
80102438:	891b      	ldrh	r3, [r3, #8]
8010243a:	f443 6380 	orr.w	r3, r3, #1024	; 0x400
8010243e:	b29a      	uxth	r2, r3
80102440:	68fb      	ldr	r3, [r7, #12]
80102442:	811a      	strh	r2, [r3, #8]
80102444:	683b      	ldr	r3, [r7, #0]
80102446:	681b      	ldr	r3, [r3, #0]
80102448:	0a9b      	lsrs	r3, r3, #10
8010244a:	b2db      	uxtb	r3, r3
8010244c:	f003 0303 	and.w	r3, r3, #3
80102450:	b2da      	uxtb	r2, r3
80102452:	68fb      	ldr	r3, [r7, #12]
80102454:	765a      	strb	r2, [r3, #25]
80102456:	bf00      	nop
80102458:	3714      	adds	r7, #20
8010245a:	46bd      	mov	sp, r7
8010245c:	bd90      	pop	{r4, r7, pc}

8010245e <SD_DecodeScr>:
8010245e:	b480      	push	{r7}
80102460:	b085      	sub	sp, #20
80102462:	af00      	add	r7, sp, #0
80102464:	6078      	str	r0, [r7, #4]
80102466:	6039      	str	r1, [r7, #0]
80102468:	687b      	ldr	r3, [r7, #4]
8010246a:	3370      	adds	r3, #112	; 0x70
8010246c:	60fb      	str	r3, [r7, #12]
8010246e:	683b      	ldr	r3, [r7, #0]
80102470:	681b      	ldr	r3, [r3, #0]
80102472:	0f1b      	lsrs	r3, r3, #28
80102474:	b2da      	uxtb	r2, r3
80102476:	68fb      	ldr	r3, [r7, #12]
80102478:	701a      	strb	r2, [r3, #0]
8010247a:	683b      	ldr	r3, [r7, #0]
8010247c:	681b      	ldr	r3, [r3, #0]
8010247e:	0e1b      	lsrs	r3, r3, #24
80102480:	b2db      	uxtb	r3, r3
80102482:	f003 030f 	and.w	r3, r3, #15
80102486:	b2da      	uxtb	r2, r3
80102488:	68fb      	ldr	r3, [r7, #12]
8010248a:	705a      	strb	r2, [r3, #1]
8010248c:	683b      	ldr	r3, [r7, #0]
8010248e:	681b      	ldr	r3, [r3, #0]
80102490:	0ddb      	lsrs	r3, r3, #23
80102492:	b2db      	uxtb	r3, r3
80102494:	f003 0301 	and.w	r3, r3, #1
80102498:	b2db      	uxtb	r3, r3
8010249a:	2b00      	cmp	r3, #0
8010249c:	d006      	beq.n	801024ac <SD_DecodeScr+0x4e>
8010249e:	68fb      	ldr	r3, [r7, #12]
801024a0:	885b      	ldrh	r3, [r3, #2]
801024a2:	f043 0301 	orr.w	r3, r3, #1
801024a6:	b29a      	uxth	r2, r3
801024a8:	68fb      	ldr	r3, [r7, #12]
801024aa:	805a      	strh	r2, [r3, #2]
801024ac:	683b      	ldr	r3, [r7, #0]
801024ae:	681b      	ldr	r3, [r3, #0]
801024b0:	0d1b      	lsrs	r3, r3, #20
801024b2:	b2db      	uxtb	r3, r3
801024b4:	f003 0307 	and.w	r3, r3, #7
801024b8:	b2da      	uxtb	r2, r3
801024ba:	68fb      	ldr	r3, [r7, #12]
801024bc:	711a      	strb	r2, [r3, #4]
801024be:	683b      	ldr	r3, [r7, #0]
801024c0:	681b      	ldr	r3, [r3, #0]
801024c2:	0c1b      	lsrs	r3, r3, #16
801024c4:	b2db      	uxtb	r3, r3
801024c6:	f003 030f 	and.w	r3, r3, #15
801024ca:	b2da      	uxtb	r2, r3
801024cc:	68fb      	ldr	r3, [r7, #12]
801024ce:	715a      	strb	r2, [r3, #5]
801024d0:	683b      	ldr	r3, [r7, #0]
801024d2:	681b      	ldr	r3, [r3, #0]
801024d4:	0bdb      	lsrs	r3, r3, #15
801024d6:	b2db      	uxtb	r3, r3
801024d8:	f003 0301 	and.w	r3, r3, #1
801024dc:	b2db      	uxtb	r3, r3
801024de:	2b00      	cmp	r3, #0
801024e0:	d006      	beq.n	801024f0 <SD_DecodeScr+0x92>
801024e2:	68fb      	ldr	r3, [r7, #12]
801024e4:	885b      	ldrh	r3, [r3, #2]
801024e6:	f043 0302 	orr.w	r3, r3, #2
801024ea:	b29a      	uxth	r2, r3
801024ec:	68fb      	ldr	r3, [r7, #12]
801024ee:	805a      	strh	r2, [r3, #2]
801024f0:	683b      	ldr	r3, [r7, #0]
801024f2:	681b      	ldr	r3, [r3, #0]
801024f4:	0a9b      	lsrs	r3, r3, #10
801024f6:	b2db      	uxtb	r3, r3
801024f8:	f003 031e 	and.w	r3, r3, #30
801024fc:	b2da      	uxtb	r2, r3
801024fe:	68fb      	ldr	r3, [r7, #12]
80102500:	719a      	strb	r2, [r3, #6]
80102502:	683b      	ldr	r3, [r7, #0]
80102504:	681b      	ldr	r3, [r3, #0]
80102506:	b2db      	uxtb	r3, r3
80102508:	f003 0303 	and.w	r3, r3, #3
8010250c:	b2da      	uxtb	r2, r3
8010250e:	68fb      	ldr	r3, [r7, #12]
80102510:	71da      	strb	r2, [r3, #7]
80102512:	683b      	ldr	r3, [r7, #0]
80102514:	685a      	ldr	r2, [r3, #4]
80102516:	68fb      	ldr	r3, [r7, #12]
80102518:	609a      	str	r2, [r3, #8]
8010251a:	68fb      	ldr	r3, [r7, #12]
8010251c:	785b      	ldrb	r3, [r3, #1]
8010251e:	2b01      	cmp	r3, #1
80102520:	d008      	beq.n	80102534 <SD_DecodeScr+0xd6>
80102522:	2b02      	cmp	r3, #2
80102524:	d00a      	beq.n	8010253c <SD_DecodeScr+0xde>
80102526:	2b00      	cmp	r3, #0
80102528:	d000      	beq.n	8010252c <SD_DecodeScr+0xce>
8010252a:	e015      	b.n	80102558 <SD_DecodeScr+0xfa>
8010252c:	687b      	ldr	r3, [r7, #4]
8010252e:	2201      	movs	r2, #1
80102530:	60da      	str	r2, [r3, #12]
80102532:	e011      	b.n	80102558 <SD_DecodeScr+0xfa>
80102534:	687b      	ldr	r3, [r7, #4]
80102536:	2202      	movs	r2, #2
80102538:	60da      	str	r2, [r3, #12]
8010253a:	e00d      	b.n	80102558 <SD_DecodeScr+0xfa>
8010253c:	687b      	ldr	r3, [r7, #4]
8010253e:	2204      	movs	r2, #4
80102540:	60da      	str	r2, [r3, #12]
80102542:	687b      	ldr	r3, [r7, #4]
80102544:	f8b3 3072 	ldrh.w	r3, [r3, #114]	; 0x72
80102548:	f003 0302 	and.w	r3, r3, #2
8010254c:	2b00      	cmp	r3, #0
8010254e:	d002      	beq.n	80102556 <SD_DecodeScr+0xf8>
80102550:	687b      	ldr	r3, [r7, #4]
80102552:	2208      	movs	r2, #8
80102554:	60da      	str	r2, [r3, #12]
80102556:	bf00      	nop
80102558:	bf00      	nop
8010255a:	3714      	adds	r7, #20
8010255c:	46bd      	mov	sp, r7
8010255e:	f85d 7b04 	ldr.w	r7, [sp], #4
80102562:	4770      	bx	lr

80102564 <SD_SelectBusTiming>:
80102564:	b580      	push	{r7, lr}
80102566:	b0c6      	sub	sp, #280	; 0x118
80102568:	af02      	add	r7, sp, #8
8010256a:	1d3b      	adds	r3, r7, #4
8010256c:	6018      	str	r0, [r3, #0]
8010256e:	f64f 73f1 	movw	r3, #65521	; 0xfff1
80102572:	f2c8 03ff 	movt	r3, #33023	; 0x80ff
80102576:	f8c7 310c 	str.w	r3, [r7, #268]	; 0x10c
8010257a:	f107 0208 	add.w	r2, r7, #8
8010257e:	1d38      	adds	r0, r7, #4
80102580:	2340      	movs	r3, #64	; 0x40
80102582:	9300      	str	r3, [sp, #0]
80102584:	4613      	mov	r3, r2
80102586:	2200      	movs	r2, #0
80102588:	f240 613a 	movw	r1, #1594	; 0x63a
8010258c:	6800      	ldr	r0, [r0, #0]
8010258e:	f7ff fb53 	bl	80101c38 <USDHC_SendCommand_with_data>
80102592:	f8c7 0108 	str.w	r0, [r7, #264]	; 0x108
80102596:	f8d7 3108 	ldr.w	r3, [r7, #264]	; 0x108
8010259a:	2b00      	cmp	r3, #0
8010259c:	da02      	bge.n	801025a4 <SD_SelectBusTiming+0x40>
8010259e:	f04f 33ff 	mov.w	r3, #4294967295	; 0xffffffff
801025a2:	e06c      	b.n	8010267e <SD_SelectBusTiming+0x11a>
801025a4:	f107 0308 	add.w	r3, r7, #8
801025a8:	68db      	ldr	r3, [r3, #12]
801025aa:	061a      	lsls	r2, r3, #24
801025ac:	f107 0308 	add.w	r3, r7, #8
801025b0:	68db      	ldr	r3, [r3, #12]
801025b2:	021b      	lsls	r3, r3, #8
801025b4:	f403 037f 	and.w	r3, r3, #16711680	; 0xff0000
801025b8:	431a      	orrs	r2, r3
801025ba:	f107 0308 	add.w	r3, r7, #8
801025be:	68db      	ldr	r3, [r3, #12]
801025c0:	0a1b      	lsrs	r3, r3, #8
801025c2:	f403 437f 	and.w	r3, r3, #65280	; 0xff00
801025c6:	431a      	orrs	r2, r3
801025c8:	f107 0308 	add.w	r3, r7, #8
801025cc:	68db      	ldr	r3, [r3, #12]
801025ce:	0e1b      	lsrs	r3, r3, #24
801025d0:	431a      	orrs	r2, r3
801025d2:	f107 0308 	add.w	r3, r7, #8
801025d6:	60da      	str	r2, [r3, #12]
801025d8:	f107 0308 	add.w	r3, r7, #8
801025dc:	68db      	ldr	r3, [r3, #12]
801025de:	0c1b      	lsrs	r3, r3, #16
801025e0:	4619      	mov	r1, r3
801025e2:	f244 40dc 	movw	r0, #17628	; 0x44dc
801025e6:	f2c8 0010 	movt	r0, #32784	; 0x8010
801025ea:	f7fe ffa0 	bl	8010152e <printf>
801025ee:	f244 5000 	movw	r0, #17664	; 0x4500
801025f2:	f2c8 0010 	movt	r0, #32784	; 0x8010
801025f6:	f7fe ff9a 	bl	8010152e <printf>
801025fa:	f107 0208 	add.w	r2, r7, #8
801025fe:	1d38      	adds	r0, r7, #4
80102600:	2340      	movs	r3, #64	; 0x40
80102602:	9300      	str	r3, [sp, #0]
80102604:	4613      	mov	r3, r2
80102606:	f8d7 210c 	ldr.w	r2, [r7, #268]	; 0x10c
8010260a:	f240 613a 	movw	r1, #1594	; 0x63a
8010260e:	6800      	ldr	r0, [r0, #0]
80102610:	f7ff fb12 	bl	80101c38 <USDHC_SendCommand_with_data>
80102614:	f8c7 0108 	str.w	r0, [r7, #264]	; 0x108
80102618:	f8d7 3108 	ldr.w	r3, [r7, #264]	; 0x108
8010261c:	2b00      	cmp	r3, #0
8010261e:	da02      	bge.n	80102626 <SD_SelectBusTiming+0xc2>
80102620:	f04f 33ff 	mov.w	r3, #4294967295	; 0xffffffff
80102624:	e02b      	b.n	8010267e <SD_SelectBusTiming+0x11a>
80102626:	f107 0308 	add.w	r3, r7, #8
8010262a:	691b      	ldr	r3, [r3, #16]
8010262c:	061a      	lsls	r2, r3, #24
8010262e:	f107 0308 	add.w	r3, r7, #8
80102632:	691b      	ldr	r3, [r3, #16]
80102634:	021b      	lsls	r3, r3, #8
80102636:	f403 037f 	and.w	r3, r3, #16711680	; 0xff0000
8010263a:	431a      	orrs	r2, r3
8010263c:	f107 0308 	add.w	r3, r7, #8
80102640:	691b      	ldr	r3, [r3, #16]
80102642:	0a1b      	lsrs	r3, r3, #8
80102644:	f403 437f 	and.w	r3, r3, #65280	; 0xff00
80102648:	431a      	orrs	r2, r3
8010264a:	f107 0308 	add.w	r3, r7, #8
8010264e:	691b      	ldr	r3, [r3, #16]
80102650:	0e1b      	lsrs	r3, r3, #24
80102652:	431a      	orrs	r2, r3
80102654:	f107 0308 	add.w	r3, r7, #8
80102658:	611a      	str	r2, [r3, #16]
8010265a:	f107 0308 	add.w	r3, r7, #8
8010265e:	691b      	ldr	r3, [r3, #16]
80102660:	0e1b      	lsrs	r3, r3, #24
80102662:	2b01      	cmp	r3, #1
80102664:	d10a      	bne.n	8010267c <SD_SelectBusTiming+0x118>
80102666:	f107 0308 	add.w	r3, r7, #8
8010266a:	68db      	ldr	r3, [r3, #12]
8010266c:	0c1b      	lsrs	r3, r3, #16
8010266e:	4619      	mov	r1, r3
80102670:	f244 5008 	movw	r0, #17672	; 0x4508
80102674:	f2c8 0010 	movt	r0, #32784	; 0x8010
80102678:	f7fe ff59 	bl	8010152e <printf>
8010267c:	2300      	movs	r3, #0
8010267e:	4618      	mov	r0, r3
80102680:	f507 7788 	add.w	r7, r7, #272	; 0x110
80102684:	46bd      	mov	sp, r7
80102686:	bd80      	pop	{r7, pc}

80102688 <sd_init>:
80102688:	b580      	push	{r7, lr}
8010268a:	b08e      	sub	sp, #56	; 0x38
8010268c:	af02      	add	r7, sp, #8
8010268e:	6078      	str	r0, [r7, #4]
80102690:	2300      	movs	r3, #0
80102692:	627b      	str	r3, [r7, #36]	; 0x24
80102694:	6878      	ldr	r0, [r7, #4]
80102696:	f7ff fb42 	bl	80101d1e <USDHC_Init>
8010269a:	6878      	ldr	r0, [r7, #4]
8010269c:	f7ff fb89 	bl	80101db2 <CardInsertDetect>
801026a0:	2100      	movs	r1, #0
801026a2:	6878      	ldr	r0, [r7, #4]
801026a4:	f7ff fba7 	bl	80101df6 <USDHC_SetDataBusWidth>
801026a8:	f44f 52d4 	mov.w	r2, #6784	; 0x1a80
801026ac:	f2c0 0206 	movt	r2, #6
801026b0:	f44f 5176 	mov.w	r1, #15744	; 0x3d80
801026b4:	f6c0 31cd 	movt	r1, #3021	; 0xbcd
801026b8:	6878      	ldr	r0, [r7, #4]
801026ba:	f7ff fbb2 	bl	80101e22 <USDHC_SetSdClock>
801026be:	4602      	mov	r2, r0
801026c0:	f248 3358 	movw	r3, #33624	; 0x8358
801026c4:	f2c8 0310 	movt	r3, #32784	; 0x8010
801026c8:	605a      	str	r2, [r3, #4]
801026ca:	2164      	movs	r1, #100	; 0x64
801026cc:	6878      	ldr	r0, [r7, #4]
801026ce:	f7ff fc62 	bl	80101f96 <USDHC_SetCardActive>
801026d2:	2200      	movs	r2, #0
801026d4:	2100      	movs	r1, #0
801026d6:	6878      	ldr	r0, [r7, #4]
801026d8:	f7ff fa92 	bl	80101c00 <USDHC_SendCommand>
801026dc:	62f8      	str	r0, [r7, #44]	; 0x2c
801026de:	6afb      	ldr	r3, [r7, #44]	; 0x2c
801026e0:	2b00      	cmp	r3, #0
801026e2:	da02      	bge.n	801026ea <sd_init+0x62>
801026e4:	f04f 33ff 	mov.w	r3, #4294967295	; 0xffffffff
801026e8:	e24a      	b.n	80102b80 <sd_init+0x4f8>
801026ea:	2300      	movs	r3, #0
801026ec:	62bb      	str	r3, [r7, #40]	; 0x28
801026ee:	e00d      	b.n	8010270c <sd_init+0x84>
801026f0:	f44f 72d5 	mov.w	r2, #426	; 0x1aa
801026f4:	f640 011a 	movw	r1, #2074	; 0x81a
801026f8:	6878      	ldr	r0, [r7, #4]
801026fa:	f7ff fa81 	bl	80101c00 <USDHC_SendCommand>
801026fe:	62f8      	str	r0, [r7, #44]	; 0x2c
80102700:	6afb      	ldr	r3, [r7, #44]	; 0x2c
80102702:	2b00      	cmp	r3, #0
80102704:	d006      	beq.n	80102714 <sd_init+0x8c>
80102706:	6abb      	ldr	r3, [r7, #40]	; 0x28
80102708:	3301      	adds	r3, #1
8010270a:	62bb      	str	r3, [r7, #40]	; 0x28
8010270c:	6abb      	ldr	r3, [r7, #40]	; 0x28
8010270e:	2b09      	cmp	r3, #9
80102710:	d9ee      	bls.n	801026f0 <sd_init+0x68>
80102712:	e000      	b.n	80102716 <sd_init+0x8e>
80102714:	bf00      	nop
80102716:	6afb      	ldr	r3, [r7, #44]	; 0x2c
80102718:	2b00      	cmp	r3, #0
8010271a:	d104      	bne.n	80102726 <sd_init+0x9e>
8010271c:	6a7b      	ldr	r3, [r7, #36]	; 0x24
8010271e:	f043 4380 	orr.w	r3, r3, #1073741824	; 0x40000000
80102722:	627b      	str	r3, [r7, #36]	; 0x24
80102724:	e00b      	b.n	8010273e <sd_init+0xb6>
80102726:	2200      	movs	r2, #0
80102728:	2100      	movs	r1, #0
8010272a:	6878      	ldr	r0, [r7, #4]
8010272c:	f7ff fa68 	bl	80101c00 <USDHC_SendCommand>
80102730:	62f8      	str	r0, [r7, #44]	; 0x2c
80102732:	6afb      	ldr	r3, [r7, #44]	; 0x2c
80102734:	2b00      	cmp	r3, #0
80102736:	d002      	beq.n	8010273e <sd_init+0xb6>
80102738:	f04f 33ff 	mov.w	r3, #4294967295	; 0xffffffff
8010273c:	e220      	b.n	80102b80 <sd_init+0x4f8>
8010273e:	6a7b      	ldr	r3, [r7, #36]	; 0x24
80102740:	f443 1340 	orr.w	r3, r3, #3145728	; 0x300000
80102744:	627b      	str	r3, [r7, #36]	; 0x24
80102746:	2300      	movs	r3, #0
80102748:	62bb      	str	r3, [r7, #40]	; 0x28
8010274a:	e034      	b.n	801027b6 <sd_init+0x12e>
8010274c:	2200      	movs	r2, #0
8010274e:	f243 711a 	movw	r1, #14106	; 0x371a
80102752:	6878      	ldr	r0, [r7, #4]
80102754:	f7ff fa54 	bl	80101c00 <USDHC_SendCommand>
80102758:	62f8      	str	r0, [r7, #44]	; 0x2c
8010275a:	6afb      	ldr	r3, [r7, #44]	; 0x2c
8010275c:	2b00      	cmp	r3, #0
8010275e:	da02      	bge.n	80102766 <sd_init+0xde>
80102760:	f04f 33ff 	mov.w	r3, #4294967295	; 0xffffffff
80102764:	e20c      	b.n	80102b80 <sd_init+0x4f8>
80102766:	6a7a      	ldr	r2, [r7, #36]	; 0x24
80102768:	f642 1102 	movw	r1, #10498	; 0x2902
8010276c:	6878      	ldr	r0, [r7, #4]
8010276e:	f7ff fa47 	bl	80101c00 <USDHC_SendCommand>
80102772:	62f8      	str	r0, [r7, #44]	; 0x2c
80102774:	6afb      	ldr	r3, [r7, #44]	; 0x2c
80102776:	2b00      	cmp	r3, #0
80102778:	da02      	bge.n	80102780 <sd_init+0xf8>
8010277a:	f04f 33ff 	mov.w	r3, #4294967295	; 0xffffffff
8010277e:	e1ff      	b.n	80102b80 <sd_init+0x4f8>
80102780:	687b      	ldr	r3, [r7, #4]
80102782:	691b      	ldr	r3, [r3, #16]
80102784:	2b00      	cmp	r3, #0
80102786:	da13      	bge.n	801027b0 <sd_init+0x128>
80102788:	687b      	ldr	r3, [r7, #4]
8010278a:	691a      	ldr	r2, [r3, #16]
8010278c:	f248 3358 	movw	r3, #33624	; 0x8358
80102790:	f2c8 0310 	movt	r3, #32784	; 0x8010
80102794:	63da      	str	r2, [r3, #60]	; 0x3c
80102796:	f248 3358 	movw	r3, #33624	; 0x8358
8010279a:	f2c8 0310 	movt	r3, #32784	; 0x8010
8010279e:	6bdb      	ldr	r3, [r3, #60]	; 0x3c
801027a0:	4619      	mov	r1, r3
801027a2:	f244 5028 	movw	r0, #17704	; 0x4528
801027a6:	f2c8 0010 	movt	r0, #32784	; 0x8010
801027aa:	f7fe fec0 	bl	8010152e <printf>
801027ae:	e007      	b.n	801027c0 <sd_init+0x138>
801027b0:	6abb      	ldr	r3, [r7, #40]	; 0x28
801027b2:	3301      	adds	r3, #1
801027b4:	62bb      	str	r3, [r7, #40]	; 0x28
801027b6:	6abb      	ldr	r3, [r7, #40]	; 0x28
801027b8:	f241 3287 	movw	r2, #4999	; 0x1387
801027bc:	4293      	cmp	r3, r2
801027be:	d9c5      	bls.n	8010274c <sd_init+0xc4>
801027c0:	6abb      	ldr	r3, [r7, #40]	; 0x28
801027c2:	f5b3 7f7a 	cmp.w	r3, #1000	; 0x3e8
801027c6:	d308      	bcc.n	801027da <sd_init+0x152>
801027c8:	f244 5038 	movw	r0, #17720	; 0x4538
801027cc:	f2c8 0010 	movt	r0, #32784	; 0x8010
801027d0:	f7fe fead 	bl	8010152e <printf>
801027d4:	f04f 33ff 	mov.w	r3, #4294967295	; 0xffffffff
801027d8:	e1d2      	b.n	80102b80 <sd_init+0x4f8>
801027da:	f248 3358 	movw	r3, #33624	; 0x8358
801027de:	f2c8 0310 	movt	r3, #32784	; 0x8010
801027e2:	6bdb      	ldr	r3, [r3, #60]	; 0x3c
801027e4:	f003 7380 	and.w	r3, r3, #16777216	; 0x1000000
801027e8:	2b00      	cmp	r3, #0
801027ea:	d005      	beq.n	801027f8 <sd_init+0x170>
801027ec:	f244 505c 	movw	r0, #17756	; 0x455c
801027f0:	f2c8 0010 	movt	r0, #32784	; 0x8010
801027f4:	f7fe fe9b 	bl	8010152e <printf>
801027f8:	2200      	movs	r2, #0
801027fa:	f240 2109 	movw	r1, #521	; 0x209
801027fe:	6878      	ldr	r0, [r7, #4]
80102800:	f7ff f9fe 	bl	80101c00 <USDHC_SendCommand>
80102804:	62f8      	str	r0, [r7, #44]	; 0x2c
80102806:	6afb      	ldr	r3, [r7, #44]	; 0x2c
80102808:	2b00      	cmp	r3, #0
8010280a:	da02      	bge.n	80102812 <sd_init+0x18a>
8010280c:	f04f 33ff 	mov.w	r3, #4294967295	; 0xffffffff
80102810:	e1b6      	b.n	80102b80 <sd_init+0x4f8>
80102812:	f107 0314 	add.w	r3, r7, #20
80102816:	4619      	mov	r1, r3
80102818:	6878      	ldr	r0, [r7, #4]
8010281a:	f7ff fbe3 	bl	80101fe4 <USDHC_GetResponse>
8010281e:	f107 0314 	add.w	r3, r7, #20
80102822:	2210      	movs	r2, #16
80102824:	4619      	mov	r1, r3
80102826:	48c0      	ldr	r0, [pc, #768]	; (80102b28 <sd_init+0x4a0>)
80102828:	f7fe ff12 	bl	80101650 <memcpy>
8010282c:	49be      	ldr	r1, [pc, #760]	; (80102b28 <sd_init+0x4a0>)
8010282e:	f248 3058 	movw	r0, #33624	; 0x8358
80102832:	f2c8 0010 	movt	r0, #32784	; 0x8010
80102836:	f7ff fc03 	bl	80102040 <SD_DecodeCid>
8010283a:	2200      	movs	r2, #0
8010283c:	f240 311a 	movw	r1, #794	; 0x31a
80102840:	6878      	ldr	r0, [r7, #4]
80102842:	f7ff f9dd 	bl	80101c00 <USDHC_SendCommand>
80102846:	62f8      	str	r0, [r7, #44]	; 0x2c
80102848:	6afb      	ldr	r3, [r7, #44]	; 0x2c
8010284a:	2b00      	cmp	r3, #0
8010284c:	da02      	bge.n	80102854 <sd_init+0x1cc>
8010284e:	f04f 33ff 	mov.w	r3, #4294967295	; 0xffffffff
80102852:	e195      	b.n	80102b80 <sd_init+0x4f8>
80102854:	687b      	ldr	r3, [r7, #4]
80102856:	691b      	ldr	r3, [r3, #16]
80102858:	0c1a      	lsrs	r2, r3, #16
8010285a:	f248 3358 	movw	r3, #33624	; 0x8358
8010285e:	f2c8 0310 	movt	r3, #32784	; 0x8010
80102862:	609a      	str	r2, [r3, #8]
80102864:	f248 3358 	movw	r3, #33624	; 0x8358
80102868:	f2c8 0310 	movt	r3, #32784	; 0x8010
8010286c:	689b      	ldr	r3, [r3, #8]
8010286e:	4619      	mov	r1, r3
80102870:	f244 506c 	movw	r0, #17772	; 0x456c
80102874:	f2c8 0010 	movt	r0, #32784	; 0x8010
80102878:	f7fe fe59 	bl	8010152e <printf>
8010287c:	f248 3358 	movw	r3, #33624	; 0x8358
80102880:	f2c8 0310 	movt	r3, #32784	; 0x8010
80102884:	689b      	ldr	r3, [r3, #8]
80102886:	041b      	lsls	r3, r3, #16
80102888:	461a      	mov	r2, r3
8010288a:	f640 1109 	movw	r1, #2313	; 0x909
8010288e:	6878      	ldr	r0, [r7, #4]
80102890:	f7ff f9b6 	bl	80101c00 <USDHC_SendCommand>
80102894:	62f8      	str	r0, [r7, #44]	; 0x2c
80102896:	6afb      	ldr	r3, [r7, #44]	; 0x2c
80102898:	2b00      	cmp	r3, #0
8010289a:	da02      	bge.n	801028a2 <sd_init+0x21a>
8010289c:	f04f 33ff 	mov.w	r3, #4294967295	; 0xffffffff
801028a0:	e16e      	b.n	80102b80 <sd_init+0x4f8>
801028a2:	f107 0314 	add.w	r3, r7, #20
801028a6:	4619      	mov	r1, r3
801028a8:	6878      	ldr	r0, [r7, #4]
801028aa:	f7ff fb9b 	bl	80101fe4 <USDHC_GetResponse>
801028ae:	f107 0314 	add.w	r3, r7, #20
801028b2:	2210      	movs	r2, #16
801028b4:	4619      	mov	r1, r3
801028b6:	489d      	ldr	r0, [pc, #628]	; (80102b2c <sd_init+0x4a4>)
801028b8:	f7fe feca 	bl	80101650 <memcpy>
801028bc:	499b      	ldr	r1, [pc, #620]	; (80102b2c <sd_init+0x4a4>)
801028be:	f248 3058 	movw	r0, #33624	; 0x8358
801028c2:	f2c8 0010 	movt	r0, #32784	; 0x8010
801028c6:	f7ff fc16 	bl	801020f6 <SD_DecodeCsd>
801028ca:	f248 3358 	movw	r3, #33624	; 0x8358
801028ce:	f2c8 0310 	movt	r3, #32784	; 0x8010
801028d2:	f893 3054 	ldrb.w	r3, [r3, #84]	; 0x54
801028d6:	2b00      	cmp	r3, #0
801028d8:	d004      	beq.n	801028e4 <sd_init+0x25c>
801028da:	f244 5388 	movw	r3, #17800	; 0x4588
801028de:	f2c8 0310 	movt	r3, #32784	; 0x8010
801028e2:	e003      	b.n	801028ec <sd_init+0x264>
801028e4:	f244 5394 	movw	r3, #17812	; 0x4594
801028e8:	f2c8 0310 	movt	r3, #32784	; 0x8010
801028ec:	4619      	mov	r1, r3
801028ee:	f244 509c 	movw	r0, #17820	; 0x459c
801028f2:	f2c8 0010 	movt	r0, #32784	; 0x8010
801028f6:	f7fe fe1a 	bl	8010152e <printf>
801028fa:	f248 3358 	movw	r3, #33624	; 0x8358
801028fe:	f2c8 0310 	movt	r3, #32784	; 0x8010
80102902:	6fdb      	ldr	r3, [r3, #124]	; 0x7c
80102904:	4619      	mov	r1, r3
80102906:	f244 50a8 	movw	r0, #17832	; 0x45a8
8010290a:	f2c8 0010 	movt	r0, #32784	; 0x8010
8010290e:	f7fe fe0e 	bl	8010152e <printf>
80102912:	f248 3358 	movw	r3, #33624	; 0x8358
80102916:	f2c8 0310 	movt	r3, #32784	; 0x8010
8010291a:	f8d3 3080 	ldr.w	r3, [r3, #128]	; 0x80
8010291e:	4619      	mov	r1, r3
80102920:	f244 50c4 	movw	r0, #17860	; 0x45c4
80102924:	f2c8 0010 	movt	r0, #32784	; 0x8010
80102928:	f7fe fe01 	bl	8010152e <printf>
8010292c:	f248 3358 	movw	r3, #33624	; 0x8358
80102930:	f2c8 0310 	movt	r3, #32784	; 0x8010
80102934:	f8b3 3058 	ldrh.w	r3, [r3, #88]	; 0x58
80102938:	4619      	mov	r1, r3
8010293a:	f244 50e0 	movw	r0, #17888	; 0x45e0
8010293e:	f2c8 0010 	movt	r0, #32784	; 0x8010
80102942:	f7fe fdf4 	bl	8010152e <printf>
80102946:	f248 3358 	movw	r3, #33624	; 0x8358
8010294a:	f2c8 0310 	movt	r3, #32784	; 0x8010
8010294e:	689b      	ldr	r3, [r3, #8]
80102950:	041b      	lsls	r3, r3, #16
80102952:	461a      	mov	r2, r3
80102954:	f240 711b 	movw	r1, #1819	; 0x71b
80102958:	6878      	ldr	r0, [r7, #4]
8010295a:	f7ff f951 	bl	80101c00 <USDHC_SendCommand>
8010295e:	62f8      	str	r0, [r7, #44]	; 0x2c
80102960:	6afb      	ldr	r3, [r7, #44]	; 0x2c
80102962:	2b00      	cmp	r3, #0
80102964:	da01      	bge.n	8010296a <sd_init+0x2e2>
80102966:	6afb      	ldr	r3, [r7, #44]	; 0x2c
80102968:	e10a      	b.n	80102b80 <sd_init+0x4f8>
8010296a:	f248 3358 	movw	r3, #33624	; 0x8358
8010296e:	f2c8 0310 	movt	r3, #32784	; 0x8010
80102972:	689b      	ldr	r3, [r3, #8]
80102974:	041b      	lsls	r3, r3, #16
80102976:	461a      	mov	r2, r3
80102978:	f243 711a 	movw	r1, #14106	; 0x371a
8010297c:	6878      	ldr	r0, [r7, #4]
8010297e:	f7ff f93f 	bl	80101c00 <USDHC_SendCommand>
80102982:	62f8      	str	r0, [r7, #44]	; 0x2c
80102984:	6afb      	ldr	r3, [r7, #44]	; 0x2c
80102986:	2b00      	cmp	r3, #0
80102988:	da01      	bge.n	8010298e <sd_init+0x306>
8010298a:	6afb      	ldr	r3, [r7, #44]	; 0x2c
8010298c:	e0f8      	b.n	80102b80 <sd_init+0x4f8>
8010298e:	f107 020c 	add.w	r2, r7, #12
80102992:	2308      	movs	r3, #8
80102994:	9300      	str	r3, [sp, #0]
80102996:	4613      	mov	r3, r2
80102998:	2200      	movs	r2, #0
8010299a:	f243 313a 	movw	r1, #13114	; 0x333a
8010299e:	6878      	ldr	r0, [r7, #4]
801029a0:	f7ff f94a 	bl	80101c38 <USDHC_SendCommand_with_data>
801029a4:	62f8      	str	r0, [r7, #44]	; 0x2c
801029a6:	6afb      	ldr	r3, [r7, #44]	; 0x2c
801029a8:	2b00      	cmp	r3, #0
801029aa:	da01      	bge.n	801029b0 <sd_init+0x328>
801029ac:	6afb      	ldr	r3, [r7, #44]	; 0x2c
801029ae:	e0e7      	b.n	80102b80 <sd_init+0x4f8>
801029b0:	68fb      	ldr	r3, [r7, #12]
801029b2:	061a      	lsls	r2, r3, #24
801029b4:	68fb      	ldr	r3, [r7, #12]
801029b6:	021b      	lsls	r3, r3, #8
801029b8:	f403 037f 	and.w	r3, r3, #16711680	; 0xff0000
801029bc:	431a      	orrs	r2, r3
801029be:	68fb      	ldr	r3, [r7, #12]
801029c0:	0a1b      	lsrs	r3, r3, #8
801029c2:	f403 437f 	and.w	r3, r3, #65280	; 0xff00
801029c6:	431a      	orrs	r2, r3
801029c8:	68fb      	ldr	r3, [r7, #12]
801029ca:	0e1b      	lsrs	r3, r3, #24
801029cc:	4313      	orrs	r3, r2
801029ce:	60fb      	str	r3, [r7, #12]
801029d0:	693b      	ldr	r3, [r7, #16]
801029d2:	061a      	lsls	r2, r3, #24
801029d4:	693b      	ldr	r3, [r7, #16]
801029d6:	021b      	lsls	r3, r3, #8
801029d8:	f403 037f 	and.w	r3, r3, #16711680	; 0xff0000
801029dc:	431a      	orrs	r2, r3
801029de:	693b      	ldr	r3, [r7, #16]
801029e0:	0a1b      	lsrs	r3, r3, #8
801029e2:	f403 437f 	and.w	r3, r3, #65280	; 0xff00
801029e6:	431a      	orrs	r2, r3
801029e8:	693b      	ldr	r3, [r7, #16]
801029ea:	0e1b      	lsrs	r3, r3, #24
801029ec:	4313      	orrs	r3, r2
801029ee:	613b      	str	r3, [r7, #16]
801029f0:	f107 030c 	add.w	r3, r7, #12
801029f4:	2208      	movs	r2, #8
801029f6:	4619      	mov	r1, r3
801029f8:	484d      	ldr	r0, [pc, #308]	; (80102b30 <sd_init+0x4a8>)
801029fa:	f7fe fe29 	bl	80101650 <memcpy>
801029fe:	494c      	ldr	r1, [pc, #304]	; (80102b30 <sd_init+0x4a8>)
80102a00:	f248 3058 	movw	r0, #33624	; 0x8358
80102a04:	f2c8 0010 	movt	r0, #32784	; 0x8010
80102a08:	f7ff fd29 	bl	8010245e <SD_DecodeScr>
80102a0c:	68fb      	ldr	r3, [r7, #12]
80102a0e:	693a      	ldr	r2, [r7, #16]
80102a10:	4619      	mov	r1, r3
80102a12:	f244 6000 	movw	r0, #17920	; 0x4600
80102a16:	f2c8 0010 	movt	r0, #32784	; 0x8010
80102a1a:	f7fe fd88 	bl	8010152e <printf>
80102a1e:	f248 3358 	movw	r3, #33624	; 0x8358
80102a22:	f2c8 0310 	movt	r3, #32784	; 0x8010
80102a26:	f893 3071 	ldrb.w	r3, [r3, #113]	; 0x71
80102a2a:	4619      	mov	r1, r3
80102a2c:	f244 6024 	movw	r0, #17956	; 0x4624
80102a30:	f2c8 0010 	movt	r0, #32784	; 0x8010
80102a34:	f7fe fd7b 	bl	8010152e <printf>
80102a38:	f248 3358 	movw	r3, #33624	; 0x8358
80102a3c:	f2c8 0310 	movt	r3, #32784	; 0x8010
80102a40:	f893 3075 	ldrb.w	r3, [r3, #117]	; 0x75
80102a44:	f003 0304 	and.w	r3, r3, #4
80102a48:	2b00      	cmp	r3, #0
80102a4a:	d108      	bne.n	80102a5e <sd_init+0x3d6>
80102a4c:	f244 6040 	movw	r0, #17984	; 0x4640
80102a50:	f2c8 0010 	movt	r0, #32784	; 0x8010
80102a54:	f7fe fd6b 	bl	8010152e <printf>
80102a58:	f04f 33ff 	mov.w	r3, #4294967295	; 0xffffffff
80102a5c:	e090      	b.n	80102b80 <sd_init+0x4f8>
80102a5e:	f248 3358 	movw	r3, #33624	; 0x8358
80102a62:	f2c8 0310 	movt	r3, #32784	; 0x8010
80102a66:	f893 3077 	ldrb.w	r3, [r3, #119]	; 0x77
80102a6a:	f003 0301 	and.w	r3, r3, #1
80102a6e:	2b00      	cmp	r3, #0
80102a70:	d105      	bne.n	80102a7e <sd_init+0x3f6>
80102a72:	f244 6064 	movw	r0, #18020	; 0x4664
80102a76:	f2c8 0010 	movt	r0, #32784	; 0x8010
80102a7a:	f7fe fd58 	bl	8010152e <printf>
80102a7e:	f248 3358 	movw	r3, #33624	; 0x8358
80102a82:	f2c8 0310 	movt	r3, #32784	; 0x8010
80102a86:	f893 3077 	ldrb.w	r3, [r3, #119]	; 0x77
80102a8a:	f003 0302 	and.w	r3, r3, #2
80102a8e:	2b00      	cmp	r3, #0
80102a90:	d105      	bne.n	80102a9e <sd_init+0x416>
80102a92:	f244 609c 	movw	r0, #18076	; 0x469c
80102a96:	f2c8 0010 	movt	r0, #32784	; 0x8010
80102a9a:	f7fe fd48 	bl	8010152e <printf>
80102a9e:	f647 0240 	movw	r2, #30784	; 0x7840
80102aa2:	f2c0 127d 	movt	r2, #381	; 0x17d
80102aa6:	f44f 5176 	mov.w	r1, #15744	; 0x3d80
80102aaa:	f6c0 31cd 	movt	r1, #3021	; 0xbcd
80102aae:	6878      	ldr	r0, [r7, #4]
80102ab0:	f7ff f9b7 	bl	80101e22 <USDHC_SetSdClock>
80102ab4:	4602      	mov	r2, r0
80102ab6:	f248 3358 	movw	r3, #33624	; 0x8358
80102aba:	f2c8 0310 	movt	r3, #32784	; 0x8010
80102abe:	605a      	str	r2, [r3, #4]
80102ac0:	f248 3358 	movw	r3, #33624	; 0x8358
80102ac4:	f2c8 0310 	movt	r3, #32784	; 0x8010
80102ac8:	689b      	ldr	r3, [r3, #8]
80102aca:	041b      	lsls	r3, r3, #16
80102acc:	461a      	mov	r2, r3
80102ace:	f243 711a 	movw	r1, #14106	; 0x371a
80102ad2:	6878      	ldr	r0, [r7, #4]
80102ad4:	f7ff f894 	bl	80101c00 <USDHC_SendCommand>
80102ad8:	62f8      	str	r0, [r7, #44]	; 0x2c
80102ada:	6afb      	ldr	r3, [r7, #44]	; 0x2c
80102adc:	2b00      	cmp	r3, #0
80102ade:	da01      	bge.n	80102ae4 <sd_init+0x45c>
80102ae0:	6afb      	ldr	r3, [r7, #44]	; 0x2c
80102ae2:	e04d      	b.n	80102b80 <sd_init+0x4f8>
80102ae4:	2202      	movs	r2, #2
80102ae6:	f240 611a 	movw	r1, #1562	; 0x61a
80102aea:	6878      	ldr	r0, [r7, #4]
80102aec:	f7ff f888 	bl	80101c00 <USDHC_SendCommand>
80102af0:	62f8      	str	r0, [r7, #44]	; 0x2c
80102af2:	6afb      	ldr	r3, [r7, #44]	; 0x2c
80102af4:	2b00      	cmp	r3, #0
80102af6:	da01      	bge.n	80102afc <sd_init+0x474>
80102af8:	6afb      	ldr	r3, [r7, #44]	; 0x2c
80102afa:	e041      	b.n	80102b80 <sd_init+0x4f8>
80102afc:	687b      	ldr	r3, [r7, #4]
80102afe:	6a9b      	ldr	r3, [r3, #40]	; 0x28
80102b00:	f023 0306 	bic.w	r3, r3, #6
80102b04:	f043 0202 	orr.w	r2, r3, #2
80102b08:	687b      	ldr	r3, [r7, #4]
80102b0a:	629a      	str	r2, [r3, #40]	; 0x28
80102b0c:	f44f 7200 	mov.w	r2, #512	; 0x200
80102b10:	f241 011a 	movw	r1, #4122	; 0x101a
80102b14:	6878      	ldr	r0, [r7, #4]
80102b16:	f7ff f873 	bl	80101c00 <USDHC_SendCommand>
80102b1a:	62f8      	str	r0, [r7, #44]	; 0x2c
80102b1c:	6afb      	ldr	r3, [r7, #44]	; 0x2c
80102b1e:	2b00      	cmp	r3, #0
80102b20:	da08      	bge.n	80102b34 <sd_init+0x4ac>
80102b22:	6afb      	ldr	r3, [r7, #44]	; 0x2c
80102b24:	e02c      	b.n	80102b80 <sd_init+0x4f8>
80102b26:	bf00      	nop
80102b28:	8010836c 	andshi	r8, r0, ip, ror #6
80102b2c:	8010837c 	andshi	r8, r0, ip, ror r3
80102b30:	8010838c 	andshi	r8, r0, ip, lsl #7
80102b34:	6878      	ldr	r0, [r7, #4]
80102b36:	f7ff fd15 	bl	80102564 <SD_SelectBusTiming>
80102b3a:	4603      	mov	r3, r0
80102b3c:	2b00      	cmp	r3, #0
80102b3e:	d110      	bne.n	80102b62 <sd_init+0x4da>
80102b40:	f24f 0280 	movw	r2, #61568	; 0xf080
80102b44:	f2c0 22fa 	movt	r2, #762	; 0x2fa
80102b48:	f44f 5176 	mov.w	r1, #15744	; 0x3d80
80102b4c:	f6c0 31cd 	movt	r1, #3021	; 0xbcd
80102b50:	6878      	ldr	r0, [r7, #4]
80102b52:	f7ff f966 	bl	80101e22 <USDHC_SetSdClock>
80102b56:	4602      	mov	r2, r0
80102b58:	f248 3358 	movw	r3, #33624	; 0x8358
80102b5c:	f2c8 0310 	movt	r3, #32784	; 0x8010
80102b60:	605a      	str	r2, [r3, #4]
80102b62:	f248 3358 	movw	r3, #33624	; 0x8358
80102b66:	f2c8 0310 	movt	r3, #32784	; 0x8010
80102b6a:	6859      	ldr	r1, [r3, #4]
80102b6c:	687b      	ldr	r3, [r7, #4]
80102b6e:	6adb      	ldr	r3, [r3, #44]	; 0x2c
80102b70:	461a      	mov	r2, r3
80102b72:	f244 60d8 	movw	r0, #18136	; 0x46d8
80102b76:	f2c8 0010 	movt	r0, #32784	; 0x8010
80102b7a:	f7fe fcd8 	bl	8010152e <printf>
80102b7e:	2300      	movs	r3, #0
80102b80:	4618      	mov	r0, r3
80102b82:	3730      	adds	r7, #48	; 0x30
80102b84:	46bd      	mov	sp, r7
80102b86:	bd80      	pop	{r7, pc}

80102b88 <SD_WaitReadWriteComplete>:
80102b88:	b580      	push	{r7, lr}
80102b8a:	b084      	sub	sp, #16
80102b8c:	af00      	add	r7, sp, #0
80102b8e:	6078      	str	r0, [r7, #4]
80102b90:	687a      	ldr	r2, [r7, #4]
80102b92:	2300      	movs	r3, #0
80102b94:	f2c0 2319 	movt	r3, #537	; 0x219
80102b98:	429a      	cmp	r2, r3
80102b9a:	d10d      	bne.n	80102bb8 <SD_WaitReadWriteComplete+0x30>
80102b9c:	f248 3358 	movw	r3, #33624	; 0x8358
80102ba0:	f2c8 0310 	movt	r3, #32784	; 0x8010
80102ba4:	689b      	ldr	r3, [r3, #8]
80102ba6:	041b      	lsls	r3, r3, #16
80102ba8:	461a      	mov	r2, r3
80102baa:	f640 511a 	movw	r1, #3354	; 0xd1a
80102bae:	6878      	ldr	r0, [r7, #4]
80102bb0:	f7ff f826 	bl	80101c00 <USDHC_SendCommand>
80102bb4:	60f8      	str	r0, [r7, #12]
80102bb6:	e013      	b.n	80102be0 <SD_WaitReadWriteComplete+0x58>
80102bb8:	687a      	ldr	r2, [r7, #4]
80102bba:	f44f 4380 	mov.w	r3, #16384	; 0x4000
80102bbe:	f2c0 2319 	movt	r3, #537	; 0x219
80102bc2:	429a      	cmp	r2, r3
80102bc4:	d10c      	bne.n	80102be0 <SD_WaitReadWriteComplete+0x58>
80102bc6:	f248 0300 	movw	r3, #32768	; 0x8000
80102bca:	f2c8 0310 	movt	r3, #32784	; 0x8010
80102bce:	689b      	ldr	r3, [r3, #8]
80102bd0:	041b      	lsls	r3, r3, #16
80102bd2:	461a      	mov	r2, r3
80102bd4:	f640 511a 	movw	r1, #3354	; 0xd1a
80102bd8:	6878      	ldr	r0, [r7, #4]
80102bda:	f7ff f811 	bl	80101c00 <USDHC_SendCommand>
80102bde:	60f8      	str	r0, [r7, #12]
80102be0:	68fb      	ldr	r3, [r7, #12]
80102be2:	2b00      	cmp	r3, #0
80102be4:	db18      	blt.n	80102c18 <SD_WaitReadWriteComplete+0x90>
80102be6:	687b      	ldr	r3, [r7, #4]
80102be8:	691a      	ldr	r2, [r3, #16]
80102bea:	2388      	movs	r3, #136	; 0x88
80102bec:	f6cf 73f9 	movt	r3, #65529	; 0xfff9
80102bf0:	4013      	ands	r3, r2
80102bf2:	2b00      	cmp	r3, #0
80102bf4:	d002      	beq.n	80102bfc <SD_WaitReadWriteComplete+0x74>
80102bf6:	f04f 33ff 	mov.w	r3, #4294967295	; 0xffffffff
80102bfa:	e012      	b.n	80102c22 <SD_WaitReadWriteComplete+0x9a>
80102bfc:	687b      	ldr	r3, [r7, #4]
80102bfe:	691b      	ldr	r3, [r3, #16]
80102c00:	f403 7380 	and.w	r3, r3, #256	; 0x100
80102c04:	2b00      	cmp	r3, #0
80102c06:	d0c3      	beq.n	80102b90 <SD_WaitReadWriteComplete+0x8>
80102c08:	687b      	ldr	r3, [r7, #4]
80102c0a:	691b      	ldr	r3, [r3, #16]
80102c0c:	0a5b      	lsrs	r3, r3, #9
80102c0e:	f003 030f 	and.w	r3, r3, #15
80102c12:	2b07      	cmp	r3, #7
80102c14:	d102      	bne.n	80102c1c <SD_WaitReadWriteComplete+0x94>
80102c16:	e7bb      	b.n	80102b90 <SD_WaitReadWriteComplete+0x8>
80102c18:	bf00      	nop
80102c1a:	e000      	b.n	80102c1e <SD_WaitReadWriteComplete+0x96>
80102c1c:	bf00      	nop
80102c1e:	687b      	ldr	r3, [r7, #4]
80102c20:	691b      	ldr	r3, [r3, #16]
80102c22:	4618      	mov	r0, r3
80102c24:	3710      	adds	r7, #16
80102c26:	46bd      	mov	sp, r7
80102c28:	bd80      	pop	{r7, pc}

80102c2a <sd_read_blocks>:
80102c2a:	b580      	push	{r7, lr}
80102c2c:	b086      	sub	sp, #24
80102c2e:	af00      	add	r7, sp, #0
80102c30:	60f8      	str	r0, [r7, #12]
80102c32:	60b9      	str	r1, [r7, #8]
80102c34:	607a      	str	r2, [r7, #4]
80102c36:	603b      	str	r3, [r7, #0]
80102c38:	2300      	movs	r3, #0
80102c3a:	617b      	str	r3, [r7, #20]
80102c3c:	bf00      	nop
80102c3e:	68fb      	ldr	r3, [r7, #12]
80102c40:	6a5b      	ldr	r3, [r3, #36]	; 0x24
80102c42:	f003 0301 	and.w	r3, r3, #1
80102c46:	2b00      	cmp	r3, #0
80102c48:	d1f9      	bne.n	80102c3e <sd_read_blocks+0x14>
80102c4a:	bf00      	nop
80102c4c:	68fb      	ldr	r3, [r7, #12]
80102c4e:	6a5b      	ldr	r3, [r3, #36]	; 0x24
80102c50:	f003 0302 	and.w	r3, r3, #2
80102c54:	2b00      	cmp	r3, #0
80102c56:	d1f9      	bne.n	80102c4c <sd_read_blocks+0x22>
80102c58:	683b      	ldr	r3, [r7, #0]
80102c5a:	025b      	lsls	r3, r3, #9
80102c5c:	4619      	mov	r1, r3
80102c5e:	68b8      	ldr	r0, [r7, #8]
80102c60:	f7fe fee0 	bl	80101a24 <USDHC_CreateDescTable>
80102c64:	68fb      	ldr	r3, [r7, #12]
80102c66:	2200      	movs	r2, #0
80102c68:	601a      	str	r2, [r3, #0]
80102c6a:	f248 33f8 	movw	r3, #33784	; 0x83f8
80102c6e:	f2c8 0310 	movt	r3, #32784	; 0x8010
80102c72:	68fa      	ldr	r2, [r7, #12]
80102c74:	6593      	str	r3, [r2, #88]	; 0x58
80102c76:	683b      	ldr	r3, [r7, #0]
80102c78:	041b      	lsls	r3, r3, #16
80102c7a:	f443 7200 	orr.w	r2, r3, #512	; 0x200
80102c7e:	68fb      	ldr	r3, [r7, #12]
80102c80:	605a      	str	r2, [r3, #4]
80102c82:	68fb      	ldr	r3, [r7, #12]
80102c84:	f8d3 30c0 	ldr.w	r3, [r3, #192]	; 0xc0
80102c88:	f023 0201 	bic.w	r2, r3, #1
80102c8c:	68fb      	ldr	r3, [r7, #12]
80102c8e:	f8c3 20c0 	str.w	r2, [r3, #192]	; 0xc0
80102c92:	68fb      	ldr	r3, [r7, #12]
80102c94:	6a9b      	ldr	r3, [r3, #40]	; 0x28
80102c96:	f023 5360 	bic.w	r3, r3, #939524096	; 0x38000000
80102c9a:	f423 7340 	bic.w	r3, r3, #768	; 0x300
80102c9e:	68fa      	ldr	r2, [r7, #12]
80102ca0:	6293      	str	r3, [r2, #40]	; 0x28
80102ca2:	68fb      	ldr	r3, [r7, #12]
80102ca4:	6a9b      	ldr	r3, [r3, #40]	; 0x28
80102ca6:	f043 6300 	orr.w	r3, r3, #134217728	; 0x8000000
80102caa:	f443 7300 	orr.w	r3, r3, #512	; 0x200
80102cae:	68fa      	ldr	r2, [r7, #12]
80102cb0:	6293      	str	r3, [r2, #40]	; 0x28
80102cb2:	683b      	ldr	r3, [r7, #0]
80102cb4:	2b01      	cmp	r3, #1
80102cb6:	d114      	bne.n	80102ce2 <sd_read_blocks+0xb8>
80102cb8:	68fb      	ldr	r3, [r7, #12]
80102cba:	6c9b      	ldr	r3, [r3, #72]	; 0x48
80102cbc:	f023 0237 	bic.w	r2, r3, #55	; 0x37
80102cc0:	68fb      	ldr	r3, [r7, #12]
80102cc2:	649a      	str	r2, [r3, #72]	; 0x48
80102cc4:	68fb      	ldr	r3, [r7, #12]
80102cc6:	6c9b      	ldr	r3, [r3, #72]	; 0x48
80102cc8:	f043 0211 	orr.w	r2, r3, #17
80102ccc:	68fb      	ldr	r3, [r7, #12]
80102cce:	649a      	str	r2, [r3, #72]	; 0x48
80102cd0:	68fb      	ldr	r3, [r7, #12]
80102cd2:	687a      	ldr	r2, [r7, #4]
80102cd4:	609a      	str	r2, [r3, #8]
80102cd6:	68fa      	ldr	r2, [r7, #12]
80102cd8:	2300      	movs	r3, #0
80102cda:	f2c1 133a 	movt	r3, #4410	; 0x113a
80102cde:	60d3      	str	r3, [r2, #12]
80102ce0:	e013      	b.n	80102d0a <sd_read_blocks+0xe0>
80102ce2:	68fb      	ldr	r3, [r7, #12]
80102ce4:	6c9b      	ldr	r3, [r3, #72]	; 0x48
80102ce6:	f023 0237 	bic.w	r2, r3, #55	; 0x37
80102cea:	68fb      	ldr	r3, [r7, #12]
80102cec:	649a      	str	r2, [r3, #72]	; 0x48
80102cee:	68fb      	ldr	r3, [r7, #12]
80102cf0:	6c9b      	ldr	r3, [r3, #72]	; 0x48
80102cf2:	f043 0237 	orr.w	r2, r3, #55	; 0x37
80102cf6:	68fb      	ldr	r3, [r7, #12]
80102cf8:	649a      	str	r2, [r3, #72]	; 0x48
80102cfa:	68fb      	ldr	r3, [r7, #12]
80102cfc:	687a      	ldr	r2, [r7, #4]
80102cfe:	609a      	str	r2, [r3, #8]
80102d00:	68fa      	ldr	r2, [r7, #12]
80102d02:	2300      	movs	r3, #0
80102d04:	f2c1 233a 	movt	r3, #4666	; 0x123a
80102d08:	60d3      	str	r3, [r2, #12]
80102d0a:	68f8      	ldr	r0, [r7, #12]
80102d0c:	f7fe ff10 	bl	80101b30 <USDHC_WaitCommandDone>
80102d10:	6178      	str	r0, [r7, #20]
80102d12:	697b      	ldr	r3, [r7, #20]
80102d14:	2b00      	cmp	r3, #0
80102d16:	da01      	bge.n	80102d1c <sd_read_blocks+0xf2>
80102d18:	697b      	ldr	r3, [r7, #20]
80102d1a:	e021      	b.n	80102d60 <sd_read_blocks+0x136>
80102d1c:	68f8      	ldr	r0, [r7, #12]
80102d1e:	f7fe ff3b 	bl	80101b98 <USDHC_WaitDataDone>
80102d22:	6178      	str	r0, [r7, #20]
80102d24:	697b      	ldr	r3, [r7, #20]
80102d26:	2b00      	cmp	r3, #0
80102d28:	da01      	bge.n	80102d2e <sd_read_blocks+0x104>
80102d2a:	697b      	ldr	r3, [r7, #20]
80102d2c:	e018      	b.n	80102d60 <sd_read_blocks+0x136>
80102d2e:	68f8      	ldr	r0, [r7, #12]
80102d30:	f7ff ff2a 	bl	80102b88 <SD_WaitReadWriteComplete>
80102d34:	6178      	str	r0, [r7, #20]
80102d36:	697a      	ldr	r2, [r7, #20]
80102d38:	2300      	movs	r3, #0
80102d3a:	f2cc 0320 	movt	r3, #49184	; 0xc020
80102d3e:	4013      	ands	r3, r2
80102d40:	2b00      	cmp	r3, #0
80102d42:	d00c      	beq.n	80102d5e <sd_read_blocks+0x134>
80102d44:	f04f 33ff 	mov.w	r3, #4294967295	; 0xffffffff
80102d48:	617b      	str	r3, [r7, #20]
80102d4a:	f244 71f0 	movw	r1, #18416	; 0x47f0
80102d4e:	f2c8 0110 	movt	r1, #32784	; 0x8010
80102d52:	f244 7000 	movw	r0, #18176	; 0x4700
80102d56:	f2c8 0010 	movt	r0, #32784	; 0x8010
80102d5a:	f7fe fbe8 	bl	8010152e <printf>
80102d5e:	697b      	ldr	r3, [r7, #20]
80102d60:	4618      	mov	r0, r3
80102d62:	3718      	adds	r7, #24
80102d64:	46bd      	mov	sp, r7
80102d66:	bd80      	pop	{r7, pc}

80102d68 <sd_write_blocks>:
80102d68:	b580      	push	{r7, lr}
80102d6a:	b086      	sub	sp, #24
80102d6c:	af00      	add	r7, sp, #0
80102d6e:	60f8      	str	r0, [r7, #12]
80102d70:	60b9      	str	r1, [r7, #8]
80102d72:	607a      	str	r2, [r7, #4]
80102d74:	603b      	str	r3, [r7, #0]
80102d76:	2300      	movs	r3, #0
80102d78:	617b      	str	r3, [r7, #20]
80102d7a:	bf00      	nop
80102d7c:	68fb      	ldr	r3, [r7, #12]
80102d7e:	6a5b      	ldr	r3, [r3, #36]	; 0x24
80102d80:	f003 0301 	and.w	r3, r3, #1
80102d84:	2b00      	cmp	r3, #0
80102d86:	d1f9      	bne.n	80102d7c <sd_write_blocks+0x14>
80102d88:	bf00      	nop
80102d8a:	68fb      	ldr	r3, [r7, #12]
80102d8c:	6a5b      	ldr	r3, [r3, #36]	; 0x24
80102d8e:	f003 0302 	and.w	r3, r3, #2
80102d92:	2b00      	cmp	r3, #0
80102d94:	d1f9      	bne.n	80102d8a <sd_write_blocks+0x22>
80102d96:	683b      	ldr	r3, [r7, #0]
80102d98:	025b      	lsls	r3, r3, #9
80102d9a:	4619      	mov	r1, r3
80102d9c:	68b8      	ldr	r0, [r7, #8]
80102d9e:	f7fe fe41 	bl	80101a24 <USDHC_CreateDescTable>
80102da2:	68fb      	ldr	r3, [r7, #12]
80102da4:	2200      	movs	r2, #0
80102da6:	601a      	str	r2, [r3, #0]
80102da8:	f248 33f8 	movw	r3, #33784	; 0x83f8
80102dac:	f2c8 0310 	movt	r3, #32784	; 0x8010
80102db0:	68fa      	ldr	r2, [r7, #12]
80102db2:	6593      	str	r3, [r2, #88]	; 0x58
80102db4:	683b      	ldr	r3, [r7, #0]
80102db6:	041b      	lsls	r3, r3, #16
80102db8:	f443 7200 	orr.w	r2, r3, #512	; 0x200
80102dbc:	68fb      	ldr	r3, [r7, #12]
80102dbe:	605a      	str	r2, [r3, #4]
80102dc0:	68fb      	ldr	r3, [r7, #12]
80102dc2:	f8d3 30c0 	ldr.w	r3, [r3, #192]	; 0xc0
80102dc6:	f023 0201 	bic.w	r2, r3, #1
80102dca:	68fb      	ldr	r3, [r7, #12]
80102dcc:	f8c3 20c0 	str.w	r2, [r3, #192]	; 0xc0
80102dd0:	68fb      	ldr	r3, [r7, #12]
80102dd2:	6a9b      	ldr	r3, [r3, #40]	; 0x28
80102dd4:	f023 5360 	bic.w	r3, r3, #939524096	; 0x38000000
80102dd8:	f423 7340 	bic.w	r3, r3, #768	; 0x300
80102ddc:	68fa      	ldr	r2, [r7, #12]
80102dde:	6293      	str	r3, [r2, #40]	; 0x28
80102de0:	68fb      	ldr	r3, [r7, #12]
80102de2:	6a9b      	ldr	r3, [r3, #40]	; 0x28
80102de4:	f043 6300 	orr.w	r3, r3, #134217728	; 0x8000000
80102de8:	f443 7300 	orr.w	r3, r3, #512	; 0x200
80102dec:	68fa      	ldr	r2, [r7, #12]
80102dee:	6293      	str	r3, [r2, #40]	; 0x28
80102df0:	683b      	ldr	r3, [r7, #0]
80102df2:	2b01      	cmp	r3, #1
80102df4:	d114      	bne.n	80102e20 <sd_write_blocks+0xb8>
80102df6:	68fb      	ldr	r3, [r7, #12]
80102df8:	6c9b      	ldr	r3, [r3, #72]	; 0x48
80102dfa:	f023 0237 	bic.w	r2, r3, #55	; 0x37
80102dfe:	68fb      	ldr	r3, [r7, #12]
80102e00:	649a      	str	r2, [r3, #72]	; 0x48
80102e02:	68fb      	ldr	r3, [r7, #12]
80102e04:	6c9b      	ldr	r3, [r3, #72]	; 0x48
80102e06:	f043 0201 	orr.w	r2, r3, #1
80102e0a:	68fb      	ldr	r3, [r7, #12]
80102e0c:	649a      	str	r2, [r3, #72]	; 0x48
80102e0e:	68fb      	ldr	r3, [r7, #12]
80102e10:	687a      	ldr	r2, [r7, #4]
80102e12:	609a      	str	r2, [r3, #8]
80102e14:	68fa      	ldr	r2, [r7, #12]
80102e16:	2300      	movs	r3, #0
80102e18:	f6c1 033a 	movt	r3, #6202	; 0x183a
80102e1c:	60d3      	str	r3, [r2, #12]
80102e1e:	e013      	b.n	80102e48 <sd_write_blocks+0xe0>
80102e20:	68fb      	ldr	r3, [r7, #12]
80102e22:	6c9b      	ldr	r3, [r3, #72]	; 0x48
80102e24:	f023 0237 	bic.w	r2, r3, #55	; 0x37
80102e28:	68fb      	ldr	r3, [r7, #12]
80102e2a:	649a      	str	r2, [r3, #72]	; 0x48
80102e2c:	68fb      	ldr	r3, [r7, #12]
80102e2e:	6c9b      	ldr	r3, [r3, #72]	; 0x48
80102e30:	f043 0227 	orr.w	r2, r3, #39	; 0x27
80102e34:	68fb      	ldr	r3, [r7, #12]
80102e36:	649a      	str	r2, [r3, #72]	; 0x48
80102e38:	68fb      	ldr	r3, [r7, #12]
80102e3a:	687a      	ldr	r2, [r7, #4]
80102e3c:	609a      	str	r2, [r3, #8]
80102e3e:	68fa      	ldr	r2, [r7, #12]
80102e40:	2300      	movs	r3, #0
80102e42:	f6c1 133a 	movt	r3, #6458	; 0x193a
80102e46:	60d3      	str	r3, [r2, #12]
80102e48:	68f8      	ldr	r0, [r7, #12]
80102e4a:	f7fe fe71 	bl	80101b30 <USDHC_WaitCommandDone>
80102e4e:	6178      	str	r0, [r7, #20]
80102e50:	697b      	ldr	r3, [r7, #20]
80102e52:	2b00      	cmp	r3, #0
80102e54:	da01      	bge.n	80102e5a <sd_write_blocks+0xf2>
80102e56:	697b      	ldr	r3, [r7, #20]
80102e58:	e01f      	b.n	80102e9a <sd_write_blocks+0x132>
80102e5a:	68f8      	ldr	r0, [r7, #12]
80102e5c:	f7fe fe9c 	bl	80101b98 <USDHC_WaitDataDone>
80102e60:	6178      	str	r0, [r7, #20]
80102e62:	697b      	ldr	r3, [r7, #20]
80102e64:	2b00      	cmp	r3, #0
80102e66:	da01      	bge.n	80102e6c <sd_write_blocks+0x104>
80102e68:	697b      	ldr	r3, [r7, #20]
80102e6a:	e016      	b.n	80102e9a <sd_write_blocks+0x132>
80102e6c:	68f8      	ldr	r0, [r7, #12]
80102e6e:	f7ff fe8b 	bl	80102b88 <SD_WaitReadWriteComplete>
80102e72:	6178      	str	r0, [r7, #20]
80102e74:	697b      	ldr	r3, [r7, #20]
80102e76:	f003 4364 	and.w	r3, r3, #3825205248	; 0xe4000000
80102e7a:	2b00      	cmp	r3, #0
80102e7c:	d00c      	beq.n	80102e98 <sd_write_blocks+0x130>
80102e7e:	f04f 33ff 	mov.w	r3, #4294967295	; 0xffffffff
80102e82:	617b      	str	r3, [r7, #20]
80102e84:	f644 0100 	movw	r1, #18432	; 0x4800
80102e88:	f2c8 0110 	movt	r1, #32784	; 0x8010
80102e8c:	f244 7010 	movw	r0, #18192	; 0x4710
80102e90:	f2c8 0010 	movt	r0, #32784	; 0x8010
80102e94:	f7fe fb4b 	bl	8010152e <printf>
80102e98:	697b      	ldr	r3, [r7, #20]
80102e9a:	4618      	mov	r0, r3
80102e9c:	3718      	adds	r7, #24
80102e9e:	46bd      	mov	sp, r7
80102ea0:	bd80      	pop	{r7, pc}

80102ea2 <MMC_DecodeCsd>:
80102ea2:	b480      	push	{r7}
80102ea4:	b085      	sub	sp, #20
80102ea6:	af00      	add	r7, sp, #0
80102ea8:	6078      	str	r0, [r7, #4]
80102eaa:	6039      	str	r1, [r7, #0]
80102eac:	687b      	ldr	r3, [r7, #4]
80102eae:	f503 7313 	add.w	r3, r3, #588	; 0x24c
80102eb2:	60fb      	str	r3, [r7, #12]
80102eb4:	683b      	ldr	r3, [r7, #0]
80102eb6:	330c      	adds	r3, #12
80102eb8:	681b      	ldr	r3, [r3, #0]
80102eba:	0f9b      	lsrs	r3, r3, #30
80102ebc:	b2da      	uxtb	r2, r3
80102ebe:	68fb      	ldr	r3, [r7, #12]
80102ec0:	701a      	strb	r2, [r3, #0]
80102ec2:	683b      	ldr	r3, [r7, #0]
80102ec4:	330c      	adds	r3, #12
80102ec6:	681b      	ldr	r3, [r3, #0]
80102ec8:	0e9b      	lsrs	r3, r3, #26
80102eca:	b2db      	uxtb	r3, r3
80102ecc:	f003 030f 	and.w	r3, r3, #15
80102ed0:	b2da      	uxtb	r2, r3
80102ed2:	68fb      	ldr	r3, [r7, #12]
80102ed4:	705a      	strb	r2, [r3, #1]
80102ed6:	683b      	ldr	r3, [r7, #0]
80102ed8:	330c      	adds	r3, #12
80102eda:	681b      	ldr	r3, [r3, #0]
80102edc:	0c1b      	lsrs	r3, r3, #16
80102ede:	b2da      	uxtb	r2, r3
80102ee0:	68fb      	ldr	r3, [r7, #12]
80102ee2:	709a      	strb	r2, [r3, #2]
80102ee4:	683b      	ldr	r3, [r7, #0]
80102ee6:	330c      	adds	r3, #12
80102ee8:	681b      	ldr	r3, [r3, #0]
80102eea:	0a1b      	lsrs	r3, r3, #8
80102eec:	b2da      	uxtb	r2, r3
80102eee:	68fb      	ldr	r3, [r7, #12]
80102ef0:	70da      	strb	r2, [r3, #3]
80102ef2:	683b      	ldr	r3, [r7, #0]
80102ef4:	330c      	adds	r3, #12
80102ef6:	681b      	ldr	r3, [r3, #0]
80102ef8:	b2da      	uxtb	r2, r3
80102efa:	68fb      	ldr	r3, [r7, #12]
80102efc:	711a      	strb	r2, [r3, #4]
80102efe:	683b      	ldr	r3, [r7, #0]
80102f00:	3308      	adds	r3, #8
80102f02:	681b      	ldr	r3, [r3, #0]
80102f04:	0d1b      	lsrs	r3, r3, #20
80102f06:	b29a      	uxth	r2, r3
80102f08:	68fb      	ldr	r3, [r7, #12]
80102f0a:	80da      	strh	r2, [r3, #6]
80102f0c:	683b      	ldr	r3, [r7, #0]
80102f0e:	3308      	adds	r3, #8
80102f10:	681b      	ldr	r3, [r3, #0]
80102f12:	0c1b      	lsrs	r3, r3, #16
80102f14:	b2db      	uxtb	r3, r3
80102f16:	f003 030f 	and.w	r3, r3, #15
80102f1a:	b2da      	uxtb	r2, r3
80102f1c:	68fb      	ldr	r3, [r7, #12]
80102f1e:	721a      	strb	r2, [r3, #8]
80102f20:	683b      	ldr	r3, [r7, #0]
80102f22:	3308      	adds	r3, #8
80102f24:	681b      	ldr	r3, [r3, #0]
80102f26:	f403 4300 	and.w	r3, r3, #32768	; 0x8000
80102f2a:	2b00      	cmp	r3, #0
80102f2c:	d006      	beq.n	80102f3c <MMC_DecodeCsd+0x9a>
80102f2e:	68fb      	ldr	r3, [r7, #12]
80102f30:	895b      	ldrh	r3, [r3, #10]
80102f32:	f043 0301 	orr.w	r3, r3, #1
80102f36:	b29a      	uxth	r2, r3
80102f38:	68fb      	ldr	r3, [r7, #12]
80102f3a:	815a      	strh	r2, [r3, #10]
80102f3c:	683b      	ldr	r3, [r7, #0]
80102f3e:	3308      	adds	r3, #8
80102f40:	681b      	ldr	r3, [r3, #0]
80102f42:	f403 4380 	and.w	r3, r3, #16384	; 0x4000
80102f46:	2b00      	cmp	r3, #0
80102f48:	d006      	beq.n	80102f58 <MMC_DecodeCsd+0xb6>
80102f4a:	68fb      	ldr	r3, [r7, #12]
80102f4c:	895b      	ldrh	r3, [r3, #10]
80102f4e:	f043 0302 	orr.w	r3, r3, #2
80102f52:	b29a      	uxth	r2, r3
80102f54:	68fb      	ldr	r3, [r7, #12]
80102f56:	815a      	strh	r2, [r3, #10]
80102f58:	683b      	ldr	r3, [r7, #0]
80102f5a:	3308      	adds	r3, #8
80102f5c:	681b      	ldr	r3, [r3, #0]
80102f5e:	f403 5300 	and.w	r3, r3, #8192	; 0x2000
80102f62:	2b00      	cmp	r3, #0
80102f64:	d006      	beq.n	80102f74 <MMC_DecodeCsd+0xd2>
80102f66:	68fb      	ldr	r3, [r7, #12]
80102f68:	895b      	ldrh	r3, [r3, #10]
80102f6a:	f043 0304 	orr.w	r3, r3, #4
80102f6e:	b29a      	uxth	r2, r3
80102f70:	68fb      	ldr	r3, [r7, #12]
80102f72:	815a      	strh	r2, [r3, #10]
80102f74:	683b      	ldr	r3, [r7, #0]
80102f76:	3308      	adds	r3, #8
80102f78:	681b      	ldr	r3, [r3, #0]
80102f7a:	f403 5380 	and.w	r3, r3, #4096	; 0x1000
80102f7e:	2b00      	cmp	r3, #0
80102f80:	d006      	beq.n	80102f90 <MMC_DecodeCsd+0xee>
80102f82:	68fb      	ldr	r3, [r7, #12]
80102f84:	895b      	ldrh	r3, [r3, #10]
80102f86:	f043 0308 	orr.w	r3, r3, #8
80102f8a:	b29a      	uxth	r2, r3
80102f8c:	68fb      	ldr	r3, [r7, #12]
80102f8e:	815a      	strh	r2, [r3, #10]
80102f90:	683b      	ldr	r3, [r7, #0]
80102f92:	3308      	adds	r3, #8
80102f94:	681b      	ldr	r3, [r3, #0]
80102f96:	b29b      	uxth	r3, r3
80102f98:	009b      	lsls	r3, r3, #2
80102f9a:	b29a      	uxth	r2, r3
80102f9c:	f640 73fc 	movw	r3, #4092	; 0xffc
80102fa0:	4013      	ands	r3, r2
80102fa2:	b29a      	uxth	r2, r3
80102fa4:	683b      	ldr	r3, [r7, #0]
80102fa6:	3304      	adds	r3, #4
80102fa8:	681b      	ldr	r3, [r3, #0]
80102faa:	0f9b      	lsrs	r3, r3, #30
80102fac:	b29b      	uxth	r3, r3
80102fae:	4413      	add	r3, r2
80102fb0:	b29a      	uxth	r2, r3
80102fb2:	68fb      	ldr	r3, [r7, #12]
80102fb4:	819a      	strh	r2, [r3, #12]
80102fb6:	683b      	ldr	r3, [r7, #0]
80102fb8:	3304      	adds	r3, #4
80102fba:	681b      	ldr	r3, [r3, #0]
80102fbc:	0edb      	lsrs	r3, r3, #27
80102fbe:	b2db      	uxtb	r3, r3
80102fc0:	f003 0307 	and.w	r3, r3, #7
80102fc4:	b2da      	uxtb	r2, r3
80102fc6:	68fb      	ldr	r3, [r7, #12]
80102fc8:	739a      	strb	r2, [r3, #14]
80102fca:	683b      	ldr	r3, [r7, #0]
80102fcc:	3304      	adds	r3, #4
80102fce:	681b      	ldr	r3, [r3, #0]
80102fd0:	0e1b      	lsrs	r3, r3, #24
80102fd2:	b2db      	uxtb	r3, r3
80102fd4:	f003 0307 	and.w	r3, r3, #7
80102fd8:	b2da      	uxtb	r2, r3
80102fda:	68fb      	ldr	r3, [r7, #12]
80102fdc:	73da      	strb	r2, [r3, #15]
80102fde:	683b      	ldr	r3, [r7, #0]
80102fe0:	3304      	adds	r3, #4
80102fe2:	681b      	ldr	r3, [r3, #0]
80102fe4:	0d5b      	lsrs	r3, r3, #21
80102fe6:	b2db      	uxtb	r3, r3
80102fe8:	f003 0307 	and.w	r3, r3, #7
80102fec:	b2da      	uxtb	r2, r3
80102fee:	68fb      	ldr	r3, [r7, #12]
80102ff0:	741a      	strb	r2, [r3, #16]
80102ff2:	683b      	ldr	r3, [r7, #0]
80102ff4:	3304      	adds	r3, #4
80102ff6:	681b      	ldr	r3, [r3, #0]
80102ff8:	0c9b      	lsrs	r3, r3, #18
80102ffa:	b2db      	uxtb	r3, r3
80102ffc:	f003 0307 	and.w	r3, r3, #7
80103000:	b2da      	uxtb	r2, r3
80103002:	68fb      	ldr	r3, [r7, #12]
80103004:	745a      	strb	r2, [r3, #17]
80103006:	683b      	ldr	r3, [r7, #0]
80103008:	3304      	adds	r3, #4
8010300a:	681b      	ldr	r3, [r3, #0]
8010300c:	0bdb      	lsrs	r3, r3, #15
8010300e:	b2db      	uxtb	r3, r3
80103010:	f003 0307 	and.w	r3, r3, #7
80103014:	b2da      	uxtb	r2, r3
80103016:	68fb      	ldr	r3, [r7, #12]
80103018:	749a      	strb	r2, [r3, #18]
8010301a:	683b      	ldr	r3, [r7, #0]
8010301c:	3304      	adds	r3, #4
8010301e:	681b      	ldr	r3, [r3, #0]
80103020:	0a9b      	lsrs	r3, r3, #10
80103022:	b2db      	uxtb	r3, r3
80103024:	f003 031f 	and.w	r3, r3, #31
80103028:	b2da      	uxtb	r2, r3
8010302a:	68fb      	ldr	r3, [r7, #12]
8010302c:	74da      	strb	r2, [r3, #19]
8010302e:	683b      	ldr	r3, [r7, #0]
80103030:	3304      	adds	r3, #4
80103032:	681b      	ldr	r3, [r3, #0]
80103034:	095b      	lsrs	r3, r3, #5
80103036:	b2db      	uxtb	r3, r3
80103038:	f003 031f 	and.w	r3, r3, #31
8010303c:	b2da      	uxtb	r2, r3
8010303e:	68fb      	ldr	r3, [r7, #12]
80103040:	751a      	strb	r2, [r3, #20]
80103042:	683b      	ldr	r3, [r7, #0]
80103044:	3304      	adds	r3, #4
80103046:	681b      	ldr	r3, [r3, #0]
80103048:	b2db      	uxtb	r3, r3
8010304a:	f003 031f 	and.w	r3, r3, #31
8010304e:	b2da      	uxtb	r2, r3
80103050:	68fb      	ldr	r3, [r7, #12]
80103052:	755a      	strb	r2, [r3, #21]
80103054:	683b      	ldr	r3, [r7, #0]
80103056:	681b      	ldr	r3, [r3, #0]
80103058:	2b00      	cmp	r3, #0
8010305a:	da06      	bge.n	8010306a <MMC_DecodeCsd+0x1c8>
8010305c:	68fb      	ldr	r3, [r7, #12]
8010305e:	895b      	ldrh	r3, [r3, #10]
80103060:	f043 0310 	orr.w	r3, r3, #16
80103064:	b29a      	uxth	r2, r3
80103066:	68fb      	ldr	r3, [r7, #12]
80103068:	815a      	strh	r2, [r3, #10]
8010306a:	683b      	ldr	r3, [r7, #0]
8010306c:	681b      	ldr	r3, [r3, #0]
8010306e:	0f5b      	lsrs	r3, r3, #29
80103070:	b2db      	uxtb	r3, r3
80103072:	f003 0303 	and.w	r3, r3, #3
80103076:	b2da      	uxtb	r2, r3
80103078:	68fb      	ldr	r3, [r7, #12]
8010307a:	759a      	strb	r2, [r3, #22]
8010307c:	683b      	ldr	r3, [r7, #0]
8010307e:	681b      	ldr	r3, [r3, #0]
80103080:	0e9b      	lsrs	r3, r3, #26
80103082:	b2db      	uxtb	r3, r3
80103084:	f003 0307 	and.w	r3, r3, #7
80103088:	b2da      	uxtb	r2, r3
8010308a:	68fb      	ldr	r3, [r7, #12]
8010308c:	75da      	strb	r2, [r3, #23]
8010308e:	683b      	ldr	r3, [r7, #0]
80103090:	681b      	ldr	r3, [r3, #0]
80103092:	0d9b      	lsrs	r3, r3, #22
80103094:	b2db      	uxtb	r3, r3
80103096:	f003 030f 	and.w	r3, r3, #15
8010309a:	b2da      	uxtb	r2, r3
8010309c:	68fb      	ldr	r3, [r7, #12]
8010309e:	761a      	strb	r2, [r3, #24]
801030a0:	683b      	ldr	r3, [r7, #0]
801030a2:	681b      	ldr	r3, [r3, #0]
801030a4:	f403 1300 	and.w	r3, r3, #2097152	; 0x200000
801030a8:	2b00      	cmp	r3, #0
801030aa:	d006      	beq.n	801030ba <MMC_DecodeCsd+0x218>
801030ac:	68fb      	ldr	r3, [r7, #12]
801030ae:	895b      	ldrh	r3, [r3, #10]
801030b0:	f043 0320 	orr.w	r3, r3, #32
801030b4:	b29a      	uxth	r2, r3
801030b6:	68fb      	ldr	r3, [r7, #12]
801030b8:	815a      	strh	r2, [r3, #10]
801030ba:	683b      	ldr	r3, [r7, #0]
801030bc:	681b      	ldr	r3, [r3, #0]
801030be:	f403 3380 	and.w	r3, r3, #65536	; 0x10000
801030c2:	2b00      	cmp	r3, #0
801030c4:	d006      	beq.n	801030d4 <MMC_DecodeCsd+0x232>
801030c6:	68fb      	ldr	r3, [r7, #12]
801030c8:	895b      	ldrh	r3, [r3, #10]
801030ca:	f043 0340 	orr.w	r3, r3, #64	; 0x40
801030ce:	b29a      	uxth	r2, r3
801030d0:	68fb      	ldr	r3, [r7, #12]
801030d2:	815a      	strh	r2, [r3, #10]
801030d4:	683b      	ldr	r3, [r7, #0]
801030d6:	681b      	ldr	r3, [r3, #0]
801030d8:	f403 4300 	and.w	r3, r3, #32768	; 0x8000
801030dc:	2b00      	cmp	r3, #0
801030de:	d006      	beq.n	801030ee <MMC_DecodeCsd+0x24c>
801030e0:	68fb      	ldr	r3, [r7, #12]
801030e2:	895b      	ldrh	r3, [r3, #10]
801030e4:	f043 0380 	orr.w	r3, r3, #128	; 0x80
801030e8:	b29a      	uxth	r2, r3
801030ea:	68fb      	ldr	r3, [r7, #12]
801030ec:	815a      	strh	r2, [r3, #10]
801030ee:	683b      	ldr	r3, [r7, #0]
801030f0:	681b      	ldr	r3, [r3, #0]
801030f2:	f403 4380 	and.w	r3, r3, #16384	; 0x4000
801030f6:	2b00      	cmp	r3, #0
801030f8:	d006      	beq.n	80103108 <MMC_DecodeCsd+0x266>
801030fa:	68fb      	ldr	r3, [r7, #12]
801030fc:	895b      	ldrh	r3, [r3, #10]
801030fe:	f443 7380 	orr.w	r3, r3, #256	; 0x100
80103102:	b29a      	uxth	r2, r3
80103104:	68fb      	ldr	r3, [r7, #12]
80103106:	815a      	strh	r2, [r3, #10]
80103108:	683b      	ldr	r3, [r7, #0]
8010310a:	681b      	ldr	r3, [r3, #0]
8010310c:	f403 5300 	and.w	r3, r3, #8192	; 0x2000
80103110:	2b00      	cmp	r3, #0
80103112:	d006      	beq.n	80103122 <MMC_DecodeCsd+0x280>
80103114:	68fb      	ldr	r3, [r7, #12]
80103116:	895b      	ldrh	r3, [r3, #10]
80103118:	f443 7300 	orr.w	r3, r3, #512	; 0x200
8010311c:	b29a      	uxth	r2, r3
8010311e:	68fb      	ldr	r3, [r7, #12]
80103120:	815a      	strh	r2, [r3, #10]
80103122:	683b      	ldr	r3, [r7, #0]
80103124:	681b      	ldr	r3, [r3, #0]
80103126:	f403 5380 	and.w	r3, r3, #4096	; 0x1000
8010312a:	2b00      	cmp	r3, #0
8010312c:	d006      	beq.n	8010313c <MMC_DecodeCsd+0x29a>
8010312e:	68fb      	ldr	r3, [r7, #12]
80103130:	895b      	ldrh	r3, [r3, #10]
80103132:	f443 6380 	orr.w	r3, r3, #1024	; 0x400
80103136:	b29a      	uxth	r2, r3
80103138:	68fb      	ldr	r3, [r7, #12]
8010313a:	815a      	strh	r2, [r3, #10]
8010313c:	683b      	ldr	r3, [r7, #0]
8010313e:	681b      	ldr	r3, [r3, #0]
80103140:	0a9b      	lsrs	r3, r3, #10
80103142:	b2db      	uxtb	r3, r3
80103144:	f003 0303 	and.w	r3, r3, #3
80103148:	b2da      	uxtb	r2, r3
8010314a:	68fb      	ldr	r3, [r7, #12]
8010314c:	765a      	strb	r2, [r3, #25]
8010314e:	683b      	ldr	r3, [r7, #0]
80103150:	681b      	ldr	r3, [r3, #0]
80103152:	0a1b      	lsrs	r3, r3, #8
80103154:	b2db      	uxtb	r3, r3
80103156:	f003 0303 	and.w	r3, r3, #3
8010315a:	b2da      	uxtb	r2, r3
8010315c:	68fb      	ldr	r3, [r7, #12]
8010315e:	769a      	strb	r2, [r3, #26]
80103160:	687b      	ldr	r3, [r7, #4]
80103162:	f8b3 3258 	ldrh.w	r3, [r3, #600]	; 0x258
80103166:	f640 72ff 	movw	r2, #4095	; 0xfff
8010316a:	4293      	cmp	r3, r2
8010316c:	d012      	beq.n	80103194 <MMC_DecodeCsd+0x2f2>
8010316e:	687b      	ldr	r3, [r7, #4]
80103170:	f893 325e 	ldrb.w	r3, [r3, #606]	; 0x25e
80103174:	3301      	adds	r3, #1
80103176:	2202      	movs	r2, #2
80103178:	fa02 f303 	lsl.w	r3, r2, r3
8010317c:	60bb      	str	r3, [r7, #8]
8010317e:	687b      	ldr	r3, [r7, #4]
80103180:	f8b3 3258 	ldrh.w	r3, [r3, #600]	; 0x258
80103184:	3301      	adds	r3, #1
80103186:	68ba      	ldr	r2, [r7, #8]
80103188:	fb02 f303 	mul.w	r3, r2, r3
8010318c:	0a5a      	lsrs	r2, r3, #9
8010318e:	687b      	ldr	r3, [r7, #4]
80103190:	f8c3 2338 	str.w	r2, [r3, #824]	; 0x338
80103194:	687b      	ldr	r3, [r7, #4]
80103196:	f44f 7200 	mov.w	r2, #512	; 0x200
8010319a:	f8c3 2334 	str.w	r2, [r3, #820]	; 0x334
8010319e:	bf00      	nop
801031a0:	3714      	adds	r7, #20
801031a2:	46bd      	mov	sp, r7
801031a4:	f85d 7b04 	ldr.w	r7, [sp], #4
801031a8:	4770      	bx	lr

801031aa <MMC_DecodeCid>:
801031aa:	b480      	push	{r7}
801031ac:	b085      	sub	sp, #20
801031ae:	af00      	add	r7, sp, #0
801031b0:	6078      	str	r0, [r7, #4]
801031b2:	6039      	str	r1, [r7, #0]
801031b4:	687b      	ldr	r3, [r7, #4]
801031b6:	f503 730e 	add.w	r3, r3, #568	; 0x238
801031ba:	60fb      	str	r3, [r7, #12]
801031bc:	683b      	ldr	r3, [r7, #0]
801031be:	330c      	adds	r3, #12
801031c0:	681b      	ldr	r3, [r3, #0]
801031c2:	0e1b      	lsrs	r3, r3, #24
801031c4:	b2da      	uxtb	r2, r3
801031c6:	68fb      	ldr	r3, [r7, #12]
801031c8:	701a      	strb	r2, [r3, #0]
801031ca:	683b      	ldr	r3, [r7, #0]
801031cc:	330c      	adds	r3, #12
801031ce:	681b      	ldr	r3, [r3, #0]
801031d0:	0a1b      	lsrs	r3, r3, #8
801031d2:	b29a      	uxth	r2, r3
801031d4:	68fb      	ldr	r3, [r7, #12]
801031d6:	805a      	strh	r2, [r3, #2]
801031d8:	683b      	ldr	r3, [r7, #0]
801031da:	330c      	adds	r3, #12
801031dc:	681b      	ldr	r3, [r3, #0]
801031de:	b2da      	uxtb	r2, r3
801031e0:	68fb      	ldr	r3, [r7, #12]
801031e2:	711a      	strb	r2, [r3, #4]
801031e4:	683b      	ldr	r3, [r7, #0]
801031e6:	3308      	adds	r3, #8
801031e8:	681b      	ldr	r3, [r3, #0]
801031ea:	0e1b      	lsrs	r3, r3, #24
801031ec:	b2da      	uxtb	r2, r3
801031ee:	68fb      	ldr	r3, [r7, #12]
801031f0:	715a      	strb	r2, [r3, #5]
801031f2:	683b      	ldr	r3, [r7, #0]
801031f4:	3308      	adds	r3, #8
801031f6:	681b      	ldr	r3, [r3, #0]
801031f8:	0c1b      	lsrs	r3, r3, #16
801031fa:	b2da      	uxtb	r2, r3
801031fc:	68fb      	ldr	r3, [r7, #12]
801031fe:	719a      	strb	r2, [r3, #6]
80103200:	683b      	ldr	r3, [r7, #0]
80103202:	3308      	adds	r3, #8
80103204:	681b      	ldr	r3, [r3, #0]
80103206:	0a1b      	lsrs	r3, r3, #8
80103208:	b2da      	uxtb	r2, r3
8010320a:	68fb      	ldr	r3, [r7, #12]
8010320c:	71da      	strb	r2, [r3, #7]
8010320e:	683b      	ldr	r3, [r7, #0]
80103210:	3308      	adds	r3, #8
80103212:	681b      	ldr	r3, [r3, #0]
80103214:	b2da      	uxtb	r2, r3
80103216:	68fb      	ldr	r3, [r7, #12]
80103218:	721a      	strb	r2, [r3, #8]
8010321a:	683b      	ldr	r3, [r7, #0]
8010321c:	3304      	adds	r3, #4
8010321e:	681b      	ldr	r3, [r3, #0]
80103220:	0e1b      	lsrs	r3, r3, #24
80103222:	b2da      	uxtb	r2, r3
80103224:	68fb      	ldr	r3, [r7, #12]
80103226:	729a      	strb	r2, [r3, #10]
80103228:	683b      	ldr	r3, [r7, #0]
8010322a:	3304      	adds	r3, #4
8010322c:	681b      	ldr	r3, [r3, #0]
8010322e:	021a      	lsls	r2, r3, #8
80103230:	68fb      	ldr	r3, [r7, #12]
80103232:	60da      	str	r2, [r3, #12]
80103234:	68fb      	ldr	r3, [r7, #12]
80103236:	68da      	ldr	r2, [r3, #12]
80103238:	683b      	ldr	r3, [r7, #0]
8010323a:	681b      	ldr	r3, [r3, #0]
8010323c:	0e1b      	lsrs	r3, r3, #24
8010323e:	431a      	orrs	r2, r3
80103240:	68fb      	ldr	r3, [r7, #12]
80103242:	60da      	str	r2, [r3, #12]
80103244:	683b      	ldr	r3, [r7, #0]
80103246:	681b      	ldr	r3, [r3, #0]
80103248:	0a1b      	lsrs	r3, r3, #8
8010324a:	b2da      	uxtb	r2, r3
8010324c:	68fb      	ldr	r3, [r7, #12]
8010324e:	741a      	strb	r2, [r3, #16]
80103250:	bf00      	nop
80103252:	3714      	adds	r7, #20
80103254:	46bd      	mov	sp, r7
80103256:	f85d 7b04 	ldr.w	r7, [sp], #4
8010325a:	4770      	bx	lr

8010325c <MMC_DecodeExtendedCsd>:
8010325c:	b480      	push	{r7}
8010325e:	b085      	sub	sp, #20
80103260:	af00      	add	r7, sp, #0
80103262:	6078      	str	r0, [r7, #4]
80103264:	6039      	str	r1, [r7, #0]
80103266:	683b      	ldr	r3, [r7, #0]
80103268:	60fb      	str	r3, [r7, #12]
8010326a:	687b      	ldr	r3, [r7, #4]
8010326c:	f503 731a 	add.w	r3, r3, #616	; 0x268
80103270:	60bb      	str	r3, [r7, #8]
80103272:	68fb      	ldr	r3, [r7, #12]
80103274:	f893 20af 	ldrb.w	r2, [r3, #175]	; 0xaf
80103278:	68bb      	ldr	r3, [r7, #8]
8010327a:	f883 205c 	strb.w	r2, [r3, #92]	; 0x5c
8010327e:	68fb      	ldr	r3, [r7, #12]
80103280:	f893 20b1 	ldrb.w	r2, [r3, #177]	; 0xb1
80103284:	68bb      	ldr	r3, [r7, #8]
80103286:	f883 205d 	strb.w	r2, [r3, #93]	; 0x5d
8010328a:	68fb      	ldr	r3, [r7, #12]
8010328c:	f893 20b3 	ldrb.w	r2, [r3, #179]	; 0xb3
80103290:	68bb      	ldr	r3, [r7, #8]
80103292:	f883 205f 	strb.w	r2, [r3, #95]	; 0x5f
80103296:	68fb      	ldr	r3, [r7, #12]
80103298:	f893 20b5 	ldrb.w	r2, [r3, #181]	; 0xb5
8010329c:	68bb      	ldr	r3, [r7, #8]
8010329e:	f883 2060 	strb.w	r2, [r3, #96]	; 0x60
801032a2:	68fb      	ldr	r3, [r7, #12]
801032a4:	f893 20b7 	ldrb.w	r2, [r3, #183]	; 0xb7
801032a8:	68bb      	ldr	r3, [r7, #8]
801032aa:	f883 2061 	strb.w	r2, [r3, #97]	; 0x61
801032ae:	68fb      	ldr	r3, [r7, #12]
801032b0:	f893 20b9 	ldrb.w	r2, [r3, #185]	; 0xb9
801032b4:	68bb      	ldr	r3, [r7, #8]
801032b6:	f883 2062 	strb.w	r2, [r3, #98]	; 0x62
801032ba:	68fb      	ldr	r3, [r7, #12]
801032bc:	f893 20bb 	ldrb.w	r2, [r3, #187]	; 0xbb
801032c0:	68bb      	ldr	r3, [r7, #8]
801032c2:	f883 2063 	strb.w	r2, [r3, #99]	; 0x63
801032c6:	68fb      	ldr	r3, [r7, #12]
801032c8:	f893 20bd 	ldrb.w	r2, [r3, #189]	; 0xbd
801032cc:	68bb      	ldr	r3, [r7, #8]
801032ce:	f883 2064 	strb.w	r2, [r3, #100]	; 0x64
801032d2:	68fb      	ldr	r3, [r7, #12]
801032d4:	f893 20bf 	ldrb.w	r2, [r3, #191]	; 0xbf
801032d8:	68bb      	ldr	r3, [r7, #8]
801032da:	f883 2065 	strb.w	r2, [r3, #101]	; 0x65
801032de:	68fb      	ldr	r3, [r7, #12]
801032e0:	f893 20c0 	ldrb.w	r2, [r3, #192]	; 0xc0
801032e4:	68bb      	ldr	r3, [r7, #8]
801032e6:	f883 2066 	strb.w	r2, [r3, #102]	; 0x66
801032ea:	68fb      	ldr	r3, [r7, #12]
801032ec:	f893 20c2 	ldrb.w	r2, [r3, #194]	; 0xc2
801032f0:	68bb      	ldr	r3, [r7, #8]
801032f2:	f883 2067 	strb.w	r2, [r3, #103]	; 0x67
801032f6:	68fb      	ldr	r3, [r7, #12]
801032f8:	f893 209c 	ldrb.w	r2, [r3, #156]	; 0x9c
801032fc:	68bb      	ldr	r3, [r7, #8]
801032fe:	f883 204c 	strb.w	r2, [r3, #76]	; 0x4c
80103302:	68fb      	ldr	r3, [r7, #12]
80103304:	f893 21ee 	ldrb.w	r2, [r3, #494]	; 0x1ee
80103308:	68bb      	ldr	r3, [r7, #8]
8010330a:	f883 20c2 	strb.w	r2, [r3, #194]	; 0xc2
8010330e:	68fb      	ldr	r3, [r7, #12]
80103310:	f893 20c4 	ldrb.w	r2, [r3, #196]	; 0xc4
80103314:	68bb      	ldr	r3, [r7, #8]
80103316:	f883 2068 	strb.w	r2, [r3, #104]	; 0x68
8010331a:	687b      	ldr	r3, [r7, #4]
8010331c:	691b      	ldr	r3, [r3, #16]
8010331e:	68ba      	ldr	r2, [r7, #8]
80103320:	f892 2068 	ldrb.w	r2, [r2, #104]	; 0x68
80103324:	431a      	orrs	r2, r3
80103326:	687b      	ldr	r3, [r7, #4]
80103328:	611a      	str	r2, [r3, #16]
8010332a:	68fb      	ldr	r3, [r7, #12]
8010332c:	f893 20c5 	ldrb.w	r2, [r3, #197]	; 0xc5
80103330:	68bb      	ldr	r3, [r7, #8]
80103332:	f883 2069 	strb.w	r2, [r3, #105]	; 0x69
80103336:	68fb      	ldr	r3, [r7, #12]
80103338:	f893 20c8 	ldrb.w	r2, [r3, #200]	; 0xc8
8010333c:	68bb      	ldr	r3, [r7, #8]
8010333e:	f883 206c 	strb.w	r2, [r3, #108]	; 0x6c
80103342:	68fb      	ldr	r3, [r7, #12]
80103344:	f893 20c9 	ldrb.w	r2, [r3, #201]	; 0xc9
80103348:	68bb      	ldr	r3, [r7, #8]
8010334a:	f883 206d 	strb.w	r2, [r3, #109]	; 0x6d
8010334e:	68fb      	ldr	r3, [r7, #12]
80103350:	f893 20ca 	ldrb.w	r2, [r3, #202]	; 0xca
80103354:	68bb      	ldr	r3, [r7, #8]
80103356:	f883 206e 	strb.w	r2, [r3, #110]	; 0x6e
8010335a:	68fb      	ldr	r3, [r7, #12]
8010335c:	f893 20cb 	ldrb.w	r2, [r3, #203]	; 0xcb
80103360:	68bb      	ldr	r3, [r7, #8]
80103362:	f883 206f 	strb.w	r2, [r3, #111]	; 0x6f
80103366:	68fb      	ldr	r3, [r7, #12]
80103368:	f893 20ec 	ldrb.w	r2, [r3, #236]	; 0xec
8010336c:	68bb      	ldr	r3, [r7, #8]
8010336e:	f883 2092 	strb.w	r2, [r3, #146]	; 0x92
80103372:	68fb      	ldr	r3, [r7, #12]
80103374:	f893 20ed 	ldrb.w	r2, [r3, #237]	; 0xed
80103378:	68bb      	ldr	r3, [r7, #8]
8010337a:	f883 2093 	strb.w	r2, [r3, #147]	; 0x93
8010337e:	68fb      	ldr	r3, [r7, #12]
80103380:	f893 20ee 	ldrb.w	r2, [r3, #238]	; 0xee
80103384:	68bb      	ldr	r3, [r7, #8]
80103386:	f883 2094 	strb.w	r2, [r3, #148]	; 0x94
8010338a:	68fb      	ldr	r3, [r7, #12]
8010338c:	f893 20ef 	ldrb.w	r2, [r3, #239]	; 0xef
80103390:	68bb      	ldr	r3, [r7, #8]
80103392:	f883 2095 	strb.w	r2, [r3, #149]	; 0x95
80103396:	68fb      	ldr	r3, [r7, #12]
80103398:	f893 20fd 	ldrb.w	r2, [r3, #253]	; 0xfd
8010339c:	68bb      	ldr	r3, [r7, #8]
8010339e:	f883 20a4 	strb.w	r2, [r3, #164]	; 0xa4
801033a2:	68fb      	ldr	r3, [r7, #12]
801033a4:	f893 20cd 	ldrb.w	r2, [r3, #205]	; 0xcd
801033a8:	68bb      	ldr	r3, [r7, #8]
801033aa:	f883 2070 	strb.w	r2, [r3, #112]	; 0x70
801033ae:	68fb      	ldr	r3, [r7, #12]
801033b0:	f893 20ce 	ldrb.w	r2, [r3, #206]	; 0xce
801033b4:	68bb      	ldr	r3, [r7, #8]
801033b6:	f883 2071 	strb.w	r2, [r3, #113]	; 0x71
801033ba:	68fb      	ldr	r3, [r7, #12]
801033bc:	f893 20cf 	ldrb.w	r2, [r3, #207]	; 0xcf
801033c0:	68bb      	ldr	r3, [r7, #8]
801033c2:	f883 2072 	strb.w	r2, [r3, #114]	; 0x72
801033c6:	68fb      	ldr	r3, [r7, #12]
801033c8:	f893 20d0 	ldrb.w	r2, [r3, #208]	; 0xd0
801033cc:	68bb      	ldr	r3, [r7, #8]
801033ce:	f883 2073 	strb.w	r2, [r3, #115]	; 0x73
801033d2:	68fb      	ldr	r3, [r7, #12]
801033d4:	f893 20d1 	ldrb.w	r2, [r3, #209]	; 0xd1
801033d8:	68bb      	ldr	r3, [r7, #8]
801033da:	f883 2074 	strb.w	r2, [r3, #116]	; 0x74
801033de:	68fb      	ldr	r3, [r7, #12]
801033e0:	f893 20d2 	ldrb.w	r2, [r3, #210]	; 0xd2
801033e4:	68bb      	ldr	r3, [r7, #8]
801033e6:	f883 2075 	strb.w	r2, [r3, #117]	; 0x75
801033ea:	68fb      	ldr	r3, [r7, #12]
801033ec:	f893 20ea 	ldrb.w	r2, [r3, #234]	; 0xea
801033f0:	68bb      	ldr	r3, [r7, #8]
801033f2:	f883 2090 	strb.w	r2, [r3, #144]	; 0x90
801033f6:	68fb      	ldr	r3, [r7, #12]
801033f8:	f893 20eb 	ldrb.w	r2, [r3, #235]	; 0xeb
801033fc:	68bb      	ldr	r3, [r7, #8]
801033fe:	f883 2091 	strb.w	r2, [r3, #145]	; 0x91
80103402:	68fb      	ldr	r3, [r7, #12]
80103404:	33d7      	adds	r3, #215	; 0xd7
80103406:	781b      	ldrb	r3, [r3, #0]
80103408:	061a      	lsls	r2, r3, #24
8010340a:	68fb      	ldr	r3, [r7, #12]
8010340c:	33d6      	adds	r3, #214	; 0xd6
8010340e:	781b      	ldrb	r3, [r3, #0]
80103410:	041b      	lsls	r3, r3, #16
80103412:	441a      	add	r2, r3
80103414:	68fb      	ldr	r3, [r7, #12]
80103416:	33d5      	adds	r3, #213	; 0xd5
80103418:	781b      	ldrb	r3, [r3, #0]
8010341a:	021b      	lsls	r3, r3, #8
8010341c:	4413      	add	r3, r2
8010341e:	68fa      	ldr	r2, [r7, #12]
80103420:	32d4      	adds	r2, #212	; 0xd4
80103422:	7812      	ldrb	r2, [r2, #0]
80103424:	441a      	add	r2, r3
80103426:	68bb      	ldr	r3, [r7, #8]
80103428:	679a      	str	r2, [r3, #120]	; 0x78
8010342a:	687b      	ldr	r3, [r7, #4]
8010342c:	691b      	ldr	r3, [r3, #16]
8010342e:	f403 7380 	and.w	r3, r3, #256	; 0x100
80103432:	2b00      	cmp	r3, #0
80103434:	d005      	beq.n	80103442 <MMC_DecodeExtendedCsd+0x1e6>
80103436:	687b      	ldr	r3, [r7, #4]
80103438:	f8d3 22e0 	ldr.w	r2, [r3, #736]	; 0x2e0
8010343c:	687b      	ldr	r3, [r7, #4]
8010343e:	f8c3 2338 	str.w	r2, [r3, #824]	; 0x338
80103442:	68fb      	ldr	r3, [r7, #12]
80103444:	f893 20d9 	ldrb.w	r2, [r3, #217]	; 0xd9
80103448:	68bb      	ldr	r3, [r7, #8]
8010344a:	f883 207d 	strb.w	r2, [r3, #125]	; 0x7d
8010344e:	68fb      	ldr	r3, [r7, #12]
80103450:	f893 20db 	ldrb.w	r2, [r3, #219]	; 0xdb
80103454:	68bb      	ldr	r3, [r7, #8]
80103456:	f883 207f 	strb.w	r2, [r3, #127]	; 0x7f
8010345a:	68fb      	ldr	r3, [r7, #12]
8010345c:	f893 20dc 	ldrb.w	r2, [r3, #220]	; 0xdc
80103460:	68bb      	ldr	r3, [r7, #8]
80103462:	f883 2080 	strb.w	r2, [r3, #128]	; 0x80
80103466:	68fb      	ldr	r3, [r7, #12]
80103468:	f893 20dd 	ldrb.w	r2, [r3, #221]	; 0xdd
8010346c:	68bb      	ldr	r3, [r7, #8]
8010346e:	f883 2081 	strb.w	r2, [r3, #129]	; 0x81
80103472:	68fb      	ldr	r3, [r7, #12]
80103474:	f893 20de 	ldrb.w	r2, [r3, #222]	; 0xde
80103478:	68bb      	ldr	r3, [r7, #8]
8010347a:	f883 2082 	strb.w	r2, [r3, #130]	; 0x82
8010347e:	68fb      	ldr	r3, [r7, #12]
80103480:	f893 20df 	ldrb.w	r2, [r3, #223]	; 0xdf
80103484:	68bb      	ldr	r3, [r7, #8]
80103486:	f883 2083 	strb.w	r2, [r3, #131]	; 0x83
8010348a:	68fb      	ldr	r3, [r7, #12]
8010348c:	f893 20e0 	ldrb.w	r2, [r3, #224]	; 0xe0
80103490:	68bb      	ldr	r3, [r7, #8]
80103492:	f883 2084 	strb.w	r2, [r3, #132]	; 0x84
80103496:	68fb      	ldr	r3, [r7, #12]
80103498:	f893 20e1 	ldrb.w	r2, [r3, #225]	; 0xe1
8010349c:	68bb      	ldr	r3, [r7, #8]
8010349e:	f883 2085 	strb.w	r2, [r3, #133]	; 0x85
801034a2:	68fb      	ldr	r3, [r7, #12]
801034a4:	f893 20e2 	ldrb.w	r2, [r3, #226]	; 0xe2
801034a8:	68bb      	ldr	r3, [r7, #8]
801034aa:	f883 2086 	strb.w	r2, [r3, #134]	; 0x86
801034ae:	68bb      	ldr	r3, [r7, #8]
801034b0:	f893 3086 	ldrb.w	r3, [r3, #134]	; 0x86
801034b4:	045b      	lsls	r3, r3, #17
801034b6:	0a5a      	lsrs	r2, r3, #9
801034b8:	687b      	ldr	r3, [r7, #4]
801034ba:	f8c3 233c 	str.w	r2, [r3, #828]	; 0x33c
801034be:	68fb      	ldr	r3, [r7, #12]
801034c0:	f893 20e4 	ldrb.w	r2, [r3, #228]	; 0xe4
801034c4:	68bb      	ldr	r3, [r7, #8]
801034c6:	f883 2087 	strb.w	r2, [r3, #135]	; 0x87
801034ca:	68bb      	ldr	r3, [r7, #8]
801034cc:	f893 3087 	ldrb.w	r3, [r3, #135]	; 0x87
801034d0:	f003 0301 	and.w	r3, r3, #1
801034d4:	2b00      	cmp	r3, #0
801034d6:	d006      	beq.n	801034e6 <MMC_DecodeExtendedCsd+0x28a>
801034d8:	687b      	ldr	r3, [r7, #4]
801034da:	691b      	ldr	r3, [r3, #16]
801034dc:	f443 7200 	orr.w	r2, r3, #512	; 0x200
801034e0:	687b      	ldr	r3, [r7, #4]
801034e2:	611a      	str	r2, [r3, #16]
801034e4:	e01a      	b.n	8010351c <MMC_DecodeExtendedCsd+0x2c0>
801034e6:	68bb      	ldr	r3, [r7, #8]
801034e8:	f893 3087 	ldrb.w	r3, [r3, #135]	; 0x87
801034ec:	f403 6380 	and.w	r3, r3, #1024	; 0x400
801034f0:	2b00      	cmp	r3, #0
801034f2:	d006      	beq.n	80103502 <MMC_DecodeExtendedCsd+0x2a6>
801034f4:	687b      	ldr	r3, [r7, #4]
801034f6:	691b      	ldr	r3, [r3, #16]
801034f8:	f443 6280 	orr.w	r2, r3, #1024	; 0x400
801034fc:	687b      	ldr	r3, [r7, #4]
801034fe:	611a      	str	r2, [r3, #16]
80103500:	e00c      	b.n	8010351c <MMC_DecodeExtendedCsd+0x2c0>
80103502:	68bb      	ldr	r3, [r7, #8]
80103504:	f893 3087 	ldrb.w	r3, [r3, #135]	; 0x87
80103508:	f003 0304 	and.w	r3, r3, #4
8010350c:	2b00      	cmp	r3, #0
8010350e:	d005      	beq.n	8010351c <MMC_DecodeExtendedCsd+0x2c0>
80103510:	687b      	ldr	r3, [r7, #4]
80103512:	691b      	ldr	r3, [r3, #16]
80103514:	f443 6200 	orr.w	r2, r3, #2048	; 0x800
80103518:	687b      	ldr	r3, [r7, #4]
8010351a:	611a      	str	r2, [r3, #16]
8010351c:	68fb      	ldr	r3, [r7, #12]
8010351e:	33fc      	adds	r3, #252	; 0xfc
80103520:	781b      	ldrb	r3, [r3, #0]
80103522:	061a      	lsls	r2, r3, #24
80103524:	68fb      	ldr	r3, [r7, #12]
80103526:	33fb      	adds	r3, #251	; 0xfb
80103528:	781b      	ldrb	r3, [r3, #0]
8010352a:	041b      	lsls	r3, r3, #16
8010352c:	431a      	orrs	r2, r3
8010352e:	68fb      	ldr	r3, [r7, #12]
80103530:	33fa      	adds	r3, #250	; 0xfa
80103532:	781b      	ldrb	r3, [r3, #0]
80103534:	021b      	lsls	r3, r3, #8
80103536:	4313      	orrs	r3, r2
80103538:	68fa      	ldr	r2, [r7, #12]
8010353a:	32f9      	adds	r2, #249	; 0xf9
8010353c:	7812      	ldrb	r2, [r2, #0]
8010353e:	431a      	orrs	r2, r3
80103540:	68bb      	ldr	r3, [r7, #8]
80103542:	f8c3 20a0 	str.w	r2, [r3, #160]	; 0xa0
80103546:	68fb      	ldr	r3, [r7, #12]
80103548:	f893 21f8 	ldrb.w	r2, [r3, #504]	; 0x1f8
8010354c:	68bb      	ldr	r3, [r7, #8]
8010354e:	f883 20ca 	strb.w	r2, [r3, #202]	; 0xca
80103552:	bf00      	nop
80103554:	3714      	adds	r7, #20
80103556:	46bd      	mov	sp, r7
80103558:	f85d 7b04 	ldr.w	r7, [sp], #4
8010355c:	4770      	bx	lr

8010355e <MMC_SetExtendedCsdConfig>:
8010355e:	b580      	push	{r7, lr}
80103560:	b086      	sub	sp, #24
80103562:	af00      	add	r7, sp, #0
80103564:	60f8      	str	r0, [r7, #12]
80103566:	60b9      	str	r1, [r7, #8]
80103568:	4611      	mov	r1, r2
8010356a:	461a      	mov	r2, r3
8010356c:	460b      	mov	r3, r1
8010356e:	71fb      	strb	r3, [r7, #7]
80103570:	4613      	mov	r3, r2
80103572:	71bb      	strb	r3, [r7, #6]
80103574:	68bb      	ldr	r3, [r7, #8]
80103576:	061b      	lsls	r3, r3, #24
80103578:	79fa      	ldrb	r2, [r7, #7]
8010357a:	0412      	lsls	r2, r2, #16
8010357c:	4313      	orrs	r3, r2
8010357e:	79ba      	ldrb	r2, [r7, #6]
80103580:	0212      	lsls	r2, r2, #8
80103582:	4313      	orrs	r3, r2
80103584:	461a      	mov	r2, r3
80103586:	f240 611b 	movw	r1, #1563	; 0x61b
8010358a:	68f8      	ldr	r0, [r7, #12]
8010358c:	f7fe fb38 	bl	80101c00 <USDHC_SendCommand>
80103590:	6178      	str	r0, [r7, #20]
80103592:	697b      	ldr	r3, [r7, #20]
80103594:	2b00      	cmp	r3, #0
80103596:	da02      	bge.n	8010359e <MMC_SetExtendedCsdConfig+0x40>
80103598:	f04f 33ff 	mov.w	r3, #4294967295	; 0xffffffff
8010359c:	e000      	b.n	801035a0 <MMC_SetExtendedCsdConfig+0x42>
8010359e:	2300      	movs	r3, #0
801035a0:	4618      	mov	r0, r3
801035a2:	3718      	adds	r7, #24
801035a4:	46bd      	mov	sp, r7
801035a6:	bd80      	pop	{r7, pc}

801035a8 <MMC_SetBusWidth>:
801035a8:	b580      	push	{r7, lr}
801035aa:	b084      	sub	sp, #16
801035ac:	af00      	add	r7, sp, #0
801035ae:	6078      	str	r0, [r7, #4]
801035b0:	6039      	str	r1, [r7, #0]
801035b2:	683b      	ldr	r3, [r7, #0]
801035b4:	1cda      	adds	r2, r3, #3
801035b6:	2b00      	cmp	r3, #0
801035b8:	bfb4      	ite	lt
801035ba:	4613      	movlt	r3, r2
801035bc:	461b      	movge	r3, r3
801035be:	109b      	asrs	r3, r3, #2
801035c0:	b2db      	uxtb	r3, r3
801035c2:	22b7      	movs	r2, #183	; 0xb7
801035c4:	2103      	movs	r1, #3
801035c6:	6878      	ldr	r0, [r7, #4]
801035c8:	f7ff ffc9 	bl	8010355e <MMC_SetExtendedCsdConfig>
801035cc:	60f8      	str	r0, [r7, #12]
801035ce:	68fb      	ldr	r3, [r7, #12]
801035d0:	2b00      	cmp	r3, #0
801035d2:	da02      	bge.n	801035da <MMC_SetBusWidth+0x32>
801035d4:	f04f 33ff 	mov.w	r3, #4294967295	; 0xffffffff
801035d8:	e028      	b.n	8010362c <MMC_SetBusWidth+0x84>
801035da:	6878      	ldr	r0, [r7, #4]
801035dc:	f7ff fad4 	bl	80102b88 <SD_WaitReadWriteComplete>
801035e0:	60f8      	str	r0, [r7, #12]
801035e2:	68fb      	ldr	r3, [r7, #12]
801035e4:	f003 0380 	and.w	r3, r3, #128	; 0x80
801035e8:	2b00      	cmp	r3, #0
801035ea:	d009      	beq.n	80103600 <MMC_SetBusWidth+0x58>
801035ec:	6839      	ldr	r1, [r7, #0]
801035ee:	f244 7024 	movw	r0, #18212	; 0x4724
801035f2:	f2c8 0010 	movt	r0, #32784	; 0x8010
801035f6:	f7fd ff9a 	bl	8010152e <printf>
801035fa:	f04f 33ff 	mov.w	r3, #4294967295	; 0xffffffff
801035fe:	e015      	b.n	8010362c <MMC_SetBusWidth+0x84>
80103600:	687b      	ldr	r3, [r7, #4]
80103602:	6a9b      	ldr	r3, [r3, #40]	; 0x28
80103604:	f023 0206 	bic.w	r2, r3, #6
80103608:	687b      	ldr	r3, [r7, #4]
8010360a:	629a      	str	r2, [r3, #40]	; 0x28
8010360c:	687b      	ldr	r3, [r7, #4]
8010360e:	6a9a      	ldr	r2, [r3, #40]	; 0x28
80103610:	683b      	ldr	r3, [r7, #0]
80103612:	1cd9      	adds	r1, r3, #3
80103614:	2b00      	cmp	r3, #0
80103616:	bfb4      	ite	lt
80103618:	460b      	movlt	r3, r1
8010361a:	461b      	movge	r3, r3
8010361c:	109b      	asrs	r3, r3, #2
8010361e:	005b      	lsls	r3, r3, #1
80103620:	f003 0306 	and.w	r3, r3, #6
80103624:	431a      	orrs	r2, r3
80103626:	687b      	ldr	r3, [r7, #4]
80103628:	629a      	str	r2, [r3, #40]	; 0x28
8010362a:	2300      	movs	r3, #0
8010362c:	4618      	mov	r0, r3
8010362e:	3710      	adds	r7, #16
80103630:	46bd      	mov	sp, r7
80103632:	bd80      	pop	{r7, pc}

80103634 <MMC_SwitchBusMode>:
80103634:	b580      	push	{r7, lr}
80103636:	b084      	sub	sp, #16
80103638:	af00      	add	r7, sp, #0
8010363a:	6078      	str	r0, [r7, #4]
8010363c:	6039      	str	r1, [r7, #0]
8010363e:	683b      	ldr	r3, [r7, #0]
80103640:	b2db      	uxtb	r3, r3
80103642:	22b9      	movs	r2, #185	; 0xb9
80103644:	2103      	movs	r1, #3
80103646:	6878      	ldr	r0, [r7, #4]
80103648:	f7ff ff89 	bl	8010355e <MMC_SetExtendedCsdConfig>
8010364c:	60f8      	str	r0, [r7, #12]
8010364e:	68fb      	ldr	r3, [r7, #12]
80103650:	2b00      	cmp	r3, #0
80103652:	da02      	bge.n	8010365a <MMC_SwitchBusMode+0x26>
80103654:	f04f 33ff 	mov.w	r3, #4294967295	; 0xffffffff
80103658:	e012      	b.n	80103680 <MMC_SwitchBusMode+0x4c>
8010365a:	6878      	ldr	r0, [r7, #4]
8010365c:	f7ff fa94 	bl	80102b88 <SD_WaitReadWriteComplete>
80103660:	60f8      	str	r0, [r7, #12]
80103662:	68fb      	ldr	r3, [r7, #12]
80103664:	f003 0380 	and.w	r3, r3, #128	; 0x80
80103668:	2b00      	cmp	r3, #0
8010366a:	d008      	beq.n	8010367e <MMC_SwitchBusMode+0x4a>
8010366c:	f244 7044 	movw	r0, #18244	; 0x4744
80103670:	f2c8 0010 	movt	r0, #32784	; 0x8010
80103674:	f7fd ff5b 	bl	8010152e <printf>
80103678:	f04f 33ff 	mov.w	r3, #4294967295	; 0xffffffff
8010367c:	e000      	b.n	80103680 <MMC_SwitchBusMode+0x4c>
8010367e:	2300      	movs	r3, #0
80103680:	4618      	mov	r0, r3
80103682:	3710      	adds	r7, #16
80103684:	46bd      	mov	sp, r7
80103686:	bd80      	pop	{r7, pc}

80103688 <MMC_SelectPartition>:
80103688:	b580      	push	{r7, lr}
8010368a:	b086      	sub	sp, #24
8010368c:	af00      	add	r7, sp, #0
8010368e:	60f8      	str	r0, [r7, #12]
80103690:	60b9      	str	r1, [r7, #8]
80103692:	607a      	str	r2, [r7, #4]
80103694:	687b      	ldr	r3, [r7, #4]
80103696:	b2db      	uxtb	r3, r3
80103698:	22b3      	movs	r2, #179	; 0xb3
8010369a:	68b9      	ldr	r1, [r7, #8]
8010369c:	68f8      	ldr	r0, [r7, #12]
8010369e:	f7ff ff5e 	bl	8010355e <MMC_SetExtendedCsdConfig>
801036a2:	6178      	str	r0, [r7, #20]
801036a4:	697b      	ldr	r3, [r7, #20]
801036a6:	2b00      	cmp	r3, #0
801036a8:	da02      	bge.n	801036b0 <MMC_SelectPartition+0x28>
801036aa:	f04f 33ff 	mov.w	r3, #4294967295	; 0xffffffff
801036ae:	e012      	b.n	801036d6 <MMC_SelectPartition+0x4e>
801036b0:	68f8      	ldr	r0, [r7, #12]
801036b2:	f7ff fa69 	bl	80102b88 <SD_WaitReadWriteComplete>
801036b6:	6178      	str	r0, [r7, #20]
801036b8:	697b      	ldr	r3, [r7, #20]
801036ba:	f003 0380 	and.w	r3, r3, #128	; 0x80
801036be:	2b00      	cmp	r3, #0
801036c0:	d008      	beq.n	801036d4 <MMC_SelectPartition+0x4c>
801036c2:	f244 7060 	movw	r0, #18272	; 0x4760
801036c6:	f2c8 0010 	movt	r0, #32784	; 0x8010
801036ca:	f7fd ff30 	bl	8010152e <printf>
801036ce:	f04f 33ff 	mov.w	r3, #4294967295	; 0xffffffff
801036d2:	e000      	b.n	801036d6 <MMC_SelectPartition+0x4e>
801036d4:	2300      	movs	r3, #0
801036d6:	4618      	mov	r0, r3
801036d8:	3718      	adds	r7, #24
801036da:	46bd      	mov	sp, r7
801036dc:	bd80      	pop	{r7, pc}

801036de <MMC_SelectBoot1Partition>:
801036de:	b580      	push	{r7, lr}
801036e0:	b082      	sub	sp, #8
801036e2:	af00      	add	r7, sp, #0
801036e4:	6078      	str	r0, [r7, #4]
801036e6:	2201      	movs	r2, #1
801036e8:	2101      	movs	r1, #1
801036ea:	6878      	ldr	r0, [r7, #4]
801036ec:	f7ff ffcc 	bl	80103688 <MMC_SelectPartition>
801036f0:	4603      	mov	r3, r0
801036f2:	4618      	mov	r0, r3
801036f4:	3708      	adds	r7, #8
801036f6:	46bd      	mov	sp, r7
801036f8:	bd80      	pop	{r7, pc}

801036fa <MMC_ExitBoot1Partition>:
801036fa:	b580      	push	{r7, lr}
801036fc:	b082      	sub	sp, #8
801036fe:	af00      	add	r7, sp, #0
80103700:	6078      	str	r0, [r7, #4]
80103702:	2201      	movs	r2, #1
80103704:	2102      	movs	r1, #2
80103706:	6878      	ldr	r0, [r7, #4]
80103708:	f7ff ffbe 	bl	80103688 <MMC_SelectPartition>
8010370c:	4603      	mov	r3, r0
8010370e:	4618      	mov	r0, r3
80103710:	3708      	adds	r7, #8
80103712:	46bd      	mov	sp, r7
80103714:	bd80      	pop	{r7, pc}

80103716 <mmc_init>:
80103716:	b580      	push	{r7, lr}
80103718:	b08c      	sub	sp, #48	; 0x30
8010371a:	af02      	add	r7, sp, #8
8010371c:	6078      	str	r0, [r7, #4]
8010371e:	2304      	movs	r3, #4
80103720:	61fb      	str	r3, [r7, #28]
80103722:	6878      	ldr	r0, [r7, #4]
80103724:	f7fe fafb 	bl	80101d1e <USDHC_Init>
80103728:	2100      	movs	r1, #0
8010372a:	6878      	ldr	r0, [r7, #4]
8010372c:	f7fe fb63 	bl	80101df6 <USDHC_SetDataBusWidth>
80103730:	f44f 52d4 	mov.w	r2, #6784	; 0x1a80
80103734:	f2c0 0206 	movt	r2, #6
80103738:	f44f 5176 	mov.w	r1, #15744	; 0x3d80
8010373c:	f6c0 31cd 	movt	r1, #3021	; 0xbcd
80103740:	6878      	ldr	r0, [r7, #4]
80103742:	f7fe fb6e 	bl	80101e22 <USDHC_SetSdClock>
80103746:	4602      	mov	r2, r0
80103748:	f248 0300 	movw	r3, #32768	; 0x8000
8010374c:	f2c8 0310 	movt	r3, #32784	; 0x8010
80103750:	605a      	str	r2, [r3, #4]
80103752:	2164      	movs	r1, #100	; 0x64
80103754:	6878      	ldr	r0, [r7, #4]
80103756:	f7fe fc1e 	bl	80101f96 <USDHC_SetCardActive>
8010375a:	2200      	movs	r2, #0
8010375c:	2100      	movs	r1, #0
8010375e:	6878      	ldr	r0, [r7, #4]
80103760:	f7fe fa4e 	bl	80101c00 <USDHC_SendCommand>
80103764:	61b8      	str	r0, [r7, #24]
80103766:	69bb      	ldr	r3, [r7, #24]
80103768:	2b00      	cmp	r3, #0
8010376a:	da02      	bge.n	80103772 <mmc_init+0x5c>
8010376c:	f04f 33ff 	mov.w	r3, #4294967295	; 0xffffffff
80103770:	e170      	b.n	80103a54 <mmc_init+0x33e>
80103772:	2200      	movs	r2, #0
80103774:	f44f 7181 	mov.w	r1, #258	; 0x102
80103778:	6878      	ldr	r0, [r7, #4]
8010377a:	f7fe fa41 	bl	80101c00 <USDHC_SendCommand>
8010377e:	61b8      	str	r0, [r7, #24]
80103780:	69bb      	ldr	r3, [r7, #24]
80103782:	2b00      	cmp	r3, #0
80103784:	da02      	bge.n	8010378c <mmc_init+0x76>
80103786:	f04f 33ff 	mov.w	r3, #4294967295	; 0xffffffff
8010378a:	e163      	b.n	80103a54 <mmc_init+0x33e>
8010378c:	687b      	ldr	r3, [r7, #4]
8010378e:	691a      	ldr	r2, [r3, #16]
80103790:	f248 0300 	movw	r3, #32768	; 0x8000
80103794:	f2c8 0310 	movt	r3, #32784	; 0x8010
80103798:	f8c3 2234 	str.w	r2, [r3, #564]	; 0x234
8010379c:	f248 0300 	movw	r3, #32768	; 0x8000
801037a0:	f2c8 0310 	movt	r3, #32784	; 0x8010
801037a4:	f8d3 3234 	ldr.w	r3, [r3, #564]	; 0x234
801037a8:	f043 4280 	orr.w	r2, r3, #1073741824	; 0x40000000
801037ac:	f248 0300 	movw	r3, #32768	; 0x8000
801037b0:	f2c8 0310 	movt	r3, #32784	; 0x8010
801037b4:	f8c3 2234 	str.w	r2, [r3, #564]	; 0x234
801037b8:	2300      	movs	r3, #0
801037ba:	627b      	str	r3, [r7, #36]	; 0x24
801037bc:	e013      	b.n	801037e6 <mmc_init+0xd0>
801037be:	2200      	movs	r2, #0
801037c0:	f44f 7181 	mov.w	r1, #258	; 0x102
801037c4:	6878      	ldr	r0, [r7, #4]
801037c6:	f7fe fa1b 	bl	80101c00 <USDHC_SendCommand>
801037ca:	61b8      	str	r0, [r7, #24]
801037cc:	69bb      	ldr	r3, [r7, #24]
801037ce:	2b00      	cmp	r3, #0
801037d0:	da02      	bge.n	801037d8 <mmc_init+0xc2>
801037d2:	f04f 33ff 	mov.w	r3, #4294967295	; 0xffffffff
801037d6:	e13d      	b.n	80103a54 <mmc_init+0x33e>
801037d8:	687b      	ldr	r3, [r7, #4]
801037da:	691b      	ldr	r3, [r3, #16]
801037dc:	2b00      	cmp	r3, #0
801037de:	db07      	blt.n	801037f0 <mmc_init+0xda>
801037e0:	6a7b      	ldr	r3, [r7, #36]	; 0x24
801037e2:	3301      	adds	r3, #1
801037e4:	627b      	str	r3, [r7, #36]	; 0x24
801037e6:	6a7b      	ldr	r3, [r7, #36]	; 0x24
801037e8:	f5b3 7f7a 	cmp.w	r3, #1000	; 0x3e8
801037ec:	d3e7      	bcc.n	801037be <mmc_init+0xa8>
801037ee:	e000      	b.n	801037f2 <mmc_init+0xdc>
801037f0:	bf00      	nop
801037f2:	6a7b      	ldr	r3, [r7, #36]	; 0x24
801037f4:	f5b3 7f7a 	cmp.w	r3, #1000	; 0x3e8
801037f8:	d308      	bcc.n	8010380c <mmc_init+0xf6>
801037fa:	f244 5038 	movw	r0, #17720	; 0x4538
801037fe:	f2c8 0010 	movt	r0, #32784	; 0x8010
80103802:	f7fd fe94 	bl	8010152e <printf>
80103806:	f04f 33ff 	mov.w	r3, #4294967295	; 0xffffffff
8010380a:	e123      	b.n	80103a54 <mmc_init+0x33e>
8010380c:	687b      	ldr	r3, [r7, #4]
8010380e:	691a      	ldr	r2, [r3, #16]
80103810:	f248 0300 	movw	r3, #32768	; 0x8000
80103814:	f2c8 0310 	movt	r3, #32784	; 0x8010
80103818:	f8c3 2234 	str.w	r2, [r3, #564]	; 0x234
8010381c:	f248 0300 	movw	r3, #32768	; 0x8000
80103820:	f2c8 0310 	movt	r3, #32784	; 0x8010
80103824:	f8d3 3234 	ldr.w	r3, [r3, #564]	; 0x234
80103828:	4619      	mov	r1, r3
8010382a:	f244 5028 	movw	r0, #17704	; 0x4528
8010382e:	f2c8 0010 	movt	r0, #32784	; 0x8010
80103832:	f7fd fe7c 	bl	8010152e <printf>
80103836:	2200      	movs	r2, #0
80103838:	f240 2109 	movw	r1, #521	; 0x209
8010383c:	6878      	ldr	r0, [r7, #4]
8010383e:	f7fe f9df 	bl	80101c00 <USDHC_SendCommand>
80103842:	61b8      	str	r0, [r7, #24]
80103844:	69bb      	ldr	r3, [r7, #24]
80103846:	2b00      	cmp	r3, #0
80103848:	da02      	bge.n	80103850 <mmc_init+0x13a>
8010384a:	f04f 33ff 	mov.w	r3, #4294967295	; 0xffffffff
8010384e:	e101      	b.n	80103a54 <mmc_init+0x33e>
80103850:	f107 0308 	add.w	r3, r7, #8
80103854:	4619      	mov	r1, r3
80103856:	6878      	ldr	r0, [r7, #4]
80103858:	f7fe fbc4 	bl	80101fe4 <USDHC_GetResponse>
8010385c:	f107 0308 	add.w	r3, r7, #8
80103860:	2210      	movs	r2, #16
80103862:	4619      	mov	r1, r3
80103864:	487d      	ldr	r0, [pc, #500]	; (80103a5c <mmc_init+0x346>)
80103866:	f7fd fef3 	bl	80101650 <memcpy>
8010386a:	497c      	ldr	r1, [pc, #496]	; (80103a5c <mmc_init+0x346>)
8010386c:	f248 0000 	movw	r0, #32768	; 0x8000
80103870:	f2c8 0010 	movt	r0, #32784	; 0x8010
80103874:	f7ff fc99 	bl	801031aa <MMC_DecodeCid>
80103878:	f248 0300 	movw	r3, #32768	; 0x8000
8010387c:	f2c8 0310 	movt	r3, #32784	; 0x8010
80103880:	2202      	movs	r2, #2
80103882:	609a      	str	r2, [r3, #8]
80103884:	f248 0300 	movw	r3, #32768	; 0x8000
80103888:	f2c8 0310 	movt	r3, #32784	; 0x8010
8010388c:	689b      	ldr	r3, [r3, #8]
8010388e:	041b      	lsls	r3, r3, #16
80103890:	461a      	mov	r2, r3
80103892:	f240 311a 	movw	r1, #794	; 0x31a
80103896:	6878      	ldr	r0, [r7, #4]
80103898:	f7fe f9b2 	bl	80101c00 <USDHC_SendCommand>
8010389c:	61b8      	str	r0, [r7, #24]
8010389e:	69bb      	ldr	r3, [r7, #24]
801038a0:	2b00      	cmp	r3, #0
801038a2:	da02      	bge.n	801038aa <mmc_init+0x194>
801038a4:	f04f 33ff 	mov.w	r3, #4294967295	; 0xffffffff
801038a8:	e0d4      	b.n	80103a54 <mmc_init+0x33e>
801038aa:	f248 0300 	movw	r3, #32768	; 0x8000
801038ae:	f2c8 0310 	movt	r3, #32784	; 0x8010
801038b2:	689b      	ldr	r3, [r3, #8]
801038b4:	041b      	lsls	r3, r3, #16
801038b6:	461a      	mov	r2, r3
801038b8:	f640 1109 	movw	r1, #2313	; 0x909
801038bc:	6878      	ldr	r0, [r7, #4]
801038be:	f7fe f99f 	bl	80101c00 <USDHC_SendCommand>
801038c2:	61b8      	str	r0, [r7, #24]
801038c4:	69bb      	ldr	r3, [r7, #24]
801038c6:	2b00      	cmp	r3, #0
801038c8:	da02      	bge.n	801038d0 <mmc_init+0x1ba>
801038ca:	f04f 33ff 	mov.w	r3, #4294967295	; 0xffffffff
801038ce:	e0c1      	b.n	80103a54 <mmc_init+0x33e>
801038d0:	f107 0308 	add.w	r3, r7, #8
801038d4:	4619      	mov	r1, r3
801038d6:	6878      	ldr	r0, [r7, #4]
801038d8:	f7fe fb84 	bl	80101fe4 <USDHC_GetResponse>
801038dc:	f107 0308 	add.w	r3, r7, #8
801038e0:	2210      	movs	r2, #16
801038e2:	4619      	mov	r1, r3
801038e4:	485e      	ldr	r0, [pc, #376]	; (80103a60 <mmc_init+0x34a>)
801038e6:	f7fd feb3 	bl	80101650 <memcpy>
801038ea:	495d      	ldr	r1, [pc, #372]	; (80103a60 <mmc_init+0x34a>)
801038ec:	f248 0000 	movw	r0, #32768	; 0x8000
801038f0:	f2c8 0010 	movt	r0, #32784	; 0x8010
801038f4:	f7ff fad5 	bl	80102ea2 <MMC_DecodeCsd>
801038f8:	f248 0300 	movw	r3, #32768	; 0x8000
801038fc:	f2c8 0310 	movt	r3, #32784	; 0x8010
80103900:	f893 3250 	ldrb.w	r3, [r3, #592]	; 0x250
80103904:	4619      	mov	r1, r3
80103906:	f244 707c 	movw	r0, #18300	; 0x477c
8010390a:	f2c8 0010 	movt	r0, #32784	; 0x8010
8010390e:	f7fd fe0e 	bl	8010152e <printf>
80103912:	f248 0300 	movw	r3, #32768	; 0x8000
80103916:	f2c8 0310 	movt	r3, #32784	; 0x8010
8010391a:	f893 3250 	ldrb.w	r3, [r3, #592]	; 0x250
8010391e:	2b32      	cmp	r3, #50	; 0x32
80103920:	d105      	bne.n	8010392e <mmc_init+0x218>
80103922:	f64b 2380 	movw	r3, #47744	; 0xba80
80103926:	f2c0 138c 	movt	r3, #396	; 0x18c
8010392a:	623b      	str	r3, [r7, #32]
8010392c:	e00c      	b.n	80103948 <mmc_init+0x232>
8010392e:	f248 0300 	movw	r3, #32768	; 0x8000
80103932:	f2c8 0310 	movt	r3, #32784	; 0x8010
80103936:	f893 3250 	ldrb.w	r3, [r3, #592]	; 0x250
8010393a:	2b2a      	cmp	r3, #42	; 0x2a
8010393c:	d104      	bne.n	80103948 <mmc_init+0x232>
8010393e:	f44f 5334 	mov.w	r3, #11520	; 0x2d00
80103942:	f2c0 1331 	movt	r3, #305	; 0x131
80103946:	623b      	str	r3, [r7, #32]
80103948:	6a3a      	ldr	r2, [r7, #32]
8010394a:	f44f 5176 	mov.w	r1, #15744	; 0x3d80
8010394e:	f6c0 31cd 	movt	r1, #3021	; 0xbcd
80103952:	6878      	ldr	r0, [r7, #4]
80103954:	f7fe fa65 	bl	80101e22 <USDHC_SetSdClock>
80103958:	4602      	mov	r2, r0
8010395a:	f248 0300 	movw	r3, #32768	; 0x8000
8010395e:	f2c8 0310 	movt	r3, #32784	; 0x8010
80103962:	605a      	str	r2, [r3, #4]
80103964:	f248 0300 	movw	r3, #32768	; 0x8000
80103968:	f2c8 0310 	movt	r3, #32784	; 0x8010
8010396c:	689b      	ldr	r3, [r3, #8]
8010396e:	041b      	lsls	r3, r3, #16
80103970:	461a      	mov	r2, r3
80103972:	f240 711b 	movw	r1, #1819	; 0x71b
80103976:	6878      	ldr	r0, [r7, #4]
80103978:	f7fe f942 	bl	80101c00 <USDHC_SendCommand>
8010397c:	61b8      	str	r0, [r7, #24]
8010397e:	69bb      	ldr	r3, [r7, #24]
80103980:	2b00      	cmp	r3, #0
80103982:	da01      	bge.n	80103988 <mmc_init+0x272>
80103984:	69bb      	ldr	r3, [r7, #24]
80103986:	e065      	b.n	80103a54 <mmc_init+0x33e>
80103988:	f44f 7300 	mov.w	r3, #512	; 0x200
8010398c:	9300      	str	r3, [sp, #0]
8010398e:	4b35      	ldr	r3, [pc, #212]	; (80103a64 <mmc_init+0x34e>)
80103990:	2200      	movs	r2, #0
80103992:	f640 013a 	movw	r1, #2106	; 0x83a
80103996:	6878      	ldr	r0, [r7, #4]
80103998:	f7fe f94e 	bl	80101c38 <USDHC_SendCommand_with_data>
8010399c:	61b8      	str	r0, [r7, #24]
8010399e:	69bb      	ldr	r3, [r7, #24]
801039a0:	2b00      	cmp	r3, #0
801039a2:	da01      	bge.n	801039a8 <mmc_init+0x292>
801039a4:	69bb      	ldr	r3, [r7, #24]
801039a6:	e055      	b.n	80103a54 <mmc_init+0x33e>
801039a8:	492e      	ldr	r1, [pc, #184]	; (80103a64 <mmc_init+0x34e>)
801039aa:	f248 0000 	movw	r0, #32768	; 0x8000
801039ae:	f2c8 0010 	movt	r0, #32784	; 0x8010
801039b2:	f7ff fc53 	bl	8010325c <MMC_DecodeExtendedCsd>
801039b6:	f248 0300 	movw	r3, #32768	; 0x8000
801039ba:	f2c8 0310 	movt	r3, #32784	; 0x8010
801039be:	f8d3 32e0 	ldr.w	r3, [r3, #736]	; 0x2e0
801039c2:	4619      	mov	r1, r3
801039c4:	f244 7098 	movw	r0, #18328	; 0x4798
801039c8:	f2c8 0010 	movt	r0, #32784	; 0x8010
801039cc:	f7fd fdaf 	bl	8010152e <printf>
801039d0:	f44f 7200 	mov.w	r2, #512	; 0x200
801039d4:	f241 011a 	movw	r1, #4122	; 0x101a
801039d8:	6878      	ldr	r0, [r7, #4]
801039da:	f7fe f911 	bl	80101c00 <USDHC_SendCommand>
801039de:	61b8      	str	r0, [r7, #24]
801039e0:	69bb      	ldr	r3, [r7, #24]
801039e2:	2b00      	cmp	r3, #0
801039e4:	da01      	bge.n	801039ea <mmc_init+0x2d4>
801039e6:	69bb      	ldr	r3, [r7, #24]
801039e8:	e034      	b.n	80103a54 <mmc_init+0x33e>
801039ea:	69fb      	ldr	r3, [r7, #28]
801039ec:	4619      	mov	r1, r3
801039ee:	6878      	ldr	r0, [r7, #4]
801039f0:	f7ff fdda 	bl	801035a8 <MMC_SetBusWidth>
801039f4:	61b8      	str	r0, [r7, #24]
801039f6:	69bb      	ldr	r3, [r7, #24]
801039f8:	2b00      	cmp	r3, #0
801039fa:	da02      	bge.n	80103a02 <mmc_init+0x2ec>
801039fc:	f04f 33ff 	mov.w	r3, #4294967295	; 0xffffffff
80103a00:	e028      	b.n	80103a54 <mmc_init+0x33e>
80103a02:	69f9      	ldr	r1, [r7, #28]
80103a04:	f244 70c4 	movw	r0, #18372	; 0x47c4
80103a08:	f2c8 0010 	movt	r0, #32784	; 0x8010
80103a0c:	f7fd fd8f 	bl	8010152e <printf>
80103a10:	2101      	movs	r1, #1
80103a12:	6878      	ldr	r0, [r7, #4]
80103a14:	f7ff fe0e 	bl	80103634 <MMC_SwitchBusMode>
80103a18:	61b8      	str	r0, [r7, #24]
80103a1a:	69bb      	ldr	r3, [r7, #24]
80103a1c:	2b00      	cmp	r3, #0
80103a1e:	da01      	bge.n	80103a24 <mmc_init+0x30e>
80103a20:	69bb      	ldr	r3, [r7, #24]
80103a22:	e017      	b.n	80103a54 <mmc_init+0x33e>
80103a24:	f44f 42ea 	mov.w	r2, #29952	; 0x7500
80103a28:	f2c0 3219 	movt	r2, #793	; 0x319
80103a2c:	f44f 5176 	mov.w	r1, #15744	; 0x3d80
80103a30:	f6c0 31cd 	movt	r1, #3021	; 0xbcd
80103a34:	6878      	ldr	r0, [r7, #4]
80103a36:	f7fe f9f4 	bl	80101e22 <USDHC_SetSdClock>
80103a3a:	4602      	mov	r2, r0
80103a3c:	f248 0300 	movw	r3, #32768	; 0x8000
80103a40:	f2c8 0310 	movt	r3, #32784	; 0x8010
80103a44:	605a      	str	r2, [r3, #4]
80103a46:	f244 70d8 	movw	r0, #18392	; 0x47d8
80103a4a:	f2c8 0010 	movt	r0, #32784	; 0x8010
80103a4e:	f7fd fd6e 	bl	8010152e <printf>
80103a52:	2300      	movs	r3, #0
80103a54:	4618      	mov	r0, r3
80103a56:	3728      	adds	r7, #40	; 0x28
80103a58:	46bd      	mov	sp, r7
80103a5a:	bd80      	pop	{r7, pc}
80103a5c:	80108014 	andshi	r8, r0, r4, lsl r0
80103a60:	80108024 	andshi	r8, r0, r4, lsr #32
80103a64:	80108034 	andshi	r8, r0, r4, lsr r0

80103a68 <__aeabi_uidiv>:
80103a68:	1e4a      	subs	r2, r1, #1
80103a6a:	bf08      	it	eq
80103a6c:	4770      	bxeq	lr
80103a6e:	f0c0 8124 	bcc.w	80103cba <__aeabi_uidiv+0x252>
80103a72:	4288      	cmp	r0, r1
80103a74:	f240 8116 	bls.w	80103ca4 <__aeabi_uidiv+0x23c>
80103a78:	4211      	tst	r1, r2
80103a7a:	f000 8117 	beq.w	80103cac <__aeabi_uidiv+0x244>
80103a7e:	fab0 f380 	clz	r3, r0
80103a82:	fab1 f281 	clz	r2, r1
80103a86:	eba2 0303 	sub.w	r3, r2, r3
80103a8a:	f1c3 031f 	rsb	r3, r3, #31
80103a8e:	a204      	add	r2, pc, #16	; (adr r2, 80103aa0 <__aeabi_uidiv+0x38>)
80103a90:	eb02 1303 	add.w	r3, r2, r3, lsl #4
80103a94:	f04f 0200 	mov.w	r2, #0
80103a98:	469f      	mov	pc, r3
80103a9a:	bf00      	nop
80103a9c:	f3af 8000 	nop.w
80103aa0:	ebb0 7fc1 	cmp.w	r0, r1, lsl #31
80103aa4:	bf00      	nop
80103aa6:	eb42 0202 	adc.w	r2, r2, r2
80103aaa:	bf28      	it	cs
80103aac:	eba0 70c1 	subcs.w	r0, r0, r1, lsl #31
80103ab0:	ebb0 7f81 	cmp.w	r0, r1, lsl #30
80103ab4:	bf00      	nop
80103ab6:	eb42 0202 	adc.w	r2, r2, r2
80103aba:	bf28      	it	cs
80103abc:	eba0 7081 	subcs.w	r0, r0, r1, lsl #30
80103ac0:	ebb0 7f41 	cmp.w	r0, r1, lsl #29
80103ac4:	bf00      	nop
80103ac6:	eb42 0202 	adc.w	r2, r2, r2
80103aca:	bf28      	it	cs
80103acc:	eba0 7041 	subcs.w	r0, r0, r1, lsl #29
80103ad0:	ebb0 7f01 	cmp.w	r0, r1, lsl #28
80103ad4:	bf00      	nop
80103ad6:	eb42 0202 	adc.w	r2, r2, r2
80103ada:	bf28      	it	cs
80103adc:	eba0 7001 	subcs.w	r0, r0, r1, lsl #28
80103ae0:	ebb0 6fc1 	cmp.w	r0, r1, lsl #27
80103ae4:	bf00      	nop
80103ae6:	eb42 0202 	adc.w	r2, r2, r2
80103aea:	bf28      	it	cs
80103aec:	eba0 60c1 	subcs.w	r0, r0, r1, lsl #27
80103af0:	ebb0 6f81 	cmp.w	r0, r1, lsl #26
80103af4:	bf00      	nop
80103af6:	eb42 0202 	adc.w	r2, r2, r2
80103afa:	bf28      	it	cs
80103afc:	eba0 6081 	subcs.w	r0, r0, r1, lsl #26
80103b00:	ebb0 6f41 	cmp.w	r0, r1, lsl #25
80103b04:	bf00      	nop
80103b06:	eb42 0202 	adc.w	r2, r2, r2
80103b0a:	bf28      	it	cs
80103b0c:	eba0 6041 	subcs.w	r0, r0, r1, lsl #25
80103b10:	ebb0 6f01 	cmp.w	r0, r1, lsl #24
80103b14:	bf00      	nop
80103b16:	eb42 0202 	adc.w	r2, r2, r2
80103b1a:	bf28      	it	cs
80103b1c:	eba0 6001 	subcs.w	r0, r0, r1, lsl #24
80103b20:	ebb0 5fc1 	cmp.w	r0, r1, lsl #23
80103b24:	bf00      	nop
80103b26:	eb42 0202 	adc.w	r2, r2, r2
80103b2a:	bf28      	it	cs
80103b2c:	eba0 50c1 	subcs.w	r0, r0, r1, lsl #23
80103b30:	ebb0 5f81 	cmp.w	r0, r1, lsl #22
80103b34:	bf00      	nop
80103b36:	eb42 0202 	adc.w	r2, r2, r2
80103b3a:	bf28      	it	cs
80103b3c:	eba0 5081 	subcs.w	r0, r0, r1, lsl #22
80103b40:	ebb0 5f41 	cmp.w	r0, r1, lsl #21
80103b44:	bf00      	nop
80103b46:	eb42 0202 	adc.w	r2, r2, r2
80103b4a:	bf28      	it	cs
80103b4c:	eba0 5041 	subcs.w	r0, r0, r1, lsl #21
80103b50:	ebb0 5f01 	cmp.w	r0, r1, lsl #20
80103b54:	bf00      	nop
80103b56:	eb42 0202 	adc.w	r2, r2, r2
80103b5a:	bf28      	it	cs
80103b5c:	eba0 5001 	subcs.w	r0, r0, r1, lsl #20
80103b60:	ebb0 4fc1 	cmp.w	r0, r1, lsl #19
80103b64:	bf00      	nop
80103b66:	eb42 0202 	adc.w	r2, r2, r2
80103b6a:	bf28      	it	cs
80103b6c:	eba0 40c1 	subcs.w	r0, r0, r1, lsl #19
80103b70:	ebb0 4f81 	cmp.w	r0, r1, lsl #18
80103b74:	bf00      	nop
80103b76:	eb42 0202 	adc.w	r2, r2, r2
80103b7a:	bf28      	it	cs
80103b7c:	eba0 4081 	subcs.w	r0, r0, r1, lsl #18
80103b80:	ebb0 4f41 	cmp.w	r0, r1, lsl #17
80103b84:	bf00      	nop
80103b86:	eb42 0202 	adc.w	r2, r2, r2
80103b8a:	bf28      	it	cs
80103b8c:	eba0 4041 	subcs.w	r0, r0, r1, lsl #17
80103b90:	ebb0 4f01 	cmp.w	r0, r1, lsl #16
80103b94:	bf00      	nop
80103b96:	eb42 0202 	adc.w	r2, r2, r2
80103b9a:	bf28      	it	cs
80103b9c:	eba0 4001 	subcs.w	r0, r0, r1, lsl #16
80103ba0:	ebb0 3fc1 	cmp.w	r0, r1, lsl #15
80103ba4:	bf00      	nop
80103ba6:	eb42 0202 	adc.w	r2, r2, r2
80103baa:	bf28      	it	cs
80103bac:	eba0 30c1 	subcs.w	r0, r0, r1, lsl #15
80103bb0:	ebb0 3f81 	cmp.w	r0, r1, lsl #14
80103bb4:	bf00      	nop
80103bb6:	eb42 0202 	adc.w	r2, r2, r2
80103bba:	bf28      	it	cs
80103bbc:	eba0 3081 	subcs.w	r0, r0, r1, lsl #14
80103bc0:	ebb0 3f41 	cmp.w	r0, r1, lsl #13
80103bc4:	bf00      	nop
80103bc6:	eb42 0202 	adc.w	r2, r2, r2
80103bca:	bf28      	it	cs
80103bcc:	eba0 3041 	subcs.w	r0, r0, r1, lsl #13
80103bd0:	ebb0 3f01 	cmp.w	r0, r1, lsl #12
80103bd4:	bf00      	nop
80103bd6:	eb42 0202 	adc.w	r2, r2, r2
80103bda:	bf28      	it	cs
80103bdc:	eba0 3001 	subcs.w	r0, r0, r1, lsl #12
80103be0:	ebb0 2fc1 	cmp.w	r0, r1, lsl #11
80103be4:	bf00      	nop
80103be6:	eb42 0202 	adc.w	r2, r2, r2
80103bea:	bf28      	it	cs
80103bec:	eba0 20c1 	subcs.w	r0, r0, r1, lsl #11
80103bf0:	ebb0 2f81 	cmp.w	r0, r1, lsl #10
80103bf4:	bf00      	nop
80103bf6:	eb42 0202 	adc.w	r2, r2, r2
80103bfa:	bf28      	it	cs
80103bfc:	eba0 2081 	subcs.w	r0, r0, r1, lsl #10
80103c00:	ebb0 2f41 	cmp.w	r0, r1, lsl #9
80103c04:	bf00      	nop
80103c06:	eb42 0202 	adc.w	r2, r2, r2
80103c0a:	bf28      	it	cs
80103c0c:	eba0 2041 	subcs.w	r0, r0, r1, lsl #9
80103c10:	ebb0 2f01 	cmp.w	r0, r1, lsl #8
80103c14:	bf00      	nop
80103c16:	eb42 0202 	adc.w	r2, r2, r2
80103c1a:	bf28      	it	cs
80103c1c:	eba0 2001 	subcs.w	r0, r0, r1, lsl #8
80103c20:	ebb0 1fc1 	cmp.w	r0, r1, lsl #7
80103c24:	bf00      	nop
80103c26:	eb42 0202 	adc.w	r2, r2, r2
80103c2a:	bf28      	it	cs
80103c2c:	eba0 10c1 	subcs.w	r0, r0, r1, lsl #7
80103c30:	ebb0 1f81 	cmp.w	r0, r1, lsl #6
80103c34:	bf00      	nop
80103c36:	eb42 0202 	adc.w	r2, r2, r2
80103c3a:	bf28      	it	cs
80103c3c:	eba0 1081 	subcs.w	r0, r0, r1, lsl #6
80103c40:	ebb0 1f41 	cmp.w	r0, r1, lsl #5
80103c44:	bf00      	nop
80103c46:	eb42 0202 	adc.w	r2, r2, r2
80103c4a:	bf28      	it	cs
80103c4c:	eba0 1041 	subcs.w	r0, r0, r1, lsl #5
80103c50:	ebb0 1f01 	cmp.w	r0, r1, lsl #4
80103c54:	bf00      	nop
80103c56:	eb42 0202 	adc.w	r2, r2, r2
80103c5a:	bf28      	it	cs
80103c5c:	eba0 1001 	subcs.w	r0, r0, r1, lsl #4
80103c60:	ebb0 0fc1 	cmp.w	r0, r1, lsl #3
80103c64:	bf00      	nop
80103c66:	eb42 0202 	adc.w	r2, r2, r2
80103c6a:	bf28      	it	cs
80103c6c:	eba0 00c1 	subcs.w	r0, r0, r1, lsl #3
80103c70:	ebb0 0f81 	cmp.w	r0, r1, lsl #2
80103c74:	bf00      	nop
80103c76:	eb42 0202 	adc.w	r2, r2, r2
80103c7a:	bf28      	it	cs
80103c7c:	eba0 0081 	subcs.w	r0, r0, r1, lsl #2
80103c80:	ebb0 0f41 	cmp.w	r0, r1, lsl #1
80103c84:	bf00      	nop
80103c86:	eb42 0202 	adc.w	r2, r2, r2
80103c8a:	bf28      	it	cs
80103c8c:	eba0 0041 	subcs.w	r0, r0, r1, lsl #1
80103c90:	ebb0 0f01 	cmp.w	r0, r1
80103c94:	bf00      	nop
80103c96:	eb42 0202 	adc.w	r2, r2, r2
80103c9a:	bf28      	it	cs
80103c9c:	eba0 0001 	subcs.w	r0, r0, r1
80103ca0:	4610      	mov	r0, r2
80103ca2:	4770      	bx	lr
80103ca4:	bf0c      	ite	eq
80103ca6:	2001      	moveq	r0, #1
80103ca8:	2000      	movne	r0, #0
80103caa:	4770      	bx	lr
80103cac:	fab1 f281 	clz	r2, r1
80103cb0:	f1c2 021f 	rsb	r2, r2, #31
80103cb4:	fa20 f002 	lsr.w	r0, r0, r2
80103cb8:	4770      	bx	lr
80103cba:	b108      	cbz	r0, 80103cc0 <__aeabi_uidiv+0x258>
80103cbc:	f04f 30ff 	mov.w	r0, #4294967295	; 0xffffffff
80103cc0:	f000 b826 	b.w	80103d10 <__aeabi_idiv0>

80103cc4 <__aeabi_uidivmod>:
80103cc4:	2900      	cmp	r1, #0
80103cc6:	d0f8      	beq.n	80103cba <__aeabi_uidiv+0x252>
80103cc8:	e92d 4003 	stmdb	sp!, {r0, r1, lr}
80103ccc:	f7ff fecc 	bl	80103a68 <__aeabi_uidiv>
80103cd0:	e8bd 4006 	ldmia.w	sp!, {r1, r2, lr}
80103cd4:	fb02 f300 	mul.w	r3, r2, r0
80103cd8:	eba1 0103 	sub.w	r1, r1, r3
80103cdc:	4770      	bx	lr
80103cde:	bf00      	nop

80103ce0 <__aeabi_uldivmod>:
80103ce0:	b953      	cbnz	r3, 80103cf8 <__aeabi_uldivmod+0x18>
80103ce2:	b94a      	cbnz	r2, 80103cf8 <__aeabi_uldivmod+0x18>
80103ce4:	2900      	cmp	r1, #0
80103ce6:	bf08      	it	eq
80103ce8:	2800      	cmpeq	r0, #0
80103cea:	bf1c      	itt	ne
80103cec:	f04f 31ff 	movne.w	r1, #4294967295	; 0xffffffff
80103cf0:	f04f 30ff 	movne.w	r0, #4294967295	; 0xffffffff
80103cf4:	f000 b80c 	b.w	80103d10 <__aeabi_idiv0>
80103cf8:	f1ad 0c08 	sub.w	ip, sp, #8
80103cfc:	e96d ce04 	strd	ip, lr, [sp, #-16]!
80103d00:	f000 f80c 	bl	80103d1c <__udivmoddi4>
80103d04:	f8dd e004 	ldr.w	lr, [sp, #4]
80103d08:	e9dd 2302 	ldrd	r2, r3, [sp, #8]
80103d0c:	b004      	add	sp, #16
80103d0e:	4770      	bx	lr

80103d10 <__aeabi_idiv0>:
80103d10:	b502      	push	{r1, lr}
80103d12:	f04f 0008 	mov.w	r0, #8
80103d16:	f7fd fa93 	bl	80101240 <raise>
80103d1a:	bd02      	pop	{r1, pc}

80103d1c <__udivmoddi4>:
80103d1c:	4299      	cmp	r1, r3
80103d1e:	e92d 47f0 	stmdb	sp!, {r4, r5, r6, r7, r8, r9, sl, lr}
80103d22:	bf08      	it	eq
80103d24:	4290      	cmpeq	r0, r2
80103d26:	4604      	mov	r4, r0
80103d28:	460d      	mov	r5, r1
80103d2a:	bf38      	it	cc
80103d2c:	2000      	movcc	r0, #0
80103d2e:	f8dd a020 	ldr.w	sl, [sp, #32]
80103d32:	bf38      	it	cc
80103d34:	2100      	movcc	r1, #0
80103d36:	d369      	bcc.n	80103e0c <__udivmoddi4+0xf0>
80103d38:	fab3 f683 	clz	r6, r3
80103d3c:	2b00      	cmp	r3, #0
80103d3e:	d070      	beq.n	80103e22 <__udivmoddi4+0x106>
80103d40:	fab5 f185 	clz	r1, r5
80103d44:	2d00      	cmp	r5, #0
80103d46:	d068      	beq.n	80103e1a <__udivmoddi4+0xfe>
80103d48:	1a76      	subs	r6, r6, r1
80103d4a:	f1a6 0e20 	sub.w	lr, r6, #32
80103d4e:	fa03 f906 	lsl.w	r9, r3, r6
80103d52:	fa02 f10e 	lsl.w	r1, r2, lr
80103d56:	f1c6 0720 	rsb	r7, r6, #32
80103d5a:	fa22 f307 	lsr.w	r3, r2, r7
80103d5e:	fa02 f806 	lsl.w	r8, r2, r6
80103d62:	ea49 0901 	orr.w	r9, r9, r1
80103d66:	ea49 0903 	orr.w	r9, r9, r3
80103d6a:	454d      	cmp	r5, r9
80103d6c:	bf08      	it	eq
80103d6e:	4544      	cmpeq	r4, r8
80103d70:	bf3c      	itt	cc
80103d72:	2000      	movcc	r0, #0
80103d74:	2100      	movcc	r1, #0
80103d76:	d30c      	bcc.n	80103d92 <__udivmoddi4+0x76>
80103d78:	2301      	movs	r3, #1
80103d7a:	ebb4 0408 	subs.w	r4, r4, r8
80103d7e:	fa03 f10e 	lsl.w	r1, r3, lr
80103d82:	fa23 f207 	lsr.w	r2, r3, r7
80103d86:	fa03 f006 	lsl.w	r0, r3, r6
80103d8a:	ea41 0102 	orr.w	r1, r1, r2
80103d8e:	eb65 0509 	sbc.w	r5, r5, r9
80103d92:	2e00      	cmp	r6, #0
80103d94:	d03a      	beq.n	80103e0c <__udivmoddi4+0xf0>
80103d96:	ea5f 0959 	movs.w	r9, r9, lsr #1
80103d9a:	ea4f 0838 	mov.w	r8, r8, rrx
80103d9e:	46b4      	mov	ip, r6
80103da0:	e00b      	b.n	80103dba <__udivmoddi4+0x9e>
80103da2:	ebb4 0408 	subs.w	r4, r4, r8
80103da6:	eb65 0509 	sbc.w	r5, r5, r9
80103daa:	1924      	adds	r4, r4, r4
80103dac:	416d      	adcs	r5, r5
80103dae:	3401      	adds	r4, #1
80103db0:	f145 0500 	adc.w	r5, r5, #0
80103db4:	f1bc 0c01 	subs.w	ip, ip, #1
80103db8:	d008      	beq.n	80103dcc <__udivmoddi4+0xb0>
80103dba:	454d      	cmp	r5, r9
80103dbc:	bf08      	it	eq
80103dbe:	4544      	cmpeq	r4, r8
80103dc0:	d2ef      	bcs.n	80103da2 <__udivmoddi4+0x86>
80103dc2:	1924      	adds	r4, r4, r4
80103dc4:	416d      	adcs	r5, r5
80103dc6:	f1bc 0c01 	subs.w	ip, ip, #1
80103dca:	d1f6      	bne.n	80103dba <__udivmoddi4+0x9e>
80103dcc:	fa05 f707 	lsl.w	r7, r5, r7
80103dd0:	fa24 f306 	lsr.w	r3, r4, r6
80103dd4:	fa25 fe0e 	lsr.w	lr, r5, lr
80103dd8:	fa25 fc06 	lsr.w	ip, r5, r6
80103ddc:	433b      	orrs	r3, r7
80103dde:	1900      	adds	r0, r0, r4
80103de0:	ea43 040e 	orr.w	r4, r3, lr
80103de4:	f1a6 0e20 	sub.w	lr, r6, #32
80103de8:	fa0c f306 	lsl.w	r3, ip, r6
80103dec:	fa04 fe0e 	lsl.w	lr, r4, lr
80103df0:	fa04 f206 	lsl.w	r2, r4, r6
80103df4:	f1c6 0720 	rsb	r7, r6, #32
80103df8:	fa24 f707 	lsr.w	r7, r4, r7
80103dfc:	ea43 030e 	orr.w	r3, r3, lr
80103e00:	4169      	adcs	r1, r5
80103e02:	433b      	orrs	r3, r7
80103e04:	1a80      	subs	r0, r0, r2
80103e06:	4665      	mov	r5, ip
80103e08:	eb61 0103 	sbc.w	r1, r1, r3
80103e0c:	f1ba 0f00 	cmp.w	sl, #0
80103e10:	d001      	beq.n	80103e16 <__udivmoddi4+0xfa>
80103e12:	e9ca 4500 	strd	r4, r5, [sl]
80103e16:	e8bd 87f0 	ldmia.w	sp!, {r4, r5, r6, r7, r8, r9, sl, pc}
80103e1a:	fab4 f184 	clz	r1, r4
80103e1e:	3120      	adds	r1, #32
80103e20:	e792      	b.n	80103d48 <__udivmoddi4+0x2c>
80103e22:	fab2 f682 	clz	r6, r2
80103e26:	fab5 f185 	clz	r1, r5
80103e2a:	3620      	adds	r6, #32
80103e2c:	2d00      	cmp	r5, #0
80103e2e:	d18b      	bne.n	80103d48 <__udivmoddi4+0x2c>
80103e30:	e7f3      	b.n	80103e1a <__udivmoddi4+0xfe>
80103e32:	bf00      	nop

Disassembly of section .rodata:

80103e34 <.LC0>:
80103e34:	6c6c6568 	cfstr64vs	mvdx6, [ip], #-416	; 0xfffffe60
80103e38:	6f77206f 	svcvs	0x0077206f
80103e3c:	0d646c72 	stcleq	12, cr6, [r4, #-456]!	; 0xfffffe38
80103e40:	0000000a 	andeq	r0, r0, sl

80103e44 <.LC1>:
80103e44:	2d4d4343 	stclcs	3, cr4, [sp, #-268]	; 0xfffffef4
80103e48:	4353433e 	cmpmi	r3, #-134217728	; 0xf8000000
80103e4c:	20315244 	eorscs	r5, r1, r4, asr #4
80103e50:	30207369 	eorcc	r7, r0, r9, ror #6
80103e54:	0a782578 	beq	81f0d43c <__bss_end+0x1e05004>
80103e58:	0000000d 	andeq	r0, r0, sp

80103e5c <.LC2>:
80103e5c:	65743a31 	ldrbvs	r3, [r4, #-2609]!	; 0xfffff5cf
80103e60:	73207473 			; <UNDEFINED> instruction: 0x73207473
80103e64:	000a0d64 	andeq	r0, sl, r4, ror #26

80103e68 <.LC3>:
80103e68:	65743a32 	ldrbvs	r3, [r4, #-2610]!	; 0xfffff5ce
80103e6c:	65207473 	strvs	r7, [r0, #-1139]!	; 0xfffffb8d
80103e70:	0d434d4d 	stcleq	13, cr4, [r3, #-308]	; 0xfffffecc
80103e74:	0000000a 	andeq	r0, r0, sl

80103e78 <.LC4>:
80103e78:	61656c70 	smcvs	22208	; 0x56c0
80103e7c:	73206573 			; <UNDEFINED> instruction: 0x73206573
80103e80:	63656c65 	cmnvs	r5, #25856	; 0x6500
80103e84:	31283a74 			; <UNDEFINED> instruction: 0x31283a74
80103e88:	20726f20 	rsbscs	r6, r2, r0, lsr #30
80103e8c:	0a0d2932 	beq	8044e35c <__bss_end+0x345f24>
80103e90:	00000000 	andeq	r0, r0, r0

80103e94 <.LC5>:
80103e94:	61656c70 	smcvs	22208	; 0x56c0
80103e98:	69206573 	stmdbvs	r0!, {r0, r1, r4, r5, r6, r8, sl, sp, lr}
80103e9c:	7265736e 	rsbvc	r7, r5, #-1207959551	; 0xb8000001
80103ea0:	64732074 	ldrbtvs	r2, [r3], #-116	; 0xffffff8c
80103ea4:	72616320 	rsbvc	r6, r1, #32, 6	; 0x80000000
80103ea8:	69662064 	stmdbvs	r6!, {r2, r5, r6, sp}^
80103eac:	2c747372 	ldclcs	3, cr7, [r4], #-456	; 0xfffffe38
80103eb0:	65687420 	strbvs	r7, [r8, #-1056]!	; 0xfffffbe0
80103eb4:	6e65206e 	cdpvs	0, 6, cr2, cr5, cr14, {3}
80103eb8:	20726574 	rsbscs	r6, r2, r4, ror r5
80103ebc:	0d276327 	stceq	3, cr6, [r7, #-156]!	; 0xffffff64
80103ec0:	746e450a 	strbtvc	r4, [lr], #-1290	; 0xfffffaf6
80103ec4:	003a7265 	eorseq	r7, sl, r5, ror #4

80103ec8 <.LC6>:
80103ec8:	72617473 	rsbvc	r7, r1, #1929379840	; 0x73000000
80103ecc:	65742074 	ldrbvs	r2, [r4, #-116]!	; 0xffffff8c
80103ed0:	73207473 			; <UNDEFINED> instruction: 0x73207473
80103ed4:	000a0d64 	andeq	r0, sl, r4, ror #26

80103ed8 <.LC7>:
80103ed8:	64616572 	strbtvs	r6, [r1], #-1394	; 0xfffffa8e
80103edc:	73203220 			; <UNDEFINED> instruction: 0x73203220
80103ee0:	6f746365 	svcvs	0x00746365
80103ee4:	66207372 			; <UNDEFINED> instruction: 0x66207372
80103ee8:	206d6f72 	rsbcs	r6, sp, r2, ror pc
80103eec:	20646e32 	rsbcs	r6, r4, r2, lsr lr
80103ef0:	74636573 	strbtvc	r6, [r3], #-1395	; 0xfffffa8d
80103ef4:	0a0d726f 	beq	804608b8 <__bss_end+0x358480>
80103ef8:	00000000 	andeq	r0, r0, r0

80103efc <.LC8>:
80103efc:	78323025 	ldmdavc	r2!, {r0, r2, r5, ip, sp}
80103f00:	00000020 	andeq	r0, r0, r0, lsr #32

80103f04 <.LC9>:
80103f04:	00000a0d 	andeq	r0, r0, sp, lsl #20

80103f08 <.LC10>:
80103f08:	6e727562 	cdpvs	5, 7, cr7, cr2, cr2, {3}
80103f0c:	64656c20 	strbtvs	r6, [r5], #-3104	; 0xfffff3e0
80103f10:	786d692e 	stmdavc	sp!, {r1, r2, r3, r5, r8, fp, sp, lr}^
80103f14:	206f7420 	rsbcs	r7, pc, r0, lsr #8
80103f18:	0a0d6473 	beq	8045d0ec <__bss_end+0x354cb4>
80103f1c:	00000000 	andeq	r0, r0, r0

80103f20 <.LC11>:
80103f20:	61656c70 	smcvs	22208	; 0x56c0
80103f24:	73206573 			; <UNDEFINED> instruction: 0x73206573
80103f28:	64207465 	strtvs	r7, [r0], #-1125	; 0xfffffb9b
80103f2c:	73207069 			; <UNDEFINED> instruction: 0x73207069
80103f30:	63746977 	cmnvs	r4, #1949696	; 0x1dc000
80103f34:	6f742068 	svcvs	0x00742068
80103f38:	20445320 	subcs	r5, r4, r0, lsr #6
80103f3c:	746f6f62 	strbtvc	r6, [pc], #-3938	; 80103f44 <.LC11+0x24>
80103f40:	6e61202c 	cdpvs	0, 6, cr2, cr1, cr12, {1}
80103f44:	75702064 	ldrbvc	r2, [r0, #-100]!	; 0xffffff9c
80103f48:	72206873 	eorvc	r6, r0, #7536640	; 0x730000
80103f4c:	74657365 	strbtvc	r7, [r5], #-869	; 0xfffffc9b
80103f50:	6874202c 	ldmdavs	r4!, {r2, r3, r5, sp}^
80103f54:	67206e65 	strvs	r6, [r0, -r5, ror #28]!
80103f58:	6e656572 	mcrvs	5, 3, r6, cr5, cr2, {3}
80103f5c:	64656c20 	strbtvs	r6, [r5], #-3104	; 0xfffff3e0
80103f60:	696c6220 	stmdbvs	ip!, {r5, r9, sp, lr}^
80103f64:	0d206b6e 	vstmdbeq	r0!, {d6-<overflow reg d60>}
80103f68:	0000000a 	andeq	r0, r0, sl

80103f6c <.LC12>:
80103f6c:	64616572 	strbtvs	r6, [r1], #-1394	; 0xfffffa8e
80103f70:	73203220 			; <UNDEFINED> instruction: 0x73203220
80103f74:	6f746365 	svcvs	0x00746365
80103f78:	66207372 			; <UNDEFINED> instruction: 0x66207372
80103f7c:	206d6f72 	rsbcs	r6, sp, r2, ror pc
80103f80:	20646e32 	rsbcs	r6, r4, r2, lsr lr
80103f84:	74636573 	strbtvc	r6, [r3], #-1395	; 0xfffffa8d
80103f88:	6120726f 			; <UNDEFINED> instruction: 0x6120726f
80103f8c:	72657466 	rsbvc	r7, r5, #1711276032	; 0x66000000
80103f90:	72756220 	rsbsvc	r6, r5, #32, 4
80103f94:	656c206e 	strbvs	r2, [ip, #-110]!	; 0xffffff92
80103f98:	6d695f64 	stclvs	15, cr5, [r9, #-400]!	; 0xfffffe70
80103f9c:	6d695f78 	stclvs	15, cr5, [r9, #-480]!	; 0xfffffe20
80103fa0:	3a656761 	bcc	81a5dd2c <__bss_end+0x19558f4>
80103fa4:	00000a0d 	andeq	r0, r0, sp, lsl #20

80103fa8 <.LC13>:
80103fa8:	75706e69 	ldrbvc	r6, [r0, #-3689]!	; 0xfffff197
80103fac:	72772074 	rsbsvc	r2, r7, #116	; 0x74
80103fb0:	20676e6f 	rsbcs	r6, r7, pc, ror #28
80103fb4:	626d756e 	rsbvs	r7, sp, #461373440	; 0x1b800000
80103fb8:	66207265 	strtvs	r7, [r0], -r5, ror #4
80103fbc:	656c6961 	strbvs	r6, [ip, #-2401]!	; 0xfffff69f
80103fc0:	000a0d64 	andeq	r0, sl, r4, ror #26

80103fc4 <.LC14>:
80103fc4:	64616572 	strbtvs	r6, [r1], #-1394	; 0xfffffa8e
80103fc8:	73203220 			; <UNDEFINED> instruction: 0x73203220
80103fcc:	6f746365 	svcvs	0x00746365
80103fd0:	66207372 			; <UNDEFINED> instruction: 0x66207372
80103fd4:	206d6f72 	rsbcs	r6, sp, r2, ror pc
80103fd8:	434d4d65 	movtmi	r4, #56677	; 0xdd65
80103fdc:	6f6f6220 	svcvs	0x006f6220
80103fe0:	70203174 	eorvc	r3, r0, r4, ror r1
80103fe4:	69747261 	ldmdbvs	r4!, {r0, r5, r6, r9, ip, sp, lr}^
80103fe8:	6e6f6974 			; <UNDEFINED> instruction: 0x6e6f6974
80103fec:	646e3220 	strbtvs	r3, [lr], #-544	; 0xfffffde0
80103ff0:	63657320 	cmnvs	r5, #32, 6	; 0x80000000
80103ff4:	0d726f74 	ldcleq	15, cr6, [r2, #-464]!	; 0xfffffe30
80103ff8:	0000000a 	andeq	r0, r0, sl

80103ffc <.LC15>:
80103ffc:	61656c70 	smcvs	22208	; 0x56c0
80104000:	73206573 			; <UNDEFINED> instruction: 0x73206573
80104004:	64207465 	strtvs	r7, [r0], #-1125	; 0xfffffb9b
80104008:	73207069 			; <UNDEFINED> instruction: 0x73207069
8010400c:	63746977 	cmnvs	r4, #1949696	; 0x1dc000
80104010:	6f742068 	svcvs	0x00742068
80104014:	4d4d6520 	cfstr64mi	mvdx6, [sp, #-128]	; 0xffffff80
80104018:	6f622043 	svcvs	0x00622043
8010401c:	202c746f 	eorcs	r7, ip, pc, ror #8
80104020:	20646e61 	rsbcs	r6, r4, r1, ror #28
80104024:	68737570 	ldmdavs	r3!, {r4, r5, r6, r8, sl, ip, sp, lr}^
80104028:	73657220 	cmnvc	r5, #32, 4
8010402c:	202c7465 	eorcs	r7, ip, r5, ror #8
80104030:	6e656874 	mcrvs	8, 3, r6, cr5, cr4, {3}
80104034:	65726720 	ldrbvs	r6, [r2, #-1824]!	; 0xfffff8e0
80104038:	6c206e65 	stcvs	14, cr6, [r0], #-404	; 0xfffffe6c
8010403c:	62206465 	eorvs	r6, r0, #1694498816	; 0x65000000
80104040:	6b6e696c 	blvs	81c9e5f8 <__bss_end+0x1b961c0>
80104044:	00000a0d 	andeq	r0, r0, sp, lsl #20

80104048 <.LC16>:
80104048:	64616572 	strbtvs	r6, [r1], #-1394	; 0xfffffa8e
8010404c:	73203220 			; <UNDEFINED> instruction: 0x73203220
80104050:	6f746365 	svcvs	0x00746365
80104054:	66207372 			; <UNDEFINED> instruction: 0x66207372
80104058:	206d6f72 	rsbcs	r6, sp, r2, ror pc
8010405c:	434d4d65 	movtmi	r4, #56677	; 0xdd65
80104060:	6f6f6220 	svcvs	0x006f6220
80104064:	70203174 	eorvc	r3, r0, r4, ror r1
80104068:	20747261 	rsbscs	r7, r4, r1, ror #4
8010406c:	20646e32 	rsbcs	r6, r4, r2, lsr lr
80104070:	74636573 	strbtvc	r6, [r3], #-1395	; 0xfffffa8d
80104074:	6120726f 			; <UNDEFINED> instruction: 0x6120726f
80104078:	72657466 	rsbvc	r7, r5, #1711276032	; 0x66000000
8010407c:	72756220 	rsbsvc	r6, r5, #32, 4
80104080:	656c206e 	strbvs	r2, [ip, #-110]!	; 0xffffff92
80104084:	6d695f64 	stclvs	15, cr5, [r9, #-400]!	; 0xfffffe70
80104088:	6d695f78 	stclvs	15, cr5, [r9, #-480]!	; 0xfffffe20
8010408c:	0d656761 	stcleq	7, cr6, [r5, #-388]!	; 0xfffffe7c
80104090:	0000000a 	andeq	r0, r0, sl

80104094 <.LC0>:
80104094:	73696854 	cmnvc	r9, #84, 16	; 0x540000
80104098:	20736920 	rsbscs	r6, r3, r0, lsr #18
8010409c:	2e777777 	mrccs	7, 3, r7, cr7, cr7, {3}
801040a0:	61303031 	teqvs	r0, r1, lsr r0
801040a4:	6f2e6b73 	svcvs	0x002e6b73
801040a8:	20206772 	eorcs	r6, r0, r2, ror r7
801040ac:	5f796d20 	svcpl	0x00796d20
801040b0:	6e697270 	mcrvs	2, 3, r7, cr9, cr0, {3}
801040b4:	74206674 	strtvc	r6, [r0], #-1652	; 0xfffff98c
801040b8:	0a747365 	beq	81e20e54 <__bss_end+0x1d18a1c>
801040bc:	0000000d 	andeq	r0, r0, sp

801040c0 <.LC1>:
801040c0:	74736574 	ldrbtvc	r6, [r3], #-1396	; 0xfffffa8c
801040c4:	61686320 	cmnvs	r8, r0, lsr #6
801040c8:	20202072 	eorcs	r2, r0, r2, ror r0
801040cc:	20202020 	eorcs	r2, r0, r0, lsr #32
801040d0:	20202020 	eorcs	r2, r0, r0, lsr #32
801040d4:	2c63253d 	cfstr64cs	mvdx2, [r3], #-244	; 0xffffff0c
801040d8:	0d0a6325 	stceq	3, cr6, [sl, #-148]	; 0xffffff6c
801040dc:	00000000 	andeq	r0, r0, r0

801040e0 <.LC2>:
801040e0:	74736574 	ldrbtvc	r6, [r3], #-1396	; 0xfffffa8c
801040e4:	63656420 	cmnvs	r5, #32, 8	; 0x20000000
801040e8:	6c616d69 	stclvs	13, cr6, [r1], #-420	; 0xfffffe5c
801040ec:	6d756e20 	ldclvs	14, cr6, [r5, #-128]!	; 0xffffff80
801040f0:	20726562 	rsbscs	r6, r2, r2, ror #10
801040f4:	0a64253d 	beq	81a0d5f0 <__bss_end+0x19051b8>
801040f8:	0000000d 	andeq	r0, r0, sp

801040fc <.LC3>:
801040fc:	74736574 	ldrbtvc	r6, [r3], #-1396	; 0xfffffa8c
80104100:	78656820 	stmdavc	r5!, {r5, fp, sp, lr}^
80104104:	20202020 	eorcs	r2, r0, r0, lsr #32
80104108:	6d756e20 	ldclvs	14, cr6, [r5, #-128]!	; 0xffffff80
8010410c:	20726562 	rsbscs	r6, r2, r2, ror #10
80104110:	2578303d 	ldrbcs	r3, [r8, #-61]!	; 0xffffffc3
80104114:	000d0a78 	andeq	r0, sp, r8, ror sl

80104118 <.LC4>:
80104118:	2e777777 	mrccs	7, 3, r7, cr7, cr7, {3}
8010411c:	61303031 	teqvs	r0, r1, lsr r0
80104120:	6f2e6b73 	svcvs	0x002e6b73
80104124:	00006772 	andeq	r6, r0, r2, ror r7

80104128 <.LC5>:
80104128:	74736574 	ldrbtvc	r6, [r3], #-1396	; 0xfffffa8c
8010412c:	72747320 	rsbsvc	r7, r4, #32, 6	; 0x80000000
80104130:	20676e69 	rsbcs	r6, r7, r9, ror #28
80104134:	20202020 	eorcs	r2, r0, r0, lsr #32
80104138:	20202020 	eorcs	r2, r0, r0, lsr #32
8010413c:	0a73253d 	beq	81dcd638 <__bss_end+0x1cc5200>
80104140:	0000000d 	andeq	r0, r0, sp

80104144 <.LC6>:
80104144:	3d6d756e 	cfstr64cc	mvdx7, [sp, #-440]!	; 0xfffffe48
80104148:	64383025 	ldrtvs	r3, [r8], #-37	; 0xffffffdb
8010414c:	00000d0a 	andeq	r0, r0, sl, lsl #26

80104150 <.LC7>:
80104150:	3d6d756e 	cfstr64cc	mvdx7, [sp, #-440]!	; 0xfffffe48
80104154:	0a643825 	beq	81a121f0 <__bss_end+0x1909db8>
80104158:	0000000d 	andeq	r0, r0, sp

8010415c <.LC8>:
8010415c:	3d6d756e 	cfstr64cc	mvdx7, [sp, #-440]!	; 0xfffffe48
80104160:	30257830 	eorcc	r7, r5, r0, lsr r8
80104164:	0d0a7838 	stceq	8, cr7, [sl, #-224]	; 0xffffff20
80104168:	00000000 	andeq	r0, r0, r0

8010416c <.LC9>:
8010416c:	3d6d756e 	cfstr64cc	mvdx7, [sp, #-440]!	; 0xfffffe48
80104170:	38257830 	stmdacc	r5!, {r4, r5, fp, ip, sp, lr}
80104174:	000d0a78 	andeq	r0, sp, r8, ror sl

80104178 <.LC10>:
80104178:	3d6d756e 	cfstr64cc	mvdx7, [sp, #-440]!	; 0xfffffe48
8010417c:	30257830 	eorcc	r7, r5, r0, lsr r8
80104180:	0d0a7832 	stceq	8, cr7, [sl, #-200]	; 0xffffff38
80104184:	00000000 	andeq	r0, r0, r0

80104188 <.LC11>:
80104188:	3d6d756e 	cfstr64cc	mvdx7, [sp, #-440]!	; 0xfffffe48
8010418c:	32257830 	eorcc	r7, r5, #48, 16	; 0x300000
80104190:	000d0a78 	andeq	r0, sp, r8, ror sl

80104194 <.LC12>:
80104194:	3d6d756e 	cfstr64cc	mvdx7, [sp, #-440]!	; 0xfffffe48
80104198:	64353025 	ldrtvs	r3, [r5], #-37	; 0xffffffdb
8010419c:	00000d0a 	andeq	r0, r0, sl, lsl #26

801041a0 <.LC13>:
801041a0:	3d6d756e 	cfstr64cc	mvdx7, [sp, #-440]!	; 0xfffffe48
801041a4:	0a643525 	beq	81a11640 <__bss_end+0x1909208>
801041a8:	0000000d 	andeq	r0, r0, sp

801041ac <.LC0>:
801041ac:	415f5344 	cmpmi	pc, r4, asr #6
801041b0:	20524444 	subscs	r4, r2, r4, asr #8
801041b4:	30207369 	eorcc	r7, r0, r9, ror #6
801041b8:	0d782578 	cfldr64eq	mvdx2, [r8, #-480]!	; 0xfffffe20
801041bc:	0000000a 	andeq	r0, r0, sl

801041c0 <.LC1>:
801041c0:	5f4b4c42 	svcpl	0x004b4c42
801041c4:	20545441 	subscs	r5, r4, r1, asr #8
801041c8:	30207369 	eorcc	r7, r0, r9, ror #6
801041cc:	0d782578 	cfldr64eq	mvdx2, [r8, #-480]!	; 0xfffffe20
801041d0:	0000000a 	andeq	r0, r0, sl

801041d4 <.LC2>:
801041d4:	5f444d43 	svcpl	0x00444d43
801041d8:	20475241 	subcs	r5, r7, r1, asr #4
801041dc:	30207369 	eorcc	r7, r0, r9, ror #6
801041e0:	0d782578 	cfldr64eq	mvdx2, [r8, #-480]!	; 0xfffffe20
801041e4:	0000000a 	andeq	r0, r0, sl

801041e8 <.LC3>:
801041e8:	5f444d43 	svcpl	0x00444d43
801041ec:	5f524658 	svcpl	0x00524658
801041f0:	20505954 	subscs	r5, r0, r4, asr r9
801041f4:	30207369 	eorcc	r7, r0, r9, ror #6
801041f8:	0d782578 	cfldr64eq	mvdx2, [r8, #-480]!	; 0xfffffe20
801041fc:	0000000a 	andeq	r0, r0, sl

80104200 <.LC4>:
80104200:	5f444d43 	svcpl	0x00444d43
80104204:	30505352 	subscc	r5, r0, r2, asr r3
80104208:	20736920 	rsbscs	r6, r3, r0, lsr #18
8010420c:	78257830 	stmdavc	r5!, {r4, r5, fp, ip, sp, lr}
80104210:	00000a0d 	andeq	r0, r0, sp, lsl #20

80104214 <.LC5>:
80104214:	5f444d43 	svcpl	0x00444d43
80104218:	31505352 	cmpcc	r0, r2, asr r3
8010421c:	20736920 	rsbscs	r6, r3, r0, lsr #18
80104220:	78257830 	stmdavc	r5!, {r4, r5, fp, ip, sp, lr}
80104224:	00000a0d 	andeq	r0, r0, sp, lsl #20

80104228 <.LC6>:
80104228:	5f444d43 	svcpl	0x00444d43
8010422c:	32505352 	subscc	r5, r0, #1207959553	; 0x48000001
80104230:	20736920 	rsbscs	r6, r3, r0, lsr #18
80104234:	78257830 	stmdavc	r5!, {r4, r5, fp, ip, sp, lr}
80104238:	00000a0d 	andeq	r0, r0, sp, lsl #20

8010423c <.LC7>:
8010423c:	5f444d43 	svcpl	0x00444d43
80104240:	33505352 	cmpcc	r0, #1207959553	; 0x48000001
80104244:	20736920 	rsbscs	r6, r3, r0, lsr #18
80104248:	78257830 	stmdavc	r5!, {r4, r5, fp, ip, sp, lr}
8010424c:	00000a0d 	andeq	r0, r0, sp, lsl #20

80104250 <.LC8>:
80104250:	41544144 	cmpmi	r4, r4, asr #2
80104254:	4655425f 			; <UNDEFINED> instruction: 0x4655425f
80104258:	43415f46 	movtmi	r5, #8006	; 0x1f46
8010425c:	4f505f43 	svcmi	0x00505f43
80104260:	69205452 	stmdbvs	r0!, {r1, r4, r6, sl, ip, lr}
80104264:	78302073 	ldmdavc	r0!, {r0, r1, r4, r5, r6, sp}
80104268:	0a0d7825 	beq	80462304 <__bss_end+0x359ecc>
8010426c:	00000000 	andeq	r0, r0, r0

80104270 <.LC9>:
80104270:	53455250 	movtpl	r5, #21072	; 0x5250
80104274:	4154535f 	cmpmi	r4, pc, asr r3
80104278:	69204554 	stmdbvs	r0!, {r2, r4, r6, r8, sl, lr}
8010427c:	78302073 	ldmdavc	r0!, {r0, r1, r4, r5, r6, sp}
80104280:	0a0d7825 	beq	8046231c <__bss_end+0x359ee4>
80104284:	00000000 	andeq	r0, r0, r0

80104288 <.LC10>:
80104288:	544f5250 	strbpl	r5, [pc], #-592	; 80104290 <.LC10+0x8>
8010428c:	5254435f 	subspl	r4, r4, #2080374785	; 0x7c000001
80104290:	7369204c 	cmnvc	r9, #76	; 0x4c
80104294:	25783020 	ldrbcs	r3, [r8, #-32]!	; 0xffffffe0
80104298:	000a0d78 	andeq	r0, sl, r8, ror sp

8010429c <.LC11>:
8010429c:	5f535953 	svcpl	0x00535953
801042a0:	4c525443 	cfldrdmi	mvd5, [r2], {67}	; 0x43
801042a4:	20736920 	rsbscs	r6, r3, r0, lsr #18
801042a8:	78257830 	stmdavc	r5!, {r4, r5, fp, ip, sp, lr}
801042ac:	00000a0d 	andeq	r0, r0, sp, lsl #20

801042b0 <.LC12>:
801042b0:	5f544e49 	svcpl	0x00544e49
801042b4:	54415453 	strbpl	r5, [r1], #-1107	; 0xfffffbad
801042b8:	69205355 	stmdbvs	r0!, {r0, r2, r4, r6, r8, r9, ip, lr}
801042bc:	78302073 	ldmdavc	r0!, {r0, r1, r4, r5, r6, sp}
801042c0:	0a0d7825 	beq	8046235c <__bss_end+0x359f24>
801042c4:	00000000 	andeq	r0, r0, r0

801042c8 <.LC13>:
801042c8:	5f544e49 	svcpl	0x00544e49
801042cc:	54415453 	strbpl	r5, [r1], #-1107	; 0xfffffbad
801042d0:	455f5355 	ldrbmi	r5, [pc, #-853]	; 80103f83 <.LC12+0x17>
801042d4:	7369204e 	cmnvc	r9, #78	; 0x4e
801042d8:	25783020 	ldrbcs	r3, [r8, #-32]!	; 0xffffffe0
801042dc:	000a0d78 	andeq	r0, sl, r8, ror sp

801042e0 <.LC14>:
801042e0:	5f544e49 	svcpl	0x00544e49
801042e4:	4e474953 			; <UNDEFINED> instruction: 0x4e474953
801042e8:	455f4c41 	ldrbmi	r4, [pc, #-3137]	; 801036af <MMC_SelectPartition+0x27>
801042ec:	7369204e 	cmnvc	r9, #78	; 0x4e
801042f0:	25783020 	ldrbcs	r3, [r8, #-32]!	; 0xffffffe0
801042f4:	000a0d78 	andeq	r0, sl, r8, ror sp

801042f8 <.LC15>:
801042f8:	4f545541 	svcmi	0x00545541
801042fc:	31444d43 	cmpcc	r4, r3, asr #26
80104300:	52455f32 	subpl	r5, r5, #50, 30	; 0xc8
80104304:	54535f52 	ldrbpl	r5, [r3], #-3922	; 0xfffff0ae
80104308:	53555441 	cmppl	r5, #1090519040	; 0x41000000
8010430c:	20736920 	rsbscs	r6, r3, r0, lsr #18
80104310:	78257830 	stmdavc	r5!, {r4, r5, fp, ip, sp, lr}
80104314:	00000a0d 	andeq	r0, r0, sp, lsl #20

80104318 <.LC16>:
80104318:	54534f48 	ldrbpl	r4, [r3], #-3912	; 0xfffff0b8
8010431c:	5254435f 	subspl	r4, r4, #2080374785	; 0x7c000001
80104320:	41435f4c 	cmpmi	r3, ip, asr #30
80104324:	73692050 	cmnvc	r9, #80	; 0x50
80104328:	25783020 	ldrbcs	r3, [r8, #-32]!	; 0xffffffe0
8010432c:	000a0d78 	andeq	r0, sl, r8, ror sp

80104330 <.LC17>:
80104330:	4b4d5457 	blmi	81459494 <__bss_end+0x135105c>
80104334:	4c564c5f 	mrrcmi	12, 5, r4, r6, cr15
80104338:	20736920 	rsbscs	r6, r3, r0, lsr #18
8010433c:	78257830 	stmdavc	r5!, {r4, r5, fp, ip, sp, lr}
80104340:	00000a0d 	andeq	r0, r0, sp, lsl #20

80104344 <.LC18>:
80104344:	5f58494d 	svcpl	0x0058494d
80104348:	4c525443 	cfldrdmi	mvd5, [r2], {67}	; 0x43
8010434c:	20736920 	rsbscs	r6, r3, r0, lsr #18
80104350:	78257830 	stmdavc	r5!, {r4, r5, fp, ip, sp, lr}
80104354:	00000a0d 	andeq	r0, r0, sp, lsl #20

80104358 <.LC19>:
80104358:	43524f46 	cmpmi	r2, #280	; 0x118
8010435c:	56455f45 	strbpl	r5, [r5], -r5, asr #30
80104360:	20544e45 	subscs	r4, r4, r5, asr #28
80104364:	30207369 	eorcc	r7, r0, r9, ror #6
80104368:	0d782578 	cfldr64eq	mvdx2, [r8, #-480]!	; 0xfffffe20
8010436c:	0000000a 	andeq	r0, r0, sl

80104370 <.LC20>:
80104370:	414d4441 	cmpmi	sp, r1, asr #8
80104374:	5252455f 	subspl	r4, r2, #398458880	; 0x17c00000
80104378:	4154535f 	cmpmi	r4, pc, asr r3
8010437c:	20535554 	subscs	r5, r3, r4, asr r5
80104380:	30207369 	eorcc	r7, r0, r9, ror #6
80104384:	0d782578 	cfldr64eq	mvdx2, [r8, #-480]!	; 0xfffffe20
80104388:	0000000a 	andeq	r0, r0, sl

8010438c <.LC21>:
8010438c:	414d4441 	cmpmi	sp, r1, asr #8
80104390:	5359535f 	cmppl	r9, #2080374785	; 0x7c000001
80104394:	4444415f 	strbmi	r4, [r4], #-351	; 0xfffffea1
80104398:	73692052 	cmnvc	r9, #82	; 0x52
8010439c:	25783020 	ldrbcs	r3, [r8, #-32]!	; 0xffffffe0
801043a0:	000a0d78 	andeq	r0, sl, r8, ror sp

801043a4 <.LC22>:
801043a4:	5f4c4c44 	svcpl	0x004c4c44
801043a8:	4c525443 	cfldrdmi	mvd5, [r2], {67}	; 0x43
801043ac:	20736920 	rsbscs	r6, r3, r0, lsr #18
801043b0:	78257830 	stmdavc	r5!, {r4, r5, fp, ip, sp, lr}
801043b4:	00000a0d 	andeq	r0, r0, sp, lsl #20

801043b8 <.LC23>:
801043b8:	5f4c4c44 	svcpl	0x004c4c44
801043bc:	54415453 	strbpl	r5, [r1], #-1107	; 0xfffffbad
801043c0:	69205355 	stmdbvs	r0!, {r0, r2, r4, r6, r8, r9, ip, lr}
801043c4:	78302073 	ldmdavc	r0!, {r0, r1, r4, r5, r6, sp}
801043c8:	0a0d7825 	beq	80462464 <__bss_end+0x35a02c>
801043cc:	00000000 	andeq	r0, r0, r0

801043d0 <.LC24>:
801043d0:	5f4b4c43 	svcpl	0x004b4c43
801043d4:	454e5554 	strbmi	r5, [lr, #-1364]	; 0xfffffaac
801043d8:	5254435f 	subspl	r4, r4, #2080374785	; 0x7c000001
801043dc:	54535f4c 	ldrbpl	r5, [r3], #-3916	; 0xfffff0b4
801043e0:	53555441 	cmppl	r5, #1090519040	; 0x41000000
801043e4:	20736920 	rsbscs	r6, r3, r0, lsr #18
801043e8:	78257830 	stmdavc	r5!, {r4, r5, fp, ip, sp, lr}
801043ec:	00000a0d 	andeq	r0, r0, sp, lsl #20

801043f0 <.LC25>:
801043f0:	444e4556 	strbmi	r4, [lr], #-1366	; 0xfffffaaa
801043f4:	4550535f 	ldrbmi	r5, [r0, #-863]	; 0xfffffca1
801043f8:	73692043 	cmnvc	r9, #67	; 0x43
801043fc:	25783020 	ldrbcs	r3, [r8, #-32]!	; 0xffffffe0
80104400:	000a0d78 	andeq	r0, sl, r8, ror sp

80104404 <.LC26>:
80104404:	5f434d4d 	svcpl	0x00434d4d
80104408:	544f4f42 	strbpl	r4, [pc], #-3906	; 80104410 <.LC26+0xc>
8010440c:	20736920 	rsbscs	r6, r3, r0, lsr #18
80104410:	78257830 	stmdavc	r5!, {r4, r5, fp, ip, sp, lr}
80104414:	00000a0d 	andeq	r0, r0, sp, lsl #20

80104418 <.LC27>:
80104418:	444e4556 	strbmi	r4, [lr], #-1366	; 0xfffffaaa
8010441c:	4550535f 	ldrbmi	r5, [r0, #-863]	; 0xfffffca1
80104420:	69203243 	stmdbvs	r0!, {r0, r1, r6, r9, ip, sp}
80104424:	78302073 	ldmdavc	r0!, {r0, r1, r4, r5, r6, sp}
80104428:	0a0d7825 	beq	804624c4 <__bss_end+0x35a08c>
8010442c:	00000000 	andeq	r0, r0, r0

80104430 <.LC28>:
80104430:	494e5554 	stmdbmi	lr, {r2, r4, r6, r8, sl, ip, lr}^
80104434:	435f474e 	cmpmi	pc, #20447232	; 0x1380000
80104438:	204c5254 	subcs	r5, ip, r4, asr r2
8010443c:	30207369 	eorcc	r7, r0, r9, ror #6
80104440:	0d782578 	cfldr64eq	mvdx2, [r8, #-480]!	; 0xfffffe20
80104444:	0000000a 	andeq	r0, r0, sl

80104448 <.LC29>:
80104448:	20646d63 	rsbcs	r6, r4, r3, ror #26
8010444c:	72727265 	rsbsvc	r7, r2, #1342177286	; 0x50000006
80104450:	202c726f 	eorcs	r7, ip, pc, ror #4
80104454:	20444d43 	subcs	r4, r4, r3, asr #26
80104458:	30207369 	eorcc	r7, r0, r9, ror #6
8010445c:	2c782578 	cfldr64cs	mvdx2, [r8], #-480	; 0xfffffe20
80104460:	544e4920 	strbpl	r4, [lr], #-2336	; 0xfffff6e0
80104464:	4154535f 	cmpmi	r4, pc, asr r3
80104468:	20535554 	subscs	r5, r3, r4, asr r5
8010446c:	30207369 	eorcc	r7, r0, r9, ror #6
80104470:	0d782578 	cfldr64eq	mvdx2, [r8, #-480]!	; 0xfffffe20
80104474:	0000000a 	andeq	r0, r0, sl

80104478 <.LC30>:
80104478:	61746164 	cmnvs	r4, r4, ror #2
8010447c:	72726520 	rsbsvc	r6, r2, #32, 10	; 0x8000000
80104480:	2c726f72 	ldclcs	15, cr6, [r2], #-456	; 0xfffffe38
80104484:	444d4320 	strbmi	r4, [sp], #-800	; 0xfffffce0
80104488:	20736920 	rsbscs	r6, r3, r0, lsr #18
8010448c:	78257830 	stmdavc	r5!, {r4, r5, fp, ip, sp, lr}
80104490:	4e49202c 	cdpmi	0, 4, cr2, cr9, cr12, {1}
80104494:	54535f54 	ldrbpl	r5, [r3], #-3924	; 0xfffff0ac
80104498:	53555441 	cmppl	r5, #1090519040	; 0x41000000
8010449c:	20736920 	rsbscs	r6, r3, r0, lsr #18
801044a0:	78257830 	stmdavc	r5!, {r4, r5, fp, ip, sp, lr}
801044a4:	00000a0d 	andeq	r0, r0, sp, lsl #20

801044a8 <.LC31>:
801044a8:	61656c70 	smcvs	22208	; 0x56c0
801044ac:	69206573 	stmdbvs	r0!, {r0, r1, r4, r5, r6, r8, sl, sp, lr}
801044b0:	7265736e 	rsbvc	r7, r5, #-1207959551	; 0xb8000001
801044b4:	64732074 	ldrbtvs	r2, [r3], #-116	; 0xffffff8c
801044b8:	72616320 	rsbvc	r6, r1, #32, 6	; 0x80000000
801044bc:	000a0d64 	andeq	r0, sl, r4, ror #26

801044c0 <.LC32>:
801044c0:	63206473 			; <UNDEFINED> instruction: 0x63206473
801044c4:	20647261 	rsbcs	r7, r4, r1, ror #4
801044c8:	20736168 	rsbscs	r6, r3, r8, ror #2
801044cc:	6e656562 	cdpvs	5, 6, cr6, cr5, cr2, {3}
801044d0:	736e6920 	cmnvc	lr, #32, 18	; 0x80000
801044d4:	65747265 	ldrbvs	r7, [r4, #-613]!	; 0xfffffd9b
801044d8:	000a0d64 	andeq	r0, sl, r4, ror #26

801044dc <.LC33>:
801044dc:	20656874 	rsbcs	r6, r5, r4, ror r8
801044e0:	64726163 	ldrbtvs	r6, [r2], #-355	; 0xfffffe9d
801044e4:	70757320 	rsbsvc	r7, r5, r0, lsr #6
801044e8:	74726f70 	ldrbtvc	r6, [r2], #-3952	; 0xfffff090
801044ec:	6d206465 	cfstrsvs	mvf6, [r0, #-404]!	; 0xfffffe6c
801044f0:	2065646f 	rsbcs	r6, r5, pc, ror #8
801044f4:	30207369 	eorcc	r7, r0, r9, ror #6
801044f8:	0d782578 	cfldr64eq	mvdx2, [r8, #-480]!	; 0xfffffe20
801044fc:	0000000a 	andeq	r0, r0, sl

80104500 <.LC34>:
80104500:	3d3d3d3d 	ldccc	13, cr3, [sp, #-244]!	; 0xffffff0c
80104504:	000a0d3d 	andeq	r0, sl, sp, lsr sp

80104508 <.LC35>:
80104508:	20746573 	rsbscs	r6, r4, r3, ror r5
8010450c:	64726163 	ldrbtvs	r6, [r2], #-355	; 0xfffffe9d
80104510:	67696820 	strbvs	r6, [r9, -r0, lsr #16]!
80104514:	70732068 	rsbsvc	r2, r3, r8, rrx
80104518:	20646565 	rsbcs	r6, r4, r5, ror #10
8010451c:	63637573 	cmnvs	r3, #482344960	; 0x1cc00000
80104520:	0d737365 	ldcleq	3, cr7, [r3, #-404]!	; 0xfffffe6c
80104524:	0000000a 	andeq	r0, r0, sl

80104528 <.LC36>:
80104528:	2072636f 	rsbscs	r6, r2, pc, ror #6
8010452c:	30207369 	eorcc	r7, r0, r9, ror #6
80104530:	0d782578 	cfldr64eq	mvdx2, [r8, #-480]!	; 0xfffffe20
80104534:	0000000a 	andeq	r0, r0, sl

80104538 <.LC37>:
80104538:	646e6148 	strbtvs	r6, [lr], #-328	; 0xfffffeb8
8010453c:	6b616853 	blvs	8195e690 <__bss_end+0x1856258>
80104540:	65704f65 	ldrbvs	r4, [r0, #-3941]!	; 0xfffff09b
80104544:	69746172 	ldmdbvs	r4!, {r1, r4, r5, r6, r8, sp, lr}^
80104548:	6f436e6f 	svcvs	0x00436e6f
8010454c:	7469646e 	strbtvc	r6, [r9], #-1134	; 0xfffffb92
80104550:	466e6f69 	strbtmi	r6, [lr], -r9, ror #30
80104554:	656c6961 	strbvs	r6, [ip, #-2401]!	; 0xfffff69f
80104558:	000a0d64 	andeq	r0, sl, r4, ror #26

8010455c <.LC38>:
8010455c:	70707573 	rsbsvc	r7, r0, r3, ror r5
80104560:	2074726f 	rsbscs	r7, r4, pc, ror #4
80104564:	76382e31 			; <UNDEFINED> instruction: 0x76382e31
80104568:	00000a0d 	andeq	r0, r0, sp, lsl #20

8010456c <.LC39>:
8010456c:	616c6572 	smcvs	50770	; 0xc652
80104570:	65766974 	ldrbvs	r6, [r6, #-2420]!	; 0xfffff68c
80104574:	64646120 	strbtvs	r6, [r4], #-288	; 0xfffffee0
80104578:	73736572 	cmnvc	r3, #478150656	; 0x1c800000
8010457c:	20736920 	rsbscs	r6, r3, r0, lsr #18
80104580:	78257830 	stmdavc	r5!, {r4, r5, fp, ip, sp, lr}
80104584:	00000a0d 	andeq	r0, r0, sp, lsl #20

80104588 <.LC40>:
80104588:	43484453 	movtmi	r4, #33875	; 0x8453
8010458c:	5844532f 	stmdapl	r4, {r0, r1, r2, r3, r5, r8, r9, ip, lr}^
80104590:	00000043 	andeq	r0, r0, r3, asr #32

80104594 <.LC41>:
80104594:	43534453 	cmpmi	r3, #1392508928	; 0x53000000
80104598:	00000000 	andeq	r0, r0, r0

8010459c <.LC42>:
8010459c:	64726163 	ldrbtvs	r6, [r2], #-355	; 0xfffffe9d
801045a0:	20736920 	rsbscs	r6, r3, r0, lsr #18
801045a4:	00007325 	andeq	r7, r0, r5, lsr #6

801045a8 <.LC43>:
801045a8:	64726163 	ldrbtvs	r6, [r2], #-355	; 0xfffffe9d
801045ac:	6f6c6220 	svcvs	0x006c6220
801045b0:	63206b63 			; <UNDEFINED> instruction: 0x63206b63
801045b4:	746e756f 	strbtvc	r7, [lr], #-1391	; 0xfffffa91
801045b8:	20736920 	rsbscs	r6, r3, r0, lsr #18
801045bc:	0a0d6425 	beq	8045d658 <__bss_end+0x355220>
801045c0:	00000000 	andeq	r0, r0, r0

801045c4 <.LC44>:
801045c4:	64726163 	ldrbtvs	r6, [r2], #-355	; 0xfffffe9d
801045c8:	63657320 	cmnvs	r5, #32, 6	; 0x80000000
801045cc:	20726f74 	rsbscs	r6, r2, r4, ror pc
801045d0:	657a6973 	ldrbvs	r6, [sl, #-2419]!	; 0xfffff68d
801045d4:	20736920 	rsbscs	r6, r3, r0, lsr #18
801045d8:	0a0d6425 	beq	8045d674 <__bss_end+0x35523c>
801045dc:	00000000 	andeq	r0, r0, r0

801045e0 <.LC45>:
801045e0:	64726163 	ldrbtvs	r6, [r2], #-355	; 0xfffffe9d
801045e4:	6d6f6320 	stclvs	3, cr6, [pc, #-128]!	; 8010456c <.LC39>
801045e8:	646e616d 	strbtvs	r6, [lr], #-365	; 0xfffffe93
801045ec:	616c6320 	cmnvs	ip, r0, lsr #6
801045f0:	69207373 	stmdbvs	r0!, {r0, r1, r4, r5, r6, r8, r9, ip, sp, lr}
801045f4:	78302073 	ldmdavc	r0!, {r0, r1, r4, r5, r6, sp}
801045f8:	0a0d7825 	beq	80462694 <__bss_end+0x35a25c>
801045fc:	00000000 	andeq	r0, r0, r0

80104600 <.LC46>:
80104600:	5b726373 	blpl	81d9d3d4 <__bss_end+0x1c94f9c>
80104604:	69205d30 	stmdbvs	r0!, {r4, r5, r8, sl, fp, ip, lr}
80104608:	78302073 	ldmdavc	r0!, {r0, r1, r4, r5, r6, sp}
8010460c:	202c7825 	eorcs	r7, ip, r5, lsr #16
80104610:	5b726373 	blpl	81d9d3e4 <__bss_end+0x1c94fac>
80104614:	69205d31 	stmdbvs	r0!, {r0, r4, r5, r8, sl, fp, ip, lr}
80104618:	78302073 	ldmdavc	r0!, {r0, r1, r4, r5, r6, sp}
8010461c:	0a0d7825 	beq	804626b8 <__bss_end+0x35a280>
80104620:	00000000 	andeq	r0, r0, r0

80104624 <.LC47>:
80104624:	73206473 			; <UNDEFINED> instruction: 0x73206473
80104628:	69636570 	stmdbvs	r3!, {r4, r5, r6, r8, sl, sp, lr}^
8010462c:	61636966 	cmnvs	r3, r6, ror #18
80104630:	6e6f6974 			; <UNDEFINED> instruction: 0x6e6f6974
80104634:	20736920 	rsbscs	r6, r3, r0, lsr #18
80104638:	78257830 	stmdavc	r5!, {r4, r5, fp, ip, sp, lr}
8010463c:	00000a0d 	andeq	r0, r0, sp, lsl #20

80104640 <.LC48>:
80104640:	20656854 	rsbcs	r6, r5, r4, asr r8
80104644:	64726163 	ldrbtvs	r6, [r2], #-355	; 0xfffffe9d
80104648:	6e616320 	cdpvs	3, 6, cr6, cr1, cr0, {1}
8010464c:	746f6e20 	strbtvc	r6, [pc], #-3616	; 80104654 <.LC48+0x14>
80104650:	70757320 	rsbsvc	r7, r5, r0, lsr #6
80104654:	74726f70 	ldrbtvc	r6, [r2], #-3952	; 0xfffff090
80104658:	69623420 	stmdbvs	r2!, {r5, sl, ip, sp}^
8010465c:	69772074 	ldmdbvs	r7!, {r2, r4, r5, r6, sp}^
80104660:	00687464 	rsbeq	r7, r8, r4, ror #8

80104664 <.LC49>:
80104664:	20656854 	rsbcs	r6, r5, r4, asr r8
80104668:	64726163 	ldrbtvs	r6, [r2], #-355	; 0xfffffe9d
8010466c:	6e616320 	cdpvs	3, 6, cr6, cr1, cr0, {1}
80104670:	746f6e20 	strbtvc	r6, [pc], #-3616	; 80104678 <.LC49+0x14>
80104674:	70757320 	rsbsvc	r7, r5, r0, lsr #6
80104678:	74726f70 	ldrbtvc	r6, [r2], #-3952	; 0xfffff090
8010467c:	65705320 	ldrbvs	r5, [r0, #-800]!	; 0xfffffce0
80104680:	43206465 			; <UNDEFINED> instruction: 0x43206465
80104684:	7373616c 	cmnvc	r3, #108, 2
80104688:	6e6f4320 	cdpvs	3, 6, cr4, cr15, cr0, {1}
8010468c:	6c6f7274 	sfmvs	f7, 2, [pc], #-464	; 801044c4 <.LC32+0x4>
80104690:	4d432820 	stclmi	8, cr2, [r3, #-128]	; 0xffffff80
80104694:	29303244 	ldmdbcs	r0!, {r2, r6, r9, ip, sp}
80104698:	00000a0d 	andeq	r0, r0, sp, lsl #20

8010469c <.LC50>:
8010469c:	20656854 	rsbcs	r6, r5, r4, asr r8
801046a0:	64726163 	ldrbtvs	r6, [r2], #-355	; 0xfffffe9d
801046a4:	6e616320 	cdpvs	3, 6, cr6, cr1, cr0, {1}
801046a8:	746f6e20 	strbtvc	r6, [pc], #-3616	; 801046b0 <.LC50+0x14>
801046ac:	70757320 	rsbsvc	r7, r5, r0, lsr #6
801046b0:	74726f70 	ldrbtvc	r6, [r2], #-3952	; 0xfffff090
801046b4:	70755320 	rsbsvc	r5, r5, r0, lsr #6
801046b8:	74726f70 	ldrbtvc	r6, [r2], #-3952	; 0xfffff090
801046bc:	74655320 	strbtvc	r5, [r5], #-800	; 0xfffffce0
801046c0:	636f6c42 	cmnvs	pc, #16896	; 0x4200
801046c4:	756f436b 	strbvc	r4, [pc, #-875]!	; 80104361 <.LC19+0x9>
801046c8:	6d43746e 	cfstrdvs	mvd7, [r3, #-440]	; 0xfffffe48
801046cc:	43282064 			; <UNDEFINED> instruction: 0x43282064
801046d0:	3332444d 	teqcc	r2, #1291845632	; 0x4d000000
801046d4:	000a0d29 	andeq	r0, sl, r9, lsr #26

801046d8 <.LC51>:
801046d8:	636f6c63 	cmnvs	pc, #25344	; 0x6300
801046dc:	7369206b 	cmnvc	r9, #107	; 0x6b
801046e0:	2c642520 	cfstr64cs	mvdx2, [r4], #-128	; 0xffffff80
801046e4:	73616220 	cmnvc	r1, #32, 4
801046e8:	533e2d65 	teqpl	lr, #6464	; 0x1940
801046ec:	435f5359 	cmpmi	pc, #1677721601	; 0x64000001
801046f0:	204c5254 	subcs	r5, ip, r4, asr r2
801046f4:	30207369 	eorcc	r7, r0, r9, ror #6
801046f8:	0d782578 	cfldr64eq	mvdx2, [r8, #-480]!	; 0xfffffe20
801046fc:	0000000a 	andeq	r0, r0, sl

80104700 <.LC52>:
80104700:	72207325 	eorvc	r7, r0, #-1811939328	; 0x94000000
80104704:	20646165 	rsbcs	r6, r4, r5, ror #2
80104708:	6f727265 	svcvs	0x00727265
8010470c:	000a0d72 	andeq	r0, sl, r2, ror sp

80104710 <.LC53>:
80104710:	77207325 	strvc	r7, [r0, -r5, lsr #6]!
80104714:	65746972 	ldrbvs	r6, [r4, #-2418]!	; 0xfffff68e
80104718:	72726520 	rsbsvc	r6, r2, #32, 10	; 0x8000000
8010471c:	0a0d726f 	beq	804610e0 <__bss_end+0x358ca8>
80104720:	00000000 	andeq	r0, r0, r0

80104724 <.LC54>:
80104724:	6c696166 	stfvse	f6, [r9], #-408	; 0xfffffe68
80104728:	73206465 			; <UNDEFINED> instruction: 0x73206465
8010472c:	63746977 	cmnvs	r4, #1949696	; 0x1dc000
80104730:	6f742068 	svcvs	0x00742068
80104734:	73756220 	cmnvc	r5, #32, 4
80104738:	64697720 	strbtvs	r7, [r9], #-1824	; 0xfffff8e0
8010473c:	25206874 	strcs	r6, [r0, #-2164]!	; 0xfffff78c
80104740:	000a0d64 	andeq	r0, sl, r4, ror #26

80104744 <.LC55>:
80104744:	6c696166 	stfvse	f6, [r9], #-408	; 0xfffffe68
80104748:	73206465 			; <UNDEFINED> instruction: 0x73206465
8010474c:	63746977 	cmnvs	r4, #1949696	; 0x1dc000
80104750:	75622068 	strbvc	r2, [r2, #-104]!	; 0xffffff98
80104754:	6f6d2073 	svcvs	0x006d2073
80104758:	0a0d6564 	beq	8045dcf0 <__bss_end+0x3558b8>
8010475c:	00000000 	andeq	r0, r0, r0

80104760 <.LC56>:
80104760:	6c696166 	stfvse	f6, [r9], #-408	; 0xfffffe68
80104764:	73206465 			; <UNDEFINED> instruction: 0x73206465
80104768:	63656c65 	cmnvs	r5, #25856	; 0x6500
8010476c:	61702074 	cmnvs	r0, r4, ror r0
80104770:	74697472 	strbtvc	r7, [r9], #-1138	; 0xfffffb8e
80104774:	0d6e6f69 	stcleq	15, cr6, [lr, #-420]!	; 0xfffffe5c
80104778:	0000000a 	andeq	r0, r0, sl

8010477c <.LC57>:
8010477c:	20647363 	rsbcs	r7, r4, r3, ror #6
80104780:	6e617274 	mcrvs	2, 3, r7, cr1, cr4, {3}
80104784:	65707320 	ldrbvs	r7, [r0, #-800]!	; 0xfffffce0
80104788:	69206465 	stmdbvs	r0!, {r0, r2, r5, r6, sl, sp, lr}
8010478c:	78302073 	ldmdavc	r0!, {r0, r1, r4, r5, r6, sp}
80104790:	0a0d7825 	beq	8046282c <__bss_end+0x35a3f4>
80104794:	00000000 	andeq	r0, r0, r0

80104798 <.LC58>:
80104798:	6d6d5f67 	stclvs	15, cr5, [sp, #-412]!	; 0xfffffe64
8010479c:	61635f63 	cmnvs	r3, r3, ror #30
801047a0:	652e6472 	strvs	r6, [lr, #-1138]!	; 0xfffffb8e
801047a4:	6e657478 	mcrvs	4, 3, r7, cr5, cr8, {3}
801047a8:	43646564 	cmnmi	r4, #100, 10	; 0x19000000
801047ac:	732e6473 			; <UNDEFINED> instruction: 0x732e6473
801047b0:	6f746365 	svcvs	0x00746365
801047b4:	756f4372 	strbvc	r4, [pc, #-882]!	; 8010444a <.LC29+0x2>
801047b8:	6920746e 	stmdbvs	r0!, {r1, r2, r3, r5, r6, sl, ip, sp, lr}
801047bc:	64252073 	strtvs	r2, [r5], #-115	; 0xffffff8d
801047c0:	00000a0d 	andeq	r0, r0, sp, lsl #20

801047c4 <.LC59>:
801047c4:	20737562 	rsbscs	r7, r3, r2, ror #10
801047c8:	74646977 	strbtvc	r6, [r4], #-2423	; 0xfffff689
801047cc:	73692068 	cmnvc	r9, #104	; 0x68
801047d0:	0d642520 	cfstr64eq	mvdx2, [r4, #-128]!	; 0xffffff80
801047d4:	0000000a 	andeq	r0, r0, sl

801047d8 <.LC60>:
801047d8:	74696e69 	strbtvc	r6, [r9], #-3689	; 0xfffff197
801047dc:	434d4d20 	movtmi	r4, #56608	; 0xdd20
801047e0:	63757320 	cmnvs	r5, #32, 6	; 0x80000000
801047e4:	66737365 	ldrbtvs	r7, [r3], -r5, ror #6
801047e8:	0a0d6c75 	beq	8045f9c4 <__bss_end+0x35758c>
801047ec:	00000000 	andeq	r0, r0, r0

801047f0 <__func__.9101>:
801047f0:	725f6473 	subsvc	r6, pc, #1929379840	; 0x73000000
801047f4:	5f646165 	svcpl	0x00646165
801047f8:	636f6c62 	cmnvs	pc, #25088	; 0x6200
801047fc:	0000736b 	andeq	r7, r0, fp, ror #6

80104800 <__func__.9115>:
80104800:	775f6473 			; <UNDEFINED> instruction: 0x775f6473
80104804:	65746972 	ldrbvs	r6, [r4, #-2418]!	; 0xfffff68e
80104808:	6f6c625f 	svcvs	0x006c625f
8010480c:	00736b63 	rsbseq	r6, r3, r3, ror #22

Disassembly of section .ARM.exidx:

80104810 <.ARM.exidx>:
80104810:	7ffff50c 	svcvc	0x00fff50c
80104814:	00000001 	andeq	r0, r0, r1

Disassembly of section .data:

80104818 <led_imx_image>:
	...
80104c18:	402000d1 	ldrdmi	r0, [r0], -r1	; <UNPREDICTABLE>
80104c1c:	80100000 	andshi	r0, r0, r0
80104c20:	00000000 	andeq	r0, r0, r0
80104c24:	800ff42c 	andhi	pc, pc, ip, lsr #8
80104c28:	800ff420 	andhi	pc, pc, r0, lsr #8
80104c2c:	800ff400 	andhi	pc, pc, r0, lsl #8
	...
80104c38:	800ff000 	andhi	pc, pc, r0
80104c3c:	00002000 	andeq	r2, r0, r0
80104c40:	00000000 	andeq	r0, r0, r0
80104c44:	40e801d2 	ldrdmi	r0, [r8], #18	; <UNPREDICTABLE>
80104c48:	04e401cc 	strbteq	r0, [r4], #460	; 0x1cc
80104c4c:	68400c02 	stmdavs	r0, {r1, sl, fp}^
80104c50:	ffffffff 			; <UNDEFINED> instruction: 0xffffffff
80104c54:	6c400c02 	mcrrvs	12, 0, r0, r0, cr2
80104c58:	ffffffff 			; <UNDEFINED> instruction: 0xffffffff
80104c5c:	70400c02 	subvc	r0, r0, r2, lsl #24
80104c60:	ffffffff 			; <UNDEFINED> instruction: 0xffffffff
80104c64:	74400c02 	strbvc	r0, [r0], #-3074	; 0xfffff3fe
80104c68:	ffffffff 			; <UNDEFINED> instruction: 0xffffffff
80104c6c:	78400c02 	stmdavc	r0, {r1, sl, fp}^
80104c70:	ffffffff 			; <UNDEFINED> instruction: 0xffffffff
80104c74:	7c400c02 	mcrrvc	12, 0, r0, r0, cr2
80104c78:	ffffffff 			; <UNDEFINED> instruction: 0xffffffff
80104c7c:	80400c02 	subhi	r0, r0, r2, lsl #24
80104c80:	ffffffff 			; <UNDEFINED> instruction: 0xffffffff
80104c84:	b4040e02 	strlt	r0, [r4], #-3586	; 0xfffff1fe
80104c88:	00000c00 	andeq	r0, r0, r0, lsl #24
80104c8c:	ac040e02 	stcge	14, cr0, [r4], {2}
80104c90:	00000000 	andeq	r0, r0, r0
80104c94:	7c020e02 	stcvc	14, cr0, [r2], {2}
80104c98:	30000000 	andcc	r0, r0, r0
80104c9c:	50020e02 	andpl	r0, r2, r2, lsl #28
80104ca0:	30000000 	andcc	r0, r0, r0
80104ca4:	4c020e02 	stcmi	14, cr0, [r2], {2}
80104ca8:	30000000 	andcc	r0, r0, r0
80104cac:	90040e02 	andls	r0, r4, r2, lsl #28
80104cb0:	30000000 	andcc	r0, r0, r0
80104cb4:	88020e02 	stmdahi	r2, {r1, r9, sl, fp}
80104cb8:	30000c00 	andcc	r0, r0, r0, lsl #24
80104cbc:	70020e02 	andvc	r0, r2, r2, lsl #28
80104cc0:	00000000 	andeq	r0, r0, r0
80104cc4:	60020e02 	andvs	r0, r2, r2, lsl #28
80104cc8:	30000000 	andcc	r0, r0, r0
80104ccc:	64020e02 	strvs	r0, [r2], #-3586	; 0xfffff1fe
80104cd0:	30000000 	andcc	r0, r0, r0
80104cd4:	a0040e02 	andge	r0, r4, r2, lsl #28
80104cd8:	30000000 	andcc	r0, r0, r0
80104cdc:	94040e02 	strls	r0, [r4], #-3586	; 0xfffff1fe
80104ce0:	00000200 	andeq	r0, r0, r0, lsl #4
80104ce4:	80020e02 	andhi	r0, r2, r2, lsl #28
80104ce8:	30000000 	andcc	r0, r0, r0
80104cec:	84020e02 	strhi	r0, [r2], #-3586	; 0xfffff1fe
80104cf0:	30000000 	andcc	r0, r0, r0
80104cf4:	b0040e02 	andlt	r0, r4, r2, lsl #28
80104cf8:	00000200 	andeq	r0, r0, r0, lsl #4
80104cfc:	98040e02 	stmdals	r4, {r1, r9, sl, fp}
80104d00:	30000000 	andcc	r0, r0, r0
80104d04:	a4040e02 	strge	r0, [r4], #-3586	; 0xfffff1fe
80104d08:	30000000 	andcc	r0, r0, r0
80104d0c:	44020e02 	strmi	r0, [r2], #-3586	; 0xfffff1fe
80104d10:	30000000 	andcc	r0, r0, r0
80104d14:	48020e02 	stmdami	r2, {r1, r9, sl, fp}
80104d18:	30000000 	andcc	r0, r0, r0
80104d1c:	1c001b02 			; <UNDEFINED> instruction: 0x1c001b02
80104d20:	00800000 	addeq	r0, r0, r0
80104d24:	00081b02 	andeq	r1, r8, r2, lsl #22
80104d28:	030039a1 	movweq	r3, #2465	; 0x9a1
80104d2c:	0c081b02 			; <UNDEFINED> instruction: 0x0c081b02
80104d30:	04000000 	streq	r0, [r0], #-0
80104d34:	3c081b02 			; <UNDEFINED> instruction: 0x3c081b02
80104d38:	58016441 	stmdapl	r1, {r0, r6, sl, sp, lr}
80104d3c:	48081b02 	stmdami	r8, {r1, r8, r9, fp, ip}
80104d40:	37324040 	ldrcc	r4, [r2, -r0, asr #32]!
80104d44:	50081b02 	andpl	r1, r8, r2, lsl #22
80104d48:	333c4040 	teqcc	ip, #64	; 0x40
80104d4c:	1c081b02 			; <UNDEFINED> instruction: 0x1c081b02
80104d50:	33333333 	teqcc	r3, #-872415232	; 0xcc000000
80104d54:	20081b02 	andcs	r1, r8, r2, lsl #22
80104d58:	33333333 	teqcc	r3, #-872415232	; 0xcc000000
80104d5c:	2c081b02 			; <UNDEFINED> instruction: 0x2c081b02
80104d60:	333333f3 	teqcc	r3, #-872415229	; 0xcc000003
80104d64:	30081b02 	andcc	r1, r8, r2, lsl #22
80104d68:	333333f3 	teqcc	r3, #-872415229	; 0xcc000003
80104d6c:	c0081b02 	andgt	r1, r8, r2, lsl #22
80104d70:	09409400 	stmdbeq	r0, {sl, ip, pc}^
80104d74:	b8081b02 	stmdalt	r8, {r1, r8, r9, fp, ip}
80104d78:	00080000 	andeq	r0, r8, r0
80104d7c:	04001b02 	streq	r1, [r0], #-2818	; 0xfffff4fe
80104d80:	2d000200 	sfmcs	f0, 4, [r0, #-0]
80104d84:	08001b02 	stmdaeq	r0, {r1, r8, r9, fp, ip}
80104d88:	3030331b 	eorscc	r3, r0, fp, lsl r3
80104d8c:	0c001b02 			; <UNDEFINED> instruction: 0x0c001b02
80104d90:	f3526b67 	vqrdmulh.s16	q11, q1, <illegal reg q11.5>
80104d94:	10001b02 	andne	r1, r0, r2, lsl #22
80104d98:	630b6db6 	movwvs	r6, #48566	; 0xbdb6
80104d9c:	14001b02 	strne	r1, [r0], #-2818	; 0xfffff4fe
80104da0:	db00ff01 	blle	801449ac <__bss_end+0x3c574>
80104da4:	18001b02 	stmdane	r0, {r1, r8, r9, fp, ip}
80104da8:	40172000 	andsmi	r2, r7, r0
80104dac:	1c001b02 			; <UNDEFINED> instruction: 0x1c001b02
80104db0:	00800000 	addeq	r0, r0, r0
80104db4:	2c001b02 			; <UNDEFINED> instruction: 0x2c001b02
80104db8:	d2260000 	eorle	r0, r6, #0
80104dbc:	30001b02 	andcc	r1, r0, r2, lsl #22
80104dc0:	23106b00 	tstcs	r0, #0, 22
80104dc4:	40001b02 	andmi	r1, r0, r2, lsl #22
80104dc8:	4f000000 	svcmi	0x00000000
80104dcc:	00001b02 	andeq	r1, r0, r2, lsl #22
80104dd0:	00001884 	andeq	r1, r0, r4, lsl #17
80104dd4:	90081b02 	andls	r1, r8, r2, lsl #22
80104dd8:	00004000 	andeq	r4, r0, r0
80104ddc:	1c001b02 			; <UNDEFINED> instruction: 0x1c001b02
80104de0:	32800002 	addcc	r0, r0, #2
80104de4:	1c001b02 			; <UNDEFINED> instruction: 0x1c001b02
80104de8:	33800000 	orrcc	r0, r0, #0
80104dec:	1c001b02 			; <UNDEFINED> instruction: 0x1c001b02
80104df0:	31800400 	orrcc	r0, r0, r0, lsl #8
80104df4:	1c001b02 			; <UNDEFINED> instruction: 0x1c001b02
80104df8:	30802015 	addcc	r2, r0, r5, lsl r0
80104dfc:	1c001b02 			; <UNDEFINED> instruction: 0x1c001b02
80104e00:	40800004 	addmi	r0, r0, r4
80104e04:	20001b02 	andcs	r1, r0, r2, lsl #22
80104e08:	00080000 	andeq	r0, r8, r0
80104e0c:	18081b02 	stmdane	r8, {r1, r8, r9, fp, ip}
80104e10:	27020000 	strcs	r0, [r2, -r0]
80104e14:	04001b02 	streq	r1, [r0], #-2818	; 0xfffff4fe
80104e18:	2d550200 	lfmcs	f0, 2, [r5, #-0]
80104e1c:	04041b02 	streq	r1, [r4], #-2818	; 0xfffff4fe
80104e20:	06100100 	ldreq	r0, [r0], -r0, lsl #2
80104e24:	1c001b02 			; <UNDEFINED> instruction: 0x1c001b02
	...
80105818:	e59fd028 	ldr	sp, [pc, #40]	; 80105848 <led_imx_image+0x1030>
8010581c:	eb000001 	bl	80105828 <led_imx_image+0x1010>
80105820:	fa000057 	blx	80105984 <led_imx_image+0x116c>
80105824:	eafffffe 	b	80105824 <led_imx_image+0x100c>
80105828:	e59f101c 	ldr	r1, [pc, #28]	; 8010584c <led_imx_image+0x1034>
8010582c:	e59f201c 	ldr	r2, [pc, #28]	; 80105850 <led_imx_image+0x1038>
80105830:	e3a03000 	mov	r3, #0
80105834:	e5813000 	str	r3, [r1]
80105838:	e2811004 	add	r1, r1, #4
8010583c:	e1510002 	cmp	r1, r2
80105840:	1afffffb 	bne	80105834 <led_imx_image+0x101c>
80105844:	e1a0f00e 	mov	pc, lr
80105848:	80200000 	eorhi	r0, r0, r0
8010584c:	8010019c 	mulshi	r0, ip, r1
80105850:	801001ac 	andshi	r0, r0, ip, lsr #3
80105854:	b083b480 	addlt	fp, r3, r0, lsl #9
80105858:	f240af00 	vmax.f32	d26, d0, d0
8010585c:	f2c8129c 	vrshr.s64	d17, d12, #56
80105860:	f2440210 	vqsub.s8	d16, d4, d0
80105864:	f2c0036c 	vqdmlal.s<illegal width 8>	q8, d0, d0[7]
80105868:	6013230c 	andsvs	r2, r3, ip, lsl #6
8010586c:	12a0f240 	adcne	pc, r0, #64, 4
80105870:	0210f2c8 	andseq	pc, r0, #200, 4	; 0x8000000c
80105874:	f2c02314 	vorr.i32	d18, #1024	; 0x00000400
80105878:	60132329 	andsvs	r2, r3, r9, lsr #6
8010587c:	12a4f240 	adcne	pc, r4, #64, 4
80105880:	0210f2c8 	andseq	pc, r0, #200, 4	; 0x8000000c
80105884:	0304f24c 	movweq	pc, #16972	; 0x424c	; <UNPREDICTABLE>
80105888:	230af2c0 	movwcs	pc, #41664	; 0xa2c0	; <UNPREDICTABLE>
8010588c:	f2406013 	vqadd.s8	d22, d0, d3
80105890:	f2c812a8 	vsubl.s8	<illegal reg q8.5>, d24, d24
80105894:	f44f0210 	vst1.8	{d16-d19}, [pc :64], r0
80105898:	f2c04340 	vqdmlal.s<illegal width 8>	q10, d0, d0[0]
8010589c:	6013230a 	andsvs	r2, r3, sl, lsl #6
801058a0:	139cf240 	orrsne	pc, ip, #64, 4
801058a4:	0310f2c8 	tsteq	r0, #200, 4	; 0x8000000c	; <UNPREDICTABLE>
801058a8:	f240681a 	vtst.8	d22, d0, d10
801058ac:	f2c8139c 	vrsra.s64	d17, d12, #56
801058b0:	681b0310 	ldmdavs	fp, {r4, r8, r9}
801058b4:	f043681b 			; <UNDEFINED> instruction: 0xf043681b
801058b8:	60134340 	andsvs	r4, r3, r0, asr #6
801058bc:	13a0f240 	movne	pc, #64, 4
801058c0:	0310f2c8 	tsteq	r0, #200, 4	; 0x8000000c	; <UNPREDICTABLE>
801058c4:	681b681b 	ldmdavs	fp, {r0, r1, r3, r4, fp, sp, lr}
801058c8:	687b607b 	ldmdavs	fp!, {r0, r1, r3, r4, r5, r6, sp, lr}^
801058cc:	030ff023 	movweq	pc, #61475	; 0xf023	; <UNPREDICTABLE>
801058d0:	687b607b 	ldmdavs	fp!, {r0, r1, r3, r4, r5, r6, sp, lr}^
801058d4:	0305f043 	movweq	pc, #20547	; 0x5043	; <UNPREDICTABLE>
801058d8:	f240607b 	vqadd.s8	q11, q0, <illegal reg q13.5>
801058dc:	f2c813a0 	vsubw.s8	<illegal reg q8.5>, q12, d16
801058e0:	681b0310 	ldmdavs	fp, {r4, r8, r9}
801058e4:	601a687a 	andsvs	r6, sl, sl, ror r8
801058e8:	13a4f240 			; <UNDEFINED> instruction: 0x13a4f240
801058ec:	0310f2c8 	tsteq	r0, #200, 4	; 0x8000000c	; <UNPREDICTABLE>
801058f0:	f240681a 	vtst.8	d22, d0, d10
801058f4:	f2c813a4 	vsubw.s8	<illegal reg q8.5>, q12, d20
801058f8:	681b0310 	ldmdavs	fp, {r4, r8, r9}
801058fc:	f043681b 			; <UNDEFINED> instruction: 0xf043681b
80105900:	60130308 	andsvs	r0, r3, r8, lsl #6
80105904:	370cbf00 	strcc	fp, [ip, -r0, lsl #30]
80105908:	f85d46bd 			; <UNDEFINED> instruction: 0xf85d46bd
8010590c:	47707b04 	ldrbmi	r7, [r0, -r4, lsl #22]!
80105910:	b083b480 	addlt	fp, r3, r0, lsl #9
80105914:	6078af00 	rsbsvs	sl, r8, r0, lsl #30
80105918:	2b00687b 	blcs	8011fb0c <__bss_end+0x176d4>
8010591c:	f240d00e 	vhadd.s8	d29, d0, d14
80105920:	f2c813a8 	vsubw.s8	<illegal reg q8.5>, q12, d24
80105924:	681a0310 	ldmdavs	sl, {r4, r8, r9}
80105928:	13a8f240 			; <UNDEFINED> instruction: 0x13a8f240
8010592c:	0310f2c8 	tsteq	r0, #200, 4	; 0x8000000c	; <UNPREDICTABLE>
80105930:	681b681b 	ldmdavs	fp, {r0, r1, r3, r4, fp, sp, lr}
80105934:	0308f023 	movweq	pc, #32803	; 0x8023	; <UNPREDICTABLE>
80105938:	e00d6013 	and	r6, sp, r3, lsl r0
8010593c:	13a8f240 			; <UNDEFINED> instruction: 0x13a8f240
80105940:	0310f2c8 	tsteq	r0, #200, 4	; 0x8000000c	; <UNPREDICTABLE>
80105944:	f240681a 	vtst.8	d22, d0, d10
80105948:	f2c813a8 	vsubw.s8	<illegal reg q8.5>, q12, d24
8010594c:	681b0310 	ldmdavs	fp, {r4, r8, r9}
80105950:	f043681b 			; <UNDEFINED> instruction: 0xf043681b
80105954:	60130308 	andsvs	r0, r3, r8, lsl #6
80105958:	370cbf00 	strcc	fp, [ip, -r0, lsl #30]
8010595c:	f85d46bd 			; <UNDEFINED> instruction: 0xf85d46bd
80105960:	47707b04 	ldrbmi	r7, [r0, -r4, lsl #22]!
80105964:	b083b480 	addlt	fp, r3, r0, lsl #9
80105968:	6078af00 	rsbsvs	sl, r8, r0, lsl #30
8010596c:	687bbf00 	ldmdavs	fp!, {r8, r9, sl, fp, ip, sp, pc}^
80105970:	607a1e5a 	rsbsvs	r1, sl, sl, asr lr
80105974:	d1fa2b00 	mvnsle	r2, r0, lsl #22
80105978:	370cbf00 	strcc	fp, [ip, -r0, lsl #30]
8010597c:	f85d46bd 			; <UNDEFINED> instruction: 0xf85d46bd
80105980:	47707b04 	ldrbmi	r7, [r0, -r4, lsl #22]!
80105984:	af00b580 	svcge	0x0000b580
80105988:	ff64f7ff 			; <UNDEFINED> instruction: 0xff64f7ff
8010598c:	f7ff2001 			; <UNDEFINED> instruction: 0xf7ff2001
80105990:	f244ffbf 	vrecps.f32	d31, d20, d31
80105994:	f2c02040 	vmla.i<illegal width 8>	d18, d0, d0[0]
80105998:	f7ff000f 			; <UNDEFINED> instruction: 0xf7ff000f
8010599c:	2000ffe3 	andcs	pc, r0, r3, ror #31
801059a0:	ffb6f7ff 			; <UNDEFINED> instruction: 0xffb6f7ff
801059a4:	2040f244 	subcs	pc, r0, r4, asr #4
801059a8:	000ff2c0 	andeq	pc, pc, r0, asr #5
801059ac:	ffdaf7ff 			; <UNDEFINED> instruction: 0xffdaf7ff
801059b0:	0000e7ec 	andeq	lr, r0, ip, ror #15
	...

80106818 <hex_tab>:
80106818:	33323130 	teqcc	r2, #48, 2
8010681c:	37363534 			; <UNDEFINED> instruction: 0x37363534
80106820:	62613938 	rsbvs	r3, r1, #56, 18	; 0xe0000
80106824:	66656463 	strbtvs	r6, [r5], -r3, ror #8

Disassembly of section .bss:

80106c00 <sd_read_buf>:
	...

80107c00 <sd_align_buf>:
	...

80108000 <g_mmc_card>:
	...

80108358 <g_sd_card>:
	...

801083f8 <g_adma2_tablbe>:
	...

Disassembly of section .ARM.attributes:

00000000 <.ARM.attributes>:
   0:	00002e41 	andeq	r2, r0, r1, asr #28
   4:	61656100 	cmnvs	r5, r0, lsl #2
   8:	01006962 	tsteq	r0, r2, ror #18
   c:	00000024 	andeq	r0, r0, r4, lsr #32
  10:	412d3705 			; <UNDEFINED> instruction: 0x412d3705
  14:	070a0600 	streq	r0, [sl, -r0, lsl #12]
  18:	09010841 	stmdbeq	r1, {r0, r6, fp}
  1c:	12040a02 	andne	r0, r4, #8192	; 0x2000
  20:	15011404 	strne	r1, [r1, #-1028]	; 0xfffffbfc
  24:	18031701 	stmdane	r3, {r0, r8, r9, sl, ip}
  28:	1c021a01 			; <UNDEFINED> instruction: 0x1c021a01
  2c:	Address 0x000000000000002c is out of bounds.


Disassembly of section .comment:

00000000 <.comment>:
   0:	3a434347 	bcc	10d0d24 <shift+0x10d0d24>
   4:	694c2820 	stmdbvs	ip, {r5, fp, sp}^
   8:	6f72616e 	svcvs	0x0072616e
   c:	43434720 	movtmi	r4, #14112	; 0x3720
  10:	322e3620 	eorcc	r3, lr, #32, 12	; 0x2000000
  14:	3130322d 	teqcc	r0, sp, lsr #4
  18:	31312e36 	teqcc	r1, r6, lsr lr
  1c:	2e362029 	cdpcs	0, 3, cr2, cr6, cr9, {1}
  20:	20312e32 	eorscs	r2, r1, r2, lsr lr
  24:	36313032 			; <UNDEFINED> instruction: 0x36313032
  28:	36313031 			; <UNDEFINED> instruction: 0x36313031
	...

Disassembly of section .debug_frame:

00000000 <.debug_frame>:
   0:	0000000c 	andeq	r0, r0, ip
   4:	ffffffff 			; <UNDEFINED> instruction: 0xffffffff
   8:	7c010001 	stcvc	0, cr0, [r1], {1}
   c:	000d0c0e 	andeq	r0, sp, lr, lsl #24
  10:	0000000c 	andeq	r0, r0, ip
  14:	00000000 	andeq	r0, r0, r0
  18:	80103a69 	andshi	r3, r0, r9, ror #20
  1c:	0000025c 	andeq	r0, r0, ip, asr r2
  20:	0000000c 	andeq	r0, r0, ip
  24:	ffffffff 			; <UNDEFINED> instruction: 0xffffffff
  28:	7c020001 	stcvc	0, cr0, [r2], {1}
  2c:	000d0c0e 	andeq	r0, sp, lr, lsl #24
  30:	00000018 	andeq	r0, r0, r8, lsl r0
  34:	00000020 	andeq	r0, r0, r0, lsr #32
  38:	80103ce0 	andshi	r3, r0, r0, ror #25
  3c:	00000030 	andeq	r0, r0, r0, lsr r0
  40:	8e100e50 	mrchi	14, 0, r0, cr0, cr0, {2}
  44:	0ece4703 	cdpeq	7, 12, cr4, cr14, cr3, {0}
  48:	00000010 	andeq	r0, r0, r0, lsl r0
  4c:	0000000c 	andeq	r0, r0, ip
  50:	ffffffff 			; <UNDEFINED> instruction: 0xffffffff
  54:	7c010001 	stcvc	0, cr0, [r1], {1}
  58:	000d0c0e 	andeq	r0, sp, lr, lsl #24
  5c:	00000014 	andeq	r0, r0, r4, lsl r0
  60:	0000004c 	andeq	r0, r0, ip, asr #32
  64:	80103d11 	andshi	r3, r0, r1, lsl sp
  68:	0000000c 	andeq	r0, r0, ip
  6c:	0e018e42 	cdpeq	14, 0, cr8, cr1, cr2, {2}
  70:	00000008 	andeq	r0, r0, r8
  74:	0000000c 	andeq	r0, r0, ip
  78:	ffffffff 			; <UNDEFINED> instruction: 0xffffffff
  7c:	7c020001 	stcvc	0, cr0, [r2], {1}
  80:	000d0c0e 	andeq	r0, sp, lr, lsl #24
  84:	00000020 	andeq	r0, r0, r0, lsr #32
  88:	00000074 	andeq	r0, r0, r4, ror r0
  8c:	80103d1c 	andshi	r3, r0, ip, lsl sp
  90:	00000116 	andeq	r0, r0, r6, lsl r1
  94:	84200e43 	strthi	r0, [r0], #-3651	; 0xfffff1bd
  98:	86078508 	strhi	r8, [r7], -r8, lsl #10
  9c:	88058706 	stmdahi	r5, {r1, r2, r8, r9, sl, pc}
  a0:	8a038904 	bhi	e24b8 <shift+0xe24b8>
  a4:	00018e02 	andeq	r8, r1, r2, lsl #28

Disassembly of section .debug_line:

00000000 <.debug_line>:
   0:	000000fc 	strdeq	r0, [r0], -ip
   4:	00c70002 	sbceq	r0, r7, r2
   8:	01020000 	mrseq	r0, (UNDEF: 2)
   c:	000d0efb 	strdeq	r0, [sp], -fp
  10:	01010101 	tsteq	r1, r1, lsl #2
  14:	01000000 	mrseq	r0, (UNDEF: 0)
  18:	2f010000 	svccs	0x00010000
  1c:	656d6f68 	strbvs	r6, [sp, #-3944]!	; 0xfffff098
  20:	7763742f 	strbvc	r7, [r3, -pc, lsr #8]!
  24:	75622d67 	strbvc	r2, [r2, #-3431]!	; 0xfffff299
  28:	73646c69 	cmnvc	r4, #26880	; 0x6900
  2c:	6576616c 	ldrbvs	r6, [r6, #-364]!	; 0xfffffe94
  30:	726f772f 	rsbvc	r7, pc, #12320768	; 0xbc0000
  34:	6170736b 	cmnvs	r0, fp, ror #6
  38:	742f6563 	strtvc	r6, [pc], #-1379	; 40 <shift+0x40>
  3c:	2d677763 	stclcs	7, cr7, [r7, #-396]!	; 0xfffffe74
  40:	656b616d 	strbvs	r6, [fp, #-365]!	; 0xfffffe93
  44:	6c65722d 	sfmvs	f7, 2, [r5], #-180	; 0xffffff4c
  48:	65736165 	ldrbvs	r6, [r3, #-357]!	; 0xfffffe9b
  4c:	62616c2f 	rsbvs	r6, r1, #12032	; 0x2f00
  50:	642f6c65 	strtvs	r6, [pc], #-3173	; 58 <shift+0x58>
  54:	656b636f 	strbvs	r6, [fp, #-879]!	; 0xfffffc91
  58:	72742d72 	rsbsvc	r2, r4, #7296	; 0x1c80
  5c:	79747375 	ldmdbvc	r4!, {r0, r2, r4, r5, r6, r8, r9, ip, sp, lr}^
  60:	646d612d 	strbtvs	r6, [sp], #-301	; 0xfffffed3
  64:	742d3436 	strtvc	r3, [sp], #-1078	; 0xfffffbca
  68:	2d677763 	stclcs	7, cr7, [r7, #-396]!	; 0xfffffe74
  6c:	6c697562 	cfstr64vs	mvdx7, [r9], #-392	; 0xfffffe78
  70:	61742f64 	cmnvs	r4, r4, ror #30
  74:	74656772 	strbtvc	r6, [r5], #-1906	; 0xfffff88e
  78:	6d72612f 	ldfvse	f6, [r2, #-188]!	; 0xffffff44
  7c:	6e696c2d 	cdpvs	12, 6, cr6, cr9, cr13, {1}
  80:	672d7875 			; <UNDEFINED> instruction: 0x672d7875
  84:	6165756e 	cmnvs	r5, lr, ror #10
  88:	66686962 	strbtvs	r6, [r8], -r2, ror #18
  8c:	616e732f 	cmnvs	lr, pc, lsr #6
  90:	6f687370 	svcvs	0x00687370
  94:	672f7374 			; <UNDEFINED> instruction: 0x672f7374
  98:	6c2d6363 	stcvs	3, cr6, [sp], #-396	; 0xfffffe74
  9c:	72616e69 	rsbvc	r6, r1, #1680	; 0x690
  a0:	2e362d6f 	cdpcs	13, 3, cr2, cr6, cr15, {3}
  a4:	30322d32 	eorscc	r2, r2, r2, lsr sp
  a8:	312e3631 			; <UNDEFINED> instruction: 0x312e3631
  ac:	696c2f31 	stmdbvs	ip!, {r0, r4, r5, r8, r9, sl, fp, sp}^
  b0:	63636762 	cmnvs	r3, #25690112	; 0x1880000
  b4:	6e6f632f 	cdpvs	3, 6, cr6, cr15, cr15, {1}
  b8:	2f676966 	svccs	0x00676966
  bc:	006d7261 	rsbeq	r7, sp, r1, ror #4
  c0:	62696c00 	rsbvs	r6, r9, #0, 24
  c4:	6e756631 	mrcvs	6, 3, r6, cr5, cr1, {1}
  c8:	532e7363 			; <UNDEFINED> instruction: 0x532e7363
  cc:	00000100 	andeq	r0, r0, r0, lsl #2
  d0:	02050000 	andeq	r0, r5, #0
  d4:	80103a68 	andshi	r3, r0, r8, ror #20
  d8:	0107e603 	tsteq	r7, r3, lsl #12
  dc:	2f212121 	svccs	0x00212121
  e0:	30212f21 	eorcc	r2, r1, r1, lsr #30
  e4:	14029102 	strne	r9, [r2], #-258	; 0xfffffefe
  e8:	21212221 			; <UNDEFINED> instruction: 0x21212221
  ec:	2f4c2221 	svccs	0x004c2221
  f0:	58160324 	ldmdapl	r6, {r2, r5, r8, r9}
  f4:	2f2f2121 	svccs	0x002f2121
  f8:	022f2f2f 	eoreq	r2, pc, #47, 30	; 0xbc
  fc:	01010001 	tsteq	r1, r1
 100:	000000dd 	ldrdeq	r0, [r0], -sp
 104:	00c30002 	sbceq	r0, r3, r2
 108:	01020000 	mrseq	r0, (UNDEF: 2)
 10c:	000d0efb 	strdeq	r0, [sp], -fp
 110:	01010101 	tsteq	r1, r1, lsl #2
 114:	01000000 	mrseq	r0, (UNDEF: 0)
 118:	2f010000 	svccs	0x00010000
 11c:	656d6f68 	strbvs	r6, [sp, #-3944]!	; 0xfffff098
 120:	7763742f 	strbvc	r7, [r3, -pc, lsr #8]!
 124:	75622d67 	strbvc	r2, [r2, #-3431]!	; 0xfffff299
 128:	73646c69 	cmnvc	r4, #26880	; 0x6900
 12c:	6576616c 	ldrbvs	r6, [r6, #-364]!	; 0xfffffe94
 130:	726f772f 	rsbvc	r7, pc, #12320768	; 0xbc0000
 134:	6170736b 	cmnvs	r0, fp, ror #6
 138:	742f6563 	strtvc	r6, [pc], #-1379	; 140 <shift+0x140>
 13c:	2d677763 	stclcs	7, cr7, [r7, #-396]!	; 0xfffffe74
 140:	656b616d 	strbvs	r6, [fp, #-365]!	; 0xfffffe93
 144:	6c65722d 	sfmvs	f7, 2, [r5], #-180	; 0xffffff4c
 148:	65736165 	ldrbvs	r6, [r3, #-357]!	; 0xfffffe9b
 14c:	62616c2f 	rsbvs	r6, r1, #12032	; 0x2f00
 150:	642f6c65 	strtvs	r6, [pc], #-3173	; 158 <shift+0x158>
 154:	656b636f 	strbvs	r6, [fp, #-879]!	; 0xfffffc91
 158:	72742d72 	rsbsvc	r2, r4, #7296	; 0x1c80
 15c:	79747375 	ldmdbvc	r4!, {r0, r2, r4, r5, r6, r8, r9, ip, sp, lr}^
 160:	646d612d 	strbtvs	r6, [sp], #-301	; 0xfffffed3
 164:	742d3436 	strtvc	r3, [sp], #-1078	; 0xfffffbca
 168:	2d677763 	stclcs	7, cr7, [r7, #-396]!	; 0xfffffe74
 16c:	6c697562 	cfstr64vs	mvdx7, [r9], #-392	; 0xfffffe78
 170:	61742f64 	cmnvs	r4, r4, ror #30
 174:	74656772 	strbtvc	r6, [r5], #-1906	; 0xfffff88e
 178:	6d72612f 	ldfvse	f6, [r2, #-188]!	; 0xffffff44
 17c:	6e696c2d 	cdpvs	12, 6, cr6, cr9, cr13, {1}
 180:	672d7875 			; <UNDEFINED> instruction: 0x672d7875
 184:	6165756e 	cmnvs	r5, lr, ror #10
 188:	66686962 	strbtvs	r6, [r8], -r2, ror #18
 18c:	616e732f 	cmnvs	lr, pc, lsr #6
 190:	6f687370 	svcvs	0x00687370
 194:	672f7374 			; <UNDEFINED> instruction: 0x672f7374
 198:	6c2d6363 	stcvs	3, cr6, [sp], #-396	; 0xfffffe74
 19c:	72616e69 	rsbvc	r6, r1, #1680	; 0x690
 1a0:	2e362d6f 	cdpcs	13, 3, cr2, cr6, cr15, {3}
 1a4:	30322d32 	eorscc	r2, r2, r2, lsr sp
 1a8:	312e3631 			; <UNDEFINED> instruction: 0x312e3631
 1ac:	696c2f31 	stmdbvs	ip!, {r0, r4, r5, r8, r9, sl, fp, sp}^
 1b0:	63636762 	cmnvs	r3, #25690112	; 0x1880000
 1b4:	6e6f632f 	cdpvs	3, 6, cr6, cr15, cr15, {1}
 1b8:	2f676966 	svccs	0x00676966
 1bc:	006d7261 	rsbeq	r7, sp, r1, ror #4
 1c0:	61706200 	cmnvs	r0, r0, lsl #4
 1c4:	532e6962 			; <UNDEFINED> instruction: 0x532e6962
 1c8:	00000100 	andeq	r0, r0, r0, lsl #2
 1cc:	02050000 	andeq	r0, r5, #0
 1d0:	80103ce0 	andshi	r3, r0, r0, ror #25
 1d4:	0101fd03 	tsteq	r1, r3, lsl #26	; <UNPREDICTABLE>
 1d8:	592f4cbc 	stmdbpl	pc!, {r2, r3, r4, r5, r7, sl, fp, lr}	; <UNPREDICTABLE>
 1dc:	01000102 	tsteq	r0, r2, lsl #2
 1e0:	0000e201 	andeq	lr, r0, r1, lsl #4
 1e4:	c7000200 	strgt	r0, [r0, -r0, lsl #4]
 1e8:	02000000 	andeq	r0, r0, #0
 1ec:	0d0efb01 	vstreq	d15, [lr, #-4]
 1f0:	01010100 	mrseq	r0, (UNDEF: 17)
 1f4:	00000001 	andeq	r0, r0, r1
 1f8:	01000001 	tsteq	r0, r1
 1fc:	6d6f682f 	stclvs	8, cr6, [pc, #-188]!	; 148 <shift+0x148>
 200:	63742f65 	cmnvs	r4, #404	; 0x194
 204:	622d6777 	eorvs	r6, sp, #31195136	; 0x1dc0000
 208:	646c6975 	strbtvs	r6, [ip], #-2421	; 0xfffff68b
 20c:	76616c73 			; <UNDEFINED> instruction: 0x76616c73
 210:	6f772f65 	svcvs	0x00772f65
 214:	70736b72 	rsbsvc	r6, r3, r2, ror fp
 218:	2f656361 	svccs	0x00656361
 21c:	67776374 			; <UNDEFINED> instruction: 0x67776374
 220:	6b616d2d 	blvs	185b6dc <shift+0x185b6dc>
 224:	65722d65 	ldrbvs	r2, [r2, #-3429]!	; 0xfffff29b
 228:	7361656c 	cmnvc	r1, #108, 10	; 0x1b000000
 22c:	616c2f65 	cmnvs	ip, r5, ror #30
 230:	2f6c6562 	svccs	0x006c6562
 234:	6b636f64 	blvs	18dbfcc <shift+0x18dbfcc>
 238:	742d7265 	strtvc	r7, [sp], #-613	; 0xfffffd9b
 23c:	74737572 	ldrbtvc	r7, [r3], #-1394	; 0xfffffa8e
 240:	6d612d79 	stclvs	13, cr2, [r1, #-484]!	; 0xfffffe1c
 244:	2d343664 	ldccs	6, cr3, [r4, #-400]!	; 0xfffffe70
 248:	67776374 			; <UNDEFINED> instruction: 0x67776374
 24c:	6975622d 	ldmdbvs	r5!, {r0, r2, r3, r5, r9, sp, lr}^
 250:	742f646c 	strtvc	r6, [pc], #-1132	; 258 <shift+0x258>
 254:	65677261 	strbvs	r7, [r7, #-609]!	; 0xfffffd9f
 258:	72612f74 	rsbvc	r2, r1, #116, 30	; 0x1d0
 25c:	696c2d6d 	stmdbvs	ip!, {r0, r2, r3, r5, r6, r8, sl, fp, sp}^
 260:	2d78756e 	cfldr64cs	mvdx7, [r8, #-440]!	; 0xfffffe48
 264:	65756e67 	ldrbvs	r6, [r5, #-3687]!	; 0xfffff199
 268:	68696261 	stmdavs	r9!, {r0, r5, r6, r9, sp, lr}^
 26c:	6e732f66 	cdpvs	15, 7, cr2, cr3, cr6, {3}
 270:	68737061 	ldmdavs	r3!, {r0, r5, r6, ip, sp, lr}^
 274:	2f73746f 	svccs	0x0073746f
 278:	2d636367 	stclcs	3, cr6, [r3, #-412]!	; 0xfffffe64
 27c:	616e696c 	cmnvs	lr, ip, ror #18
 280:	362d6f72 	qsub16cc	r6, sp, r2
 284:	322d322e 	eorcc	r3, sp, #-536870910	; 0xe0000002
 288:	2e363130 	mrccs	1, 1, r3, cr6, cr0, {1}
 28c:	6c2f3131 	stfvss	f3, [pc], #-196	; 1d0 <shift+0x1d0>
 290:	63676269 	cmnvs	r7, #-1879048186	; 0x90000006
 294:	6f632f63 	svcvs	0x00632f63
 298:	6769666e 	strbvs	r6, [r9, -lr, ror #12]!
 29c:	6d72612f 	ldfvse	f6, [r2, #-188]!	; 0xffffff44
 2a0:	696c0000 	stmdbvs	ip!, {}^	; <UNPREDICTABLE>
 2a4:	75663162 	strbvc	r3, [r6, #-354]!	; 0xfffffe9e
 2a8:	2e73636e 	cdpcs	3, 7, cr6, cr3, cr14, {3}
 2ac:	00010053 	andeq	r0, r1, r3, asr r0
 2b0:	05000000 	streq	r0, [r0, #-0]
 2b4:	103d1002 	eorsne	r1, sp, r2
 2b8:	0ac40380 	beq	ff1010c0 <__bss_end+0x7eff8c88>
 2bc:	20090301 	andcs	r0, r9, r1, lsl #6
 2c0:	01022f2f 	tsteq	r2, pc, lsr #30
 2c4:	37010100 	strcc	r0, [r1, -r0, lsl #2]
 2c8:	02000005 	andeq	r0, r0, #5
 2cc:	0004e700 	andeq	lr, r4, r0, lsl #14
 2d0:	fb010200 	blx	40ada <shift+0x40ada>
 2d4:	01000d0e 	tsteq	r0, lr, lsl #26
 2d8:	00010101 	andeq	r0, r1, r1, lsl #2
 2dc:	00010000 	andeq	r0, r1, r0
 2e0:	682f0100 	stmdavs	pc!, {r8}	; <UNPREDICTABLE>
 2e4:	2f656d6f 	svccs	0x00656d6f
 2e8:	67776374 			; <UNDEFINED> instruction: 0x67776374
 2ec:	6975622d 	ldmdbvs	r5!, {r0, r2, r3, r5, r9, sp, lr}^
 2f0:	6c73646c 	cfldrdvs	mvd6, [r3], #-432	; 0xfffffe50
 2f4:	2f657661 	svccs	0x00657661
 2f8:	6b726f77 	blvs	1c9c0dc <shift+0x1c9c0dc>
 2fc:	63617073 	cmnvs	r1, #115	; 0x73
 300:	63742f65 	cmnvs	r4, #404	; 0x194
 304:	6d2d6777 	stcvs	7, cr6, [sp, #-476]!	; 0xfffffe24
 308:	2d656b61 	fstmdbxcs	r5!, {d22-d69}	;@ Deprecated
 30c:	656c6572 	strbvs	r6, [ip, #-1394]!	; 0xfffffa8e
 310:	2f657361 	svccs	0x00657361
 314:	6562616c 	strbvs	r6, [r2, #-364]!	; 0xfffffe94
 318:	6f642f6c 	svcvs	0x00642f6c
 31c:	72656b63 	rsbvc	r6, r5, #101376	; 0x18c00
 320:	7572742d 	ldrbvc	r7, [r2, #-1069]!	; 0xfffffbd3
 324:	2d797473 	cfldrdcs	mvd7, [r9, #-460]!	; 0xfffffe34
 328:	36646d61 	strbtcc	r6, [r4], -r1, ror #26
 32c:	63742d34 	cmnvs	r4, #52, 26	; 0xd00
 330:	622d6777 	eorvs	r6, sp, #31195136	; 0x1dc0000
 334:	646c6975 	strbtvs	r6, [ip], #-2421	; 0xfffff68b
 338:	7261742f 	rsbvc	r7, r1, #788529152	; 0x2f000000
 33c:	2f746567 	svccs	0x00746567
 340:	2d6d7261 	sfmcs	f7, 2, [sp, #-388]!	; 0xfffffe7c
 344:	756e696c 	strbvc	r6, [lr, #-2412]!	; 0xfffff694
 348:	6e672d78 	mcrvs	13, 3, r2, cr7, cr8, {3}
 34c:	62616575 	rsbvs	r6, r1, #490733568	; 0x1d400000
 350:	2f666869 	svccs	0x00666869
 354:	70616e73 	rsbvc	r6, r1, r3, ror lr
 358:	746f6873 	strbtvc	r6, [pc], #-2163	; 360 <shift+0x360>
 35c:	63672f73 	cmnvs	r7, #460	; 0x1cc
 360:	696c2d63 	stmdbvs	ip!, {r0, r1, r5, r6, r8, sl, fp, sp}^
 364:	6f72616e 	svcvs	0x0072616e
 368:	322e362d 	eorcc	r3, lr, #47185920	; 0x2d00000
 36c:	3130322d 	teqcc	r0, sp, lsr #4
 370:	31312e36 	teqcc	r1, r6, lsr lr
 374:	62696c2f 	rsbvs	r6, r9, #12032	; 0x2f00
 378:	00636367 	rsbeq	r6, r3, r7, ror #6
 37c:	6d6f682f 	stclvs	8, cr6, [pc, #-188]!	; 2c8 <shift+0x2c8>
 380:	63742f65 	cmnvs	r4, #404	; 0x194
 384:	622d6777 	eorvs	r6, sp, #31195136	; 0x1dc0000
 388:	646c6975 	strbtvs	r6, [ip], #-2421	; 0xfffff68b
 38c:	76616c73 			; <UNDEFINED> instruction: 0x76616c73
 390:	6f772f65 	svcvs	0x00772f65
 394:	70736b72 	rsbsvc	r6, r3, r2, ror fp
 398:	2f656361 	svccs	0x00656361
 39c:	67776374 			; <UNDEFINED> instruction: 0x67776374
 3a0:	6b616d2d 	blvs	185b85c <shift+0x185b85c>
 3a4:	65722d65 	ldrbvs	r2, [r2, #-3429]!	; 0xfffff29b
 3a8:	7361656c 	cmnvc	r1, #108, 10	; 0x1b000000
 3ac:	616c2f65 	cmnvs	ip, r5, ror #30
 3b0:	2f6c6562 	svccs	0x006c6562
 3b4:	6b636f64 	blvs	18dc14c <shift+0x18dc14c>
 3b8:	742d7265 	strtvc	r7, [sp], #-613	; 0xfffffd9b
 3bc:	74737572 	ldrbtvc	r7, [r3], #-1394	; 0xfffffa8e
 3c0:	6d612d79 	stclvs	13, cr2, [r1, #-484]!	; 0xfffffe1c
 3c4:	2d343664 	ldccs	6, cr3, [r4, #-400]!	; 0xfffffe70
 3c8:	67776374 			; <UNDEFINED> instruction: 0x67776374
 3cc:	6975622d 	ldmdbvs	r5!, {r0, r2, r3, r5, r9, sp, lr}^
 3d0:	742f646c 	strtvc	r6, [pc], #-1132	; 3d8 <shift+0x3d8>
 3d4:	65677261 	strbvs	r7, [r7, #-609]!	; 0xfffffd9f
 3d8:	72612f74 	rsbvc	r2, r1, #116, 30	; 0x1d0
 3dc:	696c2d6d 	stmdbvs	ip!, {r0, r2, r3, r5, r6, r8, sl, fp, sp}^
 3e0:	2d78756e 	cfldr64cs	mvdx7, [r8, #-440]!	; 0xfffffe48
 3e4:	65756e67 	ldrbvs	r6, [r5, #-3687]!	; 0xfffff199
 3e8:	68696261 	stmdavs	r9!, {r0, r5, r6, r9, sp, lr}^
 3ec:	625f2f66 	subsvs	r2, pc, #408	; 0x198
 3f0:	646c6975 	strbtvs	r6, [ip], #-2421	; 0xfffff68b
 3f4:	6975622f 	ldmdbvs	r5!, {r0, r1, r2, r3, r5, r9, sp, lr}^
 3f8:	2f73646c 	svccs	0x0073646c
 3fc:	5f363878 	svcpl	0x00363878
 400:	752d3436 	strvc	r3, [sp, #-1078]!	; 0xfffffbca
 404:	6f6e6b6e 	svcvs	0x006e6b6e
 408:	6c2d6e77 	stcvs	14, cr6, [sp], #-476	; 0xfffffe24
 40c:	78756e69 	ldmdavc	r5!, {r0, r3, r5, r6, r9, sl, fp, sp, lr}^
 410:	756e672d 	strbvc	r6, [lr, #-1837]!	; 0xfffff8d3
 414:	6d72612f 	ldfvse	f6, [r2, #-188]!	; 0xffffff44
 418:	6e696c2d 	cdpvs	12, 6, cr6, cr9, cr13, {1}
 41c:	672d7875 			; <UNDEFINED> instruction: 0x672d7875
 420:	6165756e 	cmnvs	r5, lr, ror #10
 424:	66686962 	strbtvs	r6, [r8], -r2, ror #18
 428:	6363672f 	cmnvs	r3, #12320768	; 0xbc0000
 42c:	6e696c2d 	cdpvs	12, 6, cr6, cr9, cr13, {1}
 430:	2d6f7261 	sfmcs	f7, 2, [pc, #-388]!	; 2b4 <shift+0x2b4>
 434:	2d322e36 	ldccs	14, cr2, [r2, #-216]!	; 0xffffff28
 438:	36313032 			; <UNDEFINED> instruction: 0x36313032
 43c:	2d31312e 	ldfcss	f3, [r1, #-184]!	; 0xffffff48
 440:	67617473 			; <UNDEFINED> instruction: 0x67617473
 444:	672f3265 	strvs	r3, [pc, -r5, ror #4]!
 448:	692f6363 	stmdbvs	pc!, {r0, r1, r5, r6, r8, r9, sp, lr}	; <UNPREDICTABLE>
 44c:	756c636e 	strbvc	r6, [ip, #-878]!	; 0xfffffc92
 450:	2f006564 	svccs	0x00006564
 454:	656d6f68 	strbvs	r6, [sp, #-3944]!	; 0xfffff098
 458:	7763742f 	strbvc	r7, [r3, -pc, lsr #8]!
 45c:	75622d67 	strbvc	r2, [r2, #-3431]!	; 0xfffff299
 460:	73646c69 	cmnvc	r4, #26880	; 0x6900
 464:	6576616c 	ldrbvs	r6, [r6, #-364]!	; 0xfffffe94
 468:	726f772f 	rsbvc	r7, pc, #12320768	; 0xbc0000
 46c:	6170736b 	cmnvs	r0, fp, ror #6
 470:	742f6563 	strtvc	r6, [pc], #-1379	; 478 <shift+0x478>
 474:	2d677763 	stclcs	7, cr7, [r7, #-396]!	; 0xfffffe74
 478:	656b616d 	strbvs	r6, [fp, #-365]!	; 0xfffffe93
 47c:	6c65722d 	sfmvs	f7, 2, [r5], #-180	; 0xffffff4c
 480:	65736165 	ldrbvs	r6, [r3, #-357]!	; 0xfffffe9b
 484:	62616c2f 	rsbvs	r6, r1, #12032	; 0x2f00
 488:	642f6c65 	strtvs	r6, [pc], #-3173	; 490 <shift+0x490>
 48c:	656b636f 	strbvs	r6, [fp, #-879]!	; 0xfffffc91
 490:	72742d72 	rsbsvc	r2, r4, #7296	; 0x1c80
 494:	79747375 	ldmdbvc	r4!, {r0, r2, r4, r5, r6, r8, r9, ip, sp, lr}^
 498:	646d612d 	strbtvs	r6, [sp], #-301	; 0xfffffed3
 49c:	742d3436 	strtvc	r3, [sp], #-1078	; 0xfffffbca
 4a0:	2d677763 	stclcs	7, cr7, [r7, #-396]!	; 0xfffffe74
 4a4:	6c697562 	cfstr64vs	mvdx7, [r9], #-392	; 0xfffffe78
 4a8:	61742f64 	cmnvs	r4, r4, ror #30
 4ac:	74656772 	strbtvc	r6, [r5], #-1906	; 0xfffff88e
 4b0:	6d72612f 	ldfvse	f6, [r2, #-188]!	; 0xffffff44
 4b4:	6e696c2d 	cdpvs	12, 6, cr6, cr9, cr13, {1}
 4b8:	672d7875 			; <UNDEFINED> instruction: 0x672d7875
 4bc:	6165756e 	cmnvs	r5, lr, ror #10
 4c0:	66686962 	strbtvs	r6, [r8], -r2, ror #18
 4c4:	75625f2f 	strbvc	r5, [r2, #-3887]!	; 0xfffff0d1
 4c8:	2f646c69 	svccs	0x00646c69
 4cc:	72737973 	rsbsvc	r7, r3, #1884160	; 0x1cc000
 4d0:	73746f6f 	cmnvc	r4, #444	; 0x1bc
 4d4:	6d72612f 	ldfvse	f6, [r2, #-188]!	; 0xffffff44
 4d8:	6e696c2d 	cdpvs	12, 6, cr6, cr9, cr13, {1}
 4dc:	672d7875 			; <UNDEFINED> instruction: 0x672d7875
 4e0:	6165756e 	cmnvs	r5, lr, ror #10
 4e4:	66686962 	strbtvs	r6, [r8], -r2, ror #18
 4e8:	7273752f 	rsbsvc	r7, r3, #197132288	; 0xbc00000
 4ec:	636e692f 	cmnvs	lr, #770048	; 0xbc000
 4f0:	6564756c 	strbvs	r7, [r4, #-1388]!	; 0xfffffa94
 4f4:	7469622f 	strbtvc	r6, [r9], #-559	; 0xfffffdd1
 4f8:	682f0073 	stmdavs	pc!, {r0, r1, r4, r5, r6}	; <UNPREDICTABLE>
 4fc:	2f656d6f 	svccs	0x00656d6f
 500:	67776374 			; <UNDEFINED> instruction: 0x67776374
 504:	6975622d 	ldmdbvs	r5!, {r0, r2, r3, r5, r9, sp, lr}^
 508:	6c73646c 	cfldrdvs	mvd6, [r3], #-432	; 0xfffffe50
 50c:	2f657661 	svccs	0x00657661
 510:	6b726f77 	blvs	1c9c2f4 <shift+0x1c9c2f4>
 514:	63617073 	cmnvs	r1, #115	; 0x73
 518:	63742f65 	cmnvs	r4, #404	; 0x194
 51c:	6d2d6777 	stcvs	7, cr6, [sp, #-476]!	; 0xfffffe24
 520:	2d656b61 	fstmdbxcs	r5!, {d22-d69}	;@ Deprecated
 524:	656c6572 	strbvs	r6, [ip, #-1394]!	; 0xfffffa8e
 528:	2f657361 	svccs	0x00657361
 52c:	6562616c 	strbvs	r6, [r2, #-364]!	; 0xfffffe94
 530:	6f642f6c 	svcvs	0x00642f6c
 534:	72656b63 	rsbvc	r6, r5, #101376	; 0x18c00
 538:	7572742d 	ldrbvc	r7, [r2, #-1069]!	; 0xfffffbd3
 53c:	2d797473 	cfldrdcs	mvd7, [r9, #-460]!	; 0xfffffe34
 540:	36646d61 	strbtcc	r6, [r4], -r1, ror #26
 544:	63742d34 	cmnvs	r4, #52, 26	; 0xd00
 548:	622d6777 	eorvs	r6, sp, #31195136	; 0x1dc0000
 54c:	646c6975 	strbtvs	r6, [ip], #-2421	; 0xfffff68b
 550:	7261742f 	rsbvc	r7, r1, #788529152	; 0x2f000000
 554:	2f746567 	svccs	0x00746567
 558:	2d6d7261 	sfmcs	f7, 2, [sp, #-388]!	; 0xfffffe7c
 55c:	756e696c 	strbvc	r6, [lr, #-2412]!	; 0xfffff694
 560:	6e672d78 	mcrvs	13, 3, r2, cr7, cr8, {3}
 564:	62616575 	rsbvs	r6, r1, #490733568	; 0x1d400000
 568:	2f666869 	svccs	0x00666869
 56c:	6975625f 	ldmdbvs	r5!, {r0, r1, r2, r3, r4, r6, r9, sp, lr}^
 570:	732f646c 			; <UNDEFINED> instruction: 0x732f646c
 574:	6f727379 	svcvs	0x00727379
 578:	2f73746f 	svccs	0x0073746f
 57c:	2d6d7261 	sfmcs	f7, 2, [sp, #-388]!	; 0xfffffe7c
 580:	756e696c 	strbvc	r6, [lr, #-2412]!	; 0xfffff694
 584:	6e672d78 	mcrvs	13, 3, r2, cr7, cr8, {3}
 588:	62616575 	rsbvs	r6, r1, #490733568	; 0x1d400000
 58c:	2f666869 	svccs	0x00666869
 590:	2f727375 	svccs	0x00727375
 594:	6c636e69 	stclvs	14, cr6, [r3], #-420	; 0xfffffe5c
 598:	00656475 	rsbeq	r6, r5, r5, ror r4
 59c:	6d6f682f 	stclvs	8, cr6, [pc, #-188]!	; 4e8 <shift+0x4e8>
 5a0:	63742f65 	cmnvs	r4, #404	; 0x194
 5a4:	622d6777 	eorvs	r6, sp, #31195136	; 0x1dc0000
 5a8:	646c6975 	strbtvs	r6, [ip], #-2421	; 0xfffff68b
 5ac:	76616c73 			; <UNDEFINED> instruction: 0x76616c73
 5b0:	6f772f65 	svcvs	0x00772f65
 5b4:	70736b72 	rsbsvc	r6, r3, r2, ror fp
 5b8:	2f656361 	svccs	0x00656361
 5bc:	67776374 			; <UNDEFINED> instruction: 0x67776374
 5c0:	6b616d2d 	blvs	185ba7c <shift+0x185ba7c>
 5c4:	65722d65 	ldrbvs	r2, [r2, #-3429]!	; 0xfffff29b
 5c8:	7361656c 	cmnvc	r1, #108, 10	; 0x1b000000
 5cc:	616c2f65 	cmnvs	ip, r5, ror #30
 5d0:	2f6c6562 	svccs	0x006c6562
 5d4:	6b636f64 	blvs	18dc36c <shift+0x18dc36c>
 5d8:	742d7265 	strtvc	r7, [sp], #-613	; 0xfffffd9b
 5dc:	74737572 	ldrbtvc	r7, [r3], #-1394	; 0xfffffa8e
 5e0:	6d612d79 	stclvs	13, cr2, [r1, #-484]!	; 0xfffffe1c
 5e4:	2d343664 	ldccs	6, cr3, [r4, #-400]!	; 0xfffffe70
 5e8:	67776374 			; <UNDEFINED> instruction: 0x67776374
 5ec:	6975622d 	ldmdbvs	r5!, {r0, r2, r3, r5, r9, sp, lr}^
 5f0:	742f646c 	strtvc	r6, [pc], #-1132	; 5f8 <shift+0x5f8>
 5f4:	65677261 	strbvs	r7, [r7, #-609]!	; 0xfffffd9f
 5f8:	72612f74 	rsbvc	r2, r1, #116, 30	; 0x1d0
 5fc:	696c2d6d 	stmdbvs	ip!, {r0, r2, r3, r5, r6, r8, sl, fp, sp}^
 600:	2d78756e 	cfldr64cs	mvdx7, [r8, #-440]!	; 0xfffffe48
 604:	65756e67 	ldrbvs	r6, [r5, #-3687]!	; 0xfffff199
 608:	68696261 	stmdavs	r9!, {r0, r5, r6, r9, sp, lr}^
 60c:	6e732f66 	cdpvs	15, 7, cr2, cr3, cr6, {3}
 610:	68737061 	ldmdavs	r3!, {r0, r5, r6, ip, sp, lr}^
 614:	2f73746f 	svccs	0x0073746f
 618:	2d636367 	stclcs	3, cr6, [r3, #-412]!	; 0xfffffe64
 61c:	616e696c 	cmnvs	lr, ip, ror #18
 620:	362d6f72 	qsub16cc	r6, sp, r2
 624:	322d322e 	eorcc	r3, sp, #-536870910	; 0xe0000002
 628:	2e363130 	mrccs	1, 1, r3, cr6, cr0, {1}
 62c:	6c2f3131 	stfvss	f3, [pc], #-196	; 570 <shift+0x570>
 630:	63676269 	cmnvs	r7, #-1879048186	; 0x90000006
 634:	2e2e2f63 	cdpcs	15, 2, cr2, cr14, cr3, {3}
 638:	636e692f 	cmnvs	lr, #770048	; 0xbc000
 63c:	6564756c 	strbvs	r7, [r4, #-1388]!	; 0xfffffa94
 640:	2f2e2e00 	svccs	0x002e2e00
 644:	2e2f2e2e 	cdpcs	14, 2, cr2, cr15, cr14, {1}
 648:	6363672f 	cmnvs	r3, #12320768	; 0xbc0000
 64c:	6f682f00 	svcvs	0x00682f00
 650:	742f656d 	strtvc	r6, [pc], #-1389	; 658 <shift+0x658>
 654:	2d677763 	stclcs	7, cr7, [r7, #-396]!	; 0xfffffe74
 658:	6c697562 	cfstr64vs	mvdx7, [r9], #-392	; 0xfffffe78
 65c:	616c7364 	cmnvs	ip, r4, ror #6
 660:	772f6576 			; <UNDEFINED> instruction: 0x772f6576
 664:	736b726f 	cmnvc	fp, #-268435450	; 0xf0000006
 668:	65636170 	strbvs	r6, [r3, #-368]!	; 0xfffffe90
 66c:	7763742f 	strbvc	r7, [r3, -pc, lsr #8]!
 670:	616d2d67 	cmnvs	sp, r7, ror #26
 674:	722d656b 	eorvc	r6, sp, #448790528	; 0x1ac00000
 678:	61656c65 	cmnvs	r5, r5, ror #24
 67c:	6c2f6573 	cfstr32vs	mvfx6, [pc], #-460	; 4b8 <shift+0x4b8>
 680:	6c656261 	sfmvs	f6, 2, [r5], #-388	; 0xfffffe7c
 684:	636f642f 	cmnvs	pc, #788529152	; 0x2f000000
 688:	2d72656b 	cfldr64cs	mvdx6, [r2, #-428]!	; 0xfffffe54
 68c:	73757274 	cmnvc	r5, #116, 4	; 0x40000007
 690:	612d7974 			; <UNDEFINED> instruction: 0x612d7974
 694:	3436646d 	ldrtcc	r6, [r6], #-1133	; 0xfffffb93
 698:	7763742d 	strbvc	r7, [r3, -sp, lsr #8]!
 69c:	75622d67 	strbvc	r2, [r2, #-3431]!	; 0xfffff299
 6a0:	2f646c69 	svccs	0x00646c69
 6a4:	67726174 			; <UNDEFINED> instruction: 0x67726174
 6a8:	612f7465 			; <UNDEFINED> instruction: 0x612f7465
 6ac:	6c2d6d72 	stcvs	13, cr6, [sp], #-456	; 0xfffffe38
 6b0:	78756e69 	ldmdavc	r5!, {r0, r3, r5, r6, r9, sl, fp, sp, lr}^
 6b4:	756e672d 	strbvc	r6, [lr, #-1837]!	; 0xfffff8d3
 6b8:	69626165 	stmdbvs	r2!, {r0, r2, r5, r6, r8, sp, lr}^
 6bc:	732f6668 			; <UNDEFINED> instruction: 0x732f6668
 6c0:	7370616e 	cmnvc	r0, #-2147483621	; 0x8000001b
 6c4:	73746f68 	cmnvc	r4, #104, 30	; 0x1a0
 6c8:	6363672f 	cmnvs	r3, #12320768	; 0xbc0000
 6cc:	6e696c2d 	cdpvs	12, 6, cr6, cr9, cr13, {1}
 6d0:	2d6f7261 	sfmcs	f7, 2, [pc, #-388]!	; 554 <shift+0x554>
 6d4:	2d322e36 	ldccs	14, cr2, [r2, #-216]!	; 0xffffff28
 6d8:	36313032 			; <UNDEFINED> instruction: 0x36313032
 6dc:	2f31312e 	svccs	0x0031312e
 6e0:	6762696c 	strbvs	r6, [r2, -ip, ror #18]!
 6e4:	2e2f6363 	cdpcs	3, 2, cr6, cr15, cr3, {3}
 6e8:	63672f2e 	cmnvs	r7, #46, 30	; 0xb8
 6ec:	6f632f63 	svcvs	0x00632f63
 6f0:	6769666e 	strbvs	r6, [r9, -lr, ror #12]!
 6f4:	6d72612f 	ldfvse	f6, [r2, #-188]!	; 0xffffff44
 6f8:	696c0000 	stmdbvs	ip!, {}^	; <UNPREDICTABLE>
 6fc:	63636762 	cmnvs	r3, #25690112	; 0x1880000
 700:	00632e32 	rsbeq	r2, r3, r2, lsr lr
 704:	73000001 	movwvc	r0, #1
 708:	65646474 	strbvs	r6, [r4, #-1140]!	; 0xfffffb8c
 70c:	00682e66 	rsbeq	r2, r8, r6, ror #28
 710:	74000002 	strvc	r0, [r0], #-2
 714:	73657079 	cmnvc	r5, #121	; 0x79
 718:	0300682e 	movweq	r6, #2094	; 0x82e
 71c:	696c0000 	stmdbvs	ip!, {}^	; <UNPREDICTABLE>
 720:	2e6f6962 	vnmulcs.f16	s13, s30, s5	; <UNPREDICTABLE>
 724:	00040068 	andeq	r0, r4, r8, rrx
 728:	64747300 	ldrbtvs	r7, [r4], #-768	; 0xfffffd00
 72c:	682e6f69 	stmdavs	lr!, {r0, r3, r5, r6, r8, r9, sl, fp, sp, lr}
 730:	00000400 	andeq	r0, r0, r0, lsl #8
 734:	5f737973 	svcpl	0x00737973
 738:	6c727265 	lfmvs	f7, 2, [r2], #-404	; 0xfffffe6c
 73c:	2e747369 	cdpcs	3, 7, cr7, cr4, cr9, {3}
 740:	00030068 	andeq	r0, r3, r8, rrx
 744:	72726500 	rsbsvc	r6, r2, #0, 10
 748:	682e6f6e 	stmdavs	lr!, {r1, r2, r3, r5, r6, r8, r9, sl, fp, sp, lr}
 74c:	00000400 	andeq	r0, r0, r0, lsl #8
 750:	73696e75 	cmnvc	r9, #1872	; 0x750
 754:	682e6474 	stmdavs	lr!, {r2, r4, r5, r6, sl, sp, lr}
 758:	00000400 	andeq	r0, r0, r0, lsl #8
 75c:	6f746567 	svcvs	0x00746567
 760:	682e7470 	stmdavs	lr!, {r4, r5, r6, sl, ip, sp, lr}
 764:	00000500 	andeq	r0, r0, r0, lsl #10
 768:	656d6974 	strbvs	r6, [sp, #-2420]!	; 0xfffff68c
 76c:	0400682e 	streq	r6, [r0], #-2094	; 0xfffff7d2
 770:	61680000 	cmnvs	r8, r0
 774:	61746873 	cmnvs	r4, r3, ror r8
 778:	00682e62 	rsbeq	r2, r8, r2, ror #28
 77c:	69000005 	stmdbvs	r0, {r0, r2}
 780:	2d6e736e 	stclcs	3, cr7, [lr, #-440]!	; 0xfffffe48
 784:	736e6f63 	cmnvc	lr, #396	; 0x18c
 788:	746e6174 	strbtvc	r6, [lr], #-372	; 0xfffffe8c
 78c:	00682e73 	rsbeq	r2, r8, r3, ror lr
 790:	61000006 	tstvs	r0, r6
 794:	682e6d72 	stmdavs	lr!, {r1, r4, r5, r6, r8, sl, fp, sp, lr}
 798:	00000700 	andeq	r0, r0, r0, lsl #14
 79c:	2d6d7261 	sfmcs	f7, 2, [sp, #-388]!	; 0xfffffe7c
 7a0:	7374706f 	cmnvc	r4, #111	; 0x6f
 7a4:	0700682e 	streq	r6, [r0, -lr, lsr #16]
 7a8:	696c0000 	stmdbvs	ip!, {}^	; <UNPREDICTABLE>
 7ac:	63636762 	cmnvs	r3, #25690112	; 0x1880000
 7b0:	00682e32 	rsbeq	r2, r8, r2, lsr lr
 7b4:	00000001 	andeq	r0, r0, r1
 7b8:	1c020500 	cfstr32ne	mvfx0, [r2], {-0}
 7bc:	0380103d 	orreq	r1, r0, #61	; 0x3d
 7c0:	030107b0 	movweq	r0, #6064	; 0x17b0
 7c4:	7403010c 	strvc	r0, [r3], #-268	; 0xfffffef4
 7c8:	2e0c0320 	cdpcs	3, 0, cr0, cr12, cr0, {1}
 7cc:	2f2e7403 	svccs	0x002e7403
 7d0:	0b032f2d 	bleq	cc48c <shift+0xcc48c>
 7d4:	4c4b222e 	sfmmi	f2, 2, [fp], {46}	; 0x2e
 7d8:	6803f921 	stmdavs	r3, {r0, r5, r8, fp, ip, sp, lr, pc}
 7dc:	3c18033c 	ldccc	3, cr0, [r8], {60}	; 0x3c
 7e0:	812f1f23 			; <UNDEFINED> instruction: 0x812f1f23
 7e4:	946e3032 	strbtls	r3, [lr], #-50	; 0xffffffce
 7e8:	41304d37 	teqmi	r0, r7, lsr sp
 7ec:	d42f218f 	strtle	r2, [pc], #-399	; 7f4 <shift+0x7f4>
 7f0:	32212d22 	eorcc	r2, r1, #2176	; 0x880
 7f4:	5503303d 	strpl	r3, [r3, #-61]	; 0xffffffc3
 7f8:	2d2f492e 			; <UNDEFINED> instruction: 0x2d2f492e
 7fc:	00030221 	andeq	r0, r3, r1, lsr #4
 800:	Address 0x0000000000000800 is out of bounds.


Disassembly of section .debug_info:

00000000 <.debug_info>:
       0:	000001bb 			; <UNDEFINED> instruction: 0x000001bb
       4:	00000002 	andeq	r0, r0, r2
       8:	01040000 	mrseq	r0, (UNDEF: 4)
       c:	00000000 	andeq	r0, r0, r0
      10:	80103a68 	andshi	r3, r0, r8, ror #20
      14:	80103cde 			; <UNDEFINED> instruction: 0x80103cde
      18:	6d6f682f 	stclvs	8, cr6, [pc, #-188]!	; ffffff64 <__bss_end+0x7fef7b2c>
      1c:	63742f65 	cmnvs	r4, #404	; 0x194
      20:	622d6777 	eorvs	r6, sp, #31195136	; 0x1dc0000
      24:	646c6975 	strbtvs	r6, [ip], #-2421	; 0xfffff68b
      28:	76616c73 			; <UNDEFINED> instruction: 0x76616c73
      2c:	6f772f65 	svcvs	0x00772f65
      30:	70736b72 	rsbsvc	r6, r3, r2, ror fp
      34:	2f656361 	svccs	0x00656361
      38:	67776374 			; <UNDEFINED> instruction: 0x67776374
      3c:	6b616d2d 	blvs	185b4f8 <shift+0x185b4f8>
      40:	65722d65 	ldrbvs	r2, [r2, #-3429]!	; 0xfffff29b
      44:	7361656c 	cmnvc	r1, #108, 10	; 0x1b000000
      48:	616c2f65 	cmnvs	ip, r5, ror #30
      4c:	2f6c6562 	svccs	0x006c6562
      50:	6b636f64 	blvs	18dbde8 <shift+0x18dbde8>
      54:	742d7265 	strtvc	r7, [sp], #-613	; 0xfffffd9b
      58:	74737572 	ldrbtvc	r7, [r3], #-1394	; 0xfffffa8e
      5c:	6d612d79 	stclvs	13, cr2, [r1, #-484]!	; 0xfffffe1c
      60:	2d343664 	ldccs	6, cr3, [r4, #-400]!	; 0xfffffe70
      64:	67776374 			; <UNDEFINED> instruction: 0x67776374
      68:	6975622d 	ldmdbvs	r5!, {r0, r2, r3, r5, r9, sp, lr}^
      6c:	742f646c 	strtvc	r6, [pc], #-1132	; 74 <shift+0x74>
      70:	65677261 	strbvs	r7, [r7, #-609]!	; 0xfffffd9f
      74:	72612f74 	rsbvc	r2, r1, #116, 30	; 0x1d0
      78:	696c2d6d 	stmdbvs	ip!, {r0, r2, r3, r5, r6, r8, sl, fp, sp}^
      7c:	2d78756e 	cfldr64cs	mvdx7, [r8, #-440]!	; 0xfffffe48
      80:	65756e67 	ldrbvs	r6, [r5, #-3687]!	; 0xfffff199
      84:	68696261 	stmdavs	r9!, {r0, r5, r6, r9, sp, lr}^
      88:	6e732f66 	cdpvs	15, 7, cr2, cr3, cr6, {3}
      8c:	68737061 	ldmdavs	r3!, {r0, r5, r6, ip, sp, lr}^
      90:	2f73746f 	svccs	0x0073746f
      94:	2d636367 	stclcs	3, cr6, [r3, #-412]!	; 0xfffffe64
      98:	616e696c 	cmnvs	lr, ip, ror #18
      9c:	362d6f72 	qsub16cc	r6, sp, r2
      a0:	322d322e 	eorcc	r3, sp, #-536870910	; 0xe0000002
      a4:	2e363130 	mrccs	1, 1, r3, cr6, cr0, {1}
      a8:	6c2f3131 	stfvss	f3, [pc], #-196	; ffffffec <__bss_end+0x7fef7bb4>
      ac:	63676269 	cmnvs	r7, #-1879048186	; 0x90000006
      b0:	6f632f63 	svcvs	0x00632f63
      b4:	6769666e 	strbvs	r6, [r9, -lr, ror #12]!
      b8:	6d72612f 	ldfvse	f6, [r2, #-188]!	; 0xffffff44
      bc:	62696c2f 	rsbvs	r6, r9, #12032	; 0x2f00
      c0:	6e756631 	mrcvs	6, 3, r6, cr5, cr1, {1}
      c4:	532e7363 			; <UNDEFINED> instruction: 0x532e7363
      c8:	6f682f00 	svcvs	0x00682f00
      cc:	742f656d 	strtvc	r6, [pc], #-1389	; d4 <shift+0xd4>
      d0:	2d677763 	stclcs	7, cr7, [r7, #-396]!	; 0xfffffe74
      d4:	6c697562 	cfstr64vs	mvdx7, [r9], #-392	; 0xfffffe78
      d8:	616c7364 	cmnvs	ip, r4, ror #6
      dc:	772f6576 			; <UNDEFINED> instruction: 0x772f6576
      e0:	736b726f 	cmnvc	fp, #-268435450	; 0xf0000006
      e4:	65636170 	strbvs	r6, [r3, #-368]!	; 0xfffffe90
      e8:	7763742f 	strbvc	r7, [r3, -pc, lsr #8]!
      ec:	616d2d67 	cmnvs	sp, r7, ror #26
      f0:	722d656b 	eorvc	r6, sp, #448790528	; 0x1ac00000
      f4:	61656c65 	cmnvs	r5, r5, ror #24
      f8:	6c2f6573 	cfstr32vs	mvfx6, [pc], #-460	; ffffff34 <__bss_end+0x7fef7afc>
      fc:	6c656261 	sfmvs	f6, 2, [r5], #-388	; 0xfffffe7c
     100:	636f642f 	cmnvs	pc, #788529152	; 0x2f000000
     104:	2d72656b 	cfldr64cs	mvdx6, [r2, #-428]!	; 0xfffffe54
     108:	73757274 	cmnvc	r5, #116, 4	; 0x40000007
     10c:	612d7974 			; <UNDEFINED> instruction: 0x612d7974
     110:	3436646d 	ldrtcc	r6, [r6], #-1133	; 0xfffffb93
     114:	7763742d 	strbvc	r7, [r3, -sp, lsr #8]!
     118:	75622d67 	strbvc	r2, [r2, #-3431]!	; 0xfffff299
     11c:	2f646c69 	svccs	0x00646c69
     120:	67726174 			; <UNDEFINED> instruction: 0x67726174
     124:	612f7465 			; <UNDEFINED> instruction: 0x612f7465
     128:	6c2d6d72 	stcvs	13, cr6, [sp], #-456	; 0xfffffe38
     12c:	78756e69 	ldmdavc	r5!, {r0, r3, r5, r6, r9, sl, fp, sp, lr}^
     130:	756e672d 	strbvc	r6, [lr, #-1837]!	; 0xfffff8d3
     134:	69626165 	stmdbvs	r2!, {r0, r2, r5, r6, r8, sp, lr}^
     138:	5f2f6668 	svcpl	0x002f6668
     13c:	6c697562 	cfstr64vs	mvdx7, [r9], #-392	; 0xfffffe78
     140:	75622f64 	strbvc	r2, [r2, #-3940]!	; 0xfffff09c
     144:	73646c69 	cmnvc	r4, #26880	; 0x6900
     148:	3638782f 	ldrtcc	r7, [r8], -pc, lsr #16
     14c:	2d34365f 	ldccs	6, cr3, [r4, #-380]!	; 0xfffffe84
     150:	6e6b6e75 	mcrvs	14, 3, r6, cr11, cr5, {3}
     154:	2d6e776f 	stclcs	7, cr7, [lr, #-444]!	; 0xfffffe44
     158:	756e696c 	strbvc	r6, [lr, #-2412]!	; 0xfffff694
     15c:	6e672d78 	mcrvs	13, 3, r2, cr7, cr8, {3}
     160:	72612f75 	rsbvc	r2, r1, #468	; 0x1d4
     164:	696c2d6d 	stmdbvs	ip!, {r0, r2, r3, r5, r6, r8, sl, fp, sp}^
     168:	2d78756e 	cfldr64cs	mvdx7, [r8, #-440]!	; 0xfffffe48
     16c:	65756e67 	ldrbvs	r6, [r5, #-3687]!	; 0xfffff199
     170:	68696261 	stmdavs	r9!, {r0, r5, r6, r9, sp, lr}^
     174:	63672f66 	cmnvs	r7, #408	; 0x198
     178:	696c2d63 	stmdbvs	ip!, {r0, r1, r5, r6, r8, sl, fp, sp}^
     17c:	6f72616e 	svcvs	0x0072616e
     180:	322e362d 	eorcc	r3, lr, #47185920	; 0x2d00000
     184:	3130322d 	teqcc	r0, sp, lsr #4
     188:	31312e36 	teqcc	r1, r6, lsr lr
     18c:	6174732d 	cmnvs	r4, sp, lsr #6
     190:	2f326567 	svccs	0x00326567
     194:	2d6d7261 	sfmcs	f7, 2, [sp, #-388]!	; 0xfffffe7c
     198:	756e696c 	strbvc	r6, [lr, #-2412]!	; 0xfffff694
     19c:	6e672d78 	mcrvs	13, 3, r2, cr7, cr8, {3}
     1a0:	62616575 	rsbvs	r6, r1, #490733568	; 0x1d400000
     1a4:	2f666869 	svccs	0x00666869
     1a8:	6762696c 	strbvs	r6, [r2, -ip, ror #18]!
     1ac:	47006363 	strmi	r6, [r0, -r3, ror #6]
     1b0:	4120554e 			; <UNDEFINED> instruction: 0x4120554e
     1b4:	2e322053 	mrccs	0, 1, r2, cr2, cr3, {2}
     1b8:	302e3732 	eorcc	r3, lr, r2, lsr r7
     1bc:	b7800100 	strlt	r0, [r0, r0, lsl #2]
     1c0:	02000001 	andeq	r0, r0, #1
     1c4:	00001400 	andeq	r1, r0, r0, lsl #8
     1c8:	00010400 	andeq	r0, r1, r0, lsl #8
     1cc:	e0000001 	and	r0, r0, r1
     1d0:	1080103c 	addne	r1, r0, ip, lsr r0
     1d4:	2f80103d 	svccs	0x0080103d
     1d8:	656d6f68 	strbvs	r6, [sp, #-3944]!	; 0xfffff098
     1dc:	7763742f 	strbvc	r7, [r3, -pc, lsr #8]!
     1e0:	75622d67 	strbvc	r2, [r2, #-3431]!	; 0xfffff299
     1e4:	73646c69 	cmnvc	r4, #26880	; 0x6900
     1e8:	6576616c 	ldrbvs	r6, [r6, #-364]!	; 0xfffffe94
     1ec:	726f772f 	rsbvc	r7, pc, #12320768	; 0xbc0000
     1f0:	6170736b 	cmnvs	r0, fp, ror #6
     1f4:	742f6563 	strtvc	r6, [pc], #-1379	; 1fc <shift+0x1fc>
     1f8:	2d677763 	stclcs	7, cr7, [r7, #-396]!	; 0xfffffe74
     1fc:	656b616d 	strbvs	r6, [fp, #-365]!	; 0xfffffe93
     200:	6c65722d 	sfmvs	f7, 2, [r5], #-180	; 0xffffff4c
     204:	65736165 	ldrbvs	r6, [r3, #-357]!	; 0xfffffe9b
     208:	62616c2f 	rsbvs	r6, r1, #12032	; 0x2f00
     20c:	642f6c65 	strtvs	r6, [pc], #-3173	; 214 <shift+0x214>
     210:	656b636f 	strbvs	r6, [fp, #-879]!	; 0xfffffc91
     214:	72742d72 	rsbsvc	r2, r4, #7296	; 0x1c80
     218:	79747375 	ldmdbvc	r4!, {r0, r2, r4, r5, r6, r8, r9, ip, sp, lr}^
     21c:	646d612d 	strbtvs	r6, [sp], #-301	; 0xfffffed3
     220:	742d3436 	strtvc	r3, [sp], #-1078	; 0xfffffbca
     224:	2d677763 	stclcs	7, cr7, [r7, #-396]!	; 0xfffffe74
     228:	6c697562 	cfstr64vs	mvdx7, [r9], #-392	; 0xfffffe78
     22c:	61742f64 	cmnvs	r4, r4, ror #30
     230:	74656772 	strbtvc	r6, [r5], #-1906	; 0xfffff88e
     234:	6d72612f 	ldfvse	f6, [r2, #-188]!	; 0xffffff44
     238:	6e696c2d 	cdpvs	12, 6, cr6, cr9, cr13, {1}
     23c:	672d7875 			; <UNDEFINED> instruction: 0x672d7875
     240:	6165756e 	cmnvs	r5, lr, ror #10
     244:	66686962 	strbtvs	r6, [r8], -r2, ror #18
     248:	616e732f 	cmnvs	lr, pc, lsr #6
     24c:	6f687370 	svcvs	0x00687370
     250:	672f7374 			; <UNDEFINED> instruction: 0x672f7374
     254:	6c2d6363 	stcvs	3, cr6, [sp], #-396	; 0xfffffe74
     258:	72616e69 	rsbvc	r6, r1, #1680	; 0x690
     25c:	2e362d6f 	cdpcs	13, 3, cr2, cr6, cr15, {3}
     260:	30322d32 	eorscc	r2, r2, r2, lsr sp
     264:	312e3631 			; <UNDEFINED> instruction: 0x312e3631
     268:	696c2f31 	stmdbvs	ip!, {r0, r4, r5, r8, r9, sl, fp, sp}^
     26c:	63636762 	cmnvs	r3, #25690112	; 0x1880000
     270:	6e6f632f 	cdpvs	3, 6, cr6, cr15, cr15, {1}
     274:	2f676966 	svccs	0x00676966
     278:	2f6d7261 	svccs	0x006d7261
     27c:	62617062 	rsbvs	r7, r1, #98	; 0x62
     280:	00532e69 	subseq	r2, r3, r9, ror #28
     284:	6d6f682f 	stclvs	8, cr6, [pc, #-188]!	; 1d0 <shift+0x1d0>
     288:	63742f65 	cmnvs	r4, #404	; 0x194
     28c:	622d6777 	eorvs	r6, sp, #31195136	; 0x1dc0000
     290:	646c6975 	strbtvs	r6, [ip], #-2421	; 0xfffff68b
     294:	76616c73 			; <UNDEFINED> instruction: 0x76616c73
     298:	6f772f65 	svcvs	0x00772f65
     29c:	70736b72 	rsbsvc	r6, r3, r2, ror fp
     2a0:	2f656361 	svccs	0x00656361
     2a4:	67776374 			; <UNDEFINED> instruction: 0x67776374
     2a8:	6b616d2d 	blvs	185b764 <shift+0x185b764>
     2ac:	65722d65 	ldrbvs	r2, [r2, #-3429]!	; 0xfffff29b
     2b0:	7361656c 	cmnvc	r1, #108, 10	; 0x1b000000
     2b4:	616c2f65 	cmnvs	ip, r5, ror #30
     2b8:	2f6c6562 	svccs	0x006c6562
     2bc:	6b636f64 	blvs	18dc054 <shift+0x18dc054>
     2c0:	742d7265 	strtvc	r7, [sp], #-613	; 0xfffffd9b
     2c4:	74737572 	ldrbtvc	r7, [r3], #-1394	; 0xfffffa8e
     2c8:	6d612d79 	stclvs	13, cr2, [r1, #-484]!	; 0xfffffe1c
     2cc:	2d343664 	ldccs	6, cr3, [r4, #-400]!	; 0xfffffe70
     2d0:	67776374 			; <UNDEFINED> instruction: 0x67776374
     2d4:	6975622d 	ldmdbvs	r5!, {r0, r2, r3, r5, r9, sp, lr}^
     2d8:	742f646c 	strtvc	r6, [pc], #-1132	; 2e0 <shift+0x2e0>
     2dc:	65677261 	strbvs	r7, [r7, #-609]!	; 0xfffffd9f
     2e0:	72612f74 	rsbvc	r2, r1, #116, 30	; 0x1d0
     2e4:	696c2d6d 	stmdbvs	ip!, {r0, r2, r3, r5, r6, r8, sl, fp, sp}^
     2e8:	2d78756e 	cfldr64cs	mvdx7, [r8, #-440]!	; 0xfffffe48
     2ec:	65756e67 	ldrbvs	r6, [r5, #-3687]!	; 0xfffff199
     2f0:	68696261 	stmdavs	r9!, {r0, r5, r6, r9, sp, lr}^
     2f4:	625f2f66 	subsvs	r2, pc, #408	; 0x198
     2f8:	646c6975 	strbtvs	r6, [ip], #-2421	; 0xfffff68b
     2fc:	6975622f 	ldmdbvs	r5!, {r0, r1, r2, r3, r5, r9, sp, lr}^
     300:	2f73646c 	svccs	0x0073646c
     304:	5f363878 	svcpl	0x00363878
     308:	752d3436 	strvc	r3, [sp, #-1078]!	; 0xfffffbca
     30c:	6f6e6b6e 	svcvs	0x006e6b6e
     310:	6c2d6e77 	stcvs	14, cr6, [sp], #-476	; 0xfffffe24
     314:	78756e69 	ldmdavc	r5!, {r0, r3, r5, r6, r9, sl, fp, sp, lr}^
     318:	756e672d 	strbvc	r6, [lr, #-1837]!	; 0xfffff8d3
     31c:	6d72612f 	ldfvse	f6, [r2, #-188]!	; 0xffffff44
     320:	6e696c2d 	cdpvs	12, 6, cr6, cr9, cr13, {1}
     324:	672d7875 			; <UNDEFINED> instruction: 0x672d7875
     328:	6165756e 	cmnvs	r5, lr, ror #10
     32c:	66686962 	strbtvs	r6, [r8], -r2, ror #18
     330:	6363672f 	cmnvs	r3, #12320768	; 0xbc0000
     334:	6e696c2d 	cdpvs	12, 6, cr6, cr9, cr13, {1}
     338:	2d6f7261 	sfmcs	f7, 2, [pc, #-388]!	; 1bc <shift+0x1bc>
     33c:	2d322e36 	ldccs	14, cr2, [r2, #-216]!	; 0xffffff28
     340:	36313032 			; <UNDEFINED> instruction: 0x36313032
     344:	2d31312e 	ldfcss	f3, [r1, #-184]!	; 0xffffff48
     348:	67617473 			; <UNDEFINED> instruction: 0x67617473
     34c:	612f3265 			; <UNDEFINED> instruction: 0x612f3265
     350:	6c2d6d72 	stcvs	13, cr6, [sp], #-456	; 0xfffffe38
     354:	78756e69 	ldmdavc	r5!, {r0, r3, r5, r6, r9, sl, fp, sp, lr}^
     358:	756e672d 	strbvc	r6, [lr, #-1837]!	; 0xfffff8d3
     35c:	69626165 	stmdbvs	r2!, {r0, r2, r5, r6, r8, sp, lr}^
     360:	6c2f6668 	stcvs	6, cr6, [pc], #-416	; 1c8 <shift+0x1c8>
     364:	63676269 	cmnvs	r7, #-1879048186	; 0x90000006
     368:	4e470063 	cdpmi	0, 4, cr0, cr7, cr3, {3}
     36c:	53412055 	movtpl	r2, #4181	; 0x1055
     370:	322e3220 	eorcc	r3, lr, #32, 4
     374:	00302e37 	eorseq	r2, r0, r7, lsr lr
     378:	01bb8001 			; <UNDEFINED> instruction: 0x01bb8001
     37c:	00020000 	andeq	r0, r2, r0
     380:	00000028 	andeq	r0, r0, r8, lsr #32
     384:	01e10104 	mvneq	r0, r4, lsl #2
     388:	3d100000 	ldccc	0, cr0, [r0, #-0]
     38c:	3d1c8010 	ldccc	0, cr8, [ip, #-64]	; 0xffffffc0
     390:	682f8010 	stmdavs	pc!, {r4, pc}	; <UNPREDICTABLE>
     394:	2f656d6f 	svccs	0x00656d6f
     398:	67776374 			; <UNDEFINED> instruction: 0x67776374
     39c:	6975622d 	ldmdbvs	r5!, {r0, r2, r3, r5, r9, sp, lr}^
     3a0:	6c73646c 	cfldrdvs	mvd6, [r3], #-432	; 0xfffffe50
     3a4:	2f657661 	svccs	0x00657661
     3a8:	6b726f77 	blvs	1c9c18c <shift+0x1c9c18c>
     3ac:	63617073 	cmnvs	r1, #115	; 0x73
     3b0:	63742f65 	cmnvs	r4, #404	; 0x194
     3b4:	6d2d6777 	stcvs	7, cr6, [sp, #-476]!	; 0xfffffe24
     3b8:	2d656b61 	fstmdbxcs	r5!, {d22-d69}	;@ Deprecated
     3bc:	656c6572 	strbvs	r6, [ip, #-1394]!	; 0xfffffa8e
     3c0:	2f657361 	svccs	0x00657361
     3c4:	6562616c 	strbvs	r6, [r2, #-364]!	; 0xfffffe94
     3c8:	6f642f6c 	svcvs	0x00642f6c
     3cc:	72656b63 	rsbvc	r6, r5, #101376	; 0x18c00
     3d0:	7572742d 	ldrbvc	r7, [r2, #-1069]!	; 0xfffffbd3
     3d4:	2d797473 	cfldrdcs	mvd7, [r9, #-460]!	; 0xfffffe34
     3d8:	36646d61 	strbtcc	r6, [r4], -r1, ror #26
     3dc:	63742d34 	cmnvs	r4, #52, 26	; 0xd00
     3e0:	622d6777 	eorvs	r6, sp, #31195136	; 0x1dc0000
     3e4:	646c6975 	strbtvs	r6, [ip], #-2421	; 0xfffff68b
     3e8:	7261742f 	rsbvc	r7, r1, #788529152	; 0x2f000000
     3ec:	2f746567 	svccs	0x00746567
     3f0:	2d6d7261 	sfmcs	f7, 2, [sp, #-388]!	; 0xfffffe7c
     3f4:	756e696c 	strbvc	r6, [lr, #-2412]!	; 0xfffff694
     3f8:	6e672d78 	mcrvs	13, 3, r2, cr7, cr8, {3}
     3fc:	62616575 	rsbvs	r6, r1, #490733568	; 0x1d400000
     400:	2f666869 	svccs	0x00666869
     404:	70616e73 	rsbvc	r6, r1, r3, ror lr
     408:	746f6873 	strbtvc	r6, [pc], #-2163	; 410 <shift+0x410>
     40c:	63672f73 	cmnvs	r7, #460	; 0x1cc
     410:	696c2d63 	stmdbvs	ip!, {r0, r1, r5, r6, r8, sl, fp, sp}^
     414:	6f72616e 	svcvs	0x0072616e
     418:	322e362d 	eorcc	r3, lr, #47185920	; 0x2d00000
     41c:	3130322d 	teqcc	r0, sp, lsr #4
     420:	31312e36 	teqcc	r1, r6, lsr lr
     424:	62696c2f 	rsbvs	r6, r9, #12032	; 0x2f00
     428:	2f636367 	svccs	0x00636367
     42c:	666e6f63 	strbtvs	r6, [lr], -r3, ror #30
     430:	612f6769 			; <UNDEFINED> instruction: 0x612f6769
     434:	6c2f6d72 	stcvs	13, cr6, [pc], #-456	; 274 <shift+0x274>
     438:	66316269 	ldrtvs	r6, [r1], -r9, ror #4
     43c:	73636e75 	cmnvc	r3, #1872	; 0x750
     440:	2f00532e 	svccs	0x0000532e
     444:	656d6f68 	strbvs	r6, [sp, #-3944]!	; 0xfffff098
     448:	7763742f 	strbvc	r7, [r3, -pc, lsr #8]!
     44c:	75622d67 	strbvc	r2, [r2, #-3431]!	; 0xfffff299
     450:	73646c69 	cmnvc	r4, #26880	; 0x6900
     454:	6576616c 	ldrbvs	r6, [r6, #-364]!	; 0xfffffe94
     458:	726f772f 	rsbvc	r7, pc, #12320768	; 0xbc0000
     45c:	6170736b 	cmnvs	r0, fp, ror #6
     460:	742f6563 	strtvc	r6, [pc], #-1379	; 468 <shift+0x468>
     464:	2d677763 	stclcs	7, cr7, [r7, #-396]!	; 0xfffffe74
     468:	656b616d 	strbvs	r6, [fp, #-365]!	; 0xfffffe93
     46c:	6c65722d 	sfmvs	f7, 2, [r5], #-180	; 0xffffff4c
     470:	65736165 	ldrbvs	r6, [r3, #-357]!	; 0xfffffe9b
     474:	62616c2f 	rsbvs	r6, r1, #12032	; 0x2f00
     478:	642f6c65 	strtvs	r6, [pc], #-3173	; 480 <shift+0x480>
     47c:	656b636f 	strbvs	r6, [fp, #-879]!	; 0xfffffc91
     480:	72742d72 	rsbsvc	r2, r4, #7296	; 0x1c80
     484:	79747375 	ldmdbvc	r4!, {r0, r2, r4, r5, r6, r8, r9, ip, sp, lr}^
     488:	646d612d 	strbtvs	r6, [sp], #-301	; 0xfffffed3
     48c:	742d3436 	strtvc	r3, [sp], #-1078	; 0xfffffbca
     490:	2d677763 	stclcs	7, cr7, [r7, #-396]!	; 0xfffffe74
     494:	6c697562 	cfstr64vs	mvdx7, [r9], #-392	; 0xfffffe78
     498:	61742f64 	cmnvs	r4, r4, ror #30
     49c:	74656772 	strbtvc	r6, [r5], #-1906	; 0xfffff88e
     4a0:	6d72612f 	ldfvse	f6, [r2, #-188]!	; 0xffffff44
     4a4:	6e696c2d 	cdpvs	12, 6, cr6, cr9, cr13, {1}
     4a8:	672d7875 			; <UNDEFINED> instruction: 0x672d7875
     4ac:	6165756e 	cmnvs	r5, lr, ror #10
     4b0:	66686962 	strbtvs	r6, [r8], -r2, ror #18
     4b4:	75625f2f 	strbvc	r5, [r2, #-3887]!	; 0xfffff0d1
     4b8:	2f646c69 	svccs	0x00646c69
     4bc:	6c697562 	cfstr64vs	mvdx7, [r9], #-392	; 0xfffffe78
     4c0:	782f7364 	stmdavc	pc!, {r2, r5, r6, r8, r9, ip, sp, lr}	; <UNPREDICTABLE>
     4c4:	365f3638 			; <UNDEFINED> instruction: 0x365f3638
     4c8:	6e752d34 	mrcvs	13, 3, r2, cr5, cr4, {1}
     4cc:	776f6e6b 	strbvc	r6, [pc, -fp, ror #28]!
     4d0:	696c2d6e 	stmdbvs	ip!, {r1, r2, r3, r5, r6, r8, sl, fp, sp}^
     4d4:	2d78756e 	cfldr64cs	mvdx7, [r8, #-440]!	; 0xfffffe48
     4d8:	2f756e67 	svccs	0x00756e67
     4dc:	2d6d7261 	sfmcs	f7, 2, [sp, #-388]!	; 0xfffffe7c
     4e0:	756e696c 	strbvc	r6, [lr, #-2412]!	; 0xfffff694
     4e4:	6e672d78 	mcrvs	13, 3, r2, cr7, cr8, {3}
     4e8:	62616575 	rsbvs	r6, r1, #490733568	; 0x1d400000
     4ec:	2f666869 	svccs	0x00666869
     4f0:	2d636367 	stclcs	3, cr6, [r3, #-412]!	; 0xfffffe64
     4f4:	616e696c 	cmnvs	lr, ip, ror #18
     4f8:	362d6f72 	qsub16cc	r6, sp, r2
     4fc:	322d322e 	eorcc	r3, sp, #-536870910	; 0xe0000002
     500:	2e363130 	mrccs	1, 1, r3, cr6, cr0, {1}
     504:	732d3131 			; <UNDEFINED> instruction: 0x732d3131
     508:	65676174 	strbvs	r6, [r7, #-372]!	; 0xfffffe8c
     50c:	72612f32 	rsbvc	r2, r1, #50, 30	; 0xc8
     510:	696c2d6d 	stmdbvs	ip!, {r0, r2, r3, r5, r6, r8, sl, fp, sp}^
     514:	2d78756e 	cfldr64cs	mvdx7, [r8, #-440]!	; 0xfffffe48
     518:	65756e67 	ldrbvs	r6, [r5, #-3687]!	; 0xfffff199
     51c:	68696261 	stmdavs	r9!, {r0, r5, r6, r9, sp, lr}^
     520:	696c2f66 	stmdbvs	ip!, {r1, r2, r5, r6, r8, r9, sl, fp, sp}^
     524:	63636762 	cmnvs	r3, #25690112	; 0x1880000
     528:	554e4700 	strbpl	r4, [lr, #-1792]	; 0xfffff900
     52c:	20534120 	subscs	r4, r3, r0, lsr #2
     530:	37322e32 			; <UNDEFINED> instruction: 0x37322e32
     534:	0100302e 	tsteq	r0, lr, lsr #32
     538:	000ca880 	andeq	sl, ip, r0, lsl #17
     53c:	3c000400 	cfstrscc	mvf0, [r0], {-0}
     540:	04000000 	streq	r0, [r0], #-0
     544:	000aaf01 	andeq	sl, sl, r1, lsl #30
     548:	08340c00 	ldmdaeq	r4!, {sl, fp}
     54c:	06f10000 	ldrbteq	r0, [r1], r0
     550:	3d1c0000 	ldccc	0, cr0, [ip, #-0]
     554:	01168010 	tsteq	r6, r0, lsl r0
     558:	02c70000 	sbceq	r0, r7, #0
     55c:	08020000 	stmdaeq	r2, {}	; <UNPREDICTABLE>
     560:	00035107 	andeq	r5, r3, r7, lsl #2
     564:	05040300 	streq	r0, [r4, #-768]	; 0xfffffd00
     568:	00746e69 	rsbseq	r6, r4, r9, ror #28
     56c:	00045504 	andeq	r5, r4, r4, lsl #10
     570:	3ed80200 	cdpcc	2, 13, cr0, cr8, cr0, {0}
     574:	02000000 	andeq	r0, r0, #0
     578:	035b0704 	cmpeq	fp, #4, 14	; 0x100000
     57c:	08020000 	stmdaeq	r2, {}	; <UNPREDICTABLE>
     580:	0006a605 	andeq	sl, r6, r5, lsl #12
     584:	04080200 	streq	r0, [r8], #-512	; 0xfffffe00
     588:	00000a21 	andeq	r0, r0, r1, lsr #20
     58c:	01020405 	tsteq	r2, r5, lsl #8
     590:	000d7008 	andeq	r7, sp, r8
     594:	07020200 	streq	r0, [r2, -r0, lsl #4]
     598:	00000e73 	andeq	r0, r0, r3, ror lr
     59c:	56070402 	strpl	r0, [r7], -r2, lsl #8
     5a0:	02000003 	andeq	r0, r0, #3
     5a4:	0d720601 	ldcleq	6, cr0, [r2, #-4]!
     5a8:	02020000 	andeq	r0, r2, #0
     5ac:	000bb805 	andeq	fp, fp, r5, lsl #16
     5b0:	0a730400 	beq	1cc15b8 <shift+0x1cc15b8>
     5b4:	37030000 	strcc	r0, [r3, -r0]
     5b8:	00000045 	andeq	r0, r0, r5, asr #32
     5bc:	000e5204 	andeq	r5, lr, r4, lsl #4
     5c0:	8e830300 	cdphi	3, 8, cr0, cr3, cr0, {0}
     5c4:	02000000 	andeq	r0, r0, #0
     5c8:	06ab0504 	strteq	r0, [fp], r4, lsl #10
     5cc:	a2040000 	andge	r0, r4, #0
     5d0:	0300000f 	movweq	r0, #15
     5d4:	00007884 	andeq	r7, r0, r4, lsl #17
     5d8:	07040200 	streq	r0, [r4, -r0, lsl #4]
     5dc:	00000cea 	andeq	r0, r0, sl, ror #25
     5e0:	00ad0406 	adceq	r0, sp, r6, lsl #8
     5e4:	01020000 	mrseq	r0, (UNDEF: 2)
     5e8:	000d7908 	andeq	r7, sp, r8, lsl #18
     5ec:	00ad0700 	adceq	r0, sp, r0, lsl #14
     5f0:	0a080000 	beq	2005f8 <shift+0x2005f8>
     5f4:	9800000d 	stmdals	r0, {r0, r2, r3}
     5f8:	0236f104 	eorseq	pc, r6, #4, 2
     5fc:	67090000 	strvs	r0, [r9, -r0]
     600:	04000001 	streq	r0, [r0], #-1
     604:	00002cf2 	strdeq	r2, [r0], -r2	; <UNPREDICTABLE>
     608:	e2090000 	and	r0, r9, #0
     60c:	04000005 	streq	r0, [r0], #-5
     610:	0000a7f7 	strdeq	sl, [r0], -r7
     614:	90090400 	andls	r0, r9, r0, lsl #8
     618:	0400000b 	streq	r0, [r0], #-11
     61c:	0000a7f8 	strdeq	sl, [r0], -r8
     620:	b5090800 	strlt	r0, [r9, #-2048]	; 0xfffff800
     624:	04000004 	streq	r0, [r0], #-4
     628:	0000a7f9 	strdeq	sl, [r0], -r9
     62c:	5c090c00 	stcpl	12, cr0, [r9], {-0}
     630:	04000006 	streq	r0, [r0], #-6
     634:	0000a7fa 	strdeq	sl, [r0], -sl	; <UNPREDICTABLE>
     638:	a8091000 	stmdage	r9, {ip}
     63c:	0400000d 	streq	r0, [r0], #-13
     640:	0000a7fb 	strdeq	sl, [r0], -fp
     644:	31091400 	tstcc	r9, r0, lsl #8
     648:	04000001 	streq	r0, [r0], #-1
     64c:	0000a7fc 	strdeq	sl, [r0], -ip
     650:	80091800 	andhi	r1, r9, r0, lsl #16
     654:	0400000f 	streq	r0, [r0], #-15
     658:	0000a7fd 	strdeq	sl, [r0], -sp
     65c:	65091c00 	strvs	r1, [r9, #-3072]	; 0xfffff400
     660:	04000000 	streq	r0, [r0], #-0
     664:	0000a7fe 	strdeq	sl, [r0], -lr
     668:	d10a2000 	mrsle	r2, (UNDEF: 10)
     66c:	04000006 	streq	r0, [r0], #-6
     670:	00a70100 	adceq	r0, r7, r0, lsl #2
     674:	0a240000 	beq	90067c <shift+0x90067c>
     678:	00000399 	muleq	r0, r9, r3
     67c:	a7010104 	strge	r0, [r1, -r4, lsl #2]
     680:	28000000 	stmdacs	r0, {}	; <UNPREDICTABLE>
     684:	0003070a 	andeq	r0, r3, sl, lsl #14
     688:	01020400 	tsteq	r2, r0, lsl #8
     68c:	000000a7 	andeq	r0, r0, r7, lsr #1
     690:	046b0a2c 	strbteq	r0, [fp], #-2604	; 0xfffff5d4
     694:	04040000 	streq	r0, [r4], #-0
     698:	00026e01 	andeq	r6, r2, r1, lsl #28
     69c:	300a3000 	andcc	r3, sl, r0
     6a0:	04000005 	streq	r0, [r0], #-5
     6a4:	02740106 	rsbseq	r0, r4, #-2147483647	; 0x80000001
     6a8:	0a340000 	beq	d006b0 <shift+0xd006b0>
     6ac:	0000040f 	andeq	r0, r0, pc, lsl #8
     6b0:	2c010804 	stccs	8, cr0, [r1], {4}
     6b4:	38000000 	stmdacc	r0, {}	; <UNPREDICTABLE>
     6b8:	000f420a 	andeq	r4, pc, sl, lsl #4
     6bc:	010c0400 	tsteq	ip, r0, lsl #8
     6c0:	0000002c 	andeq	r0, r0, ip, lsr #32
     6c4:	0cfe0a3c 	vldmiaeq	lr!, {s1-s60}
     6c8:	0e040000 	cdpeq	0, 0, cr0, cr4, cr0, {0}
     6cc:	00008301 	andeq	r8, r0, r1, lsl #6
     6d0:	1b0a4000 	blne	2906d8 <shift+0x2906d8>
     6d4:	04000003 	streq	r0, [r0], #-3
     6d8:	005c0112 	subseq	r0, ip, r2, lsl r1
     6dc:	0a440000 	beq	11006e4 <shift+0x11006e4>
     6e0:	0000045c 	andeq	r0, r0, ip, asr r4
     6e4:	6a011304 	bvs	452fc <shift+0x452fc>
     6e8:	46000000 	strmi	r0, [r0], -r0
     6ec:	0000180a 	andeq	r1, r0, sl, lsl #16
     6f0:	01140400 	tsteq	r4, r0, lsl #8
     6f4:	0000027a 	andeq	r0, r0, sl, ror r2
     6f8:	0cdd0a47 	vldmiaeq	sp, {s1-s71}
     6fc:	18040000 	stmdane	r4, {}	; <UNPREDICTABLE>
     700:	00028a01 	andeq	r8, r2, r1, lsl #20
     704:	020a4800 	andeq	r4, sl, #0, 16
     708:	0400000d 	streq	r0, [r0], #-13
     70c:	00950121 	addseq	r0, r5, r1, lsr #2
     710:	0a500000 	beq	1400718 <shift+0x1400718>
     714:	00000915 	andeq	r0, r0, r5, lsl r9
     718:	53012904 	movwpl	r2, #6404	; 0x1904
     71c:	58000000 	stmdapl	r0, {}	; <UNPREDICTABLE>
     720:	0004170a 	andeq	r1, r4, sl, lsl #14
     724:	012a0400 			; <UNDEFINED> instruction: 0x012a0400
     728:	00000053 	andeq	r0, r0, r3, asr r0
     72c:	09250a5c 	stmdbeq	r5!, {r2, r3, r4, r6, r9, fp}
     730:	2b040000 	blcs	100738 <shift+0x100738>
     734:	00005301 	andeq	r5, r0, r1, lsl #6
     738:	2c0a6000 	stccs	0, cr6, [sl], {-0}
     73c:	04000009 	streq	r0, [r0], #-9
     740:	0053012c 	subseq	r0, r3, ip, lsr #2
     744:	0a640000 	beq	190074c <shift+0x190074c>
     748:	00000933 	andeq	r0, r0, r3, lsr r9
     74c:	33012e04 	movwcc	r2, #7684	; 0x1e04
     750:	68000000 	stmdavs	r0, {}	; <UNPREDICTABLE>
     754:	0005a40a 	andeq	sl, r5, sl, lsl #8
     758:	012f0400 			; <UNDEFINED> instruction: 0x012f0400
     75c:	0000002c 	andeq	r0, r0, ip, lsr #32
     760:	0f770a6c 	svceq	0x00770a6c
     764:	31040000 	mrscc	r0, (UNDEF: 4)
     768:	00029001 	andeq	r9, r2, r1
     76c:	0b007000 	bleq	1c774 <shift+0x1c774>
     770:	00000029 	andeq	r0, r0, r9, lsr #32
     774:	19089604 	stmdbne	r8, {r2, r9, sl, ip, pc}
     778:	0c000005 	stceq	0, cr0, [r0], {5}
     77c:	026e9c04 	rsbeq	r9, lr, #4, 24	; 0x400
     780:	f0090000 			; <UNDEFINED> instruction: 0xf0090000
     784:	04000004 	streq	r0, [r0], #-4
     788:	00026e9d 	muleq	r2, sp, lr
     78c:	8d090000 	stchi	0, cr0, [r9, #-0]
     790:	0400000d 	streq	r0, [r0], #-13
     794:	0002749e 	muleq	r2, lr, r4
     798:	d2090400 	andle	r0, r9, #0, 8
     79c:	04000002 	streq	r0, [r0], #-2
     7a0:	00002ca2 	andeq	r2, r0, r2, lsr #25
     7a4:	06000800 	streq	r0, [r0], -r0, lsl #16
     7a8:	00023d04 	andeq	r3, r2, r4, lsl #26
     7ac:	b9040600 	stmdblt	r4, {r9, sl}
     7b0:	0c000000 	stceq	0, cr0, [r0], {-0}
     7b4:	000000ad 	andeq	r0, r0, sp, lsr #1
     7b8:	0000028a 	andeq	r0, r0, sl, lsl #5
     7bc:	0000a00d 	andeq	sl, r0, sp
     7c0:	06000000 	streq	r0, [r0], -r0
     7c4:	00023604 	andeq	r3, r2, r4, lsl #12
     7c8:	00ad0c00 	adceq	r0, sp, r0, lsl #24
     7cc:	02a00000 	adceq	r0, r0, #0
     7d0:	a00d0000 	andge	r0, sp, r0
     7d4:	27000000 	strcs	r0, [r0, -r0]
     7d8:	0c4d0e00 	mcrreq	14, 0, r0, sp, cr0
     7dc:	970f0000 	strls	r0, [pc, -r0]
     7e0:	04000006 	streq	r0, [r0], #-6
     7e4:	02a0013b 	adceq	r0, r0, #-1073741810	; 0xc000000e
     7e8:	c10f0000 	mrsgt	r0, CPSR
     7ec:	04000006 	streq	r0, [r0], #-6
     7f0:	02a0013c 	adceq	r0, r0, #60, 2
     7f4:	7d0f0000 	stcvc	0, cr0, [pc, #-0]	; 7fc <shift+0x7fc>
     7f8:	04000005 	streq	r0, [r0], #-5
     7fc:	02a0013d 	adceq	r0, r0, #1073741839	; 0x4000000f
     800:	04060000 	streq	r0, [r6], #-0
     804:	000000b4 	strheq	r0, [r0], -r4
     808:	0002c907 	andeq	ip, r2, r7, lsl #18
     80c:	04d61000 	ldrbeq	r1, [r6], #0
     810:	a8050000 	stmdage	r5, {}	; <UNPREDICTABLE>
     814:	00000274 	andeq	r0, r0, r4, ror r2
     818:	0002f710 	andeq	pc, r2, r0, lsl r7	; <UNPREDICTABLE>
     81c:	74a90500 	strtvc	r0, [r9], #1280	; 0x500
     820:	10000002 	andne	r0, r0, r2
     824:	00000059 	andeq	r0, r0, r9, asr r0
     828:	0274aa05 	rsbseq	sl, r4, #20480	; 0x5000
     82c:	2b100000 	blcs	400834 <shift+0x400834>
     830:	06000004 	streq	r0, [r0], -r4
     834:	00002c1a 	andeq	r2, r0, sl, lsl ip
     838:	02cf0c00 	sbceq	r0, pc, #0, 24
     83c:	030b0000 	movweq	r0, #45056	; 0xb000
     840:	00110000 	andseq	r0, r1, r0
     844:	00030007 	andeq	r0, r3, r7
     848:	0e871000 	cdpeq	0, 8, cr1, cr7, cr0, {0}
     84c:	1b060000 	blne	180854 <shift+0x180854>
     850:	0000030b 	andeq	r0, r0, fp, lsl #6
     854:	00042a10 	andeq	r2, r4, r0, lsl sl
     858:	2c1e0600 	ldccs	6, cr0, [lr], {-0}
     85c:	10000000 	andne	r0, r0, r0
     860:	00000e86 	andeq	r0, r0, r6, lsl #29
     864:	030b1f06 	movweq	r1, #48902	; 0xbf06
     868:	bd100000 	ldclt	0, cr0, [r0, #-0]
     86c:	07000009 	streq	r0, [r0, -r9]
     870:	0000a736 	andeq	sl, r0, r6, lsr r7
     874:	003b1000 	eorseq	r1, fp, r0
     878:	36070000 	strcc	r0, [r7], -r0
     87c:	000000a7 	andeq	r0, r0, r7, lsr #1
     880:	034d0406 	movteq	r0, #54278	; 0xd406
     884:	2c120000 	ldccs	0, cr0, [r2], {-0}
     888:	61000000 	mrsvs	r0, (UNDEF: 0)
     88c:	13000003 	movwne	r0, #3
     890:	00000361 	andeq	r0, r0, r1, ror #6
     894:	00036113 	andeq	r6, r3, r3, lsl r1
     898:	04060000 	streq	r0, [r6], #-0
     89c:	00000367 	andeq	r0, r0, r7, ror #6
     8a0:	0c3a0f14 	ldceq	15, cr0, [sl], #-80	; 0xffffffb0
     8a4:	22080000 	andcs	r0, r8, #0
     8a8:	00037402 	andeq	r7, r3, r2, lsl #8
     8ac:	a7040600 	strge	r0, [r4, -r0, lsl #12]
     8b0:	0f000000 	svceq	0x00000000
     8b4:	00000c3c 	andeq	r0, r0, ip, lsr ip
     8b8:	74022408 	strvc	r2, [r2], #-1032	; 0xfffffbf8
     8bc:	10000003 	andne	r0, r0, r3
     8c0:	000009d5 	ldrdeq	r0, [r0], -r5
     8c4:	00a72309 	adceq	r2, r7, r9, lsl #6
     8c8:	af100000 	svcge	0x00100000
     8cc:	09000009 	stmdbeq	r0, {r0, r3}
     8d0:	00002c31 	andeq	r2, r0, r1, lsr ip
     8d4:	03141000 	tsteq	r4, #0
     8d8:	36090000 	strcc	r0, [r9], -r0
     8dc:	0000002c 	andeq	r0, r0, ip, lsr #32
     8e0:	0000b710 	andeq	fp, r0, r0, lsl r7
     8e4:	2c3a0900 			; <UNDEFINED> instruction: 0x2c3a0900
     8e8:	0c000000 	stceq	0, cr0, [r0], {-0}
     8ec:	000000a7 	andeq	r0, r0, r7, lsr #1
     8f0:	000003c2 	andeq	r0, r0, r2, asr #7
     8f4:	0000a00d 	andeq	sl, r0, sp
     8f8:	0f000100 	svceq	0x00000100
     8fc:	00000d84 	andeq	r0, r0, r4, lsl #27
     900:	b2011a0a 	andlt	r1, r1, #40960	; 0xa000
     904:	0f000003 	svceq	0x00000003
     908:	00000f53 	andeq	r0, r0, r3, asr pc
     90c:	2c011b0a 			; <UNDEFINED> instruction: 0x2c011b0a
     910:	0f000000 	svceq	0x00000000
     914:	00000286 	andeq	r0, r0, r6, lsl #5
     918:	8e011c0a 	cdphi	12, 0, cr1, cr1, cr10, {0}
     91c:	0f000000 	svceq	0x00000000
     920:	00000d86 	andeq	r0, r0, r6, lsl #27
     924:	b201210a 	andlt	r2, r1, #-2147483646	; 0x80000002
     928:	0f000003 	svceq	0x00000003
     92c:	00000f55 	andeq	r0, r0, r5, asr pc
     930:	2c01290a 			; <UNDEFINED> instruction: 0x2c01290a
     934:	0f000000 	svceq	0x00000000
     938:	00000288 	andeq	r0, r0, r8, lsl #5
     93c:	8e012a0a 	vmlahi.f32	s4, s2, s20
     940:	0f000000 	svceq	0x00000000
     944:	00000153 	andeq	r0, r0, r3, asr r1
     948:	2c01930a 	stccs	3, cr9, [r1], {10}
     94c:	04000000 	streq	r0, [r0], #-0
     950:	0000029f 	muleq	r0, pc, r2	; <UNPREDICTABLE>
     954:	003e2a0b 	eorseq	r2, lr, fp, lsl #20
     958:	d8040000 	stmdale	r4, {}	; <UNPREDICTABLE>
     95c:	0b000005 	bleq	978 <shift+0x978>
     960:	00042c2f 	andeq	r2, r4, pc, lsr #24
     964:	32040600 	andcc	r0, r4, #0, 12
     968:	12000004 	andne	r0, r0, #4
     96c:	00000416 	andeq	r0, r0, r6, lsl r4
     970:	00000441 	andeq	r0, r0, r1, asr #8
     974:	00036113 	andeq	r6, r3, r3, lsl r1
     978:	0d040000 	stceq	0, cr0, [r4, #-0]
     97c:	0b000009 	bleq	9a8 <shift+0x9a8>
     980:	00034736 	andeq	r4, r3, r6, lsr r7
     984:	06df1000 	ldrbeq	r1, [pc], r0
     988:	bb0b0000 	bllt	2c0990 <shift+0x2c0990>
     98c:	00000421 	andeq	r0, r0, r1, lsr #8
     990:	000dd110 	andeq	sp, sp, r0, lsl r1
     994:	41be0b00 			; <UNDEFINED> instruction: 0x41be0b00
     998:	15000004 	strne	r0, [r0, #-4]
     99c:	0000058d 	andeq	r0, r0, sp, lsl #11
     9a0:	00003e04 	andeq	r3, r0, r4, lsl #28
     9a4:	fb1d0e00 	blx	7441ae <shift+0x7441ae>
     9a8:	16000006 	strne	r0, [r0], -r6
     9ac:	00000060 	andeq	r0, r0, r0, rrx
     9b0:	0cd61600 	ldcleq	6, cr1, [r6], {0}
     9b4:	16010000 	strne	r0, [r1], -r0
     9b8:	00000eda 	ldrdeq	r0, [r0], -sl
     9bc:	007e1602 	rsbseq	r1, lr, r2, lsl #12
     9c0:	16030000 	strne	r0, [r3], -r0
     9c4:	000009a0 	andeq	r0, r0, r0, lsr #19
     9c8:	00341604 	eorseq	r1, r4, r4, lsl #12
     9cc:	16050000 	strne	r0, [r5], -r0
     9d0:	0000016e 	andeq	r0, r0, lr, ror #2
     9d4:	025f1606 	subseq	r1, pc, #6291456	; 0x600000
     9d8:	16070000 	strne	r0, [r7], -r0
     9dc:	00000245 	andeq	r0, r0, r5, asr #4
     9e0:	0d7e1608 	ldcleq	6, cr1, [lr, #-32]!	; 0xffffffe0
     9e4:	16090000 	strne	r0, [r9], -r0
     9e8:	00000a6c 	andeq	r0, r0, ip, ror #20
     9ec:	0d32160a 	ldceq	6, cr1, [r2, #-40]!	; 0xffffffd8
     9f0:	160b0000 	strne	r0, [fp], -r0
     9f4:	000005c3 	andeq	r0, r0, r3, asr #11
     9f8:	0991160c 	ldmibeq	r1, {r2, r3, r9, sl, ip}
     9fc:	160d0000 	strne	r0, [sp], -r0
     a00:	00000690 	muleq	r0, r0, r6
     a04:	08fc160e 	ldmeq	ip!, {r1, r2, r3, r9, sl, ip}^
     a08:	160f0000 	strne	r0, [pc], -r0
     a0c:	00000f67 	andeq	r0, r0, r7, ror #30
     a10:	0e9f1610 	mrceq	6, 4, r1, cr15, cr0, {0}
     a14:	16110000 	ldrne	r0, [r1], -r0
     a18:	000007e4 	andeq	r0, r0, r4, ror #15
     a1c:	05731612 	ldrbeq	r1, [r3, #-1554]!	; 0xfffff9ee
     a20:	16130000 	ldrne	r0, [r3], -r0
     a24:	00000de1 	andeq	r0, r0, r1, ror #27
     a28:	0e4b1614 	mcreq	6, 2, r1, cr11, cr4, {0}
     a2c:	16150000 	ldrne	r0, [r5], -r0
     a30:	0000032f 	andeq	r0, r0, pc, lsr #6
     a34:	0f111616 	svceq	0x00111616
     a38:	16170000 	ldrne	r0, [r7], -r0
     a3c:	00000e20 	andeq	r0, r0, r0, lsr #28
     a40:	023b1618 	eorseq	r1, fp, #24, 12	; 0x1800000
     a44:	16190000 	ldrne	r0, [r9], -r0
     a48:	00000337 	andeq	r0, r0, r7, lsr r3
     a4c:	05b5161a 	ldreq	r1, [r5, #1562]!	; 0x61a
     a50:	161b0000 	ldrne	r0, [fp], -r0
     a54:	0000066b 	andeq	r0, r0, fp, ror #12
     a58:	0c20161c 	stceq	6, cr1, [r0], #-112	; 0xffffff90
     a5c:	161d0000 	ldrne	r0, [sp], -r0
     a60:	000001bd 			; <UNDEFINED> instruction: 0x000001bd
     a64:	0f28161e 	svceq	0x0028161e
     a68:	161f0000 	ldrne	r0, [pc], -r0
     a6c:	0000020d 	andeq	r0, r0, sp, lsl #4
     a70:	00001620 	andeq	r1, r0, r0, lsr #12
     a74:	16210000 	strtne	r0, [r1], -r0
     a78:	0000055e 	andeq	r0, r0, lr, asr r5
     a7c:	02b71622 	adcseq	r1, r7, #35651584	; 0x2200000
     a80:	16230000 	strtne	r0, [r3], -r0
     a84:	000000be 	strheq	r0, [r0], -lr
     a88:	03741624 	cmneq	r4, #36, 12	; 0x2400000
     a8c:	16250000 	strtne	r0, [r5], -r0
     a90:	000004dc 	ldrdeq	r0, [r0], -ip
     a94:	08f41626 	ldmeq	r4!, {r1, r2, r5, r9, sl, ip}^
     a98:	16270000 	strtne	r0, [r7], -r0
     a9c:	00000bd1 	ldrdeq	r0, [r0], -r1
     aa0:	04ce1628 	strbeq	r1, [lr], #1576	; 0x628
     aa4:	16290000 	strtne	r0, [r9], -r0
     aa8:	00000ed3 	ldrdeq	r0, [r0], -r3
     aac:	0db6162a 	ldceq	6, cr1, [r6, #168]!	; 0xa8
     ab0:	162b0000 	strtne	r0, [fp], -r0
     ab4:	00000f99 	muleq	r0, r9, pc	; <UNPREDICTABLE>
     ab8:	017c162c 	cmneq	ip, ip, lsr #12
     abc:	162d0000 	strtne	r0, [sp], -r0
     ac0:	0000091c 	andeq	r0, r0, ip, lsl r9
     ac4:	0c44162e 	mcrreq	6, 2, r1, r4, cr14
     ac8:	162f0000 	strtne	r0, [pc], -r0
     acc:	000007ec 	andeq	r0, r0, ip, ror #15
     ad0:	01751630 	cmneq	r5, r0, lsr r6
     ad4:	16310000 	ldrtne	r0, [r1], -r0
     ad8:	00000f5e 	andeq	r0, r0, lr, asr pc
     adc:	01b41632 			; <UNDEFINED> instruction: 0x01b41632
     ae0:	16330000 	ldrtne	r0, [r3], -r0
     ae4:	00000a49 	andeq	r0, r0, r9, asr #20
     ae8:	00111634 	andseq	r1, r1, r4, lsr r6
     aec:	16350000 	ldrtne	r0, [r5], -r0
     af0:	000003fe 	strdeq	r0, [r0], -lr
     af4:	01291636 			; <UNDEFINED> instruction: 0x01291636
     af8:	16370000 	ldrtne	r0, [r7], -r0
     afc:	00000327 	andeq	r0, r0, r7, lsr #6
     b00:	014c1638 	cmpeq	ip, r8, lsr r6
     b04:	16390000 	ldrtne	r0, [r9], -r0
     b08:	00000df8 	strdeq	r0, [r0], -r8
     b0c:	0686163a 			; <UNDEFINED> instruction: 0x0686163a
     b10:	163b0000 	ldrtne	r0, [fp], -r0
     b14:	00000cf3 	strdeq	r0, [r0], -r3
     b18:	0903163c 	stmdbeq	r3, {r2, r3, r4, r5, r9, sl, ip}
     b1c:	163d0000 	ldrtne	r0, [sp], -r0
     b20:	00000d13 	andeq	r0, r0, r3, lsl sp
     b24:	0c06163e 	stceq	6, cr1, [r6], {62}	; 0x3e
     b28:	163f0000 	ldrtne	r0, [pc], -r0
     b2c:	00000524 	andeq	r0, r0, r4, lsr #10
     b30:	03681640 	cmneq	r8, #64, 12	; 0x4000000
     b34:	16410000 	strbne	r0, [r1], -r0
     b38:	00000be0 	andeq	r0, r0, r0, ror #23
     b3c:	0aa41642 	beq	fe90644c <__bss_end+0x7e7fe014>
     b40:	16430000 	strbne	r0, [r3], -r0
     b44:	0000041e 	andeq	r0, r0, lr, lsl r4
     b48:	0f081644 	svceq	0x00081644
     b4c:	16450000 	strbne	r0, [r5], -r0
     b50:	00000eff 	strdeq	r0, [r0], -pc	; <UNPREDICTABLE>
     b54:	02171646 	andseq	r1, r7, #73400320	; 0x4600000
     b58:	16470000 	strbne	r0, [r7], -r0
     b5c:	0000093a 	andeq	r0, r0, sl, lsr r9
     b60:	09ed1648 	stmibeq	sp!, {r3, r6, r9, sl, ip}^
     b64:	16490000 	strbne	r0, [r9], -r0
     b68:	000001d2 	ldrdeq	r0, [r0], -r2
     b6c:	0e5a164a 	cdpeq	6, 5, cr1, cr10, cr10, {2}
     b70:	164b0000 	strbne	r0, [fp], -r0
     b74:	0000026b 	andeq	r0, r0, fp, ror #4
     b78:	0120164c 			; <UNDEFINED> instruction: 0x0120164c
     b7c:	164d0000 	strbne	r0, [sp], -r0
     b80:	00000274 	andeq	r0, r0, r4, ror r2
     b84:	027d164e 	rsbseq	r1, sp, #81788928	; 0x4e00000
     b88:	164f0000 	strbne	r0, [pc], -r0
     b8c:	00000474 	andeq	r0, r0, r4, ror r4
     b90:	048e1650 	streq	r1, [lr], #1616	; 0x650
     b94:	16510000 	ldrbne	r0, [r1], -r0
     b98:	000004ab 	andeq	r0, r0, fp, lsr #9
     b9c:	03d11652 	bicseq	r1, r1, #85983232	; 0x5200000
     ba0:	16530000 	ldrbne	r0, [r3], -r0
     ba4:	0000044b 	andeq	r0, r0, fp, asr #8
     ba8:	03da1654 	bicseq	r1, sl, #84, 12	; 0x5400000
     bac:	16550000 	ldrbne	r0, [r5], -r0
     bb0:	000003e3 	andeq	r0, r0, r3, ror #7
     bb4:	03ec1656 	mvneq	r1, #90177536	; 0x5600000
     bb8:	16570000 	ldrbne	r0, [r7], -r0
     bbc:	00000f31 	andeq	r0, r0, r1, lsr pc
     bc0:	0f1f1658 	svceq	0x001f1658
     bc4:	16590000 	ldrbne	r0, [r9], -r0
     bc8:	00000f16 	andeq	r0, r0, r6, lsl pc
     bcc:	0c62165a 	stcleq	6, cr1, [r2], #-360	; 0xfffffe98
     bd0:	165b0000 	ldrbne	r0, [fp], -r0
     bd4:	00000117 	andeq	r0, r0, r7, lsl r1
     bd8:	0a5a165c 	beq	1686550 <shift+0x1686550>
     bdc:	165d0000 	ldrbne	r0, [sp], -r0
     be0:	000005fd 	strdeq	r0, [r0], -sp
     be4:	02ed165e 	rsceq	r1, sp, #98566144	; 0x5e00000
     be8:	165f0000 	ldrbne	r0, [pc], -r0
     bec:	0000018b 	andeq	r0, r0, fp, lsl #3
     bf0:	097a1660 	ldmdbeq	sl!, {r5, r6, r9, sl, ip}^
     bf4:	16610000 	strbtne	r0, [r1], -r0
     bf8:	00000c26 	andeq	r0, r0, r6, lsr #24
     bfc:	0c301662 	ldceq	6, cr1, [r0], #-392	; 0xfffffe78
     c00:	16630000 	strbtne	r0, [r3], -r0
     c04:	00000d38 	andeq	r0, r0, r8, lsr sp
     c08:	0f6f1664 	svceq	0x006f1664
     c0c:	16650000 	strbtne	r0, [r5], -r0
     c10:	00000ce3 	andeq	r0, r0, r3, ror #25
     c14:	0a2d1666 	beq	b465b4 <shift+0xb465b4>
     c18:	16670000 	strbtne	r0, [r7], -r0
     c1c:	00000182 	andeq	r0, r0, r2, lsl #3
     c20:	02e41668 	rsceq	r1, r4, #104, 12	; 0x6800000
     c24:	16690000 	strbtne	r0, [r9], -r0
     c28:	00000498 	muleq	r0, r8, r4
     c2c:	0f4a166a 	svceq	0x004a166a
     c30:	006b0000 	rsbeq	r0, fp, r0
     c34:	0001c30f 	andeq	ip, r1, pc, lsl #6
     c38:	013e0c00 	teqeq	lr, r0, lsl #24
     c3c:	0000030b 	andeq	r0, r0, fp, lsl #6
     c40:	00047e0f 	andeq	r7, r4, pc, lsl #28
     c44:	01610c00 	cmneq	r1, r0, lsl #24
     c48:	0000030b 	andeq	r0, r0, fp, lsl #6
     c4c:	0000ad0c 	andeq	sl, r0, ip, lsl #26
     c50:	00071e00 	andeq	r1, r7, r0, lsl #28
     c54:	10001100 	andne	r1, r0, r0, lsl #2
     c58:	000005ef 	andeq	r0, r0, pc, ror #11
     c5c:	07132d0d 	ldreq	r2, [r3, -sp, lsl #26]
     c60:	55100000 	ldrpl	r0, [r0, #-0]
     c64:	0d00000d 	stceq	0, cr0, [r0, #-52]	; 0xffffffcc
     c68:	0004623e 	andeq	r6, r4, lr, lsr r2
     c6c:	037d1500 	cmneq	sp, #0, 10
     c70:	3e040000 	cdpcc	0, 0, cr0, cr4, cr0, {0}
     c74:	0d000000 	stceq	0, cr0, [r0, #-0]
     c78:	0007a540 	andeq	sl, r7, r0, asr #10
     c7c:	00221600 	eoreq	r1, r2, r0, lsl #12
     c80:	16000000 	strne	r0, [r0], -r0
     c84:	00000999 	muleq	r0, r9, r9
     c88:	0e271601 	cfmadda32eq	mvax0, mvax1, mvfx7, mvfx1
     c8c:	16020000 	strne	r0, [r2], -r0
     c90:	00000e00 	andeq	r0, r0, r0, lsl #28
     c94:	08171603 	ldmdaeq	r7, {r0, r1, r9, sl, ip}
     c98:	16040000 	strne	r0, [r4], -r0
     c9c:	00000c5b 	andeq	r0, r0, fp, asr ip
     ca0:	02241605 	eoreq	r1, r4, #5242880	; 0x500000
     ca4:	16060000 	strne	r0, [r6], -r0
     ca8:	000001f6 	strdeq	r0, [r0], -r6
     cac:	09b61607 	ldmibeq	r6!, {r0, r1, r2, r9, sl, ip}
     cb0:	16080000 	strne	r0, [r8], -r0
     cb4:	0000064e 	andeq	r0, r0, lr, asr #12
     cb8:	022b1609 	eoreq	r1, fp, #9437184	; 0x900000
     cbc:	160a0000 	strne	r0, [sl], -r0
     cc0:	00000655 	andeq	r0, r0, r5, asr r6
     cc4:	0258160b 	subseq	r1, r8, #11534336	; 0xb00000
     cc8:	160c0000 	strne	r0, [ip], -r0
     ccc:	00000620 	andeq	r0, r0, r0, lsr #12
     cd0:	0ca1160d 	stceq	6, cr1, [r1], #52	; 0x34
     cd4:	160e0000 	strne	r0, [lr], -r0
     cd8:	000009dc 	ldrdeq	r0, [r0], -ip
     cdc:	d904000f 	stmdble	r4, {r0, r1, r2, r3}
     ce0:	0d00000b 	stceq	0, cr0, [r0, #-44]	; 0xffffffd4
     ce4:	00073445 	andeq	r3, r7, r5, asr #8
     ce8:	0c111000 	ldceq	0, cr1, [r1], {-0}
     cec:	470d0000 	strmi	r0, [sp, -r0]
     cf0:	000007a5 	andeq	r0, r0, r5, lsr #15
     cf4:	000cb510 	andeq	fp, ip, r0, lsl r5
     cf8:	2c500d00 	mrrccs	13, 0, r0, r0, cr0	; <UNPREDICTABLE>
     cfc:	10000000 	andne	r0, r0, r0
     d00:	000001a4 	andeq	r0, r0, r4, lsr #3
     d04:	002c510d 	eoreq	r5, ip, sp, lsl #2
     d08:	1e0e0000 	cdpne	0, 0, cr0, cr14, cr0, {0}
     d0c:	1000000d 	andne	r0, r0, sp
     d10:	00000cc6 	andeq	r0, r0, r6, asr #25
     d14:	07e1520d 	strbeq	r5, [r1, sp, lsl #4]!
     d18:	04060000 	streq	r0, [r6], #-0
     d1c:	000007d1 	ldrdeq	r0, [r0], -r1
     d20:	05371017 	ldreq	r1, [r7, #-23]!	; 0xffffffe9
     d24:	540d0000 	strpl	r0, [sp], #-0
     d28:	000007f3 	strdeq	r0, [r0], -r3
     d2c:	07e70406 	strbeq	r0, [r7, r6, lsl #8]!
     d30:	bd180000 	ldclt	0, cr0, [r8, #-0]
     d34:	0d000003 	stceq	0, cr0, [r0, #-12]
     d38:	00630150 	rsbeq	r0, r3, r0, asr r1
     d3c:	95190000 	ldrls	r0, [r9, #-0]
     d40:	04000000 	streq	r0, [r0], #-0
     d44:	0000003e 	andeq	r0, r0, lr, lsr r0
     d48:	23015c0d 	movwcs	r5, #7181	; 0x1c0d
     d4c:	16000008 	strne	r0, [r0], -r8
     d50:	00000802 	andeq	r0, r0, r2, lsl #16
     d54:	0dc01600 	stcleq	6, cr1, [r0]
     d58:	00010000 	andeq	r0, r1, r0
     d5c:	00013f19 	andeq	r3, r1, r9, lsl pc
     d60:	003e0400 	eorseq	r0, lr, r0, lsl #8
     d64:	630d0000 	movwvs	r0, #53248	; 0xd000
     d68:	00084d01 	andeq	r4, r8, r1, lsl #26
     d6c:	04061600 	streq	r1, [r6], #-1536	; 0xfffffa00
     d70:	16000000 	strne	r0, [r0], -r0
     d74:	00000d49 	andeq	r0, r0, r9, asr #26
     d78:	0eb71601 	cdpeq	6, 11, cr1, cr7, cr1, {0}
     d7c:	16020000 	strne	r0, [r2], -r0
     d80:	00000e2e 	andeq	r0, r0, lr, lsr #28
     d84:	d71a0003 	ldrle	r0, [sl, -r3]
     d88:	14000002 	strne	r0, [r0], #-2
     d8c:	9c016b0d 			; <UNDEFINED> instruction: 0x9c016b0d
     d90:	0a000008 	beq	db8 <shift+0xdb8>
     d94:	000005f8 	strdeq	r0, [r0], -r8
     d98:	c9016d0d 	stmdbgt	r1, {r0, r2, r3, r8, sl, fp, sp, lr}
     d9c:	00000002 	andeq	r0, r0, r2
     da0:	00009c0a 	andeq	r9, r0, sl, lsl #24
     da4:	016e0d00 	cmneq	lr, r0, lsl #26
     da8:	00000805 	andeq	r0, r0, r5, lsl #16
     dac:	65721b04 	ldrbvs	r1, [r2, #-2820]!	; 0xfffff4fc
     db0:	6f0d0076 	svcvs	0x000d0076
     db4:	00002c01 	andeq	r2, r0, r1, lsl #24
     db8:	660a0800 	strvs	r0, [sl], -r0, lsl #16
     dbc:	0d000002 	stceq	0, cr0, [r0, #-8]
     dc0:	08230170 	stmdaeq	r3!, {r4, r5, r6, r8}
     dc4:	0a0c0000 	beq	300dcc <shift+0x300dcc>
     dc8:	000009a6 	andeq	r0, r0, r6, lsr #19
     dcc:	f901710d 			; <UNDEFINED> instruction: 0xf901710d
     dd0:	10000007 	andne	r0, r0, r7
     dd4:	084d0700 	stmdaeq	sp, {r8, r9, sl}^
     dd8:	9c0c0000 	stcls	0, cr0, [ip], {-0}
     ddc:	ac000008 	stcge	0, cr0, [r0], {8}
     de0:	11000008 	tstne	r0, r8
     de4:	08a10700 	stmiaeq	r1!, {r8, r9, sl}
     de8:	fe0f0000 	cdp2	0, 0, cr0, cr15, cr0, {0}
     dec:	0d000002 	stceq	0, cr0, [r0, #-8]
     df0:	08ac0172 	stmiaeq	ip!, {r1, r4, r5, r6, r8}
     df4:	b40f0000 	strlt	r0, [pc], #-0	; dfc <shift+0xdfc>
     df8:	0d000006 	stceq	0, cr0, [r0, #-24]	; 0xffffffe8
     dfc:	002c017d 	eoreq	r0, ip, sp, ror r1
     e00:	e7190000 	ldr	r0, [r9, -r0]
     e04:	0400000b 	streq	r0, [r0], #-11
     e08:	0000003e 	andeq	r0, r0, lr, lsr r0
     e0c:	77018a0d 	strvc	r8, [r1, -sp, lsl #20]
     e10:	16000009 	strne	r0, [r0], -r9
     e14:	000000c3 	andeq	r0, r0, r3, asr #1
     e18:	00cf1600 	sbceq	r1, pc, r0, lsl #12
     e1c:	16020000 	strne	r0, [r2], -r0
     e20:	000000db 	ldrdeq	r0, [r0], -fp
     e24:	03441603 	movteq	r1, #17923	; 0x4603
     e28:	16030000 	strne	r0, [r3], -r0
     e2c:	000000e7 	andeq	r0, r0, r7, ror #1
     e30:	04e31604 	strbteq	r1, [r3], #1540	; 0x604
     e34:	16040000 	strne	r0, [r4], -r0
     e38:	000000f3 	strdeq	r0, [r0], -r3
     e3c:	05661605 	strbeq	r1, [r6, #-1541]!	; 0xfffff9fb
     e40:	16050000 	strne	r0, [r5], -r0
     e44:	000007d7 	ldrdeq	r0, [r0], -r7
     e48:	050b1605 	streq	r1, [fp, #-1541]	; 0xfffff9fb
     e4c:	16050000 	strne	r0, [r5], -r0
     e50:	00000195 	muleq	r0, r5, r1
     e54:	00ff1605 	rscseq	r1, pc, r5, lsl #12
     e58:	16060000 	strne	r0, [r6], -r0
     e5c:	00000627 	andeq	r0, r0, r7, lsr #12
     e60:	02a91606 	adceq	r1, r9, #6291456	; 0x600000
     e64:	16060000 	strne	r0, [r6], -r0
     e68:	00000634 	andeq	r0, r0, r4, lsr r6
     e6c:	0c6e1606 	stcleq	6, cr1, [lr], #-24	; 0xffffffe8
     e70:	16060000 	strne	r0, [r6], -r0
     e74:	00000641 	andeq	r0, r0, r1, asr #12
     e78:	06791606 	ldrbteq	r1, [r9], -r6, lsl #12
     e7c:	16060000 	strne	r0, [r6], -r0
     e80:	0000010b 	andeq	r0, r0, fp, lsl #2
     e84:	07f51607 	ldrbeq	r1, [r5, r7, lsl #12]!
     e88:	16070000 	strne	r0, [r7], -r0
     e8c:	000008d8 	ldrdeq	r0, [r0], -r8
     e90:	0ca81607 	stceq	6, cr1, [r8], #28
     e94:	16070000 	strne	r0, [r7], -r0
     e98:	00000291 	muleq	r0, r1, r2
     e9c:	09841607 	stmibeq	r4, {r0, r1, r2, r9, sl, ip}
     ea0:	16080000 	strne	r0, [r8], -r0
     ea4:	00000083 	andeq	r0, r0, r3, lsl #1
     ea8:	0c7c1608 	ldcleq	6, cr1, [ip], #-32	; 0xffffffe0
     eac:	00080000 	andeq	r0, r8, r0
     eb0:	000e650f 	andeq	r6, lr, pc, lsl #10
     eb4:	01a90d00 			; <UNDEFINED> instruction: 0x01a90d00
     eb8:	000008c9 	andeq	r0, r0, r9, asr #17
     ebc:	0004c30f 	andeq	ip, r4, pc, lsl #6
     ec0:	01ac0d00 			; <UNDEFINED> instruction: 0x01ac0d00
     ec4:	0000002c 	andeq	r0, r0, ip, lsr #32
     ec8:	0009e30f 	andeq	lr, r9, pc, lsl #6
     ecc:	01af0d00 			; <UNDEFINED> instruction: 0x01af0d00
     ed0:	0000002c 	andeq	r0, r0, ip, lsr #32
     ed4:	0005aa0f 	andeq	sl, r5, pc, lsl #20
     ed8:	01b20d00 			; <UNDEFINED> instruction: 0x01b20d00
     edc:	0000002c 	andeq	r0, r0, ip, lsr #32
     ee0:	000a500f 	andeq	r5, sl, pc
     ee4:	01b50d00 			; <UNDEFINED> instruction: 0x01b50d00
     ee8:	0000002c 	andeq	r0, r0, ip, lsr #32
     eec:	0006150f 	andeq	r1, r6, pc, lsl #10
     ef0:	01b80d00 			; <UNDEFINED> instruction: 0x01b80d00
     ef4:	0000002c 	andeq	r0, r0, ip, lsr #32
     ef8:	000a030f 	andeq	r0, sl, pc, lsl #6
     efc:	01bb0d00 			; <UNDEFINED> instruction: 0x01bb0d00
     f00:	0000002c 	andeq	r0, r0, ip, lsr #32
     f04:	00081e0f 	andeq	r1, r8, pc, lsl #28
     f08:	01be0d00 			; <UNDEFINED> instruction: 0x01be0d00
     f0c:	0000002c 	andeq	r0, r0, ip, lsr #32
     f10:	0008290f 	andeq	r2, r8, pc, lsl #18
     f14:	01c10d00 	biceq	r0, r1, r0, lsl #26
     f18:	0000002c 	andeq	r0, r0, ip, lsr #32
     f1c:	000a0d0f 	andeq	r0, sl, pc, lsl #26
     f20:	01c40d00 	biceq	r0, r4, r0, lsl #26
     f24:	0000002c 	andeq	r0, r0, ip, lsr #32
     f28:	0006070f 	andeq	r0, r6, pc, lsl #14
     f2c:	01c70d00 	biceq	r0, r7, r0, lsl #26
     f30:	0000002c 	andeq	r0, r0, ip, lsr #32
     f34:	000e930f 	andeq	r9, lr, pc, lsl #6
     f38:	01ca0d00 	biceq	r0, sl, r0, lsl #26
     f3c:	0000002c 	andeq	r0, r0, ip, lsr #32
     f40:	000a170f 	andeq	r1, sl, pc, lsl #14
     f44:	01cd0d00 	biceq	r0, sp, r0, lsl #26
     f48:	0000002c 	andeq	r0, r0, ip, lsr #32
     f4c:	000f8d0f 	andeq	r8, pc, pc, lsl #26
     f50:	01d00d00 	bicseq	r0, r0, r0, lsl #26
     f54:	0000002c 	andeq	r0, r0, ip, lsr #32
     f58:	000e070f 	andeq	r0, lr, pc, lsl #14
     f5c:	01d30d00 	bicseq	r0, r3, r0, lsl #26
     f60:	0000002c 	andeq	r0, r0, ip, lsr #32
     f64:	000e3d0f 	andeq	r3, lr, pc, lsl #26
     f68:	01d70d00 	bicseq	r0, r7, r0, lsl #26
     f6c:	0000002c 	andeq	r0, r0, ip, lsr #32
     f70:	000e130f 	andeq	r1, lr, pc, lsl #6
     f74:	01da0d00 	bicseq	r0, sl, r0, lsl #26
     f78:	0000002c 	andeq	r0, r0, ip, lsr #32
     f7c:	0002320f 	andeq	r3, r2, pc, lsl #4
     f80:	01dd0d00 	bicseq	r0, sp, r0, lsl #26
     f84:	0000002c 	andeq	r0, r0, ip, lsr #32
     f88:	0000080f 	andeq	r0, r0, pc, lsl #16
     f8c:	01e00d00 	mvneq	r0, r0, lsl #26
     f90:	0000002c 	andeq	r0, r0, ip, lsr #32
     f94:	0003f50f 	andeq	pc, r3, pc, lsl #10
     f98:	01e30d00 	mvneq	r0, r0, lsl #26
     f9c:	0000002c 	andeq	r0, r0, ip, lsr #32
     fa0:	0001fd0f 	andeq	pc, r1, pc, lsl #26
     fa4:	01e60d00 	mvneq	r0, r0, lsl #26
     fa8:	0000002c 	andeq	r0, r0, ip, lsr #32
     fac:	000a400f 	andeq	r4, sl, pc
     fb0:	01e90d00 	mvneq	r0, r0, lsl #26
     fb4:	0000002c 	andeq	r0, r0, ip, lsr #32
     fb8:	0005ca0f 	andeq	ip, r5, pc, lsl #20
     fbc:	01ec0d00 	mvneq	r0, r0, lsl #26
     fc0:	0000002c 	andeq	r0, r0, ip, lsr #32
     fc4:	000c8e0f 	andeq	r8, ip, pc, lsl #28
     fc8:	01ef0d00 	mvneq	r0, r0, lsl #26
     fcc:	0000002c 	andeq	r0, r0, ip, lsr #32
     fd0:	000d5e0f 	andeq	r5, sp, pc, lsl #28
     fd4:	01f60d00 	mvnseq	r0, r0, lsl #26
     fd8:	0000002c 	andeq	r0, r0, ip, lsr #32
     fdc:	000edf0f 	andeq	sp, lr, pc, lsl #30
     fe0:	01f90d00 	mvnseq	r0, r0, lsl #26
     fe4:	0000002c 	andeq	r0, r0, ip, lsr #32
     fe8:	000eef0f 	andeq	lr, lr, pc, lsl #30
     fec:	01fc0d00 	mvnseq	r0, r0, lsl #26
     ff0:	0000002c 	andeq	r0, r0, ip, lsr #32
     ff4:	0002bf0f 	andeq	fp, r2, pc, lsl #30
     ff8:	01ff0d00 	mvnseq	r0, r0, lsl #26
     ffc:	0000002c 	andeq	r0, r0, ip, lsr #32
    1000:	000d930f 	andeq	r9, sp, pc, lsl #6
    1004:	02020d00 	andeq	r0, r2, #0, 26
    1008:	0000002c 	andeq	r0, r0, ip, lsr #32
    100c:	0009620f 	andeq	r6, r9, pc, lsl #4
    1010:	02050d00 	andeq	r0, r5, #0, 26
    1014:	0000002c 	andeq	r0, r0, ip, lsr #32
    1018:	0004340f 	andeq	r3, r4, pc, lsl #8
    101c:	02090d00 	andeq	r0, r9, #0, 26
    1020:	0000002c 	andeq	r0, r0, ip, lsr #32
    1024:	000bf90f 	andeq	pc, fp, pc, lsl #18
    1028:	02110d00 	andseq	r0, r1, #0, 26
    102c:	0000002c 	andeq	r0, r0, ip, lsr #32
    1030:	00002c0c 	andeq	r2, r0, ip, lsl #24
    1034:	000b0200 	andeq	r0, fp, r0, lsl #4
    1038:	0f001100 	svceq	0x00001100
    103c:	000004f6 	strdeq	r0, [r0], -r6
    1040:	f7041c0d 			; <UNDEFINED> instruction: 0xf7041c0d
    1044:	0c00000a 	stceq	0, cr0, [r0], {10}
    1048:	000007e1 	andeq	r0, r0, r1, ror #15
    104c:	00000b1e 	andeq	r0, r0, lr, lsl fp
    1050:	0000a00d 	andeq	sl, r0, sp
    1054:	0f000d00 	svceq	0x00000d00
    1058:	00000a8f 	andeq	r0, r0, pc, lsl #21
    105c:	0e05b90d 	vmlaeq.f16	s22, s10, s26	; <UNPREDICTABLE>
    1060:	1900000b 	stmdbne	r0, {r0, r1, r3}
    1064:	0000059c 	muleq	r0, ip, r5
    1068:	00003e04 	andeq	r3, r0, r4, lsl #28
    106c:	05c00d00 	strbeq	r0, [r0, #3328]	; 0xd00
    1070:	00000b66 	andeq	r0, r0, r6, ror #22
    1074:	00038b16 	andeq	r8, r3, r6, lsl fp
    1078:	50160000 	andspl	r0, r6, r0
    107c:	01000009 	tsteq	r0, r9
    1080:	0000a216 	andeq	sl, r0, r6, lsl r2
    1084:	a9160200 	ldmdbge	r6, {r9}
    1088:	03000003 	movweq	r0, #3
    108c:	000baa16 	andeq	sl, fp, r6, lsl sl
    1090:	9d160400 	cfldrsls	mvf0, [r6, #-0]
    1094:	0500000b 	streq	r0, [r0, #-11]
    1098:	000ec316 	andeq	ip, lr, r6, lsl r3
    109c:	0f000600 	svceq	0x00000600
    10a0:	00000ea7 	andeq	r0, r0, r7, lsr #29
    10a4:	2a05cd0d 	bcs	1744e0 <shift+0x1744e0>
    10a8:	0f00000b 	svceq	0x0000000b
    10ac:	00000de7 	andeq	r0, r0, r7, ror #27
    10b0:	3e07d70d 	cdpcc	7, 0, cr13, cr7, cr13, {0}
    10b4:	0f000000 	svceq	0x00000000
    10b8:	00000a7c 	andeq	r0, r0, ip, ror sl
    10bc:	2c07ec0d 	stccs	12, cr14, [r7], {13}
    10c0:	04000000 	streq	r0, [r0], #-0
    10c4:	00000d41 	andeq	r0, r0, r1, asr #26
    10c8:	00557b0f 	subseq	r7, r5, pc, lsl #22
    10cc:	8a070000 	bhi	1c10d4 <shift+0x1c10d4>
    10d0:	0400000b 	streq	r0, [r0], #-11
    10d4:	0000015f 	andeq	r0, r0, pc, asr r1
    10d8:	003e810f 	eorseq	r8, lr, pc, lsl #2
    10dc:	3a040000 	bcc	1010e4 <shift+0x1010e4>
    10e0:	0f00000f 	svceq	0x0000000f
    10e4:	00002585 	andeq	r2, r0, r5, lsl #11
    10e8:	04040200 	streq	r0, [r4], #-512	; 0xfffffe00
    10ec:	00000252 	andeq	r0, r0, r2, asr r2
    10f0:	4a030802 	bmi	c3100 <shift+0xc3100>
    10f4:	02000002 	andeq	r0, r0, #2
    10f8:	0a260408 	beq	982120 <shift+0x982120>
    10fc:	10020000 	andne	r0, r2, r0
    1100:	000bc203 	andeq	ip, fp, r3, lsl #4
    1104:	0b950c00 	bleq	fe54410c <__bss_end+0x7e43bcd4>
    1108:	0bdc0000 	bleq	ff701110 <__bss_end+0x7f5f8cd8>
    110c:	a00d0000 	andge	r0, sp, r0
    1110:	ff000000 			; <UNDEFINED> instruction: 0xff000000
    1114:	0bcc0700 	bleq	ff302d1c <__bss_end+0x7f1fa8e4>
    1118:	e50f0000 	str	r0, [pc, #-0]	; 1120 <shift+0x1120>
    111c:	0f000008 	svceq	0x00000008
    1120:	0bdc01f9 	bleq	ff70190c <__bss_end+0x7f5f94d4>
    1124:	ec0f0000 	stc	0, cr0, [pc], {-0}
    1128:	0f000001 	svceq	0x00000001
    112c:	0bdc01ff 	bleq	ff701930 <__bss_end+0x7f5f94f8>
    1130:	711c0000 	tstvc	ip, r0
    1134:	01000000 	mrseq	r0, (UNDEF: 0)
    1138:	0ba503b0 	bleq	fe942000 <__bss_end+0x7e839bc8>
    113c:	3d1c0000 	ldccc	0, cr0, [ip, #-0]
    1140:	01168010 	tsteq	r6, r0, lsl r0
    1144:	9c010000 	stcls	0, cr0, [r1], {-0}
    1148:	00000ca5 	andeq	r0, r0, r5, lsr #25
    114c:	01006e1d 	tsteq	r0, sp, lsl lr
    1150:	0ba503b0 	bleq	fe942018 <__bss_end+0x7e839be0>
    1154:	00000000 	andeq	r0, r0, r0
    1158:	641d0000 	ldrvs	r0, [sp], #-0
    115c:	03b00100 	movseq	r0, #0, 2
    1160:	00000ba5 	andeq	r0, r0, r5, lsr #23
    1164:	00000028 	andeq	r0, r0, r8, lsr #32
    1168:	0070721d 	rsbseq	r7, r0, sp, lsl r2
    116c:	a503b001 	strge	fp, [r3, #-1]
    1170:	6000000c 	andvs	r0, r0, ip
    1174:	1e000000 	cdpne	0, 0, cr0, cr0, cr0, {0}
    1178:	b2010071 	andlt	r0, r1, #113	; 0x71
    117c:	000ba503 	andeq	sl, fp, r3, lsl #10
    1180:	00008000 	andeq	r8, r0, r0
    1184:	00721e00 	rsbseq	r1, r2, r0, lsl #28
    1188:	a503b201 	strge	fp, [r3, #-513]	; 0xfffffdff
    118c:	e000000b 	and	r0, r0, fp
    1190:	1e000000 	cdpne	0, 0, cr0, cr0, cr0, {0}
    1194:	b2010079 	andlt	r0, r1, #121	; 0x79
    1198:	000ba503 	andeq	sl, fp, r3, lsl #10
    119c:	00013800 	andeq	r3, r1, r0, lsl #16
    11a0:	7a6c1e00 	bvc	1b089a8 <shift+0x1b089a8>
    11a4:	b3010031 	movwlt	r0, #4145	; 0x1031
    11a8:	000b9a03 	andeq	r9, fp, r3, lsl #20
    11ac:	00017000 	andeq	r7, r1, r0
    11b0:	7a6c1e00 	bvc	1b089b8 <shift+0x1b089b8>
    11b4:	b3010032 	movwlt	r0, #4146	; 0x1032
    11b8:	000b9a03 	andeq	r9, fp, r3, lsl #20
    11bc:	00018300 	andeq	r8, r1, r0, lsl #6
    11c0:	00691e00 	rsbeq	r1, r9, r0, lsl #28
    11c4:	9a03b301 	bls	eddd0 <shift+0xeddd0>
    11c8:	9600000b 	strls	r0, [r0], -fp
    11cc:	1e000001 	cdpne	0, 0, cr0, cr0, cr1, {0}
    11d0:	b301006b 	movwlt	r0, #4203	; 0x106b
    11d4:	000b9a03 	andeq	r9, fp, r3, lsl #20
    11d8:	0001e400 	andeq	lr, r1, r0, lsl #8
    11dc:	04060000 	streq	r0, [r6], #-0
    11e0:	00000ba5 	andeq	r0, r0, r5, lsr #23
	...

Disassembly of section .debug_abbrev:

00000000 <.debug_abbrev>:
   0:	10001101 	andne	r1, r0, r1, lsl #2
   4:	12011106 	andne	r1, r1, #-2147483647	; 0x80000001
   8:	1b080301 	blne	200c14 <shift+0x200c14>
   c:	13082508 	movwne	r2, #34056	; 0x8508
  10:	00000005 	andeq	r0, r0, r5
  14:	10001101 	andne	r1, r0, r1, lsl #2
  18:	12011106 	andne	r1, r1, #-2147483647	; 0x80000001
  1c:	1b080301 	blne	200c28 <shift+0x200c28>
  20:	13082508 	movwne	r2, #34056	; 0x8508
  24:	00000005 	andeq	r0, r0, r5
  28:	10001101 	andne	r1, r0, r1, lsl #2
  2c:	12011106 	andne	r1, r1, #-2147483647	; 0x80000001
  30:	1b080301 	blne	200c3c <shift+0x200c3c>
  34:	13082508 	movwne	r2, #34056	; 0x8508
  38:	00000005 	andeq	r0, r0, r5
  3c:	25011101 	strcs	r1, [r1, #-257]	; 0xfffffeff
  40:	030b130e 	movweq	r1, #45838	; 0xb30e
  44:	110e1b0e 	tstne	lr, lr, lsl #22
  48:	10061201 	andne	r1, r6, r1, lsl #4
  4c:	02000017 	andeq	r0, r0, #23
  50:	0b0b0024 	bleq	2c00e8 <shift+0x2c00e8>
  54:	0e030b3e 	vmoveq.16	d3[0], r0
  58:	24030000 	strcs	r0, [r3], #-0
  5c:	3e0b0b00 	vmlacc.f64	d0, d11, d0
  60:	0008030b 	andeq	r0, r8, fp, lsl #6
  64:	00160400 	andseq	r0, r6, r0, lsl #8
  68:	0b3a0e03 	bleq	e8387c <shift+0xe8387c>
  6c:	13490b3b 	movtne	r0, #39739	; 0x9b3b
  70:	0f050000 	svceq	0x00050000
  74:	000b0b00 	andeq	r0, fp, r0, lsl #22
  78:	000f0600 	andeq	r0, pc, r0, lsl #12
  7c:	13490b0b 	movtne	r0, #39691	; 0x9b0b
  80:	26070000 	strcs	r0, [r7], -r0
  84:	00134900 	andseq	r4, r3, r0, lsl #18
  88:	01130800 	tsteq	r3, r0, lsl #16
  8c:	0b0b0e03 	bleq	2c38a0 <shift+0x2c38a0>
  90:	0b3b0b3a 	bleq	ec2d80 <shift+0xec2d80>
  94:	00001301 	andeq	r1, r0, r1, lsl #6
  98:	03000d09 	movweq	r0, #3337	; 0xd09
  9c:	3b0b3a0e 	blcc	2ce8dc <shift+0x2ce8dc>
  a0:	3813490b 	ldmdacc	r3, {r0, r1, r3, r8, fp, lr}
  a4:	0a00000b 	beq	d8 <shift+0xd8>
  a8:	0e03000d 	cdpeq	0, 0, cr0, cr3, cr13, {0}
  ac:	053b0b3a 	ldreq	r0, [fp, #-2874]!	; 0xfffff4c6
  b0:	0b381349 	bleq	e04ddc <shift+0xe04ddc>
  b4:	160b0000 	strne	r0, [fp], -r0
  b8:	3a0e0300 	bcc	380cc0 <shift+0x380cc0>
  bc:	000b3b0b 	andeq	r3, fp, fp, lsl #22
  c0:	01010c00 	tsteq	r1, r0, lsl #24
  c4:	13011349 	movwne	r1, #4937	; 0x1349
  c8:	210d0000 	mrscs	r0, (UNDEF: 13)
  cc:	2f134900 	svccs	0x00134900
  d0:	0e00000b 	cdpeq	0, 0, cr0, cr0, cr11, {0}
  d4:	0e030013 	mcreq	0, 0, r0, cr3, cr3, {0}
  d8:	0000193c 	andeq	r1, r0, ip, lsr r9
  dc:	0300340f 	movweq	r3, #1039	; 0x40f
  e0:	3b0b3a0e 	blcc	2ce920 <shift+0x2ce920>
  e4:	3f134905 	svccc	0x00134905
  e8:	00193c19 	andseq	r3, r9, r9, lsl ip
  ec:	00341000 	eorseq	r1, r4, r0
  f0:	0b3a0e03 	bleq	e83904 <shift+0xe83904>
  f4:	13490b3b 	movtne	r0, #39739	; 0x9b3b
  f8:	193c193f 	ldmdbne	ip!, {r0, r1, r2, r3, r4, r5, r8, fp, ip}
  fc:	21110000 	tstcs	r1, r0
 100:	12000000 	andne	r0, r0, #0
 104:	19270115 	stmdbne	r7!, {r0, r2, r4, r8}
 108:	13011349 	movwne	r1, #4937	; 0x1349
 10c:	05130000 	ldreq	r0, [r3, #-0]
 110:	00134900 	andseq	r4, r3, r0, lsl #18
 114:	00261400 	eoreq	r1, r6, r0, lsl #8
 118:	04150000 	ldreq	r0, [r5], #-0
 11c:	0b0e0301 	bleq	380d28 <shift+0x380d28>
 120:	3a13490b 	bcc	4d2554 <shift+0x4d2554>
 124:	010b3b0b 	tsteq	fp, fp, lsl #22
 128:	16000013 			; <UNDEFINED> instruction: 0x16000013
 12c:	0e030028 	cdpeq	0, 0, cr0, cr3, cr8, {1}
 130:	00000b1c 	andeq	r0, r0, ip, lsl fp
 134:	27001517 	smladcs	r0, r7, r5, r1
 138:	18000019 	stmdane	r0, {r0, r3, r4}
 13c:	0e030016 	mcreq	0, 0, r0, cr3, cr6, {0}
 140:	053b0b3a 	ldreq	r0, [fp, #-2874]!	; 0xfffff4c6
 144:	00001349 	andeq	r1, r0, r9, asr #6
 148:	03010419 	movweq	r0, #5145	; 0x1419
 14c:	490b0b0e 	stmdbmi	fp, {r1, r2, r3, r8, r9, fp}
 150:	3b0b3a13 	blcc	2ce9a4 <shift+0x2ce9a4>
 154:	00130105 	andseq	r0, r3, r5, lsl #2
 158:	01131a00 	tsteq	r3, r0, lsl #20
 15c:	0b0b0e03 	bleq	2c3970 <shift+0x2c3970>
 160:	053b0b3a 	ldreq	r0, [fp, #-2874]!	; 0xfffff4c6
 164:	00001301 	andeq	r1, r0, r1, lsl #6
 168:	03000d1b 	movweq	r0, #3355	; 0xd1b
 16c:	3b0b3a08 	blcc	2ce994 <shift+0x2ce994>
 170:	38134905 	ldmdacc	r3, {r0, r2, r8, fp, lr}
 174:	1c00000b 	stcne	0, cr0, [r0], {11}
 178:	193f012e 	ldmdbne	pc!, {r1, r2, r3, r5, r8}	; <UNPREDICTABLE>
 17c:	0b3a0e03 	bleq	e83990 <shift+0xe83990>
 180:	1927053b 	stmdbne	r7!, {r0, r1, r3, r4, r5, r8, sl}
 184:	01111349 	tsteq	r1, r9, asr #6
 188:	18400612 	stmdane	r0, {r1, r4, r9, sl}^
 18c:	01194297 			; <UNDEFINED> instruction: 0x01194297
 190:	1d000013 	stcne	0, cr0, [r0, #-76]	; 0xffffffb4
 194:	08030005 	stmdaeq	r3, {r0, r2}
 198:	053b0b3a 	ldreq	r0, [fp, #-2874]!	; 0xfffff4c6
 19c:	17021349 	strne	r1, [r2, -r9, asr #6]
 1a0:	341e0000 	ldrcc	r0, [lr], #-0
 1a4:	3a080300 	bcc	200dac <shift+0x200dac>
 1a8:	49053b0b 	stmdbmi	r5, {r0, r1, r3, r8, r9, fp, ip, sp}
 1ac:	00170213 	andseq	r0, r7, r3, lsl r2
	...

Disassembly of section .debug_aranges:

00000000 <.debug_aranges>:
   0:	0000001c 	andeq	r0, r0, ip, lsl r0
   4:	00000002 	andeq	r0, r0, r2
   8:	00040000 	andeq	r0, r4, r0
   c:	00000000 	andeq	r0, r0, r0
  10:	80103a68 	andshi	r3, r0, r8, ror #20
  14:	00000276 	andeq	r0, r0, r6, ror r2
	...
  20:	0000001c 	andeq	r0, r0, ip, lsl r0
  24:	01bf0002 			; <UNDEFINED> instruction: 0x01bf0002
  28:	00040000 	andeq	r0, r4, r0
  2c:	00000000 	andeq	r0, r0, r0
  30:	80103ce0 	andshi	r3, r0, r0, ror #25
  34:	00000030 	andeq	r0, r0, r0, lsr r0
	...
  40:	0000001c 	andeq	r0, r0, ip, lsl r0
  44:	037a0002 	cmneq	sl, #2
  48:	00040000 	andeq	r0, r4, r0
  4c:	00000000 	andeq	r0, r0, r0
  50:	80103d10 	andshi	r3, r0, r0, lsl sp
  54:	0000000c 	andeq	r0, r0, ip
	...
  60:	0000001c 	andeq	r0, r0, ip, lsl r0
  64:	05390002 	ldreq	r0, [r9, #-2]!
  68:	00040000 	andeq	r0, r4, r0
  6c:	00000000 	andeq	r0, r0, r0
  70:	80103d1c 	andshi	r3, r0, ip, lsl sp
  74:	00000116 	andeq	r0, r0, r6, lsl r1
	...

Disassembly of section .debug_loc:

00000000 <.debug_loc>:
   0:	00000000 	andeq	r0, r0, r0
   4:	00000012 	andeq	r0, r0, r2, lsl r0
   8:	93500006 	cmpls	r0, #6
   c:	04935104 	ldreq	r5, [r3], #260	; 0x104
  10:	00000012 	andeq	r0, r0, r2, lsl r0
  14:	00000116 	andeq	r0, r0, r6, lsl r1
  18:	03f30006 	mvnseq	r0, #6
  1c:	9f2500f5 	svcls	0x002500f5
	...
  2c:	0000006a 	andeq	r0, r0, sl, rrx
  30:	93520006 	cmpls	r2, #6
  34:	04935304 	ldreq	r5, [r3], #772	; 0x304
  38:	0000006a 	andeq	r0, r0, sl, rrx
  3c:	000000fe 	strdeq	r0, [r0], -lr
  40:	03f30006 	mvnseq	r0, #6
  44:	9f2502f5 	svcls	0x002502f5
  48:	000000fe 	strdeq	r0, [r0], -lr
  4c:	00000116 	andeq	r0, r0, r6, lsl r1
  50:	93520006 	cmpls	r2, #6
  54:	04935304 	ldreq	r5, [r3], #772	; 0x304
	...
  64:	000000fe 	strdeq	r0, [r0], -lr
  68:	00910002 	addseq	r0, r1, r2
  6c:	000000fe 	strdeq	r0, [r0], -lr
  70:	00000116 	andeq	r0, r0, r6, lsl r1
  74:	00910002 	addseq	r0, r1, r2
	...
  84:	00000076 	andeq	r0, r0, r6, ror r0
  88:	089e000a 	ldmeq	lr, {r1, r3}
	...
  94:	00000076 	andeq	r0, r0, r6, ror r0
  98:	000000c4 	andeq	r0, r0, r4, asr #1
  9c:	93500006 	cmpls	r0, #6
  a0:	04935104 	ldreq	r5, [r3], #260	; 0x104
  a4:	000000e6 	andeq	r0, r0, r6, ror #1
  a8:	000000ea 	andeq	r0, r0, sl, ror #1
  ac:	93500006 	cmpls	r0, #6
  b0:	04935104 	ldreq	r5, [r3], #260	; 0x104
  b4:	000000f0 	strdeq	r0, [r0], -r0	; <UNPREDICTABLE>
  b8:	000000fe 	strdeq	r0, [r0], -lr
  bc:	93500006 	cmpls	r0, #6
  c0:	04935104 	ldreq	r5, [r3], #260	; 0x104
  c4:	000000fe 	strdeq	r0, [r0], -lr
  c8:	00000116 	andeq	r0, r0, r6, lsl r1
  cc:	089e000a 	ldmeq	lr, {r1, r3}
	...
  e0:	0000000e 	andeq	r0, r0, lr
  e4:	00000062 	andeq	r0, r0, r2, rrx
  e8:	93540006 	cmpls	r4, #6
  ec:	04935504 	ldreq	r5, [r3], #1284	; 0x504
  f0:	00000076 	andeq	r0, r0, r6, ror r0
  f4:	0000008a 	andeq	r0, r0, sl, lsl #1
  f8:	93540006 	cmpls	r4, #6
  fc:	04935504 	ldreq	r5, [r3], #1284	; 0x504
 100:	00000098 	muleq	r0, r8, r0
 104:	000000a8 	andeq	r0, r0, r8, lsr #1
 108:	93540006 	cmpls	r4, #6
 10c:	04935504 	ldreq	r5, [r3], #1284	; 0x504
 110:	000000aa 	andeq	r0, r0, sl, lsr #1
 114:	000000c8 	andeq	r0, r0, r8, asr #1
 118:	93540006 	cmpls	r4, #6
 11c:	04935504 	ldreq	r5, [r3], #1284	; 0x504
 120:	000000ec 	andeq	r0, r0, ip, ror #1
 124:	00000116 	andeq	r0, r0, r6, lsl r1
 128:	93540006 	cmpls	r4, #6
 12c:	04935504 	ldreq	r5, [r3], #1284	; 0x504
	...
 138:	0000000e 	andeq	r0, r0, lr
 13c:	0000004e 	andeq	r0, r0, lr, asr #32
 140:	93520006 	cmpls	r2, #6
 144:	04935304 	ldreq	r5, [r3], #772	; 0x304
 148:	0000004e 	andeq	r0, r0, lr, asr #32
 14c:	000000f0 	strdeq	r0, [r0], -r0	; <UNPREDICTABLE>
 150:	93580006 	cmpls	r8, #6
 154:	04935904 	ldreq	r5, [r3], #2308	; 0x904
 158:	000000fe 	strdeq	r0, [r0], -lr
 15c:	00000116 	andeq	r0, r0, r6, lsl r1
 160:	93520006 	cmpls	r2, #6
 164:	04935304 	ldreq	r5, [r3], #772	; 0x304
	...
 170:	00000110 	andeq	r0, r0, r0, lsl r1
 174:	00000116 	andeq	r0, r0, r6, lsl r1
 178:	00560001 	subseq	r0, r6, r1
 17c:	00000000 	andeq	r0, r0, r0
 180:	2c000000 	stccs	0, cr0, [r0], {-0}
 184:	3a000000 	bcc	18c <shift+0x18c>
 188:	01000000 	mrseq	r0, (UNDEF: 0)
 18c:	00005100 	andeq	r5, r0, r0, lsl #2
 190:	00000000 	andeq	r0, r0, r0
 194:	00820000 	addeq	r0, r2, r0
 198:	00860000 	addeq	r0, r6, r0
 19c:	00010000 	andeq	r0, r1, r0
 1a0:	00008656 	andeq	r8, r0, r6, asr r6
 1a4:	00009800 	andeq	r9, r0, r0, lsl #16
 1a8:	5c000100 	stfpls	f0, [r0], {-0}
 1ac:	00000098 	muleq	r0, r8, r0
 1b0:	0000009c 	muleq	r0, ip, r0
 1b4:	7f7c0003 	svcvc	0x007c0003
 1b8:	00009c9f 	muleq	r0, pc, ip	; <UNPREDICTABLE>
 1bc:	0000aa00 	andeq	sl, r0, r0, lsl #20
 1c0:	5c000100 	stfpls	f0, [r0], {-0}
 1c4:	000000aa 	andeq	r0, r0, sl, lsr #1
 1c8:	000000ae 	andeq	r0, r0, lr, lsr #1
 1cc:	7f7c0003 	svcvc	0x007c0003
 1d0:	0000ae9f 	muleq	r0, pc, lr	; <UNPREDICTABLE>
 1d4:	0000c000 	andeq	ip, r0, r0
 1d8:	5c000100 	stfpls	f0, [r0], {-0}
	...
 1e4:	0000002e 	andeq	r0, r0, lr, lsr #32
 1e8:	000000f0 	strdeq	r0, [r0], -r0	; <UNPREDICTABLE>
 1ec:	00560001 	subseq	r0, r6, r1
 1f0:	00000000 	andeq	r0, r0, r0
 1f4:	Address 0x00000000000001f4 is out of bounds.


Disassembly of section .debug_str:

00000000 <.debug_str>:
   0:	376d7261 	strbcc	r7, [sp, -r1, ror #4]!
   4:	00743031 	rsbseq	r3, r4, r1, lsr r0
   8:	5f6d7261 	svcpl	0x006d7261
   c:	68637261 	stmdavs	r3!, {r0, r5, r6, r9, ip, sp, lr}^
  10:	6d77695f 			; <UNDEFINED> instruction: 0x6d77695f
  14:	0074786d 	rsbseq	r7, r4, sp, ror #16
  18:	6f68735f 	svcvs	0x0068735f
  1c:	75627472 	strbvc	r7, [r2, #-1138]!	; 0xfffffb8e
  20:	52410066 	subpl	r0, r1, #102	; 0x66
  24:	51455f4d 	cmppl	r5, sp, asr #30
  28:	4f495f00 	svcmi	0x00495f00
  2c:	636f6c5f 	cmnvs	pc, #24320	; 0x5f00
  30:	00745f6b 	rsbseq	r5, r4, fp, ror #30
  34:	366d7261 	strbtcc	r7, [sp], -r1, ror #4
  38:	70003030 	andvc	r3, r0, r0, lsr r0
  3c:	72676f72 	rsbvc	r6, r7, #456	; 0x1c8
  40:	695f6d61 	ldmdbvs	pc, {r0, r5, r6, r8, sl, fp, sp, lr}^	; <UNPREDICTABLE>
  44:	636f766e 	cmnvs	pc, #115343360	; 0x6e00000
  48:	6f697461 	svcvs	0x00697461
  4c:	68735f6e 	ldmdavs	r3!, {r1, r2, r3, r5, r6, r8, r9, sl, fp, ip, lr}^
  50:	5f74726f 	svcpl	0x0074726f
  54:	656d616e 	strbvs	r6, [sp, #-366]!	; 0xfffffe92
  58:	64747300 	ldrbtvs	r7, [r4], #-768	; 0xfffffd00
  5c:	00727265 	rsbseq	r7, r2, r5, ror #4
  60:	326d7261 	rsbcc	r7, sp, #268435462	; 0x10000006
  64:	4f495f00 	svcmi	0x00495f00
  68:	6675625f 			; <UNDEFINED> instruction: 0x6675625f
  6c:	646e655f 	strbtvs	r6, [lr], #-1375	; 0xfffffaa1
  70:	755f5f00 	ldrbvc	r5, [pc, #-3840]	; fffff178 <__bss_end+0x7fef6d40>
  74:	6d766964 			; <UNDEFINED> instruction: 0x6d766964
  78:	6964646f 	stmdbvs	r4!, {r0, r1, r2, r3, r5, r6, sl, sp, lr}^
  7c:	72610034 	rsbvc	r0, r1, #52	; 0x34
  80:	4200366d 	andmi	r3, r0, #114294784	; 0x6d00000
  84:	5f455341 	svcpl	0x00455341
  88:	48435241 	stmdami	r3, {r0, r6, r9, ip, lr}^
  8c:	5f4d385f 	svcpl	0x004d385f
  90:	45534142 	ldrbmi	r4, [r3, #-322]	; 0xfffffebe
  94:	6d726100 	ldfvse	f6, [r2, #-0]
  98:	5f70665f 	svcpl	0x0070665f
  9c:	65646f6d 	strbvs	r6, [r4, #-3949]!	; 0xfffff093
  a0:	5241006c 	subpl	r0, r1, #108	; 0x6c
  a4:	43505f4d 	cmpmi	r0, #308	; 0x134
  a8:	41415f53 	cmpmi	r1, r3, asr pc
  ac:	5f534350 	svcpl	0x00534350
  b0:	4d4d5749 	stclmi	7, cr5, [sp, #-292]	; 0xfffffedc
  b4:	6f005458 	svcvs	0x00005458
  b8:	706f7470 	rsbvc	r7, pc, r0, ror r4	; <UNPREDICTABLE>
  bc:	72610074 	rsbvc	r0, r1, #116	; 0x74
  c0:	4200396d 	andmi	r3, r0, #1785856	; 0x1b4000
  c4:	5f455341 	svcpl	0x00455341
  c8:	48435241 	stmdami	r3, {r0, r6, r9, ip, lr}^
  cc:	4200305f 	andmi	r3, r0, #95	; 0x5f
  d0:	5f455341 	svcpl	0x00455341
  d4:	48435241 	stmdami	r3, {r0, r6, r9, ip, lr}^
  d8:	4200325f 	andmi	r3, r0, #-268435451	; 0xf0000005
  dc:	5f455341 	svcpl	0x00455341
  e0:	48435241 	stmdami	r3, {r0, r6, r9, ip, lr}^
  e4:	4200335f 	andmi	r3, r0, #2080374785	; 0x7c000001
  e8:	5f455341 	svcpl	0x00455341
  ec:	48435241 	stmdami	r3, {r0, r6, r9, ip, lr}^
  f0:	4200345f 	andmi	r3, r0, #1593835520	; 0x5f000000
  f4:	5f455341 	svcpl	0x00455341
  f8:	48435241 	stmdami	r3, {r0, r6, r9, ip, lr}^
  fc:	4200355f 	andmi	r3, r0, #398458880	; 0x17c00000
 100:	5f455341 	svcpl	0x00455341
 104:	48435241 	stmdami	r3, {r0, r6, r9, ip, lr}^
 108:	4200365f 	andmi	r3, r0, #99614720	; 0x5f00000
 10c:	5f455341 	svcpl	0x00455341
 110:	48435241 	stmdami	r3, {r0, r6, r9, ip, lr}^
 114:	6300375f 	movwvs	r3, #1887	; 0x75f
 118:	6574726f 	ldrbvs	r7, [r4, #-623]!	; 0xfffffd91
 11c:	35316178 	ldrcc	r6, [r1, #-376]!	; 0xfffffe88
 120:	74726f63 	ldrbtvc	r6, [r2], #-3939	; 0xfffff09d
 124:	37617865 	strbcc	r7, [r1, -r5, ror #16]!
 128:	36616600 	strbtcc	r6, [r1], -r0, lsl #12
 12c:	65743630 	ldrbvs	r3, [r4, #-1584]!	; 0xfffff9d0
 130:	4f495f00 	svcmi	0x00495f00
 134:	6972775f 	ldmdbvs	r2!, {r0, r1, r2, r3, r4, r6, r8, r9, sl, ip, sp, lr}^
 138:	655f6574 	ldrbvs	r6, [pc, #-1396]	; fffffbcc <__bss_end+0x7fef7794>
 13c:	7600646e 	strvc	r6, [r0], -lr, ror #8
 140:	725f7066 	subsvc	r7, pc, #102	; 0x66
 144:	745f6765 	ldrbvc	r6, [pc], #-1893	; 14c <shift+0x14c>
 148:	00657079 	rsbeq	r7, r5, r9, ror r0
 14c:	36706d66 	ldrbtcc	r6, [r0], -r6, ror #26
 150:	67003632 	smladxvs	r0, r2, r6, r3
 154:	61647465 	cmnvs	r4, r5, ror #8
 158:	655f6574 	ldrbvs	r6, [pc, #-1396]	; fffffbec <__bss_end+0x7fef77b4>
 15c:	55007272 	strpl	r7, [r0, #-626]	; 0xfffffd8e
 160:	79744953 	ldmdbvc	r4!, {r0, r1, r4, r6, r8, fp, lr}^
 164:	5f006570 	svcpl	0x00006570
 168:	67616c66 	strbvs	r6, [r1, -r6, ror #24]!
 16c:	72610073 	rsbvc	r0, r1, #115	; 0x73
 170:	3031366d 	eorscc	r3, r1, sp, ror #12
 174:	6d726100 	ldfvse	f6, [r2, #-0]
 178:	00653031 	rsbeq	r3, r5, r1, lsr r0
 17c:	396d7261 	stmdbcc	sp!, {r0, r5, r6, r9, ip, sp, lr}^
 180:	6f630065 	svcvs	0x00630065
 184:	78657472 	stmdavc	r5!, {r1, r4, r5, r6, sl, ip, sp, lr}^
 188:	63323761 	teqvs	r2, #25427968	; 0x1840000
 18c:	6574726f 	ldrbvs	r7, [r4, #-623]!	; 0xfffffd91
 190:	33356178 	teqcc	r5, #120, 2
 194:	53414200 	movtpl	r4, #4608	; 0x1200
 198:	52415f45 	subpl	r5, r1, #276	; 0x114
 19c:	355f4843 	ldrbcc	r4, [pc, #-2115]	; fffff961 <__bss_end+0x7fef7529>
 1a0:	004a4554 	subeq	r4, sl, r4, asr r5
 1a4:	5f6d7261 	svcpl	0x006d7261
 1a8:	73666363 	cmnvc	r6, #-1946157055	; 0x8c000001
 1ac:	74735f6d 	ldrbtvc	r5, [r3], #-3949	; 0xfffff093
 1b0:	00657461 	rsbeq	r7, r5, r1, ror #8
 1b4:	316d7261 	cmncc	sp, r1, ror #4
 1b8:	65323230 	ldrvs	r3, [r2, #-560]!	; 0xfffffdd0
 1bc:	36616600 	strbtcc	r6, [r1], -r0, lsl #12
 1c0:	75003632 	strvc	r3, [r0, #-1586]	; 0xfffff9ce
 1c4:	6570736e 	ldrbvs	r7, [r0, #-878]!	; 0xfffffc92
 1c8:	74735f63 	ldrbtvc	r5, [r3], #-3939	; 0xfffff09d
 1cc:	676e6972 			; <UNDEFINED> instruction: 0x676e6972
 1d0:	6f630073 	svcvs	0x00630073
 1d4:	78657472 	stmdavc	r5!, {r1, r4, r5, r6, sl, ip, sp, lr}^
 1d8:	6c70306d 	ldclvs	0, cr3, [r0], #-436	; 0xfffffe4c
 1dc:	6d737375 	ldclvs	3, cr7, [r3, #-468]!	; 0xfffffe2c
 1e0:	6d6c6c61 	stclvs	12, cr6, [ip, #-388]!	; 0xfffffe7c
 1e4:	69746c75 	ldmdbvs	r4!, {r0, r2, r4, r5, r6, sl, fp, sp, lr}^
 1e8:	00796c70 	rsbseq	r6, r9, r0, ror ip
 1ec:	6c635f5f 	stclvs	15, cr5, [r3], #-380	; 0xfffffe84
 1f0:	61745f7a 	cmnvs	r4, sl, ror pc
 1f4:	52410062 	subpl	r0, r1, #98	; 0x62
 1f8:	43565f4d 	cmpmi	r6, #308	; 0x134
 1fc:	6d726100 	ldfvse	f6, [r2, #-0]
 200:	6372615f 	cmnvs	r2, #-1073741801	; 0xc0000017
 204:	73785f68 	cmnvc	r8, #104, 30	; 0x1a0
 208:	656c6163 	strbvs	r6, [ip, #-355]!	; 0xfffffe9d
 20c:	6d726100 	ldfvse	f6, [r2, #-0]
 210:	6d647437 	cfstrdvs	mvd7, [r4, #-220]!	; 0xffffff24
 214:	63007369 	movwvs	r7, #873	; 0x369
 218:	6574726f 	ldrbvs	r7, [r4, #-623]!	; 0xfffffd91
 21c:	70306d78 	eorsvc	r6, r0, r8, ror sp
 220:	0073756c 	rsbseq	r7, r3, ip, ror #10
 224:	5f4d5241 	svcpl	0x004d5241
 228:	41005356 	tstmi	r0, r6, asr r3
 22c:	475f4d52 			; <UNDEFINED> instruction: 0x475f4d52
 230:	72610045 	rsbvc	r0, r1, #69	; 0x45
 234:	75745f6d 	ldrbvc	r5, [r4, #-3949]!	; 0xfffff093
 238:	735f656e 	cmpvc	pc, #461373440	; 0x1b800000
 23c:	6e6f7274 	mcrvs	2, 3, r7, cr15, cr4, {3}
 240:	6d726167 	ldfvse	f6, [r2, #-412]!	; 0xfffffe64
 244:	6d726100 	ldfvse	f6, [r2, #-0]
 248:	6f630037 	svcvs	0x00630037
 24c:	656c706d 	strbvs	r7, [ip, #-109]!	; 0xffffff93
 250:	6c662078 	stclvs	0, cr2, [r6], #-480	; 0xfffffe20
 254:	0074616f 	rsbseq	r6, r4, pc, ror #2
 258:	5f4d5241 	svcpl	0x004d5241
 25c:	61005447 	tstvs	r0, r7, asr #8
 260:	32366d72 	eorscc	r6, r6, #7296	; 0x1c80
 264:	65720030 	ldrbvs	r0, [r2, #-48]!	; 0xffffffd0
 268:	63007367 	movwvs	r7, #871	; 0x367
 26c:	6574726f 	ldrbvs	r7, [r4, #-623]!	; 0xfffffd91
 270:	00356178 	eorseq	r6, r5, r8, ror r1
 274:	74726f63 	ldrbtvc	r6, [r2], #-3939	; 0xfffff09d
 278:	38617865 	stmdacc	r1!, {r0, r2, r5, r6, fp, ip, sp, lr}^
 27c:	726f6300 	rsbvc	r6, pc, #0, 6
 280:	61786574 	cmnvs	r8, r4, ror r5
 284:	5f5f0039 	svcpl	0x005f0039
 288:	656d6974 	strbvs	r6, [sp, #-2420]!	; 0xfffff68c
 28c:	656e6f7a 	strbvs	r6, [lr, #-3962]!	; 0xfffff086
 290:	53414200 	movtpl	r4, #4608	; 0x1200
 294:	52415f45 	subpl	r5, r1, #276	; 0x114
 298:	375f4843 	ldrbcc	r4, [pc, -r3, asr #16]
 29c:	68004d45 	stmdavs	r0, {r0, r2, r6, r8, sl, fp, lr}
 2a0:	76687361 	strbtvc	r7, [r8], -r1, ror #6
 2a4:	745f6c61 	ldrbvc	r6, [pc], #-3169	; 2ac <shift+0x2ac>
 2a8:	53414200 	movtpl	r4, #4608	; 0x1200
 2ac:	52415f45 	subpl	r5, r1, #276	; 0x114
 2b0:	365f4843 	ldrbcc	r4, [pc], -r3, asr #16
 2b4:	61005a4b 	tstvs	r0, fp, asr #20
 2b8:	34376d72 	ldrtcc	r6, [r7], #-3442	; 0xfffff28e
 2bc:	61007430 	tstvs	r0, r0, lsr r4
 2c0:	615f6d72 	cmpvs	pc, r2, ror sp	; <UNPREDICTABLE>
 2c4:	5f686372 	svcpl	0x00686372
 2c8:	5f6d7261 	svcpl	0x006d7261
 2cc:	69647768 	stmdbvs	r4!, {r3, r5, r6, r8, r9, sl, ip, sp, lr}^
 2d0:	705f0076 	subsvc	r0, pc, r6, ror r0	; <UNPREDICTABLE>
 2d4:	6100736f 	tstvs	r0, pc, ror #6
 2d8:	665f6d72 			; <UNDEFINED> instruction: 0x665f6d72
 2dc:	645f7570 	ldrbvs	r7, [pc], #-1392	; 2e4 <shift+0x2e4>
 2e0:	00637365 	rsbeq	r7, r3, r5, ror #6
 2e4:	74726f63 	ldrbtvc	r6, [r2], #-3939	; 0xfffff09d
 2e8:	37617865 	strbcc	r7, [r1, -r5, ror #16]!
 2ec:	726f6333 	rsbvc	r6, pc, #-872415232	; 0xcc000000
 2f0:	61786574 	cmnvs	r8, r4, ror r5
 2f4:	73003533 	movwvc	r3, #1331	; 0x533
 2f8:	756f6474 	strbvc	r6, [pc, #-1140]!	; fffffe8c <__bss_end+0x7fef7a54>
 2fc:	6c610074 	stclvs	0, cr0, [r1], #-464	; 0xfffffe30
 300:	70665f6c 	rsbvc	r5, r6, ip, ror #30
 304:	5f007375 	svcpl	0x00007375
 308:	735f4f49 	cmpvc	pc, #292	; 0x124
 30c:	5f657661 	svcpl	0x00657661
 310:	00646e65 	rsbeq	r6, r4, r5, ror #28
 314:	6574706f 	ldrbvs	r7, [r4, #-111]!	; 0xffffff91
 318:	5f007272 	svcpl	0x00007272
 31c:	5f727563 	svcpl	0x00727563
 320:	756c6f63 	strbvc	r6, [ip, #-3939]!	; 0xfffff09d
 324:	66006e6d 	strvs	r6, [r0], -sp, ror #28
 328:	36323661 	ldrtcc	r3, [r2], -r1, ror #12
 32c:	61006574 	tstvs	r0, r4, ror r5
 330:	64376d72 	ldrtvs	r6, [r7], #-3442	; 0xfffff28e
 334:	7300696d 	movwvc	r6, #2413	; 0x96d
 338:	6e6f7274 	mcrvs	2, 3, r7, cr15, cr4, {3}
 33c:	6d726167 	ldfvse	f6, [r2, #-412]!	; 0xfffffe64
 340:	00303131 	eorseq	r3, r0, r1, lsr r1
 344:	45534142 	ldrbmi	r4, [r3, #-322]	; 0xfffffebe
 348:	4352415f 	cmpmi	r2, #-1073741801	; 0xc0000017
 34c:	4d335f48 	ldcmi	15, cr5, [r3, #-288]!	; 0xfffffee0
 350:	6e6f6c00 	cdpvs	12, 6, cr6, cr15, cr0, {0}
 354:	6f6c2067 	svcvs	0x006c2067
 358:	7520676e 	strvc	r6, [r0, #-1902]!	; 0xfffff892
 35c:	6769736e 	strbvs	r7, [r9, -lr, ror #6]!
 360:	2064656e 	rsbcs	r6, r4, lr, ror #10
 364:	00746e69 	rsbseq	r6, r4, r9, ror #28
 368:	6f63706d 	svcvs	0x0063706d
 36c:	6f6e6572 	svcvs	0x006e6572
 370:	00706676 	rsbseq	r6, r0, r6, ror r6
 374:	396d7261 	stmdbcc	sp!, {r0, r5, r6, r9, ip, sp, lr}^
 378:	696d6474 	stmdbvs	sp!, {r2, r4, r5, r6, sl, sp, lr}^
 37c:	6d726100 	ldfvse	f6, [r2, #-0]
 380:	6e6f635f 	mcrvs	3, 3, r6, cr15, cr15, {2}
 384:	6f635f64 	svcvs	0x00635f64
 388:	41006564 	tstmi	r0, r4, ror #10
 38c:	505f4d52 	subspl	r4, pc, r2, asr sp	; <UNPREDICTABLE>
 390:	415f5343 	cmpmi	pc, r3, asr #6
 394:	53435041 	movtpl	r5, #12353	; 0x3041
 398:	4f495f00 	svcmi	0x00495f00
 39c:	6361625f 	cmnvs	r1, #-268435451	; 0xf0000005
 3a0:	5f70756b 	svcpl	0x0070756b
 3a4:	65736162 	ldrbvs	r6, [r3, #-354]!	; 0xfffffe9e
 3a8:	4d524100 	ldfmie	f4, [r2, #-0]
 3ac:	5343505f 	movtpl	r5, #12383	; 0x305f
 3b0:	5041415f 	subpl	r4, r1, pc, asr r1
 3b4:	4c5f5343 	mrrcmi	3, 4, r5, pc, cr3	; <UNPREDICTABLE>
 3b8:	4c41434f 	mcrrmi	3, 4, r4, r1, cr15
 3bc:	6d726100 	ldfvse	f6, [r2, #-0]
 3c0:	7570665f 	ldrbvc	r6, [r0, #-1631]!	; 0xfffff9a1
 3c4:	6165665f 	cmnvs	r5, pc, asr r6
 3c8:	65727574 	ldrbvs	r7, [r2, #-1396]!	; 0xfffffa8c
 3cc:	7465735f 	strbtvc	r7, [r5], #-863	; 0xfffffca1
 3d0:	726f6300 	rsbvc	r6, pc, #0, 6
 3d4:	72786574 	rsbsvc	r6, r8, #116, 10	; 0x1d000000
 3d8:	6f630034 	svcvs	0x00630034
 3dc:	78657472 	stmdavc	r5!, {r1, r4, r5, r6, sl, ip, sp, lr}^
 3e0:	63003572 	movwvs	r3, #1394	; 0x572
 3e4:	6574726f 	ldrbvs	r7, [r4, #-623]!	; 0xfffffd91
 3e8:	00377278 	eorseq	r7, r7, r8, ror r2
 3ec:	74726f63 	ldrbtvc	r6, [r2], #-3939	; 0xfffff09d
 3f0:	38727865 	ldmdacc	r2!, {r0, r2, r5, r6, fp, ip, sp, lr}^
 3f4:	6d726100 	ldfvse	f6, [r2, #-0]
 3f8:	6372615f 	cmnvs	r2, #-1073741801	; 0xc0000017
 3fc:	77695f68 	strbvc	r5, [r9, -r8, ror #30]!
 400:	74786d6d 	ldrbtvc	r6, [r8], #-3437	; 0xfffff293
 404:	46560032 			; <UNDEFINED> instruction: 0x46560032
 408:	4f4e5f50 	svcmi	0x004e5f50
 40c:	5f00454e 	svcpl	0x0000454e
 410:	656c6966 	strbvs	r6, [ip, #-2406]!	; 0xfffff69a
 414:	5f006f6e 	svcpl	0x00006f6e
 418:	6461705f 	strbtvs	r7, [r1], #-95	; 0xffffffa1
 41c:	72610032 	rsbvc	r0, r1, #50	; 0x32
 420:	3531316d 	ldrcc	r3, [r1, #-365]!	; 0xfffffe93
 424:	66327436 			; <UNDEFINED> instruction: 0x66327436
 428:	735f0073 	cmpvc	pc, #115	; 0x73
 42c:	6e5f7379 	mrcvs	3, 2, r7, cr15, cr9, {3}
 430:	00727265 	rsbseq	r7, r2, r5, ror #4
 434:	66657270 			; <UNDEFINED> instruction: 0x66657270
 438:	6e5f7265 	cdpvs	2, 5, cr7, cr15, cr5, {3}
 43c:	5f6e6f65 	svcpl	0x006e6f65
 440:	5f726f66 	svcpl	0x00726f66
 444:	69623436 	stmdbvs	r2!, {r1, r2, r4, r5, sl, ip, sp}^
 448:	63007374 	movwvs	r7, #884	; 0x374
 44c:	6574726f 	ldrbvs	r7, [r4, #-623]!	; 0xfffffd91
 450:	66347278 			; <UNDEFINED> instruction: 0x66347278
 454:	7a697300 	bvc	1a5d05c <shift+0x1a5d05c>
 458:	00745f65 	rsbseq	r5, r4, r5, ror #30
 45c:	6174765f 	cmnvs	r4, pc, asr r6
 460:	5f656c62 	svcpl	0x00656c62
 464:	7366666f 	cmnvc	r6, #116391936	; 0x6f00000
 468:	5f007465 	svcpl	0x00007465
 46c:	6b72616d 	blvs	1c98a28 <shift+0x1c98a28>
 470:	00737265 	rsbseq	r7, r3, r5, ror #4
 474:	74726f63 	ldrbtvc	r6, [r2], #-3939	; 0xfffff09d
 478:	31617865 	cmncc	r1, r5, ror #16
 47c:	6e750032 	mrcvs	0, 3, r0, cr5, cr2, {1}
 480:	63657073 	cmnvs	r5, #115	; 0x73
 484:	74735f76 	ldrbtvc	r5, [r3], #-3958	; 0xfffff08a
 488:	676e6972 			; <UNDEFINED> instruction: 0x676e6972
 48c:	6f630073 	svcvs	0x00630073
 490:	78657472 	stmdavc	r5!, {r1, r4, r5, r6, sl, ip, sp, lr}^
 494:	00353161 	eorseq	r3, r5, r1, ror #2
 498:	74726f63 	ldrbtvc	r6, [r2], #-3939	; 0xfffff09d
 49c:	37617865 	strbcc	r7, [r1, -r5, ror #16]!
 4a0:	726f6333 	rsbvc	r6, pc, #-872415232	; 0xcc000000
 4a4:	61786574 	cmnvs	r8, r4, ror r5
 4a8:	63003335 	movwvs	r3, #821	; 0x335
 4ac:	6574726f 	ldrbvs	r7, [r4, #-623]!	; 0xfffffd91
 4b0:	37316178 			; <UNDEFINED> instruction: 0x37316178
 4b4:	4f495f00 	svcmi	0x00495f00
 4b8:	6165725f 	cmnvs	r5, pc, asr r2
 4bc:	61625f64 	cmnvs	r2, r4, ror #30
 4c0:	61006573 	tstvs	r0, r3, ror r5
 4c4:	615f6d72 	cmpvs	pc, r2, ror sp	; <UNPREDICTABLE>
 4c8:	33686372 	cmncc	r8, #-939524095	; 0xc8000001
 4cc:	7261006d 	rsbvc	r0, r1, #109	; 0x6d
 4d0:	3034396d 	eorscc	r3, r4, sp, ror #18
 4d4:	74730074 	ldrbtvc	r0, [r3], #-116	; 0xffffff8c
 4d8:	006e6964 	rsbeq	r6, lr, r4, ror #18
 4dc:	396d7261 	stmdbcc	sp!, {r0, r5, r6, r9, ip, sp, lr}^
 4e0:	42003032 	andmi	r3, r0, #50	; 0x32
 4e4:	5f455341 	svcpl	0x00455341
 4e8:	48435241 	stmdami	r3, {r0, r6, r9, ip, lr}^
 4ec:	0054345f 	subseq	r3, r4, pc, asr r4
 4f0:	78656e5f 	stmdavc	r5!, {r0, r1, r2, r3, r4, r6, r9, sl, fp, sp, lr}^
 4f4:	72610074 	rsbvc	r0, r1, #116	; 0x74
 4f8:	65725f6d 	ldrbvs	r5, [r2, #-3949]!	; 0xfffff093
 4fc:	695f7367 	ldmdbvs	pc, {r0, r1, r2, r5, r6, r8, r9, ip, sp, lr}^	; <UNPREDICTABLE>
 500:	65735f6e 	ldrbvs	r5, [r3, #-3950]!	; 0xfffff092
 504:	6e657571 	mcrvs	5, 3, r7, cr5, cr1, {3}
 508:	42006563 	andmi	r6, r0, #415236096	; 0x18c00000
 50c:	5f455341 	svcpl	0x00455341
 510:	48435241 	stmdami	r3, {r0, r6, r9, ip, lr}^
 514:	4554355f 	ldrbmi	r3, [r4, #-1375]	; 0xfffffaa1
 518:	4f495f00 	svcmi	0x00495f00
 51c:	72616d5f 	rsbvc	r6, r1, #6080	; 0x17c0
 520:	0072656b 	rsbseq	r6, r2, fp, ror #10
 524:	316d7261 	cmncc	sp, r1, ror #4
 528:	6a363731 	bvs	d8e1f4 <shift+0xd8e1f4>
 52c:	0073667a 	rsbseq	r6, r3, sl, ror r6
 530:	6168635f 	cmnvs	r8, pc, asr r3
 534:	61006e69 	tstvs	r0, r9, ror #28
 538:	6c5f6d72 	mrrcvs	13, 7, r6, pc, cr2	; <UNPREDICTABLE>
 53c:	5f676e61 	svcpl	0x00676e61
 540:	7074756f 	rsbsvc	r7, r4, pc, ror #10
 544:	6f5f7475 	svcvs	0x005f7475
 548:	63656a62 	cmnvs	r5, #401408	; 0x62000
 54c:	74615f74 	strbtvc	r5, [r1], #-3956	; 0xfffff08c
 550:	62697274 	rsbvs	r7, r9, #116, 4	; 0x40000007
 554:	73657475 	cmnvc	r5, #1962934272	; 0x75000000
 558:	6f6f685f 	svcvs	0x006f685f
 55c:	7261006b 	rsbvc	r0, r1, #107	; 0x6b
 560:	3032376d 	eorscc	r3, r2, sp, ror #14
 564:	41420074 	hvcmi	8196	; 0x2004
 568:	415f4553 	cmpmi	pc, r3, asr r5	; <UNPREDICTABLE>
 56c:	5f484352 	svcpl	0x00484352
 570:	61004535 	tstvs	r0, r5, lsr r5
 574:	35376d72 	ldrcc	r6, [r7, #-3442]!	; 0xfffff28e
 578:	65663030 	strbvs	r3, [r6, #-48]!	; 0xffffffd0
 57c:	4f495f00 	svcmi	0x00495f00
 580:	315f325f 	cmpcc	pc, pc, asr r2	; <UNPREDICTABLE>
 584:	6474735f 	ldrbtvs	r7, [r4], #-863	; 0xfffffca1
 588:	5f727265 	svcpl	0x00727265
 58c:	6f727000 	svcvs	0x00727000
 590:	73736563 	cmnvc	r3, #415236096	; 0x18c00000
 594:	745f726f 	ldrbvc	r7, [pc], #-623	; 59c <shift+0x59c>
 598:	00657079 	rsbeq	r7, r5, r9, ror r0
 59c:	5f6d7261 	svcpl	0x006d7261
 5a0:	00736370 	rsbseq	r6, r3, r0, ror r3
 5a4:	646f6d5f 	strbtvs	r6, [pc], #-3423	; 5ac <shift+0x5ac>
 5a8:	72610065 	rsbvc	r0, r1, #101	; 0x65
 5ac:	72615f6d 	rsbvc	r5, r1, #436	; 0x1b4
 5b0:	74346863 	ldrtvc	r6, [r4], #-2147	; 0xfffff79d
 5b4:	72747300 	rsbsvc	r7, r4, #0, 6
 5b8:	61676e6f 	cmnvs	r7, pc, ror #28
 5bc:	31316d72 	teqcc	r1, r2, ror sp
 5c0:	61003030 	tstvs	r0, r0, lsr r0
 5c4:	30376d72 	eorscc	r6, r7, r2, ror sp
 5c8:	72610030 	rsbvc	r0, r1, #48	; 0x30
 5cc:	75745f6d 	ldrbvc	r5, [r4, #-3949]!	; 0xfffff093
 5d0:	775f656e 	ldrbvc	r6, [pc, -lr, ror #10]
 5d4:	00667562 	rsbeq	r7, r6, r2, ror #10
 5d8:	62617468 	rsbvs	r7, r1, #104, 8	; 0x68000000
 5dc:	7361685f 	cmnvc	r1, #6225920	; 0x5f0000
 5e0:	495f0068 	ldmdbmi	pc, {r3, r5, r6}^	; <UNPREDICTABLE>
 5e4:	65725f4f 	ldrbvs	r5, [r2, #-3919]!	; 0xfffff0b1
 5e8:	705f6461 	subsvc	r6, pc, r1, ror #8
 5ec:	61007274 	tstvs	r0, r4, ror r2
 5f0:	615f6d72 	cmpvs	pc, r2, ror sp	; <UNPREDICTABLE>
 5f4:	5f686372 	svcpl	0x00686372
 5f8:	656d616e 	strbvs	r6, [sp, #-366]!	; 0xfffffe92
 5fc:	726f6300 	rsbvc	r6, pc, #0, 6
 600:	61786574 	cmnvs	r8, r4, ror r5
 604:	61003233 	tstvs	r0, r3, lsr r2
 608:	615f6d72 	cmpvs	pc, r2, ror sp	; <UNPREDICTABLE>
 60c:	5f686372 	svcpl	0x00686372
 610:	6d746f6e 	ldclvs	15, cr6, [r4, #-440]!	; 0xfffffe48
 614:	6d726100 	ldfvse	f6, [r2, #-0]
 618:	6372615f 	cmnvs	r2, #-1073741801	; 0xc0000017
 61c:	00653568 	rsbeq	r3, r5, r8, ror #10
 620:	5f4d5241 	svcpl	0x004d5241
 624:	4200454c 	andmi	r4, r0, #76, 10	; 0x13000000
 628:	5f455341 	svcpl	0x00455341
 62c:	48435241 	stmdami	r3, {r0, r6, r9, ip, lr}^
 630:	004a365f 	subeq	r3, sl, pc, asr r6
 634:	45534142 	ldrbmi	r4, [r3, #-322]	; 0xfffffebe
 638:	4352415f 	cmpmi	r2, #-1073741801	; 0xc0000017
 63c:	4b365f48 	blmi	d98364 <shift+0xd98364>
 640:	53414200 	movtpl	r4, #4608	; 0x1200
 644:	52415f45 	subpl	r5, r1, #276	; 0x114
 648:	365f4843 	ldrbcc	r4, [pc], -r3, asr #16
 64c:	5241004d 	subpl	r0, r1, #77	; 0x4d
 650:	534c5f4d 	movtpl	r5, #53069	; 0xcf4d
 654:	4d524100 	ldfmie	f4, [r2, #-0]
 658:	00544c5f 	subseq	r4, r4, pc, asr ip
 65c:	5f4f495f 	svcpl	0x004f495f
 660:	74697277 	strbtvc	r7, [r9], #-631	; 0xfffffd89
 664:	61625f65 	cmnvs	r2, r5, ror #30
 668:	73006573 	movwvc	r6, #1395	; 0x573
 66c:	6e6f7274 	mcrvs	2, 3, r7, cr15, cr4, {3}
 670:	6d726167 	ldfvse	f6, [r2, #-412]!	; 0xfffffe64
 674:	30313131 	eorscc	r3, r1, r1, lsr r1
 678:	53414200 	movtpl	r4, #4608	; 0x1200
 67c:	52415f45 	subpl	r5, r1, #276	; 0x114
 680:	365f4843 	ldrbcc	r4, [pc], -r3, asr #16
 684:	7261005a 	rsbvc	r0, r1, #90	; 0x5a
 688:	3632396d 	ldrtcc	r3, [r2], -sp, ror #18
 68c:	00736a65 	rsbseq	r6, r3, r5, ror #20
 690:	376d7261 	strbcc	r7, [sp, -r1, ror #4]!
 694:	5f003031 	svcpl	0x00003031
 698:	325f4f49 	subscc	r4, pc, #292	; 0x124
 69c:	735f315f 	cmpvc	pc, #-1073741801	; 0xc0000017
 6a0:	6e696474 	mcrvs	4, 3, r6, cr9, cr4, {3}
 6a4:	6f6c005f 	svcvs	0x006c005f
 6a8:	6c20676e 	stcvs	7, cr6, [r0], #-440	; 0xfffffe48
 6ac:	20676e6f 	rsbcs	r6, r7, pc, ror #28
 6b0:	00746e69 	rsbseq	r6, r4, r9, ror #28
 6b4:	5f6d7261 	svcpl	0x006d7261
 6b8:	5f757066 	svcpl	0x00757066
 6bc:	72747461 	rsbsvc	r7, r4, #1627389952	; 0x61000000
 6c0:	4f495f00 	svcmi	0x00495f00
 6c4:	315f325f 	cmpcc	pc, pc, asr r2	; <UNPREDICTABLE>
 6c8:	6474735f 	ldrbtvs	r7, [r4], #-863	; 0xfffffca1
 6cc:	5f74756f 	svcpl	0x0074756f
 6d0:	4f495f00 	svcmi	0x00495f00
 6d4:	7661735f 			; <UNDEFINED> instruction: 0x7661735f
 6d8:	61625f65 	cmnvs	r2, r5, ror #30
 6dc:	68006573 	stmdavs	r0, {r0, r1, r4, r5, r6, r8, sl, sp, lr}
 6e0:	5f626174 	svcpl	0x00626174
 6e4:	68736168 	ldmdavs	r3!, {r3, r5, r6, r8, sp, lr}^
 6e8:	696f705f 	stmdbvs	pc!, {r0, r1, r2, r3, r4, r6, ip, sp, lr}^	; <UNPREDICTABLE>
 6ec:	7265746e 	rsbvc	r7, r5, #1845493760	; 0x6e000000
 6f0:	6f682f00 	svcvs	0x00682f00
 6f4:	742f656d 	strtvc	r6, [pc], #-1389	; 6fc <shift+0x6fc>
 6f8:	2d677763 	stclcs	7, cr7, [r7, #-396]!	; 0xfffffe74
 6fc:	6c697562 	cfstr64vs	mvdx7, [r9], #-392	; 0xfffffe78
 700:	616c7364 	cmnvs	ip, r4, ror #6
 704:	772f6576 			; <UNDEFINED> instruction: 0x772f6576
 708:	736b726f 	cmnvc	fp, #-268435450	; 0xf0000006
 70c:	65636170 	strbvs	r6, [r3, #-368]!	; 0xfffffe90
 710:	7763742f 	strbvc	r7, [r3, -pc, lsr #8]!
 714:	616d2d67 	cmnvs	sp, r7, ror #26
 718:	722d656b 	eorvc	r6, sp, #448790528	; 0x1ac00000
 71c:	61656c65 	cmnvs	r5, r5, ror #24
 720:	6c2f6573 	cfstr32vs	mvfx6, [pc], #-460	; 55c <shift+0x55c>
 724:	6c656261 	sfmvs	f6, 2, [r5], #-388	; 0xfffffe7c
 728:	636f642f 	cmnvs	pc, #788529152	; 0x2f000000
 72c:	2d72656b 	cfldr64cs	mvdx6, [r2, #-428]!	; 0xfffffe54
 730:	73757274 	cmnvc	r5, #116, 4	; 0x40000007
 734:	612d7974 			; <UNDEFINED> instruction: 0x612d7974
 738:	3436646d 	ldrtcc	r6, [r6], #-1133	; 0xfffffb93
 73c:	7763742d 	strbvc	r7, [r3, -sp, lsr #8]!
 740:	75622d67 	strbvc	r2, [r2, #-3431]!	; 0xfffff299
 744:	2f646c69 	svccs	0x00646c69
 748:	67726174 			; <UNDEFINED> instruction: 0x67726174
 74c:	612f7465 			; <UNDEFINED> instruction: 0x612f7465
 750:	6c2d6d72 	stcvs	13, cr6, [sp], #-456	; 0xfffffe38
 754:	78756e69 	ldmdavc	r5!, {r0, r3, r5, r6, r9, sl, fp, sp, lr}^
 758:	756e672d 	strbvc	r6, [lr, #-1837]!	; 0xfffff8d3
 75c:	69626165 	stmdbvs	r2!, {r0, r2, r5, r6, r8, sp, lr}^
 760:	5f2f6668 	svcpl	0x002f6668
 764:	6c697562 	cfstr64vs	mvdx7, [r9], #-392	; 0xfffffe78
 768:	75622f64 	strbvc	r2, [r2, #-3940]!	; 0xfffff09c
 76c:	73646c69 	cmnvc	r4, #26880	; 0x6900
 770:	3638782f 	ldrtcc	r7, [r8], -pc, lsr #16
 774:	2d34365f 	ldccs	6, cr3, [r4, #-380]!	; 0xfffffe84
 778:	6e6b6e75 	mcrvs	14, 3, r6, cr11, cr5, {3}
 77c:	2d6e776f 	stclcs	7, cr7, [lr, #-444]!	; 0xfffffe44
 780:	756e696c 	strbvc	r6, [lr, #-2412]!	; 0xfffff694
 784:	6e672d78 	mcrvs	13, 3, r2, cr7, cr8, {3}
 788:	72612f75 	rsbvc	r2, r1, #468	; 0x1d4
 78c:	696c2d6d 	stmdbvs	ip!, {r0, r2, r3, r5, r6, r8, sl, fp, sp}^
 790:	2d78756e 	cfldr64cs	mvdx7, [r8, #-440]!	; 0xfffffe48
 794:	65756e67 	ldrbvs	r6, [r5, #-3687]!	; 0xfffff199
 798:	68696261 	stmdavs	r9!, {r0, r5, r6, r9, sp, lr}^
 79c:	63672f66 	cmnvs	r7, #408	; 0x198
 7a0:	696c2d63 	stmdbvs	ip!, {r0, r1, r5, r6, r8, sl, fp, sp}^
 7a4:	6f72616e 	svcvs	0x0072616e
 7a8:	322e362d 	eorcc	r3, lr, #47185920	; 0x2d00000
 7ac:	3130322d 	teqcc	r0, sp, lsr #4
 7b0:	31312e36 	teqcc	r1, r6, lsr lr
 7b4:	6174732d 	cmnvs	r4, sp, lsr #6
 7b8:	2f326567 	svccs	0x00326567
 7bc:	2d6d7261 	sfmcs	f7, 2, [sp, #-388]!	; 0xfffffe7c
 7c0:	756e696c 	strbvc	r6, [lr, #-2412]!	; 0xfffff694
 7c4:	6e672d78 	mcrvs	13, 3, r2, cr7, cr8, {3}
 7c8:	62616575 	rsbvs	r6, r1, #490733568	; 0x1d400000
 7cc:	2f666869 	svccs	0x00666869
 7d0:	6762696c 	strbvs	r6, [r2, -ip, ror #18]!
 7d4:	42006363 	andmi	r6, r0, #-1946157055	; 0x8c000001
 7d8:	5f455341 	svcpl	0x00455341
 7dc:	48435241 	stmdami	r3, {r0, r6, r9, ip, lr}^
 7e0:	0054355f 	subseq	r3, r4, pc, asr r5
 7e4:	376d7261 	strbcc	r7, [sp, -r1, ror #4]!
 7e8:	00303035 	eorseq	r3, r0, r5, lsr r0
 7ec:	396d7261 	stmdbcc	sp!, {r0, r5, r6, r9, ip, sp, lr}^
 7f0:	73653836 	cmnvc	r5, #3538944	; 0x360000
 7f4:	53414200 	movtpl	r4, #4608	; 0x1200
 7f8:	52415f45 	subpl	r5, r1, #276	; 0x114
 7fc:	375f4843 	ldrbcc	r4, [pc, -r3, asr #16]
 800:	52410041 	subpl	r0, r1, #65	; 0x41
 804:	50465f4d 	subpl	r5, r6, sp, asr #30
 808:	444f4d5f 	strbmi	r4, [pc], #-3423	; 810 <shift+0x810>
 80c:	555f4c45 	ldrbpl	r4, [pc, #-3141]	; fffffbcf <__bss_end+0x7fef7797>
 810:	4f4e4b4e 	svcmi	0x004e4b4e
 814:	41004e57 	tstmi	r0, r7, asr lr
 818:	4d5f4d52 	ldclmi	13, cr4, [pc, #-328]	; 6d8 <shift+0x6d8>
 81c:	72610049 	rsbvc	r0, r1, #73	; 0x49
 820:	72615f6d 	rsbvc	r5, r1, #436	; 0x1b4
 824:	6b366863 	blvs	d9a9b8 <shift+0xd9a9b8>
 828:	6d726100 	ldfvse	f6, [r2, #-0]
 82c:	6372615f 	cmnvs	r2, #-1073741801	; 0xc0000017
 830:	006d3668 	rsbeq	r3, sp, r8, ror #12
 834:	6d6f682f 	stclvs	8, cr6, [pc, #-188]!	; 780 <shift+0x780>
 838:	63742f65 	cmnvs	r4, #404	; 0x194
 83c:	622d6777 	eorvs	r6, sp, #31195136	; 0x1dc0000
 840:	646c6975 	strbtvs	r6, [ip], #-2421	; 0xfffff68b
 844:	76616c73 			; <UNDEFINED> instruction: 0x76616c73
 848:	6f772f65 	svcvs	0x00772f65
 84c:	70736b72 	rsbsvc	r6, r3, r2, ror fp
 850:	2f656361 	svccs	0x00656361
 854:	67776374 			; <UNDEFINED> instruction: 0x67776374
 858:	6b616d2d 	blvs	185bd14 <shift+0x185bd14>
 85c:	65722d65 	ldrbvs	r2, [r2, #-3429]!	; 0xfffff29b
 860:	7361656c 	cmnvc	r1, #108, 10	; 0x1b000000
 864:	616c2f65 	cmnvs	ip, r5, ror #30
 868:	2f6c6562 	svccs	0x006c6562
 86c:	6b636f64 	blvs	18dc604 <shift+0x18dc604>
 870:	742d7265 	strtvc	r7, [sp], #-613	; 0xfffffd9b
 874:	74737572 	ldrbtvc	r7, [r3], #-1394	; 0xfffffa8e
 878:	6d612d79 	stclvs	13, cr2, [r1, #-484]!	; 0xfffffe1c
 87c:	2d343664 	ldccs	6, cr3, [r4, #-400]!	; 0xfffffe70
 880:	67776374 			; <UNDEFINED> instruction: 0x67776374
 884:	6975622d 	ldmdbvs	r5!, {r0, r2, r3, r5, r9, sp, lr}^
 888:	742f646c 	strtvc	r6, [pc], #-1132	; 890 <shift+0x890>
 88c:	65677261 	strbvs	r7, [r7, #-609]!	; 0xfffffd9f
 890:	72612f74 	rsbvc	r2, r1, #116, 30	; 0x1d0
 894:	696c2d6d 	stmdbvs	ip!, {r0, r2, r3, r5, r6, r8, sl, fp, sp}^
 898:	2d78756e 	cfldr64cs	mvdx7, [r8, #-440]!	; 0xfffffe48
 89c:	65756e67 	ldrbvs	r6, [r5, #-3687]!	; 0xfffff199
 8a0:	68696261 	stmdavs	r9!, {r0, r5, r6, r9, sp, lr}^
 8a4:	6e732f66 	cdpvs	15, 7, cr2, cr3, cr6, {3}
 8a8:	68737061 	ldmdavs	r3!, {r0, r5, r6, ip, sp, lr}^
 8ac:	2f73746f 	svccs	0x0073746f
 8b0:	2d636367 	stclcs	3, cr6, [r3, #-412]!	; 0xfffffe64
 8b4:	616e696c 	cmnvs	lr, ip, ror #18
 8b8:	362d6f72 	qsub16cc	r6, sp, r2
 8bc:	322d322e 	eorcc	r3, sp, #-536870910	; 0xe0000002
 8c0:	2e363130 	mrccs	1, 1, r3, cr6, cr0, {1}
 8c4:	6c2f3131 	stfvss	f3, [pc], #-196	; 808 <shift+0x808>
 8c8:	63676269 	cmnvs	r7, #-1879048186	; 0x90000006
 8cc:	696c2f63 	stmdbvs	ip!, {r0, r1, r5, r6, r8, r9, sl, fp, sp}^
 8d0:	63636762 	cmnvs	r3, #25690112	; 0x1880000
 8d4:	00632e32 	rsbeq	r2, r3, r2, lsr lr
 8d8:	45534142 	ldrbmi	r4, [r3, #-322]	; 0xfffffebe
 8dc:	4352415f 	cmpmi	r2, #-1073741801	; 0xc0000017
 8e0:	52375f48 	eorspl	r5, r7, #72, 30	; 0x120
 8e4:	705f5f00 	subsvc	r5, pc, r0, lsl #30
 8e8:	6f63706f 	svcvs	0x0063706f
 8ec:	5f746e75 	svcpl	0x00746e75
 8f0:	00626174 	rsbeq	r6, r2, r4, ror r1
 8f4:	396d7261 	stmdbcc	sp!, {r0, r5, r6, r9, ip, sp, lr}^
 8f8:	00743032 	rsbseq	r3, r4, r2, lsr r0
 8fc:	376d7261 	strbcc	r7, [sp, -r1, ror #4]!
 900:	61003032 	tstvs	r0, r2, lsr r0
 904:	31316d72 	teqcc	r1, r2, ror sp
 908:	736a3633 	cmnvc	sl, #53477376	; 0x3300000
 90c:	61746800 	cmnvs	r4, r0, lsl #16
 910:	71655f62 	cmnvc	r5, r2, ror #30
 914:	705f5f00 	subsvc	r5, pc, r0, lsl #30
 918:	00316461 	eorseq	r6, r1, r1, ror #8
 91c:	396d7261 	stmdbcc	sp!, {r0, r5, r6, r9, ip, sp, lr}^
 920:	73653634 	cmnvc	r5, #52, 12	; 0x3400000
 924:	705f5f00 	subsvc	r5, pc, r0, lsl #30
 928:	00336461 	eorseq	r6, r3, r1, ror #8
 92c:	61705f5f 	cmnvs	r0, pc, asr pc
 930:	5f003464 	svcpl	0x00003464
 934:	6461705f 	strbtvs	r7, [r1], #-95	; 0xffffffa1
 938:	6f630035 	svcvs	0x00630035
 93c:	78657472 	stmdavc	r5!, {r1, r4, r5, r6, sl, ip, sp, lr}^
 940:	6d73316d 	ldfvse	f3, [r3, #-436]!	; 0xfffffe4c
 944:	6d6c6c61 	stclvs	12, cr6, [ip, #-388]!	; 0xfffffe7c
 948:	69746c75 	ldmdbvs	r4!, {r0, r2, r4, r5, r6, sl, fp, sp, lr}^
 94c:	00796c70 	rsbseq	r6, r9, r0, ror ip
 950:	5f4d5241 	svcpl	0x004d5241
 954:	5f534350 	svcpl	0x00534350
 958:	43504141 	cmpmi	r0, #1073741840	; 0x40000010
 95c:	46565f53 	usaxmi	r5, r6, r3
 960:	72610050 	rsbvc	r0, r1, #80	; 0x50
 964:	72615f6d 	rsbvc	r5, r1, #436	; 0x1b4
 968:	6e5f6863 	cdpvs	8, 5, cr6, cr15, cr3, {3}
 96c:	6f765f6f 	svcvs	0x00765f6f
 970:	6974616c 	ldmdbvs	r4!, {r2, r3, r5, r6, r8, sp, lr}^
 974:	635f656c 	cmpvs	pc, #108, 10	; 0x1b000000
 978:	6f630065 	svcvs	0x00630065
 97c:	78657472 	stmdavc	r5!, {r1, r4, r5, r6, sl, ip, sp, lr}^
 980:	00373561 	eorseq	r3, r7, r1, ror #10
 984:	45534142 	ldrbmi	r4, [r3, #-322]	; 0xfffffebe
 988:	4352415f 	cmpmi	r2, #-1073741801	; 0xc0000017
 98c:	41385f48 	teqmi	r8, r8, asr #30
 990:	6d726100 	ldfvse	f6, [r2, #-0]
 994:	69303037 	ldmdbvs	r0!, {r0, r1, r2, r4, r5, ip, sp}
 998:	4d524100 	ldfmie	f4, [r2, #-0]
 99c:	00454e5f 	subeq	r4, r5, pc, asr lr
 9a0:	366d7261 	strbtcc	r7, [sp], -r1, ror #4
 9a4:	65660030 	strbvs	r0, [r6, #-48]!	; 0xffffffd0
 9a8:	72757461 	rsbsvc	r7, r5, #1627389952	; 0x61000000
 9ac:	6f007365 	svcvs	0x00007365
 9b0:	6e697470 	mcrvs	4, 3, r7, cr9, cr0, {3}
 9b4:	52410064 	subpl	r0, r1, #100	; 0x64
 9b8:	49485f4d 	stmdbmi	r8, {r0, r2, r3, r6, r8, r9, sl, fp, ip, lr}^
 9bc:	6f727000 	svcvs	0x00727000
 9c0:	6d617267 	sfmvs	f7, 2, [r1, #-412]!	; 0xfffffe64
 9c4:	766e695f 			; <UNDEFINED> instruction: 0x766e695f
 9c8:	7461636f 	strbtvc	r6, [r1], #-879	; 0xfffffc91
 9cc:	5f6e6f69 	svcpl	0x006e6f69
 9d0:	656d616e 	strbvs	r6, [sp, #-366]!	; 0xfffffe92
 9d4:	74706f00 	ldrbtvc	r6, [r0], #-3840	; 0xfffff100
 9d8:	00677261 	rsbeq	r7, r7, r1, ror #4
 9dc:	5f4d5241 	svcpl	0x004d5241
 9e0:	6100564e 	tstvs	r0, lr, asr #12
 9e4:	615f6d72 	cmpvs	pc, r2, ror sp	; <UNPREDICTABLE>
 9e8:	34686372 	strbtcc	r6, [r8], #-882	; 0xfffffc8e
 9ec:	726f6300 	rsbvc	r6, pc, #0, 6
 9f0:	6d786574 	cfldr64vs	mvdx6, [r8, #-464]!	; 0xfffffe30
 9f4:	616d7330 	cmnvs	sp, r0, lsr r3
 9f8:	756d6c6c 	strbvc	r6, [sp, #-3180]!	; 0xfffff394
 9fc:	7069746c 	rsbvc	r7, r9, ip, ror #8
 a00:	6100796c 	tstvs	r0, ip, ror #18
 a04:	615f6d72 	cmpvs	pc, r2, ror sp	; <UNPREDICTABLE>
 a08:	36686372 			; <UNDEFINED> instruction: 0x36686372
 a0c:	6d726100 	ldfvse	f6, [r2, #-0]
 a10:	6372615f 	cmnvs	r2, #-1073741801	; 0xc0000017
 a14:	61003768 	tstvs	r0, r8, ror #14
 a18:	615f6d72 	cmpvs	pc, r2, ror sp	; <UNPREDICTABLE>
 a1c:	38686372 	stmdacc	r8!, {r1, r4, r5, r6, r8, r9, sp, lr}^
 a20:	6e6f6c00 	cdpvs	12, 6, cr6, cr15, cr0, {0}
 a24:	6f642067 	svcvs	0x00642067
 a28:	656c6275 	strbvs	r6, [ip, #-629]!	; 0xfffffd8b
 a2c:	726f6300 	rsbvc	r6, pc, #0, 6
 a30:	61786574 	cmnvs	r8, r4, ror r5
 a34:	6f633735 	svcvs	0x00633735
 a38:	78657472 	stmdavc	r5!, {r1, r4, r5, r6, sl, ip, sp, lr}^
 a3c:	00333561 	eorseq	r3, r3, r1, ror #10
 a40:	5f6d7261 	svcpl	0x006d7261
 a44:	656e7574 	strbvs	r7, [lr, #-1396]!	; 0xfffffa8c
 a48:	6373785f 	cmnvs	r3, #6225920	; 0x5f0000
 a4c:	00656c61 	rsbeq	r6, r5, r1, ror #24
 a50:	5f6d7261 	svcpl	0x006d7261
 a54:	68637261 	stmdavs	r3!, {r0, r5, r6, r9, ip, sp, lr}^
 a58:	6f630035 	svcvs	0x00630035
 a5c:	78657472 	stmdavc	r5!, {r1, r4, r5, r6, sl, ip, sp, lr}^
 a60:	63373161 	teqvs	r7, #1073741848	; 0x40000018
 a64:	6574726f 	ldrbvs	r7, [r4, #-623]!	; 0xfffffd91
 a68:	00376178 	eorseq	r6, r7, r8, ror r1
 a6c:	376d7261 	strbcc	r7, [sp, -r1, ror #4]!
 a70:	5f006964 	svcpl	0x00006964
 a74:	6175715f 	cmnvs	r5, pc, asr r1
 a78:	00745f64 	rsbseq	r5, r4, r4, ror #30
 a7c:	696b616d 	stmdbvs	fp!, {r0, r2, r3, r5, r6, r8, sp, lr}^
 a80:	635f676e 	cmpvs	pc, #28835840	; 0x1b80000
 a84:	74736e6f 	ldrbtvc	r6, [r3], #-3695	; 0xfffff191
 a88:	6261745f 	rsbvs	r7, r1, #1593835520	; 0x5f000000
 a8c:	7400656c 	strvc	r6, [r0], #-1388	; 0xfffffa94
 a90:	626d7568 	rsbvs	r7, sp, #104, 10	; 0x1a000000
 a94:	6c61635f 	stclvs	3, cr6, [r1], #-380	; 0xfffffe84
 a98:	69765f6c 	ldmdbvs	r6!, {r2, r3, r5, r6, r8, r9, sl, fp, ip, lr}^
 a9c:	616c5f61 	cmnvs	ip, r1, ror #30
 aa0:	006c6562 	rsbeq	r6, ip, r2, ror #10
 aa4:	316d7261 	cmncc	sp, r1, ror #4
 aa8:	74363531 	ldrtvc	r3, [r6], #-1329	; 0xfffffacf
 aac:	47007332 	smladxmi	r0, r2, r3, r7
 ab0:	4320554e 			; <UNDEFINED> instruction: 0x4320554e
 ab4:	36203131 			; <UNDEFINED> instruction: 0x36203131
 ab8:	312e322e 			; <UNDEFINED> instruction: 0x312e322e
 abc:	31303220 	teqcc	r0, r0, lsr #4
 ac0:	31303136 	teqcc	r0, r6, lsr r1
 ac4:	6d2d2036 	stcvs	0, cr2, [sp, #-216]!	; 0xffffff28
 ac8:	68637261 	stmdavs	r3!, {r0, r5, r6, r9, ip, sp, lr}^
 acc:	6d72613d 	ldfvse	f6, [r2, #-244]!	; 0xffffff0c
 ad0:	612d3776 			; <UNDEFINED> instruction: 0x612d3776
 ad4:	746d2d20 	strbtvc	r2, [sp], #-3360	; 0xfffff2e0
 ad8:	3d656e75 	stclcc	14, cr6, [r5, #-468]!	; 0xfffffe2c
 adc:	74726f63 	ldrbtvc	r6, [r2], #-3939	; 0xfffff09d
 ae0:	612d7865 			; <UNDEFINED> instruction: 0x612d7865
 ae4:	6d2d2039 	stcvs	0, cr2, [sp, #-228]!	; 0xffffff1c
 ae8:	616f6c66 	cmnvs	pc, r6, ror #24
 aec:	62612d74 	rsbvs	r2, r1, #116, 26	; 0x1d00
 af0:	61683d69 	cmnvs	r8, r9, ror #26
 af4:	2d206472 	cfstrscs	mvf6, [r0, #-456]!	; 0xfffffe38
 af8:	7570666d 	ldrbvc	r6, [r0, #-1645]!	; 0xfffff993
 afc:	7066763d 	rsbvc	r7, r6, sp, lsr r6
 b00:	642d3376 	strtvs	r3, [sp], #-886	; 0xfffffc8a
 b04:	2d203631 	stccs	6, cr3, [r0, #-196]!	; 0xffffff3c
 b08:	7568746d 	strbvc	r7, [r8, #-1133]!	; 0xfffffb93
 b0c:	2d20626d 	sfmcs	f6, 4, [r0, #-436]!	; 0xfffffe4c
 b10:	736c746d 	cmnvc	ip, #1828716544	; 0x6d000000
 b14:	6169642d 	cmnvs	r9, sp, lsr #8
 b18:	7463656c 	strbtvc	r6, [r3], #-1388	; 0xfffffa94
 b1c:	756e673d 	strbvc	r6, [lr, #-1853]!	; 0xfffff8c3
 b20:	20672d20 	rsbcs	r2, r7, r0, lsr #26
 b24:	2d20672d 	stccs	7, cr6, [r0, #-180]!	; 0xffffff4c
 b28:	4f2d2067 	svcmi	0x002d2067
 b2c:	4f2d2032 	svcmi	0x002d2032
 b30:	4f2d2032 	svcmi	0x002d2032
 b34:	662d2032 			; <UNDEFINED> instruction: 0x662d2032
 b38:	6c697562 	cfstr64vs	mvdx7, [r9], #-392	; 0xfffffe78
 b3c:	676e6964 	strbvs	r6, [lr, -r4, ror #18]!
 b40:	62696c2d 	rsbvs	r6, r9, #11520	; 0x2d00
 b44:	20636367 	rsbcs	r6, r3, r7, ror #6
 b48:	6f6e662d 	svcvs	0x006e662d
 b4c:	6174732d 	cmnvs	r4, sp, lsr #6
 b50:	702d6b63 	eorvc	r6, sp, r3, ror #22
 b54:	65746f72 	ldrbvs	r6, [r4, #-3954]!	; 0xfffff08e
 b58:	726f7463 	rsbvc	r7, pc, #1660944384	; 0x63000000
 b5c:	50662d20 	rsbpl	r2, r6, r0, lsr #26
 b60:	2d204349 	stccs	3, cr4, [r0, #-292]!	; 0xfffffedc
 b64:	2d6f6e66 	stclcs	14, cr6, [pc, #-408]!	; 9d4 <shift+0x9d4>
 b68:	696c6e69 	stmdbvs	ip!, {r0, r3, r5, r6, r9, sl, fp, sp, lr}^
 b6c:	2d20656e 	cfstr32cs	mvfx6, [r0, #-440]!	; 0xfffffe48
 b70:	63786566 	cmnvs	r8, #427819008	; 0x19800000
 b74:	69747065 	ldmdbvs	r4!, {r0, r2, r5, r6, ip, sp, lr}^
 b78:	20736e6f 	rsbscs	r6, r3, pc, ror #28
 b7c:	6976662d 	ldmdbvs	r6!, {r0, r2, r3, r5, r9, sl, sp, lr}^
 b80:	69626973 	stmdbvs	r2!, {r0, r1, r4, r5, r6, r8, fp, sp, lr}^
 b84:	7974696c 	ldmdbvc	r4!, {r2, r3, r5, r6, r8, fp, sp, lr}^
 b88:	6469683d 	strbtvs	r6, [r9], #-2109	; 0xfffff7c3
 b8c:	006e6564 	rsbeq	r6, lr, r4, ror #10
 b90:	5f4f495f 	svcpl	0x004f495f
 b94:	64616572 	strbtvs	r6, [r1], #-1394	; 0xfffffa8e
 b98:	646e655f 	strbtvs	r6, [lr], #-1375	; 0xfffffaa1
 b9c:	4d524100 	ldfmie	f4, [r2, #-0]
 ba0:	5343505f 	movtpl	r5, #12383	; 0x305f
 ba4:	4350415f 	cmpmi	r0, #-1073741801	; 0xc0000017
 ba8:	52410053 	subpl	r0, r1, #83	; 0x53
 bac:	43505f4d 	cmpmi	r0, #308	; 0x134
 bb0:	54415f53 	strbpl	r5, [r1], #-3923	; 0xfffff0ad
 bb4:	00534350 	subseq	r4, r3, r0, asr r3
 bb8:	726f6873 	rsbvc	r6, pc, #7536640	; 0x730000
 bbc:	6e692074 	mcrvs	0, 3, r2, cr9, cr4, {3}
 bc0:	6f630074 	svcvs	0x00630074
 bc4:	656c706d 	strbvs	r7, [ip, #-109]!	; 0xffffff93
 bc8:	6f642078 	svcvs	0x00642078
 bcc:	656c6275 	strbvs	r6, [ip, #-629]!	; 0xfffffd8b
 bd0:	6d726100 	ldfvse	f6, [r2, #-0]
 bd4:	74323239 	ldrtvc	r3, [r2], #-569	; 0xfffffdc7
 bd8:	6d726100 	ldfvse	f6, [r2, #-0]
 bdc:	0063635f 	rsbeq	r6, r3, pc, asr r3
 be0:	6f63706d 	svcvs	0x0063706d
 be4:	62006572 	andvs	r6, r0, #478150656	; 0x1c800000
 be8:	5f657361 	svcpl	0x00657361
 bec:	68637261 	stmdavs	r3!, {r0, r5, r6, r9, ip, sp, lr}^
 bf0:	63657469 	cmnvs	r5, #1761607680	; 0x69000000
 bf4:	65727574 	ldrbvs	r7, [r2, #-1396]!	; 0xfffffa8c
 bf8:	6d726100 	ldfvse	f6, [r2, #-0]
 bfc:	6372615f 	cmnvs	r2, #-1073741801	; 0xc0000017
 c00:	72635f68 	rsbvc	r5, r3, #104, 30	; 0x1a0
 c04:	72610063 	rsbvc	r0, r1, #99	; 0x63
 c08:	3731316d 	ldrcc	r3, [r1, -sp, ror #2]!
 c0c:	737a6a36 	cmnvc	sl, #221184	; 0x36000
 c10:	6d726100 	ldfvse	f6, [r2, #-0]
 c14:	7275635f 	rsbsvc	r6, r5, #2080374785	; 0x7c000001
 c18:	746e6572 	strbtvc	r6, [lr], #-1394	; 0xfffffa8e
 c1c:	0063635f 	rsbeq	r6, r3, pc, asr r3
 c20:	32356166 	eorscc	r6, r5, #-2147483623	; 0x80000019
 c24:	6f630036 	svcvs	0x00630036
 c28:	78657472 	stmdavc	r5!, {r1, r4, r5, r6, sl, ip, sp, lr}^
 c2c:	00323761 	eorseq	r3, r2, r1, ror #14
 c30:	74726f63 	ldrbtvc	r6, [r2], #-3939	; 0xfffff09d
 c34:	37617865 	strbcc	r7, [r1, -r5, ror #16]!
 c38:	5f5f0033 	svcpl	0x005f0033
 c3c:	69766e65 	ldmdbvs	r6!, {r0, r2, r5, r6, r9, sl, fp, sp, lr}^
 c40:	006e6f72 	rsbeq	r6, lr, r2, ror pc
 c44:	396d7261 	stmdbcc	sp!, {r0, r5, r6, r9, ip, sp, lr}^
 c48:	73653636 	cmnvc	r5, #56623104	; 0x3600000
 c4c:	4f495f00 	svcmi	0x00495f00
 c50:	4c49465f 	mcrrmi	6, 5, r4, r9, cr15
 c54:	6c705f45 	ldclvs	15, cr5, [r0], #-276	; 0xfffffeec
 c58:	41007375 	tstmi	r0, r5, ror r3
 c5c:	505f4d52 	subspl	r4, pc, r2, asr sp	; <UNPREDICTABLE>
 c60:	616d004c 	cmnvs	sp, ip, asr #32
 c64:	6c657672 	stclvs	6, cr7, [r5], #-456	; 0xfffffe38
 c68:	6a705f6c 	bvs	1c18a20 <shift+0x1c18a20>
 c6c:	41420034 	cmpmi	r2, r4, lsr r0
 c70:	415f4553 	cmpmi	pc, r3, asr r5	; <UNPREDICTABLE>
 c74:	5f484352 	svcpl	0x00484352
 c78:	00325436 	eorseq	r5, r2, r6, lsr r4
 c7c:	45534142 	ldrbmi	r4, [r3, #-322]	; 0xfffffebe
 c80:	4352415f 	cmpmi	r2, #-1073741801	; 0xc0000017
 c84:	4d385f48 	ldcmi	15, cr5, [r8, #-288]!	; 0xfffffee0
 c88:	49414d5f 	stmdbmi	r1, {r0, r1, r2, r3, r4, r6, r8, sl, fp, lr}^
 c8c:	7261004e 	rsbvc	r0, r1, #78	; 0x4e
 c90:	75745f6d 	ldrbvc	r5, [r4, #-3949]!	; 0xfffff093
 c94:	635f656e 	cmpvs	pc, #461373440	; 0x1b800000
 c98:	6574726f 	ldrbvs	r7, [r4, #-623]!	; 0xfffffd91
 c9c:	39615f78 	stmdbcc	r1!, {r3, r4, r5, r6, r8, r9, sl, fp, ip, lr}^
 ca0:	4d524100 	ldfmie	f4, [r2, #-0]
 ca4:	004c415f 	subeq	r4, ip, pc, asr r1
 ca8:	45534142 	ldrbmi	r4, [r3, #-322]	; 0xfffffebe
 cac:	4352415f 	cmpmi	r2, #-1073741801	; 0xc0000017
 cb0:	4d375f48 	ldcmi	15, cr5, [r7, #-288]!	; 0xfffffee0
 cb4:	6d726100 	ldfvse	f6, [r2, #-0]
 cb8:	7261745f 	rsbvc	r7, r1, #1593835520	; 0x5f000000
 cbc:	5f746567 	svcpl	0x00746567
 cc0:	6562616c 	strbvs	r6, [r2, #-364]!	; 0xfffffe94
 cc4:	7261006c 	rsbvc	r0, r1, #108	; 0x6c
 cc8:	61745f6d 	cmnvs	r4, sp, ror #30
 ccc:	74656772 	strbtvc	r6, [r5], #-1906	; 0xfffff88e
 cd0:	736e695f 	cmnvc	lr, #1556480	; 0x17c000
 cd4:	7261006e 	rsbvc	r0, r1, #110	; 0x6e
 cd8:	3035326d 	eorscc	r3, r5, sp, ror #4
 cdc:	6f6c5f00 	svcvs	0x006c5f00
 ce0:	78006b63 	stmdavc	r0, {r0, r1, r5, r6, r8, r9, fp, sp, lr}
 ce4:	656e6567 	strbvs	r6, [lr, #-1383]!	; 0xfffffa99
 ce8:	69730031 	ldmdbvs	r3!, {r0, r4, r5}^
 cec:	7974657a 	ldmdbvc	r4!, {r1, r3, r4, r5, r6, r8, sl, sp, lr}^
 cf0:	61006570 	tstvs	r0, r0, ror r5
 cf4:	30316d72 	eorscc	r6, r1, r2, ror sp
 cf8:	6a653632 	bvs	194e5c8 <shift+0x194e5c8>
 cfc:	6f5f0073 	svcvs	0x005f0073
 d00:	6f5f646c 	svcvs	0x005f646c
 d04:	65736666 	ldrbvs	r6, [r3, #-1638]!	; 0xfffff99a
 d08:	495f0074 	ldmdbmi	pc, {r2, r4, r5, r6}^	; <UNPREDICTABLE>
 d0c:	49465f4f 	stmdbmi	r6, {r0, r1, r2, r3, r6, r8, r9, sl, fp, ip, lr}^
 d10:	6100454c 	tstvs	r0, ip, asr #10
 d14:	31316d72 	teqcc	r1, r2, ror sp
 d18:	666a3633 			; <UNDEFINED> instruction: 0x666a3633
 d1c:	645f0073 	ldrbvs	r0, [pc], #-115	; d24 <shift+0xd24>
 d20:	5f746e6f 	svcpl	0x00746e6f
 d24:	5f657375 	svcpl	0x00657375
 d28:	5f787472 	svcpl	0x00787472
 d2c:	65726568 	ldrbvs	r6, [r2, #-1384]!	; 0xfffffa98
 d30:	7261005f 	rsbvc	r0, r1, #95	; 0x5f
 d34:	0030376d 	eorseq	r3, r0, sp, ror #14
 d38:	6e797865 	cdpvs	8, 7, cr7, cr9, cr5, {3}
 d3c:	316d736f 	cmncc	sp, pc, ror #6
 d40:	49515500 	ldmdbmi	r1, {r8, sl, ip, lr}^
 d44:	65707974 	ldrbvs	r7, [r0, #-2420]!	; 0xfffff68c
 d48:	50465600 	subpl	r5, r6, r0, lsl #12
 d4c:	4745525f 	smlsldmi	r5, r5, pc, r2	; <UNPREDICTABLE>
 d50:	3631445f 			; <UNDEFINED> instruction: 0x3631445f
 d54:	6d726100 	ldfvse	f6, [r2, #-0]
 d58:	6e75745f 	mrcvs	4, 3, r7, cr5, cr15, {2}
 d5c:	72610065 	rsbvc	r0, r1, #101	; 0x65
 d60:	70635f6d 	rsbvc	r5, r3, sp, ror #30
 d64:	6e695f70 	mcrvs	15, 3, r5, cr9, cr0, {3}
 d68:	77726574 			; <UNDEFINED> instruction: 0x77726574
 d6c:	006b726f 	rsbeq	r7, fp, pc, ror #4
 d70:	69736e75 	ldmdbvs	r3!, {r0, r2, r4, r5, r6, r9, sl, fp, sp, lr}^
 d74:	64656e67 	strbtvs	r6, [r5], #-3687	; 0xfffff199
 d78:	61686320 	cmnvs	r8, r0, lsr #6
 d7c:	72610072 	rsbvc	r0, r1, #114	; 0x72
 d80:	0064376d 	rsbeq	r3, r4, sp, ror #14
 d84:	7a745f5f 	bvc	1d18b08 <shift+0x1d18b08>
 d88:	656d616e 	strbvs	r6, [sp, #-366]!	; 0xfffffe92
 d8c:	62735f00 	rsbsvs	r5, r3, #0, 30
 d90:	61006675 	tstvs	r0, r5, ror r6
 d94:	615f6d72 	cmpvs	pc, r2, ror sp	; <UNPREDICTABLE>
 d98:	5f686372 	svcpl	0x00686372
 d9c:	6d756874 	ldclvs	8, cr6, [r5, #-464]!	; 0xfffffe30
 da0:	77685f62 	strbvc	r5, [r8, -r2, ror #30]!
 da4:	00766964 	rsbseq	r6, r6, r4, ror #18
 da8:	5f4f495f 	svcpl	0x004f495f
 dac:	74697277 	strbtvc	r7, [r9], #-631	; 0xfffffd89
 db0:	74705f65 	ldrbtvc	r5, [r0], #-3941	; 0xfffff09b
 db4:	72610072 	rsbvc	r0, r1, #114	; 0x72
 db8:	7430316d 	ldrtvc	r3, [r0], #-365	; 0xfffffe93
 dbc:	00696d64 	rsbeq	r6, r9, r4, ror #26
 dc0:	5f4d5241 	svcpl	0x004d5241
 dc4:	4d5f5046 	ldclmi	0, cr5, [pc, #-280]	; cb4 <shift+0xcb4>
 dc8:	4c45444f 	cfstrdmi	mvd4, [r5], {79}	; 0x4f
 dcc:	5046565f 	subpl	r5, r6, pc, asr r6
 dd0:	61746800 	cmnvs	r4, r0, lsl #16
 dd4:	71655f62 	cmnvc	r5, r2, ror #30
 dd8:	696f705f 	stmdbvs	pc!, {r0, r1, r2, r3, r4, r6, ip, sp, lr}^	; <UNPREDICTABLE>
 ddc:	7265746e 	rsbvc	r7, r5, #1845493760	; 0x6e000000
 de0:	6d726100 	ldfvse	f6, [r2, #-0]
 de4:	61006d37 	tstvs	r0, r7, lsr sp
 de8:	705f6d72 	subsvc	r6, pc, r2, ror sp	; <UNPREDICTABLE>
 dec:	725f6369 	subsvc	r6, pc, #-1543503871	; 0xa4000001
 df0:	73696765 	cmnvc	r9, #26476544	; 0x1940000
 df4:	00726574 	rsbseq	r6, r2, r4, ror r5
 df8:	32376166 	eorscc	r6, r7, #-2147483623	; 0x80000019
 dfc:	00657436 	rsbeq	r7, r5, r6, lsr r4
 e00:	5f4d5241 	svcpl	0x004d5241
 e04:	61004343 	tstvs	r0, r3, asr #6
 e08:	615f6d72 	cmpvs	pc, r2, ror sp	; <UNPREDICTABLE>
 e0c:	38686372 	stmdacc	r8!, {r1, r4, r5, r6, r8, r9, sp, lr}^
 e10:	6100325f 	tstvs	r0, pc, asr r2
 e14:	6c5f6d72 	mrrcvs	13, 7, r6, pc, cr2	; <UNPREDICTABLE>
 e18:	63735f64 	cmnvs	r3, #100, 30	; 0x190
 e1c:	00646568 	rsbeq	r6, r4, r8, ror #10
 e20:	386d7261 	stmdacc	sp!, {r0, r5, r6, r9, ip, sp, lr}^
 e24:	41003031 	tstmi	r0, r1, lsr r0
 e28:	435f4d52 	cmpmi	pc, #5248	; 0x1480
 e2c:	46560053 			; <UNDEFINED> instruction: 0x46560053
 e30:	45525f50 	ldrbmi	r5, [r2, #-3920]	; 0xfffff0b0
 e34:	49535f47 	ldmdbmi	r3, {r0, r1, r2, r6, r8, r9, sl, fp, ip, lr}^
 e38:	454c474e 	strbmi	r4, [ip, #-1870]	; 0xfffff8b2
 e3c:	6d726100 	ldfvse	f6, [r2, #-0]
 e40:	3170665f 	cmncc	r0, pc, asr r6
 e44:	6e695f36 	mcrvs	15, 3, r5, cr9, cr6, {1}
 e48:	61007473 	tstvs	r0, r3, ror r4
 e4c:	64376d72 	ldrtvs	r6, [r7], #-3442	; 0xfffff28e
 e50:	5f5f006d 	svcpl	0x005f006d
 e54:	5f66666f 	svcpl	0x0066666f
 e58:	65670074 	strbvs	r0, [r7, #-116]!	; 0xffffff8c
 e5c:	6972656e 	ldmdbvs	r2!, {r1, r2, r3, r5, r6, r8, sl, sp, lr}^
 e60:	61377663 	teqvs	r7, r3, ror #12
 e64:	6d726100 	ldfvse	f6, [r2, #-0]
 e68:	7361625f 	cmnvc	r1, #-268435451	; 0xf0000005
 e6c:	72615f65 	rsbvc	r5, r1, #404	; 0x194
 e70:	73006863 	movwvc	r6, #2147	; 0x863
 e74:	74726f68 	ldrbtvc	r6, [r2], #-3944	; 0xfffff098
 e78:	736e7520 	cmnvc	lr, #32, 10	; 0x8000000
 e7c:	656e6769 	strbvs	r6, [lr, #-1897]!	; 0xfffff897
 e80:	6e692064 	cdpvs	0, 6, cr2, cr9, cr4, {3}
 e84:	735f0074 	cmpvc	pc, #116	; 0x74
 e88:	655f7379 	ldrbvs	r7, [pc, #-889]	; b17 <shift+0xb17>
 e8c:	696c7272 	stmdbvs	ip!, {r1, r4, r5, r6, r9, ip, sp, lr}^
 e90:	61007473 	tstvs	r0, r3, ror r4
 e94:	615f6d72 	cmpvs	pc, r2, ror sp	; <UNPREDICTABLE>
 e98:	37686372 			; <UNDEFINED> instruction: 0x37686372
 e9c:	61006d65 	tstvs	r0, r5, ror #26
 ea0:	31376d72 	teqcc	r7, r2, ror sp
 ea4:	61003030 	tstvs	r0, r0, lsr r0
 ea8:	705f6d72 	subsvc	r6, pc, r2, ror sp	; <UNPREDICTABLE>
 eac:	645f7363 	ldrbvs	r7, [pc], #-867	; eb4 <shift+0xeb4>
 eb0:	75616665 	strbvc	r6, [r1, #-1637]!	; 0xfffff99b
 eb4:	5600746c 	strpl	r7, [r0], -ip, ror #8
 eb8:	525f5046 	subspl	r5, pc, #70	; 0x46
 ebc:	445f4745 	ldrbmi	r4, [pc], #-1861	; ec4 <shift+0xec4>
 ec0:	41003233 	tstmi	r0, r3, lsr r2
 ec4:	505f4d52 	subspl	r4, pc, r2, asr sp	; <UNPREDICTABLE>
 ec8:	555f5343 	ldrbpl	r5, [pc, #-835]	; b8d <shift+0xb8d>
 ecc:	4f4e4b4e 	svcmi	0x004e4b4e
 ed0:	65004e57 	strvs	r4, [r0, #-3671]	; 0xfffff1a9
 ed4:	31333970 	teqcc	r3, r0, ror r9
 ed8:	72610032 	rsbvc	r0, r1, #50	; 0x32
 edc:	6100336d 	tstvs	r0, sp, ror #6
 ee0:	615f6d72 	cmpvs	pc, r2, ror sp	; <UNPREDICTABLE>
 ee4:	5f686372 	svcpl	0x00686372
 ee8:	6d756874 	ldclvs	8, cr6, [r5, #-464]!	; 0xfffffe30
 eec:	61003162 	tstvs	r0, r2, ror #2
 ef0:	615f6d72 	cmpvs	pc, r2, ror sp	; <UNPREDICTABLE>
 ef4:	5f686372 	svcpl	0x00686372
 ef8:	6d756874 	ldclvs	8, cr6, [r5, #-464]!	; 0xfffffe30
 efc:	63003262 	movwvs	r3, #610	; 0x262
 f00:	6574726f 	ldrbvs	r7, [r4, #-623]!	; 0xfffffd91
 f04:	00306d78 	eorseq	r6, r0, r8, ror sp
 f08:	74726f63 	ldrbtvc	r6, [r2], #-3939	; 0xfffff09d
 f0c:	316d7865 	cmncc	sp, r5, ror #16
 f10:	6d726100 	ldfvse	f6, [r2, #-0]
 f14:	6f630038 	svcvs	0x00630038
 f18:	78657472 	stmdavc	r5!, {r1, r4, r5, r6, sl, ip, sp, lr}^
 f1c:	6300336d 	movwvs	r3, #877	; 0x36d
 f20:	6574726f 	ldrbvs	r7, [r4, #-623]!	; 0xfffffd91
 f24:	00346d78 	eorseq	r6, r4, r8, ror sp
 f28:	376d7261 	strbcc	r7, [sp, -r1, ror #4]!
 f2c:	696d6474 	stmdbvs	sp!, {r2, r4, r5, r6, sl, sp, lr}^
 f30:	726f6300 	rsbvc	r6, pc, #0, 6
 f34:	6d786574 	cfldr64vs	mvdx6, [r8, #-464]!	; 0xfffffe30
 f38:	44550037 	ldrbmi	r0, [r5], #-55	; 0xffffffc9
 f3c:	70797449 	rsbsvc	r7, r9, r9, asr #8
 f40:	665f0065 	ldrbvs	r0, [pc], -r5, rrx
 f44:	7367616c 	cmnvc	r7, #108, 2
 f48:	72610032 	rsbvc	r0, r1, #50	; 0x32
 f4c:	6f6e5f6d 	svcvs	0x006e5f6d
 f50:	5f00656e 	svcpl	0x0000656e
 f54:	7961645f 	stmdbvc	r1!, {r0, r1, r2, r3, r4, r6, sl, sp, lr}^
 f58:	6867696c 	stmdavs	r7!, {r2, r3, r5, r6, r8, fp, sp, lr}^
 f5c:	72610074 	rsbvc	r0, r1, #116	; 0x74
 f60:	3230316d 	eorscc	r3, r0, #1073741851	; 0x4000001b
 f64:	61006530 	tstvs	r0, r0, lsr r5
 f68:	31376d72 	teqcc	r7, r2, ror sp
 f6c:	71006330 	tstvc	r0, r0, lsr r3
 f70:	34326664 	ldrtcc	r6, [r2], #-1636	; 0xfffff99c
 f74:	5f007878 	svcpl	0x00007878
 f78:	73756e75 	cmnvc	r5, #1872	; 0x750
 f7c:	00326465 	eorseq	r6, r2, r5, ror #8
 f80:	5f4f495f 	svcpl	0x004f495f
 f84:	5f667562 	svcpl	0x00667562
 f88:	65736162 	ldrbvs	r6, [r3, #-354]!	; 0xfffffe9e
 f8c:	6d726100 	ldfvse	f6, [r2, #-0]
 f90:	6372615f 	cmnvs	r2, #-1073741801	; 0xc0000017
 f94:	315f3868 	cmpcc	pc, r8, ror #16
 f98:	6d726100 	ldfvse	f6, [r2, #-0]
 f9c:	30323031 	eorscc	r3, r2, r1, lsr r0
 fa0:	5f5f0074 	svcpl	0x005f0074
 fa4:	3666666f 	strbtcc	r6, [r6], -pc, ror #12
 fa8:	00745f34 	rsbseq	r5, r4, r4, lsr pc
