
font_test.elf:     file format elf32-littlearm


Disassembly of section .text:

80100000 <_start>:
80100000:	e59fd028 	ldr	sp, [pc, #40]	; 80100030 <clean+0x14>
80100004:	eb000001 	bl	80100010 <clean_bss>
80100008:	fb0000b8 	blx	801002f2 <main>

8010000c <halt>:
8010000c:	eafffffe 	b	8010000c <halt>

80100010 <clean_bss>:
80100010:	e59f101c 	ldr	r1, [pc, #28]	; 80100034 <clean+0x18>
80100014:	e59f201c 	ldr	r2, [pc, #28]	; 80100038 <clean+0x1c>
80100018:	e3a03000 	mov	r3, #0

8010001c <clean>:
8010001c:	e5813000 	str	r3, [r1]
80100020:	e2811004 	add	r1, r1, #4
80100024:	e1510002 	cmp	r1, r2
80100028:	1afffffb 	bne	8010001c <clean>
8010002c:	e1a0f00e 	mov	pc, lr
80100030:	80200000 	eorhi	r0, r0, r0
80100034:	801020b0 	ldrhhi	r2, [r0], -r0
80100038:	80102114 	andshi	r2, r0, r4, lsl r1

8010003c <lcd_test>:
8010003c:	b580      	push	{r7, lr}
8010003e:	b08a      	sub	sp, #40	; 0x28
80100040:	af02      	add	r7, sp, #8
80100042:	f000 fddb 	bl	80100bfc <lcd_enable>
80100046:	463b      	mov	r3, r7
80100048:	1d3a      	adds	r2, r7, #4
8010004a:	f107 0108 	add.w	r1, r7, #8
8010004e:	f107 000c 	add.w	r0, r7, #12
80100052:	f000 fda6 	bl	80100ba2 <get_lcd_params>
80100056:	683b      	ldr	r3, [r7, #0]
80100058:	2b10      	cmp	r3, #16
8010005a:	d153      	bne.n	80100104 <lcd_test+0xc8>
8010005c:	68fb      	ldr	r3, [r7, #12]
8010005e:	617b      	str	r3, [r7, #20]
80100060:	2300      	movs	r3, #0
80100062:	61fb      	str	r3, [r7, #28]
80100064:	e012      	b.n	8010008c <lcd_test+0x50>
80100066:	2300      	movs	r3, #0
80100068:	61bb      	str	r3, [r7, #24]
8010006a:	e008      	b.n	8010007e <lcd_test+0x42>
8010006c:	697b      	ldr	r3, [r7, #20]
8010006e:	1c9a      	adds	r2, r3, #2
80100070:	617a      	str	r2, [r7, #20]
80100072:	f44f 42f8 	mov.w	r2, #31744	; 0x7c00
80100076:	801a      	strh	r2, [r3, #0]
80100078:	69bb      	ldr	r3, [r7, #24]
8010007a:	3301      	adds	r3, #1
8010007c:	61bb      	str	r3, [r7, #24]
8010007e:	687b      	ldr	r3, [r7, #4]
80100080:	69ba      	ldr	r2, [r7, #24]
80100082:	429a      	cmp	r2, r3
80100084:	dbf2      	blt.n	8010006c <lcd_test+0x30>
80100086:	69fb      	ldr	r3, [r7, #28]
80100088:	3301      	adds	r3, #1
8010008a:	61fb      	str	r3, [r7, #28]
8010008c:	68bb      	ldr	r3, [r7, #8]
8010008e:	69fa      	ldr	r2, [r7, #28]
80100090:	429a      	cmp	r2, r3
80100092:	dbe8      	blt.n	80100066 <lcd_test+0x2a>
80100094:	68fb      	ldr	r3, [r7, #12]
80100096:	617b      	str	r3, [r7, #20]
80100098:	2300      	movs	r3, #0
8010009a:	61fb      	str	r3, [r7, #28]
8010009c:	e012      	b.n	801000c4 <lcd_test+0x88>
8010009e:	2300      	movs	r3, #0
801000a0:	61bb      	str	r3, [r7, #24]
801000a2:	e008      	b.n	801000b6 <lcd_test+0x7a>
801000a4:	697b      	ldr	r3, [r7, #20]
801000a6:	1c9a      	adds	r2, r3, #2
801000a8:	617a      	str	r2, [r7, #20]
801000aa:	f44f 7278 	mov.w	r2, #992	; 0x3e0
801000ae:	801a      	strh	r2, [r3, #0]
801000b0:	69bb      	ldr	r3, [r7, #24]
801000b2:	3301      	adds	r3, #1
801000b4:	61bb      	str	r3, [r7, #24]
801000b6:	687b      	ldr	r3, [r7, #4]
801000b8:	69ba      	ldr	r2, [r7, #24]
801000ba:	429a      	cmp	r2, r3
801000bc:	dbf2      	blt.n	801000a4 <lcd_test+0x68>
801000be:	69fb      	ldr	r3, [r7, #28]
801000c0:	3301      	adds	r3, #1
801000c2:	61fb      	str	r3, [r7, #28]
801000c4:	68bb      	ldr	r3, [r7, #8]
801000c6:	69fa      	ldr	r2, [r7, #28]
801000c8:	429a      	cmp	r2, r3
801000ca:	dbe8      	blt.n	8010009e <lcd_test+0x62>
801000cc:	68fb      	ldr	r3, [r7, #12]
801000ce:	617b      	str	r3, [r7, #20]
801000d0:	2300      	movs	r3, #0
801000d2:	61fb      	str	r3, [r7, #28]
801000d4:	e011      	b.n	801000fa <lcd_test+0xbe>
801000d6:	2300      	movs	r3, #0
801000d8:	61bb      	str	r3, [r7, #24]
801000da:	e007      	b.n	801000ec <lcd_test+0xb0>
801000dc:	697b      	ldr	r3, [r7, #20]
801000de:	1c9a      	adds	r2, r3, #2
801000e0:	617a      	str	r2, [r7, #20]
801000e2:	221f      	movs	r2, #31
801000e4:	801a      	strh	r2, [r3, #0]
801000e6:	69bb      	ldr	r3, [r7, #24]
801000e8:	3301      	adds	r3, #1
801000ea:	61bb      	str	r3, [r7, #24]
801000ec:	687b      	ldr	r3, [r7, #4]
801000ee:	69ba      	ldr	r2, [r7, #24]
801000f0:	429a      	cmp	r2, r3
801000f2:	dbf3      	blt.n	801000dc <lcd_test+0xa0>
801000f4:	69fb      	ldr	r3, [r7, #28]
801000f6:	3301      	adds	r3, #1
801000f8:	61fb      	str	r3, [r7, #28]
801000fa:	68bb      	ldr	r3, [r7, #8]
801000fc:	69fa      	ldr	r2, [r7, #28]
801000fe:	429a      	cmp	r2, r3
80100100:	dbe9      	blt.n	801000d6 <lcd_test+0x9a>
80100102:	e055      	b.n	801001b0 <lcd_test+0x174>
80100104:	683b      	ldr	r3, [r7, #0]
80100106:	2b20      	cmp	r3, #32
80100108:	d152      	bne.n	801001b0 <lcd_test+0x174>
8010010a:	68fb      	ldr	r3, [r7, #12]
8010010c:	613b      	str	r3, [r7, #16]
8010010e:	2300      	movs	r3, #0
80100110:	61fb      	str	r3, [r7, #28]
80100112:	e012      	b.n	8010013a <lcd_test+0xfe>
80100114:	2300      	movs	r3, #0
80100116:	61bb      	str	r3, [r7, #24]
80100118:	e008      	b.n	8010012c <lcd_test+0xf0>
8010011a:	693b      	ldr	r3, [r7, #16]
8010011c:	1d1a      	adds	r2, r3, #4
8010011e:	613a      	str	r2, [r7, #16]
80100120:	f44f 027f 	mov.w	r2, #16711680	; 0xff0000
80100124:	601a      	str	r2, [r3, #0]
80100126:	69bb      	ldr	r3, [r7, #24]
80100128:	3301      	adds	r3, #1
8010012a:	61bb      	str	r3, [r7, #24]
8010012c:	687b      	ldr	r3, [r7, #4]
8010012e:	69ba      	ldr	r2, [r7, #24]
80100130:	429a      	cmp	r2, r3
80100132:	dbf2      	blt.n	8010011a <lcd_test+0xde>
80100134:	69fb      	ldr	r3, [r7, #28]
80100136:	3301      	adds	r3, #1
80100138:	61fb      	str	r3, [r7, #28]
8010013a:	68bb      	ldr	r3, [r7, #8]
8010013c:	69fa      	ldr	r2, [r7, #28]
8010013e:	429a      	cmp	r2, r3
80100140:	dbe8      	blt.n	80100114 <lcd_test+0xd8>
80100142:	68fb      	ldr	r3, [r7, #12]
80100144:	613b      	str	r3, [r7, #16]
80100146:	2300      	movs	r3, #0
80100148:	61fb      	str	r3, [r7, #28]
8010014a:	e012      	b.n	80100172 <lcd_test+0x136>
8010014c:	2300      	movs	r3, #0
8010014e:	61bb      	str	r3, [r7, #24]
80100150:	e008      	b.n	80100164 <lcd_test+0x128>
80100152:	693b      	ldr	r3, [r7, #16]
80100154:	1d1a      	adds	r2, r3, #4
80100156:	613a      	str	r2, [r7, #16]
80100158:	f44f 427f 	mov.w	r2, #65280	; 0xff00
8010015c:	601a      	str	r2, [r3, #0]
8010015e:	69bb      	ldr	r3, [r7, #24]
80100160:	3301      	adds	r3, #1
80100162:	61bb      	str	r3, [r7, #24]
80100164:	687b      	ldr	r3, [r7, #4]
80100166:	69ba      	ldr	r2, [r7, #24]
80100168:	429a      	cmp	r2, r3
8010016a:	dbf2      	blt.n	80100152 <lcd_test+0x116>
8010016c:	69fb      	ldr	r3, [r7, #28]
8010016e:	3301      	adds	r3, #1
80100170:	61fb      	str	r3, [r7, #28]
80100172:	68bb      	ldr	r3, [r7, #8]
80100174:	69fa      	ldr	r2, [r7, #28]
80100176:	429a      	cmp	r2, r3
80100178:	dbe8      	blt.n	8010014c <lcd_test+0x110>
8010017a:	68fb      	ldr	r3, [r7, #12]
8010017c:	613b      	str	r3, [r7, #16]
8010017e:	2300      	movs	r3, #0
80100180:	61fb      	str	r3, [r7, #28]
80100182:	e011      	b.n	801001a8 <lcd_test+0x16c>
80100184:	2300      	movs	r3, #0
80100186:	61bb      	str	r3, [r7, #24]
80100188:	e007      	b.n	8010019a <lcd_test+0x15e>
8010018a:	693b      	ldr	r3, [r7, #16]
8010018c:	1d1a      	adds	r2, r3, #4
8010018e:	613a      	str	r2, [r7, #16]
80100190:	22ff      	movs	r2, #255	; 0xff
80100192:	601a      	str	r2, [r3, #0]
80100194:	69bb      	ldr	r3, [r7, #24]
80100196:	3301      	adds	r3, #1
80100198:	61bb      	str	r3, [r7, #24]
8010019a:	687b      	ldr	r3, [r7, #4]
8010019c:	69ba      	ldr	r2, [r7, #24]
8010019e:	429a      	cmp	r2, r3
801001a0:	dbf3      	blt.n	8010018a <lcd_test+0x14e>
801001a2:	69fb      	ldr	r3, [r7, #28]
801001a4:	3301      	adds	r3, #1
801001a6:	61fb      	str	r3, [r7, #28]
801001a8:	68bb      	ldr	r3, [r7, #8]
801001aa:	69fa      	ldr	r2, [r7, #28]
801001ac:	429a      	cmp	r2, r3
801001ae:	dbe9      	blt.n	80100184 <lcd_test+0x148>
801001b0:	f000 fb31 	bl	80100816 <fb_get_lcd_params>
801001b4:	f248 60a0 	movw	r0, #34464	; 0x86a0
801001b8:	f2c0 0001 	movt	r0, #1
801001bc:	f000 fc80 	bl	80100ac0 <delay>
801001c0:	68bb      	ldr	r3, [r7, #8]
801001c2:	1e5a      	subs	r2, r3, #1
801001c4:	f44f 037f 	mov.w	r3, #16711680	; 0xff0000
801001c8:	9300      	str	r3, [sp, #0]
801001ca:	2300      	movs	r3, #0
801001cc:	2100      	movs	r1, #0
801001ce:	2000      	movs	r0, #0
801001d0:	f000 f9bc 	bl	8010054c <draw_line>
801001d4:	f248 60a0 	movw	r0, #34464	; 0x86a0
801001d8:	f2c0 0001 	movt	r0, #1
801001dc:	f000 fc70 	bl	80100ac0 <delay>
801001e0:	68bb      	ldr	r3, [r7, #8]
801001e2:	1e58      	subs	r0, r3, #1
801001e4:	68bb      	ldr	r3, [r7, #8]
801001e6:	1e5a      	subs	r2, r3, #1
801001e8:	687b      	ldr	r3, [r7, #4]
801001ea:	1e59      	subs	r1, r3, #1
801001ec:	f44f 437f 	mov.w	r3, #65280	; 0xff00
801001f0:	f2c0 03ff 	movt	r3, #255	; 0xff
801001f4:	9300      	str	r3, [sp, #0]
801001f6:	460b      	mov	r3, r1
801001f8:	2100      	movs	r1, #0
801001fa:	f000 f9a7 	bl	8010054c <draw_line>
801001fe:	f248 60a0 	movw	r0, #34464	; 0x86a0
80100202:	f2c0 0001 	movt	r0, #1
80100206:	f000 fc5b 	bl	80100ac0 <delay>
8010020a:	687b      	ldr	r3, [r7, #4]
8010020c:	1e59      	subs	r1, r3, #1
8010020e:	68bb      	ldr	r3, [r7, #8]
80100210:	1e5a      	subs	r2, r3, #1
80100212:	687b      	ldr	r3, [r7, #4]
80100214:	1e58      	subs	r0, r3, #1
80100216:	23aa      	movs	r3, #170	; 0xaa
80100218:	f2c0 03ff 	movt	r3, #255	; 0xff
8010021c:	9300      	str	r3, [sp, #0]
8010021e:	4603      	mov	r3, r0
80100220:	2000      	movs	r0, #0
80100222:	f000 f993 	bl	8010054c <draw_line>
80100226:	f248 60a0 	movw	r0, #34464	; 0x86a0
8010022a:	f2c0 0001 	movt	r0, #1
8010022e:	f000 fc47 	bl	80100ac0 <delay>
80100232:	687b      	ldr	r3, [r7, #4]
80100234:	1e5a      	subs	r2, r3, #1
80100236:	23ef      	movs	r3, #239	; 0xef
80100238:	f2c0 03ff 	movt	r3, #255	; 0xff
8010023c:	9300      	str	r3, [sp, #0]
8010023e:	4613      	mov	r3, r2
80100240:	2200      	movs	r2, #0
80100242:	2100      	movs	r1, #0
80100244:	2000      	movs	r0, #0
80100246:	f000 f981 	bl	8010054c <draw_line>
8010024a:	f248 60a0 	movw	r0, #34464	; 0x86a0
8010024e:	f2c0 0001 	movt	r0, #1
80100252:	f000 fc35 	bl	80100ac0 <delay>
80100256:	68bb      	ldr	r3, [r7, #8]
80100258:	1e5a      	subs	r2, r3, #1
8010025a:	687b      	ldr	r3, [r7, #4]
8010025c:	1e59      	subs	r1, r3, #1
8010025e:	f44f 438a 	mov.w	r3, #17664	; 0x4500
80100262:	f2c0 03ff 	movt	r3, #255	; 0xff
80100266:	9300      	str	r3, [sp, #0]
80100268:	460b      	mov	r3, r1
8010026a:	2100      	movs	r1, #0
8010026c:	2000      	movs	r0, #0
8010026e:	f000 f96d 	bl	8010054c <draw_line>
80100272:	f248 60a0 	movw	r0, #34464	; 0x86a0
80100276:	f2c0 0001 	movt	r0, #1
8010027a:	f000 fc21 	bl	80100ac0 <delay>
8010027e:	68bb      	ldr	r3, [r7, #8]
80100280:	1e58      	subs	r0, r3, #1
80100282:	687b      	ldr	r3, [r7, #4]
80100284:	1e5a      	subs	r2, r3, #1
80100286:	f44f 63f0 	mov.w	r3, #1920	; 0x780
8010028a:	f2c0 03ff 	movt	r3, #255	; 0xff
8010028e:	9300      	str	r3, [sp, #0]
80100290:	4613      	mov	r3, r2
80100292:	2200      	movs	r2, #0
80100294:	2100      	movs	r1, #0
80100296:	f000 f959 	bl	8010054c <draw_line>
8010029a:	f248 60a0 	movw	r0, #34464	; 0x86a0
8010029e:	f2c0 0001 	movt	r0, #1
801002a2:	f000 fc0d 	bl	80100ac0 <delay>
801002a6:	68bb      	ldr	r3, [r7, #8]
801002a8:	0fda      	lsrs	r2, r3, #31
801002aa:	4413      	add	r3, r2
801002ac:	105b      	asrs	r3, r3, #1
801002ae:	4618      	mov	r0, r3
801002b0:	687b      	ldr	r3, [r7, #4]
801002b2:	0fda      	lsrs	r2, r3, #31
801002b4:	4413      	add	r3, r2
801002b6:	105b      	asrs	r3, r3, #1
801002b8:	4619      	mov	r1, r3
801002ba:	687b      	ldr	r3, [r7, #4]
801002bc:	1cda      	adds	r2, r3, #3
801002be:	2b00      	cmp	r3, #0
801002c0:	bfb4      	ite	lt
801002c2:	4613      	movlt	r3, r2
801002c4:	461b      	movge	r3, r3
801002c6:	109b      	asrs	r3, r3, #2
801002c8:	461a      	mov	r2, r3
801002ca:	f44f 437f 	mov.w	r3, #65280	; 0xff00
801002ce:	f000 f8b5 	bl	8010043c <draw_circle>
801002d2:	f000 f817 	bl	80100304 <font_init>
801002d6:	f44f 437f 	mov.w	r3, #65280	; 0xff00
801002da:	f241 0210 	movw	r2, #4112	; 0x1010
801002de:	f2c8 0210 	movt	r2, #32784	; 0x8010
801002e2:	210a      	movs	r1, #10
801002e4:	200a      	movs	r0, #10
801002e6:	f000 f866 	bl	801003b6 <fb_print_string>
801002ea:	bf00      	nop
801002ec:	3720      	adds	r7, #32
801002ee:	46bd      	mov	sp, r7
801002f0:	bd80      	pop	{r7, pc}

801002f2 <main>:
801002f2:	b580      	push	{r7, lr}
801002f4:	af00      	add	r7, sp, #0
801002f6:	f000 fc8d 	bl	80100c14 <lcd_init>
801002fa:	f7ff fe9f 	bl	8010003c <lcd_test>
801002fe:	2300      	movs	r3, #0
80100300:	4618      	mov	r0, r3
80100302:	bd80      	pop	{r7, pc}

80100304 <font_init>:
80100304:	b580      	push	{r7, lr}
80100306:	af00      	add	r7, sp, #0
80100308:	f242 03bc 	movw	r3, #8380	; 0x20bc
8010030c:	f2c8 0310 	movt	r3, #32784	; 0x8010
80100310:	f242 02b8 	movw	r2, #8376	; 0x20b8
80100314:	f2c8 0210 	movt	r2, #32784	; 0x8010
80100318:	f242 01b4 	movw	r1, #8372	; 0x20b4
8010031c:	f2c8 0110 	movt	r1, #32784	; 0x8010
80100320:	f242 00b0 	movw	r0, #8368	; 0x20b0
80100324:	f2c8 0010 	movt	r0, #32784	; 0x8010
80100328:	f000 fc3b 	bl	80100ba2 <get_lcd_params>
8010032c:	bf00      	nop
8010032e:	bd80      	pop	{r7, pc}

80100330 <fb_print_char>:
80100330:	b580      	push	{r7, lr}
80100332:	b08a      	sub	sp, #40	; 0x28
80100334:	af00      	add	r7, sp, #0
80100336:	60f8      	str	r0, [r7, #12]
80100338:	60b9      	str	r1, [r7, #8]
8010033a:	603b      	str	r3, [r7, #0]
8010033c:	4613      	mov	r3, r2
8010033e:	71fb      	strb	r3, [r7, #7]
80100340:	79fb      	ldrb	r3, [r7, #7]
80100342:	011a      	lsls	r2, r3, #4
80100344:	f241 0334 	movw	r3, #4148	; 0x1034
80100348:	f2c8 0310 	movt	r3, #32784	; 0x8010
8010034c:	4413      	add	r3, r2
8010034e:	61fb      	str	r3, [r7, #28]
80100350:	68bb      	ldr	r3, [r7, #8]
80100352:	623b      	str	r3, [r7, #32]
80100354:	e025      	b.n	801003a2 <fb_print_char+0x72>
80100356:	69fb      	ldr	r3, [r7, #28]
80100358:	1c5a      	adds	r2, r3, #1
8010035a:	61fa      	str	r2, [r7, #28]
8010035c:	781b      	ldrb	r3, [r3, #0]
8010035e:	75fb      	strb	r3, [r7, #23]
80100360:	2307      	movs	r3, #7
80100362:	61bb      	str	r3, [r7, #24]
80100364:	68fb      	ldr	r3, [r7, #12]
80100366:	627b      	str	r3, [r7, #36]	; 0x24
80100368:	e012      	b.n	80100390 <fb_print_char+0x60>
8010036a:	7dfa      	ldrb	r2, [r7, #23]
8010036c:	69bb      	ldr	r3, [r7, #24]
8010036e:	fa42 f303 	asr.w	r3, r2, r3
80100372:	f003 0301 	and.w	r3, r3, #1
80100376:	2b00      	cmp	r3, #0
80100378:	d004      	beq.n	80100384 <fb_print_char+0x54>
8010037a:	683a      	ldr	r2, [r7, #0]
8010037c:	6a39      	ldr	r1, [r7, #32]
8010037e:	6a78      	ldr	r0, [r7, #36]	; 0x24
80100380:	f000 fa8a 	bl	80100898 <fb_put_pixel>
80100384:	69bb      	ldr	r3, [r7, #24]
80100386:	3b01      	subs	r3, #1
80100388:	61bb      	str	r3, [r7, #24]
8010038a:	6a7b      	ldr	r3, [r7, #36]	; 0x24
8010038c:	3301      	adds	r3, #1
8010038e:	627b      	str	r3, [r7, #36]	; 0x24
80100390:	68fb      	ldr	r3, [r7, #12]
80100392:	f103 0208 	add.w	r2, r3, #8
80100396:	6a7b      	ldr	r3, [r7, #36]	; 0x24
80100398:	429a      	cmp	r2, r3
8010039a:	dce6      	bgt.n	8010036a <fb_print_char+0x3a>
8010039c:	6a3b      	ldr	r3, [r7, #32]
8010039e:	3301      	adds	r3, #1
801003a0:	623b      	str	r3, [r7, #32]
801003a2:	68bb      	ldr	r3, [r7, #8]
801003a4:	f103 0210 	add.w	r2, r3, #16
801003a8:	6a3b      	ldr	r3, [r7, #32]
801003aa:	429a      	cmp	r2, r3
801003ac:	dcd3      	bgt.n	80100356 <fb_print_char+0x26>
801003ae:	bf00      	nop
801003b0:	3728      	adds	r7, #40	; 0x28
801003b2:	46bd      	mov	sp, r7
801003b4:	bd80      	pop	{r7, pc}

801003b6 <fb_print_string>:
801003b6:	b580      	push	{r7, lr}
801003b8:	b086      	sub	sp, #24
801003ba:	af00      	add	r7, sp, #0
801003bc:	60f8      	str	r0, [r7, #12]
801003be:	60b9      	str	r1, [r7, #8]
801003c0:	607a      	str	r2, [r7, #4]
801003c2:	603b      	str	r3, [r7, #0]
801003c4:	2300      	movs	r3, #0
801003c6:	617b      	str	r3, [r7, #20]
801003c8:	e02e      	b.n	80100428 <fb_print_string+0x72>
801003ca:	697b      	ldr	r3, [r7, #20]
801003cc:	687a      	ldr	r2, [r7, #4]
801003ce:	4413      	add	r3, r2
801003d0:	781b      	ldrb	r3, [r3, #0]
801003d2:	2b0a      	cmp	r3, #10
801003d4:	d103      	bne.n	801003de <fb_print_string+0x28>
801003d6:	68bb      	ldr	r3, [r7, #8]
801003d8:	3310      	adds	r3, #16
801003da:	60bb      	str	r3, [r7, #8]
801003dc:	e021      	b.n	80100422 <fb_print_string+0x6c>
801003de:	697b      	ldr	r3, [r7, #20]
801003e0:	687a      	ldr	r2, [r7, #4]
801003e2:	4413      	add	r3, r2
801003e4:	781b      	ldrb	r3, [r3, #0]
801003e6:	2b0d      	cmp	r3, #13
801003e8:	d102      	bne.n	801003f0 <fb_print_string+0x3a>
801003ea:	2300      	movs	r3, #0
801003ec:	60fb      	str	r3, [r7, #12]
801003ee:	e018      	b.n	80100422 <fb_print_string+0x6c>
801003f0:	697b      	ldr	r3, [r7, #20]
801003f2:	687a      	ldr	r2, [r7, #4]
801003f4:	4413      	add	r3, r2
801003f6:	781a      	ldrb	r2, [r3, #0]
801003f8:	683b      	ldr	r3, [r7, #0]
801003fa:	68b9      	ldr	r1, [r7, #8]
801003fc:	68f8      	ldr	r0, [r7, #12]
801003fe:	f7ff ff97 	bl	80100330 <fb_print_char>
80100402:	68fb      	ldr	r3, [r7, #12]
80100404:	3308      	adds	r3, #8
80100406:	60fb      	str	r3, [r7, #12]
80100408:	f242 03b4 	movw	r3, #8372	; 0x20b4
8010040c:	f2c8 0310 	movt	r3, #32784	; 0x8010
80100410:	681b      	ldr	r3, [r3, #0]
80100412:	68fa      	ldr	r2, [r7, #12]
80100414:	429a      	cmp	r2, r3
80100416:	db04      	blt.n	80100422 <fb_print_string+0x6c>
80100418:	2300      	movs	r3, #0
8010041a:	60fb      	str	r3, [r7, #12]
8010041c:	68bb      	ldr	r3, [r7, #8]
8010041e:	3310      	adds	r3, #16
80100420:	60bb      	str	r3, [r7, #8]
80100422:	697b      	ldr	r3, [r7, #20]
80100424:	3301      	adds	r3, #1
80100426:	617b      	str	r3, [r7, #20]
80100428:	697b      	ldr	r3, [r7, #20]
8010042a:	687a      	ldr	r2, [r7, #4]
8010042c:	4413      	add	r3, r2
8010042e:	781b      	ldrb	r3, [r3, #0]
80100430:	2b00      	cmp	r3, #0
80100432:	d1ca      	bne.n	801003ca <fb_print_string+0x14>
80100434:	bf00      	nop
80100436:	3718      	adds	r7, #24
80100438:	46bd      	mov	sp, r7
8010043a:	bd80      	pop	{r7, pc}

8010043c <draw_circle>:
8010043c:	b580      	push	{r7, lr}
8010043e:	b088      	sub	sp, #32
80100440:	af00      	add	r7, sp, #0
80100442:	60f8      	str	r0, [r7, #12]
80100444:	60b9      	str	r1, [r7, #8]
80100446:	607a      	str	r2, [r7, #4]
80100448:	603b      	str	r3, [r7, #0]
8010044a:	2300      	movs	r3, #0
8010044c:	61fb      	str	r3, [r7, #28]
8010044e:	687b      	ldr	r3, [r7, #4]
80100450:	61bb      	str	r3, [r7, #24]
80100452:	e06a      	b.n	8010052a <draw_circle+0xee>
80100454:	68fa      	ldr	r2, [r7, #12]
80100456:	69fb      	ldr	r3, [r7, #28]
80100458:	18d0      	adds	r0, r2, r3
8010045a:	68ba      	ldr	r2, [r7, #8]
8010045c:	69bb      	ldr	r3, [r7, #24]
8010045e:	1ad3      	subs	r3, r2, r3
80100460:	683a      	ldr	r2, [r7, #0]
80100462:	4619      	mov	r1, r3
80100464:	f000 fa18 	bl	80100898 <fb_put_pixel>
80100468:	68fa      	ldr	r2, [r7, #12]
8010046a:	69fb      	ldr	r3, [r7, #28]
8010046c:	1ad0      	subs	r0, r2, r3
8010046e:	68ba      	ldr	r2, [r7, #8]
80100470:	69bb      	ldr	r3, [r7, #24]
80100472:	1ad3      	subs	r3, r2, r3
80100474:	683a      	ldr	r2, [r7, #0]
80100476:	4619      	mov	r1, r3
80100478:	f000 fa0e 	bl	80100898 <fb_put_pixel>
8010047c:	68fa      	ldr	r2, [r7, #12]
8010047e:	69fb      	ldr	r3, [r7, #28]
80100480:	1ad0      	subs	r0, r2, r3
80100482:	68ba      	ldr	r2, [r7, #8]
80100484:	69bb      	ldr	r3, [r7, #24]
80100486:	4413      	add	r3, r2
80100488:	683a      	ldr	r2, [r7, #0]
8010048a:	4619      	mov	r1, r3
8010048c:	f000 fa04 	bl	80100898 <fb_put_pixel>
80100490:	68fa      	ldr	r2, [r7, #12]
80100492:	69fb      	ldr	r3, [r7, #28]
80100494:	18d0      	adds	r0, r2, r3
80100496:	68ba      	ldr	r2, [r7, #8]
80100498:	69bb      	ldr	r3, [r7, #24]
8010049a:	4413      	add	r3, r2
8010049c:	683a      	ldr	r2, [r7, #0]
8010049e:	4619      	mov	r1, r3
801004a0:	f000 f9fa 	bl	80100898 <fb_put_pixel>
801004a4:	68fa      	ldr	r2, [r7, #12]
801004a6:	69bb      	ldr	r3, [r7, #24]
801004a8:	18d0      	adds	r0, r2, r3
801004aa:	68ba      	ldr	r2, [r7, #8]
801004ac:	69fb      	ldr	r3, [r7, #28]
801004ae:	4413      	add	r3, r2
801004b0:	683a      	ldr	r2, [r7, #0]
801004b2:	4619      	mov	r1, r3
801004b4:	f000 f9f0 	bl	80100898 <fb_put_pixel>
801004b8:	68fa      	ldr	r2, [r7, #12]
801004ba:	69bb      	ldr	r3, [r7, #24]
801004bc:	18d0      	adds	r0, r2, r3
801004be:	68ba      	ldr	r2, [r7, #8]
801004c0:	69fb      	ldr	r3, [r7, #28]
801004c2:	1ad3      	subs	r3, r2, r3
801004c4:	683a      	ldr	r2, [r7, #0]
801004c6:	4619      	mov	r1, r3
801004c8:	f000 f9e6 	bl	80100898 <fb_put_pixel>
801004cc:	68fa      	ldr	r2, [r7, #12]
801004ce:	69bb      	ldr	r3, [r7, #24]
801004d0:	1ad0      	subs	r0, r2, r3
801004d2:	68ba      	ldr	r2, [r7, #8]
801004d4:	69fb      	ldr	r3, [r7, #28]
801004d6:	1ad3      	subs	r3, r2, r3
801004d8:	683a      	ldr	r2, [r7, #0]
801004da:	4619      	mov	r1, r3
801004dc:	f000 f9dc 	bl	80100898 <fb_put_pixel>
801004e0:	68fa      	ldr	r2, [r7, #12]
801004e2:	69bb      	ldr	r3, [r7, #24]
801004e4:	1ad0      	subs	r0, r2, r3
801004e6:	68ba      	ldr	r2, [r7, #8]
801004e8:	69fb      	ldr	r3, [r7, #28]
801004ea:	4413      	add	r3, r2
801004ec:	683a      	ldr	r2, [r7, #0]
801004ee:	4619      	mov	r1, r3
801004f0:	f000 f9d2 	bl	80100898 <fb_put_pixel>
801004f4:	69fb      	ldr	r3, [r7, #28]
801004f6:	3301      	adds	r3, #1
801004f8:	61fb      	str	r3, [r7, #28]
801004fa:	69fb      	ldr	r3, [r7, #28]
801004fc:	69fa      	ldr	r2, [r7, #28]
801004fe:	fb02 f203 	mul.w	r2, r2, r3
80100502:	69bb      	ldr	r3, [r7, #24]
80100504:	69b9      	ldr	r1, [r7, #24]
80100506:	fb01 f303 	mul.w	r3, r1, r3
8010050a:	441a      	add	r2, r3
8010050c:	687b      	ldr	r3, [r7, #4]
8010050e:	6879      	ldr	r1, [r7, #4]
80100510:	fb01 f303 	mul.w	r3, r1, r3
80100514:	1ad3      	subs	r3, r2, r3
80100516:	617b      	str	r3, [r7, #20]
80100518:	697b      	ldr	r3, [r7, #20]
8010051a:	2b00      	cmp	r3, #0
8010051c:	dd05      	ble.n	8010052a <draw_circle+0xee>
8010051e:	69bb      	ldr	r3, [r7, #24]
80100520:	3b01      	subs	r3, #1
80100522:	61bb      	str	r3, [r7, #24]
80100524:	69fb      	ldr	r3, [r7, #28]
80100526:	3b01      	subs	r3, #1
80100528:	61fb      	str	r3, [r7, #28]
8010052a:	69bb      	ldr	r3, [r7, #24]
8010052c:	2216      	movs	r2, #22
8010052e:	fb02 f303 	mul.w	r3, r2, r3
80100532:	69ba      	ldr	r2, [r7, #24]
80100534:	fb02 f203 	mul.w	r2, r2, r3
80100538:	687b      	ldr	r3, [r7, #4]
8010053a:	6879      	ldr	r1, [r7, #4]
8010053c:	fb01 f303 	mul.w	r3, r1, r3
80100540:	429a      	cmp	r2, r3
80100542:	da87      	bge.n	80100454 <draw_circle+0x18>
80100544:	bf00      	nop
80100546:	3720      	adds	r7, #32
80100548:	46bd      	mov	sp, r7
8010054a:	bd80      	pop	{r7, pc}

8010054c <draw_line>:
8010054c:	b580      	push	{r7, lr}
8010054e:	b088      	sub	sp, #32
80100550:	af00      	add	r7, sp, #0
80100552:	60f8      	str	r0, [r7, #12]
80100554:	60b9      	str	r1, [r7, #8]
80100556:	607a      	str	r2, [r7, #4]
80100558:	603b      	str	r3, [r7, #0]
8010055a:	687a      	ldr	r2, [r7, #4]
8010055c:	68fb      	ldr	r3, [r7, #12]
8010055e:	1ad3      	subs	r3, r2, r3
80100560:	61bb      	str	r3, [r7, #24]
80100562:	683a      	ldr	r2, [r7, #0]
80100564:	68bb      	ldr	r3, [r7, #8]
80100566:	1ad3      	subs	r3, r2, r3
80100568:	617b      	str	r3, [r7, #20]
8010056a:	69bb      	ldr	r3, [r7, #24]
8010056c:	2b00      	cmp	r3, #0
8010056e:	f2c0 80a6 	blt.w	801006be <draw_line+0x172>
80100572:	697b      	ldr	r3, [r7, #20]
80100574:	2b00      	cmp	r3, #0
80100576:	db4f      	blt.n	80100618 <draw_line+0xcc>
80100578:	69ba      	ldr	r2, [r7, #24]
8010057a:	697b      	ldr	r3, [r7, #20]
8010057c:	429a      	cmp	r2, r3
8010057e:	db25      	blt.n	801005cc <draw_line+0x80>
80100580:	69bb      	ldr	r3, [r7, #24]
80100582:	0fda      	lsrs	r2, r3, #31
80100584:	4413      	add	r3, r2
80100586:	105b      	asrs	r3, r3, #1
80100588:	425b      	negs	r3, r3
8010058a:	461a      	mov	r2, r3
8010058c:	697b      	ldr	r3, [r7, #20]
8010058e:	4413      	add	r3, r2
80100590:	61fb      	str	r3, [r7, #28]
80100592:	e016      	b.n	801005c2 <draw_line+0x76>
80100594:	6abb      	ldr	r3, [r7, #40]	; 0x28
80100596:	461a      	mov	r2, r3
80100598:	68b9      	ldr	r1, [r7, #8]
8010059a:	68f8      	ldr	r0, [r7, #12]
8010059c:	f000 f97c 	bl	80100898 <fb_put_pixel>
801005a0:	69fb      	ldr	r3, [r7, #28]
801005a2:	2b00      	cmp	r3, #0
801005a4:	dd06      	ble.n	801005b4 <draw_line+0x68>
801005a6:	68bb      	ldr	r3, [r7, #8]
801005a8:	3301      	adds	r3, #1
801005aa:	60bb      	str	r3, [r7, #8]
801005ac:	69fa      	ldr	r2, [r7, #28]
801005ae:	69bb      	ldr	r3, [r7, #24]
801005b0:	1ad3      	subs	r3, r2, r3
801005b2:	61fb      	str	r3, [r7, #28]
801005b4:	68fb      	ldr	r3, [r7, #12]
801005b6:	3301      	adds	r3, #1
801005b8:	60fb      	str	r3, [r7, #12]
801005ba:	69fa      	ldr	r2, [r7, #28]
801005bc:	697b      	ldr	r3, [r7, #20]
801005be:	4413      	add	r3, r2
801005c0:	61fb      	str	r3, [r7, #28]
801005c2:	68fa      	ldr	r2, [r7, #12]
801005c4:	687b      	ldr	r3, [r7, #4]
801005c6:	429a      	cmp	r2, r3
801005c8:	dde4      	ble.n	80100594 <draw_line+0x48>
801005ca:	e120      	b.n	8010080e <draw_line+0x2c2>
801005cc:	697b      	ldr	r3, [r7, #20]
801005ce:	0fda      	lsrs	r2, r3, #31
801005d0:	4413      	add	r3, r2
801005d2:	105b      	asrs	r3, r3, #1
801005d4:	425b      	negs	r3, r3
801005d6:	461a      	mov	r2, r3
801005d8:	69bb      	ldr	r3, [r7, #24]
801005da:	4413      	add	r3, r2
801005dc:	61fb      	str	r3, [r7, #28]
801005de:	e016      	b.n	8010060e <draw_line+0xc2>
801005e0:	6abb      	ldr	r3, [r7, #40]	; 0x28
801005e2:	461a      	mov	r2, r3
801005e4:	68b9      	ldr	r1, [r7, #8]
801005e6:	68f8      	ldr	r0, [r7, #12]
801005e8:	f000 f956 	bl	80100898 <fb_put_pixel>
801005ec:	69fb      	ldr	r3, [r7, #28]
801005ee:	2b00      	cmp	r3, #0
801005f0:	dd06      	ble.n	80100600 <draw_line+0xb4>
801005f2:	68fb      	ldr	r3, [r7, #12]
801005f4:	3301      	adds	r3, #1
801005f6:	60fb      	str	r3, [r7, #12]
801005f8:	69fa      	ldr	r2, [r7, #28]
801005fa:	697b      	ldr	r3, [r7, #20]
801005fc:	1ad3      	subs	r3, r2, r3
801005fe:	61fb      	str	r3, [r7, #28]
80100600:	68bb      	ldr	r3, [r7, #8]
80100602:	3301      	adds	r3, #1
80100604:	60bb      	str	r3, [r7, #8]
80100606:	69fa      	ldr	r2, [r7, #28]
80100608:	69bb      	ldr	r3, [r7, #24]
8010060a:	4413      	add	r3, r2
8010060c:	61fb      	str	r3, [r7, #28]
8010060e:	68ba      	ldr	r2, [r7, #8]
80100610:	683b      	ldr	r3, [r7, #0]
80100612:	429a      	cmp	r2, r3
80100614:	dde4      	ble.n	801005e0 <draw_line+0x94>
80100616:	e0fa      	b.n	8010080e <draw_line+0x2c2>
80100618:	697b      	ldr	r3, [r7, #20]
8010061a:	425b      	negs	r3, r3
8010061c:	617b      	str	r3, [r7, #20]
8010061e:	69ba      	ldr	r2, [r7, #24]
80100620:	697b      	ldr	r3, [r7, #20]
80100622:	429a      	cmp	r2, r3
80100624:	db25      	blt.n	80100672 <draw_line+0x126>
80100626:	69bb      	ldr	r3, [r7, #24]
80100628:	0fda      	lsrs	r2, r3, #31
8010062a:	4413      	add	r3, r2
8010062c:	105b      	asrs	r3, r3, #1
8010062e:	425b      	negs	r3, r3
80100630:	461a      	mov	r2, r3
80100632:	697b      	ldr	r3, [r7, #20]
80100634:	4413      	add	r3, r2
80100636:	61fb      	str	r3, [r7, #28]
80100638:	e016      	b.n	80100668 <draw_line+0x11c>
8010063a:	6abb      	ldr	r3, [r7, #40]	; 0x28
8010063c:	461a      	mov	r2, r3
8010063e:	68b9      	ldr	r1, [r7, #8]
80100640:	68f8      	ldr	r0, [r7, #12]
80100642:	f000 f929 	bl	80100898 <fb_put_pixel>
80100646:	69fb      	ldr	r3, [r7, #28]
80100648:	2b00      	cmp	r3, #0
8010064a:	dd06      	ble.n	8010065a <draw_line+0x10e>
8010064c:	68bb      	ldr	r3, [r7, #8]
8010064e:	3b01      	subs	r3, #1
80100650:	60bb      	str	r3, [r7, #8]
80100652:	69fa      	ldr	r2, [r7, #28]
80100654:	69bb      	ldr	r3, [r7, #24]
80100656:	1ad3      	subs	r3, r2, r3
80100658:	61fb      	str	r3, [r7, #28]
8010065a:	68fb      	ldr	r3, [r7, #12]
8010065c:	3301      	adds	r3, #1
8010065e:	60fb      	str	r3, [r7, #12]
80100660:	69fa      	ldr	r2, [r7, #28]
80100662:	697b      	ldr	r3, [r7, #20]
80100664:	4413      	add	r3, r2
80100666:	61fb      	str	r3, [r7, #28]
80100668:	68fa      	ldr	r2, [r7, #12]
8010066a:	687b      	ldr	r3, [r7, #4]
8010066c:	429a      	cmp	r2, r3
8010066e:	dde4      	ble.n	8010063a <draw_line+0xee>
80100670:	e0cd      	b.n	8010080e <draw_line+0x2c2>
80100672:	697b      	ldr	r3, [r7, #20]
80100674:	0fda      	lsrs	r2, r3, #31
80100676:	4413      	add	r3, r2
80100678:	105b      	asrs	r3, r3, #1
8010067a:	425b      	negs	r3, r3
8010067c:	461a      	mov	r2, r3
8010067e:	69bb      	ldr	r3, [r7, #24]
80100680:	4413      	add	r3, r2
80100682:	61fb      	str	r3, [r7, #28]
80100684:	e016      	b.n	801006b4 <draw_line+0x168>
80100686:	6abb      	ldr	r3, [r7, #40]	; 0x28
80100688:	461a      	mov	r2, r3
8010068a:	68b9      	ldr	r1, [r7, #8]
8010068c:	68f8      	ldr	r0, [r7, #12]
8010068e:	f000 f903 	bl	80100898 <fb_put_pixel>
80100692:	69fb      	ldr	r3, [r7, #28]
80100694:	2b00      	cmp	r3, #0
80100696:	dd06      	ble.n	801006a6 <draw_line+0x15a>
80100698:	68fb      	ldr	r3, [r7, #12]
8010069a:	3301      	adds	r3, #1
8010069c:	60fb      	str	r3, [r7, #12]
8010069e:	69fa      	ldr	r2, [r7, #28]
801006a0:	697b      	ldr	r3, [r7, #20]
801006a2:	1ad3      	subs	r3, r2, r3
801006a4:	61fb      	str	r3, [r7, #28]
801006a6:	68bb      	ldr	r3, [r7, #8]
801006a8:	3b01      	subs	r3, #1
801006aa:	60bb      	str	r3, [r7, #8]
801006ac:	69fa      	ldr	r2, [r7, #28]
801006ae:	69bb      	ldr	r3, [r7, #24]
801006b0:	4413      	add	r3, r2
801006b2:	61fb      	str	r3, [r7, #28]
801006b4:	68ba      	ldr	r2, [r7, #8]
801006b6:	683b      	ldr	r3, [r7, #0]
801006b8:	429a      	cmp	r2, r3
801006ba:	dae4      	bge.n	80100686 <draw_line+0x13a>
801006bc:	e0a7      	b.n	8010080e <draw_line+0x2c2>
801006be:	69bb      	ldr	r3, [r7, #24]
801006c0:	425b      	negs	r3, r3
801006c2:	61bb      	str	r3, [r7, #24]
801006c4:	697b      	ldr	r3, [r7, #20]
801006c6:	2b00      	cmp	r3, #0
801006c8:	db4f      	blt.n	8010076a <draw_line+0x21e>
801006ca:	69ba      	ldr	r2, [r7, #24]
801006cc:	697b      	ldr	r3, [r7, #20]
801006ce:	429a      	cmp	r2, r3
801006d0:	db25      	blt.n	8010071e <draw_line+0x1d2>
801006d2:	69bb      	ldr	r3, [r7, #24]
801006d4:	0fda      	lsrs	r2, r3, #31
801006d6:	4413      	add	r3, r2
801006d8:	105b      	asrs	r3, r3, #1
801006da:	425b      	negs	r3, r3
801006dc:	461a      	mov	r2, r3
801006de:	697b      	ldr	r3, [r7, #20]
801006e0:	4413      	add	r3, r2
801006e2:	61fb      	str	r3, [r7, #28]
801006e4:	e016      	b.n	80100714 <draw_line+0x1c8>
801006e6:	6abb      	ldr	r3, [r7, #40]	; 0x28
801006e8:	461a      	mov	r2, r3
801006ea:	68b9      	ldr	r1, [r7, #8]
801006ec:	68f8      	ldr	r0, [r7, #12]
801006ee:	f000 f8d3 	bl	80100898 <fb_put_pixel>
801006f2:	69fb      	ldr	r3, [r7, #28]
801006f4:	2b00      	cmp	r3, #0
801006f6:	dd06      	ble.n	80100706 <draw_line+0x1ba>
801006f8:	68bb      	ldr	r3, [r7, #8]
801006fa:	3301      	adds	r3, #1
801006fc:	60bb      	str	r3, [r7, #8]
801006fe:	69fa      	ldr	r2, [r7, #28]
80100700:	69bb      	ldr	r3, [r7, #24]
80100702:	1ad3      	subs	r3, r2, r3
80100704:	61fb      	str	r3, [r7, #28]
80100706:	68fb      	ldr	r3, [r7, #12]
80100708:	3b01      	subs	r3, #1
8010070a:	60fb      	str	r3, [r7, #12]
8010070c:	69fa      	ldr	r2, [r7, #28]
8010070e:	697b      	ldr	r3, [r7, #20]
80100710:	4413      	add	r3, r2
80100712:	61fb      	str	r3, [r7, #28]
80100714:	68fa      	ldr	r2, [r7, #12]
80100716:	687b      	ldr	r3, [r7, #4]
80100718:	429a      	cmp	r2, r3
8010071a:	dae4      	bge.n	801006e6 <draw_line+0x19a>
8010071c:	e077      	b.n	8010080e <draw_line+0x2c2>
8010071e:	697b      	ldr	r3, [r7, #20]
80100720:	0fda      	lsrs	r2, r3, #31
80100722:	4413      	add	r3, r2
80100724:	105b      	asrs	r3, r3, #1
80100726:	425b      	negs	r3, r3
80100728:	461a      	mov	r2, r3
8010072a:	69bb      	ldr	r3, [r7, #24]
8010072c:	4413      	add	r3, r2
8010072e:	61fb      	str	r3, [r7, #28]
80100730:	e016      	b.n	80100760 <draw_line+0x214>
80100732:	6abb      	ldr	r3, [r7, #40]	; 0x28
80100734:	461a      	mov	r2, r3
80100736:	68b9      	ldr	r1, [r7, #8]
80100738:	68f8      	ldr	r0, [r7, #12]
8010073a:	f000 f8ad 	bl	80100898 <fb_put_pixel>
8010073e:	69fb      	ldr	r3, [r7, #28]
80100740:	2b00      	cmp	r3, #0
80100742:	dd06      	ble.n	80100752 <draw_line+0x206>
80100744:	68fb      	ldr	r3, [r7, #12]
80100746:	3b01      	subs	r3, #1
80100748:	60fb      	str	r3, [r7, #12]
8010074a:	69fa      	ldr	r2, [r7, #28]
8010074c:	697b      	ldr	r3, [r7, #20]
8010074e:	1ad3      	subs	r3, r2, r3
80100750:	61fb      	str	r3, [r7, #28]
80100752:	68bb      	ldr	r3, [r7, #8]
80100754:	3301      	adds	r3, #1
80100756:	60bb      	str	r3, [r7, #8]
80100758:	69fa      	ldr	r2, [r7, #28]
8010075a:	69bb      	ldr	r3, [r7, #24]
8010075c:	4413      	add	r3, r2
8010075e:	61fb      	str	r3, [r7, #28]
80100760:	68ba      	ldr	r2, [r7, #8]
80100762:	683b      	ldr	r3, [r7, #0]
80100764:	429a      	cmp	r2, r3
80100766:	dde4      	ble.n	80100732 <draw_line+0x1e6>
80100768:	e051      	b.n	8010080e <draw_line+0x2c2>
8010076a:	697b      	ldr	r3, [r7, #20]
8010076c:	425b      	negs	r3, r3
8010076e:	617b      	str	r3, [r7, #20]
80100770:	69ba      	ldr	r2, [r7, #24]
80100772:	697b      	ldr	r3, [r7, #20]
80100774:	429a      	cmp	r2, r3
80100776:	db25      	blt.n	801007c4 <draw_line+0x278>
80100778:	69bb      	ldr	r3, [r7, #24]
8010077a:	0fda      	lsrs	r2, r3, #31
8010077c:	4413      	add	r3, r2
8010077e:	105b      	asrs	r3, r3, #1
80100780:	425b      	negs	r3, r3
80100782:	461a      	mov	r2, r3
80100784:	697b      	ldr	r3, [r7, #20]
80100786:	4413      	add	r3, r2
80100788:	61fb      	str	r3, [r7, #28]
8010078a:	e016      	b.n	801007ba <draw_line+0x26e>
8010078c:	6abb      	ldr	r3, [r7, #40]	; 0x28
8010078e:	461a      	mov	r2, r3
80100790:	68b9      	ldr	r1, [r7, #8]
80100792:	68f8      	ldr	r0, [r7, #12]
80100794:	f000 f880 	bl	80100898 <fb_put_pixel>
80100798:	69fb      	ldr	r3, [r7, #28]
8010079a:	2b00      	cmp	r3, #0
8010079c:	dd06      	ble.n	801007ac <draw_line+0x260>
8010079e:	68bb      	ldr	r3, [r7, #8]
801007a0:	3b01      	subs	r3, #1
801007a2:	60bb      	str	r3, [r7, #8]
801007a4:	69fa      	ldr	r2, [r7, #28]
801007a6:	69bb      	ldr	r3, [r7, #24]
801007a8:	1ad3      	subs	r3, r2, r3
801007aa:	61fb      	str	r3, [r7, #28]
801007ac:	68fb      	ldr	r3, [r7, #12]
801007ae:	3b01      	subs	r3, #1
801007b0:	60fb      	str	r3, [r7, #12]
801007b2:	69fa      	ldr	r2, [r7, #28]
801007b4:	697b      	ldr	r3, [r7, #20]
801007b6:	4413      	add	r3, r2
801007b8:	61fb      	str	r3, [r7, #28]
801007ba:	68fa      	ldr	r2, [r7, #12]
801007bc:	687b      	ldr	r3, [r7, #4]
801007be:	429a      	cmp	r2, r3
801007c0:	dae4      	bge.n	8010078c <draw_line+0x240>
801007c2:	e024      	b.n	8010080e <draw_line+0x2c2>
801007c4:	697b      	ldr	r3, [r7, #20]
801007c6:	0fda      	lsrs	r2, r3, #31
801007c8:	4413      	add	r3, r2
801007ca:	105b      	asrs	r3, r3, #1
801007cc:	425b      	negs	r3, r3
801007ce:	461a      	mov	r2, r3
801007d0:	69bb      	ldr	r3, [r7, #24]
801007d2:	4413      	add	r3, r2
801007d4:	61fb      	str	r3, [r7, #28]
801007d6:	e016      	b.n	80100806 <draw_line+0x2ba>
801007d8:	6abb      	ldr	r3, [r7, #40]	; 0x28
801007da:	461a      	mov	r2, r3
801007dc:	68b9      	ldr	r1, [r7, #8]
801007de:	68f8      	ldr	r0, [r7, #12]
801007e0:	f000 f85a 	bl	80100898 <fb_put_pixel>
801007e4:	69fb      	ldr	r3, [r7, #28]
801007e6:	2b00      	cmp	r3, #0
801007e8:	dd06      	ble.n	801007f8 <draw_line+0x2ac>
801007ea:	68fb      	ldr	r3, [r7, #12]
801007ec:	3b01      	subs	r3, #1
801007ee:	60fb      	str	r3, [r7, #12]
801007f0:	69fa      	ldr	r2, [r7, #28]
801007f2:	697b      	ldr	r3, [r7, #20]
801007f4:	1ad3      	subs	r3, r2, r3
801007f6:	61fb      	str	r3, [r7, #28]
801007f8:	68bb      	ldr	r3, [r7, #8]
801007fa:	3b01      	subs	r3, #1
801007fc:	60bb      	str	r3, [r7, #8]
801007fe:	69fa      	ldr	r2, [r7, #28]
80100800:	69bb      	ldr	r3, [r7, #24]
80100802:	4413      	add	r3, r2
80100804:	61fb      	str	r3, [r7, #28]
80100806:	68ba      	ldr	r2, [r7, #8]
80100808:	683b      	ldr	r3, [r7, #0]
8010080a:	429a      	cmp	r2, r3
8010080c:	dae4      	bge.n	801007d8 <draw_line+0x28c>
8010080e:	bf00      	nop
80100810:	3720      	adds	r7, #32
80100812:	46bd      	mov	sp, r7
80100814:	bd80      	pop	{r7, pc}

80100816 <fb_get_lcd_params>:
80100816:	b580      	push	{r7, lr}
80100818:	af00      	add	r7, sp, #0
8010081a:	f242 03cc 	movw	r3, #8396	; 0x20cc
8010081e:	f2c8 0310 	movt	r3, #32784	; 0x8010
80100822:	f242 02c8 	movw	r2, #8392	; 0x20c8
80100826:	f2c8 0210 	movt	r2, #32784	; 0x8010
8010082a:	f242 01c4 	movw	r1, #8388	; 0x20c4
8010082e:	f2c8 0110 	movt	r1, #32784	; 0x8010
80100832:	f242 00c0 	movw	r0, #8384	; 0x20c0
80100836:	f2c8 0010 	movt	r0, #32784	; 0x8010
8010083a:	f000 f9b2 	bl	80100ba2 <get_lcd_params>
8010083e:	bf00      	nop
80100840:	bd80      	pop	{r7, pc}

80100842 <convert32bppto16bpp>:
80100842:	b480      	push	{r7}
80100844:	b087      	sub	sp, #28
80100846:	af00      	add	r7, sp, #0
80100848:	6078      	str	r0, [r7, #4]
8010084a:	687b      	ldr	r3, [r7, #4]
8010084c:	0c1b      	lsrs	r3, r3, #16
8010084e:	b2db      	uxtb	r3, r3
80100850:	617b      	str	r3, [r7, #20]
80100852:	687b      	ldr	r3, [r7, #4]
80100854:	0a1b      	lsrs	r3, r3, #8
80100856:	b2db      	uxtb	r3, r3
80100858:	613b      	str	r3, [r7, #16]
8010085a:	687b      	ldr	r3, [r7, #4]
8010085c:	b2db      	uxtb	r3, r3
8010085e:	60fb      	str	r3, [r7, #12]
80100860:	697b      	ldr	r3, [r7, #20]
80100862:	10db      	asrs	r3, r3, #3
80100864:	617b      	str	r3, [r7, #20]
80100866:	693b      	ldr	r3, [r7, #16]
80100868:	10db      	asrs	r3, r3, #3
8010086a:	613b      	str	r3, [r7, #16]
8010086c:	68fb      	ldr	r3, [r7, #12]
8010086e:	10db      	asrs	r3, r3, #3
80100870:	60fb      	str	r3, [r7, #12]
80100872:	697b      	ldr	r3, [r7, #20]
80100874:	029b      	lsls	r3, r3, #10
80100876:	b21a      	sxth	r2, r3
80100878:	693b      	ldr	r3, [r7, #16]
8010087a:	015b      	lsls	r3, r3, #5
8010087c:	b21b      	sxth	r3, r3
8010087e:	4313      	orrs	r3, r2
80100880:	b21a      	sxth	r2, r3
80100882:	68fb      	ldr	r3, [r7, #12]
80100884:	b21b      	sxth	r3, r3
80100886:	4313      	orrs	r3, r2
80100888:	b21b      	sxth	r3, r3
8010088a:	b29b      	uxth	r3, r3
8010088c:	4618      	mov	r0, r3
8010088e:	371c      	adds	r7, #28
80100890:	46bd      	mov	sp, r7
80100892:	f85d 7b04 	ldr.w	r7, [sp], #4
80100896:	4770      	bx	lr

80100898 <fb_put_pixel>:
80100898:	b580      	push	{r7, lr}
8010089a:	b088      	sub	sp, #32
8010089c:	af00      	add	r7, sp, #0
8010089e:	60f8      	str	r0, [r7, #12]
801008a0:	60b9      	str	r1, [r7, #8]
801008a2:	607a      	str	r2, [r7, #4]
801008a4:	f242 03c4 	movw	r3, #8388	; 0x20c4
801008a8:	f2c8 0310 	movt	r3, #32784	; 0x8010
801008ac:	681a      	ldr	r2, [r3, #0]
801008ae:	f242 03cc 	movw	r3, #8396	; 0x20cc
801008b2:	f2c8 0310 	movt	r3, #32784	; 0x8010
801008b6:	681b      	ldr	r3, [r3, #0]
801008b8:	fb03 f302 	mul.w	r3, r3, r2
801008bc:	1dda      	adds	r2, r3, #7
801008be:	2b00      	cmp	r3, #0
801008c0:	bfb4      	ite	lt
801008c2:	4613      	movlt	r3, r2
801008c4:	461b      	movge	r3, r3
801008c6:	10db      	asrs	r3, r3, #3
801008c8:	461a      	mov	r2, r3
801008ca:	68bb      	ldr	r3, [r7, #8]
801008cc:	fb03 f302 	mul.w	r3, r3, r2
801008d0:	461a      	mov	r2, r3
801008d2:	f242 03c0 	movw	r3, #8384	; 0x20c0
801008d6:	f2c8 0310 	movt	r3, #32784	; 0x8010
801008da:	681b      	ldr	r3, [r3, #0]
801008dc:	441a      	add	r2, r3
801008de:	f242 03cc 	movw	r3, #8396	; 0x20cc
801008e2:	f2c8 0310 	movt	r3, #32784	; 0x8010
801008e6:	681b      	ldr	r3, [r3, #0]
801008e8:	68f9      	ldr	r1, [r7, #12]
801008ea:	fb01 f303 	mul.w	r3, r1, r3
801008ee:	1dd9      	adds	r1, r3, #7
801008f0:	2b00      	cmp	r3, #0
801008f2:	bfb4      	ite	lt
801008f4:	460b      	movlt	r3, r1
801008f6:	461b      	movge	r3, r3
801008f8:	10db      	asrs	r3, r3, #3
801008fa:	4413      	add	r3, r2
801008fc:	61fb      	str	r3, [r7, #28]
801008fe:	f242 03cc 	movw	r3, #8396	; 0x20cc
80100902:	f2c8 0310 	movt	r3, #32784	; 0x8010
80100906:	681b      	ldr	r3, [r3, #0]
80100908:	2b10      	cmp	r3, #16
8010090a:	d002      	beq.n	80100912 <fb_put_pixel+0x7a>
8010090c:	2b20      	cmp	r3, #32
8010090e:	d00a      	beq.n	80100926 <fb_put_pixel+0x8e>
80100910:	e00f      	b.n	80100932 <fb_put_pixel+0x9a>
80100912:	69fb      	ldr	r3, [r7, #28]
80100914:	61bb      	str	r3, [r7, #24]
80100916:	6878      	ldr	r0, [r7, #4]
80100918:	f7ff ff93 	bl	80100842 <convert32bppto16bpp>
8010091c:	4603      	mov	r3, r0
8010091e:	461a      	mov	r2, r3
80100920:	69bb      	ldr	r3, [r7, #24]
80100922:	801a      	strh	r2, [r3, #0]
80100924:	e005      	b.n	80100932 <fb_put_pixel+0x9a>
80100926:	69fb      	ldr	r3, [r7, #28]
80100928:	617b      	str	r3, [r7, #20]
8010092a:	697b      	ldr	r3, [r7, #20]
8010092c:	687a      	ldr	r2, [r7, #4]
8010092e:	601a      	str	r2, [r3, #0]
80100930:	bf00      	nop
80100932:	bf00      	nop
80100934:	3720      	adds	r7, #32
80100936:	46bd      	mov	sp, r7
80100938:	bd80      	pop	{r7, pc}

8010093a <strcmp>:
8010093a:	b490      	push	{r4, r7}
8010093c:	b082      	sub	sp, #8
8010093e:	af00      	add	r7, sp, #0
80100940:	6078      	str	r0, [r7, #4]
80100942:	6039      	str	r1, [r7, #0]
80100944:	687b      	ldr	r3, [r7, #4]
80100946:	781a      	ldrb	r2, [r3, #0]
80100948:	683b      	ldr	r3, [r7, #0]
8010094a:	1c59      	adds	r1, r3, #1
8010094c:	6039      	str	r1, [r7, #0]
8010094e:	781b      	ldrb	r3, [r3, #0]
80100950:	1ad3      	subs	r3, r2, r3
80100952:	b2db      	uxtb	r3, r3
80100954:	b25c      	sxtb	r4, r3
80100956:	2c00      	cmp	r4, #0
80100958:	d106      	bne.n	80100968 <strcmp+0x2e>
8010095a:	687b      	ldr	r3, [r7, #4]
8010095c:	1c5a      	adds	r2, r3, #1
8010095e:	607a      	str	r2, [r7, #4]
80100960:	781b      	ldrb	r3, [r3, #0]
80100962:	2b00      	cmp	r3, #0
80100964:	d000      	beq.n	80100968 <strcmp+0x2e>
80100966:	e7ed      	b.n	80100944 <strcmp+0xa>
80100968:	4623      	mov	r3, r4
8010096a:	4618      	mov	r0, r3
8010096c:	3708      	adds	r7, #8
8010096e:	46bd      	mov	sp, r7
80100970:	bc90      	pop	{r4, r7}
80100972:	4770      	bx	lr

80100974 <register_lcd_controller>:
80100974:	b480      	push	{r7}
80100976:	b085      	sub	sp, #20
80100978:	af00      	add	r7, sp, #0
8010097a:	6078      	str	r0, [r7, #4]
8010097c:	2300      	movs	r3, #0
8010097e:	60fb      	str	r3, [r7, #12]
80100980:	e015      	b.n	801009ae <register_lcd_controller+0x3a>
80100982:	f242 03d0 	movw	r3, #8400	; 0x20d0
80100986:	f2c8 0310 	movt	r3, #32784	; 0x8010
8010098a:	68fa      	ldr	r2, [r7, #12]
8010098c:	f853 3022 	ldr.w	r3, [r3, r2, lsl #2]
80100990:	2b00      	cmp	r3, #0
80100992:	d109      	bne.n	801009a8 <register_lcd_controller+0x34>
80100994:	f242 03d0 	movw	r3, #8400	; 0x20d0
80100998:	f2c8 0310 	movt	r3, #32784	; 0x8010
8010099c:	68fa      	ldr	r2, [r7, #12]
8010099e:	6879      	ldr	r1, [r7, #4]
801009a0:	f843 1022 	str.w	r1, [r3, r2, lsl #2]
801009a4:	68fb      	ldr	r3, [r7, #12]
801009a6:	e007      	b.n	801009b8 <register_lcd_controller+0x44>
801009a8:	68fb      	ldr	r3, [r7, #12]
801009aa:	3301      	adds	r3, #1
801009ac:	60fb      	str	r3, [r7, #12]
801009ae:	68fb      	ldr	r3, [r7, #12]
801009b0:	2b09      	cmp	r3, #9
801009b2:	dde6      	ble.n	80100982 <register_lcd_controller+0xe>
801009b4:	f04f 33ff 	mov.w	r3, #4294967295	; 0xffffffff
801009b8:	4618      	mov	r0, r3
801009ba:	3714      	adds	r7, #20
801009bc:	46bd      	mov	sp, r7
801009be:	f85d 7b04 	ldr.w	r7, [sp], #4
801009c2:	4770      	bx	lr

801009c4 <select_lcd_controller>:
801009c4:	b580      	push	{r7, lr}
801009c6:	b084      	sub	sp, #16
801009c8:	af00      	add	r7, sp, #0
801009ca:	6078      	str	r0, [r7, #4]
801009cc:	2300      	movs	r3, #0
801009ce:	60fb      	str	r3, [r7, #12]
801009d0:	e028      	b.n	80100a24 <select_lcd_controller+0x60>
801009d2:	f242 03d0 	movw	r3, #8400	; 0x20d0
801009d6:	f2c8 0310 	movt	r3, #32784	; 0x8010
801009da:	68fa      	ldr	r2, [r7, #12]
801009dc:	f853 3022 	ldr.w	r3, [r3, r2, lsl #2]
801009e0:	2b00      	cmp	r3, #0
801009e2:	d01c      	beq.n	80100a1e <select_lcd_controller+0x5a>
801009e4:	f242 03d0 	movw	r3, #8400	; 0x20d0
801009e8:	f2c8 0310 	movt	r3, #32784	; 0x8010
801009ec:	68fa      	ldr	r2, [r7, #12]
801009ee:	f853 3022 	ldr.w	r3, [r3, r2, lsl #2]
801009f2:	681b      	ldr	r3, [r3, #0]
801009f4:	6879      	ldr	r1, [r7, #4]
801009f6:	4618      	mov	r0, r3
801009f8:	f7ff ff9f 	bl	8010093a <strcmp>
801009fc:	4603      	mov	r3, r0
801009fe:	2b00      	cmp	r3, #0
80100a00:	d10d      	bne.n	80100a1e <select_lcd_controller+0x5a>
80100a02:	f242 03d0 	movw	r3, #8400	; 0x20d0
80100a06:	f2c8 0310 	movt	r3, #32784	; 0x8010
80100a0a:	68fa      	ldr	r2, [r7, #12]
80100a0c:	f853 2022 	ldr.w	r2, [r3, r2, lsl #2]
80100a10:	f242 03f8 	movw	r3, #8440	; 0x20f8
80100a14:	f2c8 0310 	movt	r3, #32784	; 0x8010
80100a18:	601a      	str	r2, [r3, #0]
80100a1a:	68fb      	ldr	r3, [r7, #12]
80100a1c:	e007      	b.n	80100a2e <select_lcd_controller+0x6a>
80100a1e:	68fb      	ldr	r3, [r7, #12]
80100a20:	3301      	adds	r3, #1
80100a22:	60fb      	str	r3, [r7, #12]
80100a24:	68fb      	ldr	r3, [r7, #12]
80100a26:	2b09      	cmp	r3, #9
80100a28:	ddd3      	ble.n	801009d2 <select_lcd_controller+0xe>
80100a2a:	f04f 33ff 	mov.w	r3, #4294967295	; 0xffffffff
80100a2e:	4618      	mov	r0, r3
80100a30:	3710      	adds	r7, #16
80100a32:	46bd      	mov	sp, r7
80100a34:	bd80      	pop	{r7, pc}

80100a36 <lcd_controller_init>:
80100a36:	b580      	push	{r7, lr}
80100a38:	b082      	sub	sp, #8
80100a3a:	af00      	add	r7, sp, #0
80100a3c:	6078      	str	r0, [r7, #4]
80100a3e:	f242 03f8 	movw	r3, #8440	; 0x20f8
80100a42:	f2c8 0310 	movt	r3, #32784	; 0x8010
80100a46:	681b      	ldr	r3, [r3, #0]
80100a48:	2b00      	cmp	r3, #0
80100a4a:	d009      	beq.n	80100a60 <lcd_controller_init+0x2a>
80100a4c:	f242 03f8 	movw	r3, #8440	; 0x20f8
80100a50:	f2c8 0310 	movt	r3, #32784	; 0x8010
80100a54:	681b      	ldr	r3, [r3, #0]
80100a56:	685b      	ldr	r3, [r3, #4]
80100a58:	6878      	ldr	r0, [r7, #4]
80100a5a:	4798      	blx	r3
80100a5c:	2300      	movs	r3, #0
80100a5e:	e001      	b.n	80100a64 <lcd_controller_init+0x2e>
80100a60:	f04f 33ff 	mov.w	r3, #4294967295	; 0xffffffff
80100a64:	4618      	mov	r0, r3
80100a66:	3708      	adds	r7, #8
80100a68:	46bd      	mov	sp, r7
80100a6a:	bd80      	pop	{r7, pc}

80100a6c <lcd_controller_enable>:
80100a6c:	b580      	push	{r7, lr}
80100a6e:	af00      	add	r7, sp, #0
80100a70:	f242 03f8 	movw	r3, #8440	; 0x20f8
80100a74:	f2c8 0310 	movt	r3, #32784	; 0x8010
80100a78:	681b      	ldr	r3, [r3, #0]
80100a7a:	2b00      	cmp	r3, #0
80100a7c:	d006      	beq.n	80100a8c <lcd_controller_enable+0x20>
80100a7e:	f242 03f8 	movw	r3, #8440	; 0x20f8
80100a82:	f2c8 0310 	movt	r3, #32784	; 0x8010
80100a86:	681b      	ldr	r3, [r3, #0]
80100a88:	689b      	ldr	r3, [r3, #8]
80100a8a:	4798      	blx	r3
80100a8c:	bf00      	nop
80100a8e:	bd80      	pop	{r7, pc}

80100a90 <lcd_controller_disable>:
80100a90:	b580      	push	{r7, lr}
80100a92:	af00      	add	r7, sp, #0
80100a94:	f242 03f8 	movw	r3, #8440	; 0x20f8
80100a98:	f2c8 0310 	movt	r3, #32784	; 0x8010
80100a9c:	681b      	ldr	r3, [r3, #0]
80100a9e:	2b00      	cmp	r3, #0
80100aa0:	d006      	beq.n	80100ab0 <lcd_controller_disable+0x20>
80100aa2:	f242 03f8 	movw	r3, #8440	; 0x20f8
80100aa6:	f2c8 0310 	movt	r3, #32784	; 0x8010
80100aaa:	681b      	ldr	r3, [r3, #0]
80100aac:	68db      	ldr	r3, [r3, #12]
80100aae:	4798      	blx	r3
80100ab0:	bf00      	nop
80100ab2:	bd80      	pop	{r7, pc}

80100ab4 <lcd_contoller_add>:
80100ab4:	b580      	push	{r7, lr}
80100ab6:	af00      	add	r7, sp, #0
80100ab8:	f000 fa9f 	bl	80100ffa <Imx6ull_lcd_controller_add>
80100abc:	bf00      	nop
80100abe:	bd80      	pop	{r7, pc}

80100ac0 <delay>:
80100ac0:	b480      	push	{r7}
80100ac2:	b083      	sub	sp, #12
80100ac4:	af00      	add	r7, sp, #0
80100ac6:	6078      	str	r0, [r7, #4]
80100ac8:	bf00      	nop
80100aca:	687b      	ldr	r3, [r7, #4]
80100acc:	1e5a      	subs	r2, r3, #1
80100ace:	607a      	str	r2, [r7, #4]
80100ad0:	2b00      	cmp	r3, #0
80100ad2:	d1fa      	bne.n	80100aca <delay+0xa>
80100ad4:	bf00      	nop
80100ad6:	370c      	adds	r7, #12
80100ad8:	46bd      	mov	sp, r7
80100ada:	f85d 7b04 	ldr.w	r7, [sp], #4
80100ade:	4770      	bx	lr

80100ae0 <register_lcd>:
80100ae0:	b480      	push	{r7}
80100ae2:	b085      	sub	sp, #20
80100ae4:	af00      	add	r7, sp, #0
80100ae6:	6078      	str	r0, [r7, #4]
80100ae8:	2300      	movs	r3, #0
80100aea:	60fb      	str	r3, [r7, #12]
80100aec:	e015      	b.n	80100b1a <register_lcd+0x3a>
80100aee:	f242 03fc 	movw	r3, #8444	; 0x20fc
80100af2:	f2c8 0310 	movt	r3, #32784	; 0x8010
80100af6:	68fa      	ldr	r2, [r7, #12]
80100af8:	f853 3022 	ldr.w	r3, [r3, r2, lsl #2]
80100afc:	2b00      	cmp	r3, #0
80100afe:	d109      	bne.n	80100b14 <register_lcd+0x34>
80100b00:	f242 03fc 	movw	r3, #8444	; 0x20fc
80100b04:	f2c8 0310 	movt	r3, #32784	; 0x8010
80100b08:	68fa      	ldr	r2, [r7, #12]
80100b0a:	6879      	ldr	r1, [r7, #4]
80100b0c:	f843 1022 	str.w	r1, [r3, r2, lsl #2]
80100b10:	68fb      	ldr	r3, [r7, #12]
80100b12:	e007      	b.n	80100b24 <register_lcd+0x44>
80100b14:	68fb      	ldr	r3, [r7, #12]
80100b16:	3301      	adds	r3, #1
80100b18:	60fb      	str	r3, [r7, #12]
80100b1a:	68fb      	ldr	r3, [r7, #12]
80100b1c:	2b04      	cmp	r3, #4
80100b1e:	dde6      	ble.n	80100aee <register_lcd+0xe>
80100b20:	f04f 33ff 	mov.w	r3, #4294967295	; 0xffffffff
80100b24:	4618      	mov	r0, r3
80100b26:	3714      	adds	r7, #20
80100b28:	46bd      	mov	sp, r7
80100b2a:	f85d 7b04 	ldr.w	r7, [sp], #4
80100b2e:	4770      	bx	lr

80100b30 <select_lcd>:
80100b30:	b580      	push	{r7, lr}
80100b32:	b084      	sub	sp, #16
80100b34:	af00      	add	r7, sp, #0
80100b36:	6078      	str	r0, [r7, #4]
80100b38:	2300      	movs	r3, #0
80100b3a:	60fb      	str	r3, [r7, #12]
80100b3c:	e028      	b.n	80100b90 <select_lcd+0x60>
80100b3e:	f242 03fc 	movw	r3, #8444	; 0x20fc
80100b42:	f2c8 0310 	movt	r3, #32784	; 0x8010
80100b46:	68fa      	ldr	r2, [r7, #12]
80100b48:	f853 3022 	ldr.w	r3, [r3, r2, lsl #2]
80100b4c:	2b00      	cmp	r3, #0
80100b4e:	d01c      	beq.n	80100b8a <select_lcd+0x5a>
80100b50:	f242 03fc 	movw	r3, #8444	; 0x20fc
80100b54:	f2c8 0310 	movt	r3, #32784	; 0x8010
80100b58:	68fa      	ldr	r2, [r7, #12]
80100b5a:	f853 3022 	ldr.w	r3, [r3, r2, lsl #2]
80100b5e:	681b      	ldr	r3, [r3, #0]
80100b60:	6879      	ldr	r1, [r7, #4]
80100b62:	4618      	mov	r0, r3
80100b64:	f7ff fee9 	bl	8010093a <strcmp>
80100b68:	4603      	mov	r3, r0
80100b6a:	2b00      	cmp	r3, #0
80100b6c:	d10d      	bne.n	80100b8a <select_lcd+0x5a>
80100b6e:	f242 03fc 	movw	r3, #8444	; 0x20fc
80100b72:	f2c8 0310 	movt	r3, #32784	; 0x8010
80100b76:	68fa      	ldr	r2, [r7, #12]
80100b78:	f853 2022 	ldr.w	r2, [r3, r2, lsl #2]
80100b7c:	f242 1310 	movw	r3, #8464	; 0x2110
80100b80:	f2c8 0310 	movt	r3, #32784	; 0x8010
80100b84:	601a      	str	r2, [r3, #0]
80100b86:	68fb      	ldr	r3, [r7, #12]
80100b88:	e007      	b.n	80100b9a <select_lcd+0x6a>
80100b8a:	68fb      	ldr	r3, [r7, #12]
80100b8c:	3301      	adds	r3, #1
80100b8e:	60fb      	str	r3, [r7, #12]
80100b90:	68fb      	ldr	r3, [r7, #12]
80100b92:	2b04      	cmp	r3, #4
80100b94:	ddd3      	ble.n	80100b3e <select_lcd+0xe>
80100b96:	f04f 33ff 	mov.w	r3, #4294967295	; 0xffffffff
80100b9a:	4618      	mov	r0, r3
80100b9c:	3710      	adds	r7, #16
80100b9e:	46bd      	mov	sp, r7
80100ba0:	bd80      	pop	{r7, pc}

80100ba2 <get_lcd_params>:
80100ba2:	b480      	push	{r7}
80100ba4:	b085      	sub	sp, #20
80100ba6:	af00      	add	r7, sp, #0
80100ba8:	60f8      	str	r0, [r7, #12]
80100baa:	60b9      	str	r1, [r7, #8]
80100bac:	607a      	str	r2, [r7, #4]
80100bae:	603b      	str	r3, [r7, #0]
80100bb0:	f242 1310 	movw	r3, #8464	; 0x2110
80100bb4:	f2c8 0310 	movt	r3, #32784	; 0x8010
80100bb8:	681b      	ldr	r3, [r3, #0]
80100bba:	6bda      	ldr	r2, [r3, #60]	; 0x3c
80100bbc:	68fb      	ldr	r3, [r7, #12]
80100bbe:	601a      	str	r2, [r3, #0]
80100bc0:	f242 1310 	movw	r3, #8464	; 0x2110
80100bc4:	f2c8 0310 	movt	r3, #32784	; 0x8010
80100bc8:	681b      	ldr	r3, [r3, #0]
80100bca:	6b1a      	ldr	r2, [r3, #48]	; 0x30
80100bcc:	68bb      	ldr	r3, [r7, #8]
80100bce:	601a      	str	r2, [r3, #0]
80100bd0:	f242 1310 	movw	r3, #8464	; 0x2110
80100bd4:	f2c8 0310 	movt	r3, #32784	; 0x8010
80100bd8:	681b      	ldr	r3, [r3, #0]
80100bda:	6b5a      	ldr	r2, [r3, #52]	; 0x34
80100bdc:	687b      	ldr	r3, [r7, #4]
80100bde:	601a      	str	r2, [r3, #0]
80100be0:	f242 1310 	movw	r3, #8464	; 0x2110
80100be4:	f2c8 0310 	movt	r3, #32784	; 0x8010
80100be8:	681b      	ldr	r3, [r3, #0]
80100bea:	6b9a      	ldr	r2, [r3, #56]	; 0x38
80100bec:	683b      	ldr	r3, [r7, #0]
80100bee:	601a      	str	r2, [r3, #0]
80100bf0:	bf00      	nop
80100bf2:	3714      	adds	r7, #20
80100bf4:	46bd      	mov	sp, r7
80100bf6:	f85d 7b04 	ldr.w	r7, [sp], #4
80100bfa:	4770      	bx	lr

80100bfc <lcd_enable>:
80100bfc:	b580      	push	{r7, lr}
80100bfe:	af00      	add	r7, sp, #0
80100c00:	f7ff ff34 	bl	80100a6c <lcd_controller_enable>
80100c04:	bf00      	nop
80100c06:	bd80      	pop	{r7, pc}

80100c08 <lcd_disable>:
80100c08:	b580      	push	{r7, lr}
80100c0a:	af00      	add	r7, sp, #0
80100c0c:	f7ff ff40 	bl	80100a90 <lcd_controller_disable>
80100c10:	bf00      	nop
80100c12:	bd80      	pop	{r7, pc}

80100c14 <lcd_init>:
80100c14:	b580      	push	{r7, lr}
80100c16:	af00      	add	r7, sp, #0
80100c18:	f000 f818 	bl	80100c4c <lcd_7_0_add>
80100c1c:	f7ff ff4a 	bl	80100ab4 <lcd_contoller_add>
80100c20:	f242 0034 	movw	r0, #8244	; 0x2034
80100c24:	f2c8 0010 	movt	r0, #32784	; 0x8010
80100c28:	f7ff fecc 	bl	801009c4 <select_lcd_controller>
80100c2c:	f242 003c 	movw	r0, #8252	; 0x203c
80100c30:	f2c8 0010 	movt	r0, #32784	; 0x8010
80100c34:	f7ff ff7c 	bl	80100b30 <select_lcd>
80100c38:	f242 1310 	movw	r3, #8464	; 0x2110
80100c3c:	f2c8 0310 	movt	r3, #32784	; 0x8010
80100c40:	681b      	ldr	r3, [r3, #0]
80100c42:	4618      	mov	r0, r3
80100c44:	f7ff fef7 	bl	80100a36 <lcd_controller_init>
80100c48:	bf00      	nop
80100c4a:	bd80      	pop	{r7, pc}

80100c4c <lcd_7_0_add>:
80100c4c:	b580      	push	{r7, lr}
80100c4e:	af00      	add	r7, sp, #0
80100c50:	f242 0054 	movw	r0, #8276	; 0x2054
80100c54:	f2c8 0010 	movt	r0, #32784	; 0x8010
80100c58:	f7ff ff42 	bl	80100ae0 <register_lcd>
80100c5c:	bf00      	nop
80100c5e:	bd80      	pop	{r7, pc}

80100c60 <Imx6ull_lcd_io_init>:
80100c60:	b480      	push	{r7}
80100c62:	b083      	sub	sp, #12
80100c64:	af00      	add	r7, sp, #0
80100c66:	2300      	movs	r3, #0
80100c68:	603b      	str	r3, [r7, #0]
80100c6a:	f44f 7382 	mov.w	r3, #260	; 0x104
80100c6e:	f2c0 230e 	movt	r3, #526	; 0x20e
80100c72:	607b      	str	r3, [r7, #4]
80100c74:	2300      	movs	r3, #0
80100c76:	603b      	str	r3, [r7, #0]
80100c78:	e008      	b.n	80100c8c <Imx6ull_lcd_io_init+0x2c>
80100c7a:	687b      	ldr	r3, [r7, #4]
80100c7c:	2200      	movs	r2, #0
80100c7e:	601a      	str	r2, [r3, #0]
80100c80:	687b      	ldr	r3, [r7, #4]
80100c82:	3304      	adds	r3, #4
80100c84:	607b      	str	r3, [r7, #4]
80100c86:	683b      	ldr	r3, [r7, #0]
80100c88:	3301      	adds	r3, #1
80100c8a:	603b      	str	r3, [r7, #0]
80100c8c:	683b      	ldr	r3, [r7, #0]
80100c8e:	2b1c      	cmp	r3, #28
80100c90:	d9f3      	bls.n	80100c7a <Imx6ull_lcd_io_init+0x1a>
80100c92:	f44f 7364 	mov.w	r3, #912	; 0x390
80100c96:	f2c0 230e 	movt	r3, #526	; 0x20e
80100c9a:	607b      	str	r3, [r7, #4]
80100c9c:	2300      	movs	r3, #0
80100c9e:	603b      	str	r3, [r7, #0]
80100ca0:	e00e      	b.n	80100cc0 <Imx6ull_lcd_io_init+0x60>
80100ca2:	687b      	ldr	r3, [r7, #4]
80100ca4:	2200      	movs	r2, #0
80100ca6:	601a      	str	r2, [r3, #0]
80100ca8:	687b      	ldr	r3, [r7, #4]
80100caa:	681b      	ldr	r3, [r3, #0]
80100cac:	f043 02b9 	orr.w	r2, r3, #185	; 0xb9
80100cb0:	687b      	ldr	r3, [r7, #4]
80100cb2:	601a      	str	r2, [r3, #0]
80100cb4:	687b      	ldr	r3, [r7, #4]
80100cb6:	3304      	adds	r3, #4
80100cb8:	607b      	str	r3, [r7, #4]
80100cba:	683b      	ldr	r3, [r7, #0]
80100cbc:	3301      	adds	r3, #1
80100cbe:	603b      	str	r3, [r7, #0]
80100cc0:	683b      	ldr	r3, [r7, #0]
80100cc2:	2b1c      	cmp	r3, #28
80100cc4:	d9ed      	bls.n	80100ca2 <Imx6ull_lcd_io_init+0x42>
80100cc6:	f242 0394 	movw	r3, #8340	; 0x2094
80100cca:	f2c8 0310 	movt	r3, #32784	; 0x8010
80100cce:	681b      	ldr	r3, [r3, #0]
80100cd0:	22b9      	movs	r2, #185	; 0xb9
80100cd2:	601a      	str	r2, [r3, #0]
80100cd4:	f242 0398 	movw	r3, #8344	; 0x2098
80100cd8:	f2c8 0310 	movt	r3, #32784	; 0x8010
80100cdc:	681a      	ldr	r2, [r3, #0]
80100cde:	f242 0398 	movw	r3, #8344	; 0x2098
80100ce2:	f2c8 0310 	movt	r3, #32784	; 0x8010
80100ce6:	681b      	ldr	r3, [r3, #0]
80100ce8:	681b      	ldr	r3, [r3, #0]
80100cea:	f443 7380 	orr.w	r3, r3, #256	; 0x100
80100cee:	6013      	str	r3, [r2, #0]
80100cf0:	f242 039c 	movw	r3, #8348	; 0x209c
80100cf4:	f2c8 0310 	movt	r3, #32784	; 0x8010
80100cf8:	681a      	ldr	r2, [r3, #0]
80100cfa:	f242 039c 	movw	r3, #8348	; 0x209c
80100cfe:	f2c8 0310 	movt	r3, #32784	; 0x8010
80100d02:	681b      	ldr	r3, [r3, #0]
80100d04:	681b      	ldr	r3, [r3, #0]
80100d06:	f443 7380 	orr.w	r3, r3, #256	; 0x100
80100d0a:	6013      	str	r3, [r2, #0]
80100d0c:	bf00      	nop
80100d0e:	370c      	adds	r7, #12
80100d10:	46bd      	mov	sp, r7
80100d12:	f85d 7b04 	ldr.w	r7, [sp], #4
80100d16:	4770      	bx	lr

80100d18 <Imx6ull_lcd_controller_init>:
80100d18:	b580      	push	{r7, lr}
80100d1a:	b084      	sub	sp, #16
80100d1c:	af00      	add	r7, sp, #0
80100d1e:	6078      	str	r0, [r7, #4]
80100d20:	f7ff ff9e 	bl	80100c60 <Imx6ull_lcd_io_init>
80100d24:	f44f 4300 	mov.w	r3, #32768	; 0x8000
80100d28:	f2c0 230c 	movt	r3, #524	; 0x20c
80100d2c:	2200      	movs	r2, #0
80100d2e:	f8c3 20b0 	str.w	r2, [r3, #176]	; 0xb0
80100d32:	f44f 4300 	mov.w	r3, #32768	; 0x8000
80100d36:	f2c0 230c 	movt	r3, #524	; 0x20c
80100d3a:	2200      	movs	r2, #0
80100d3c:	f8c3 20c0 	str.w	r2, [r3, #192]	; 0xc0
80100d40:	f44f 4300 	mov.w	r3, #32768	; 0x8000
80100d44:	f2c0 230c 	movt	r3, #524	; 0x20c
80100d48:	f242 0220 	movw	r2, #8224	; 0x2020
80100d4c:	f2c0 0210 	movt	r2, #16
80100d50:	f8c3 20a0 	str.w	r2, [r3, #160]	; 0xa0
80100d54:	f44f 4380 	mov.w	r3, #16384	; 0x4000
80100d58:	f2c0 230c 	movt	r3, #524	; 0x20c
80100d5c:	f44f 4280 	mov.w	r2, #16384	; 0x4000
80100d60:	f2c0 220c 	movt	r2, #524	; 0x20c
80100d64:	6b92      	ldr	r2, [r2, #56]	; 0x38
80100d66:	f422 3260 	bic.w	r2, r2, #229376	; 0x38000
80100d6a:	639a      	str	r2, [r3, #56]	; 0x38
80100d6c:	f44f 4380 	mov.w	r3, #16384	; 0x4000
80100d70:	f2c0 230c 	movt	r3, #524	; 0x20c
80100d74:	f44f 4280 	mov.w	r2, #16384	; 0x4000
80100d78:	f2c0 220c 	movt	r2, #524	; 0x20c
80100d7c:	6b92      	ldr	r2, [r2, #56]	; 0x38
80100d7e:	f442 3280 	orr.w	r2, r2, #65536	; 0x10000
80100d82:	639a      	str	r2, [r3, #56]	; 0x38
80100d84:	f44f 4380 	mov.w	r3, #16384	; 0x4000
80100d88:	f2c0 230c 	movt	r3, #524	; 0x20c
80100d8c:	f44f 4280 	mov.w	r2, #16384	; 0x4000
80100d90:	f2c0 220c 	movt	r2, #524	; 0x20c
80100d94:	6b92      	ldr	r2, [r2, #56]	; 0x38
80100d96:	f422 42e0 	bic.w	r2, r2, #28672	; 0x7000
80100d9a:	639a      	str	r2, [r3, #56]	; 0x38
80100d9c:	f44f 4380 	mov.w	r3, #16384	; 0x4000
80100da0:	f2c0 230c 	movt	r3, #524	; 0x20c
80100da4:	f44f 4280 	mov.w	r2, #16384	; 0x4000
80100da8:	f2c0 220c 	movt	r2, #524	; 0x20c
80100dac:	6b92      	ldr	r2, [r2, #56]	; 0x38
80100dae:	f442 5200 	orr.w	r2, r2, #8192	; 0x2000
80100db2:	639a      	str	r2, [r3, #56]	; 0x38
80100db4:	f44f 4380 	mov.w	r3, #16384	; 0x4000
80100db8:	f2c0 230c 	movt	r3, #524	; 0x20c
80100dbc:	f44f 4280 	mov.w	r2, #16384	; 0x4000
80100dc0:	f2c0 220c 	movt	r2, #524	; 0x20c
80100dc4:	6b92      	ldr	r2, [r2, #56]	; 0x38
80100dc6:	f422 6260 	bic.w	r2, r2, #3584	; 0xe00
80100dca:	639a      	str	r2, [r3, #56]	; 0x38
80100dcc:	f44f 4380 	mov.w	r3, #16384	; 0x4000
80100dd0:	f2c0 230c 	movt	r3, #524	; 0x20c
80100dd4:	f44f 4280 	mov.w	r2, #16384	; 0x4000
80100dd8:	f2c0 220c 	movt	r2, #524	; 0x20c
80100ddc:	6992      	ldr	r2, [r2, #24]
80100dde:	f022 7260 	bic.w	r2, r2, #58720256	; 0x3800000
80100de2:	619a      	str	r2, [r3, #24]
80100de4:	f44f 4380 	mov.w	r3, #16384	; 0x4000
80100de8:	f2c0 230c 	movt	r3, #524	; 0x20c
80100dec:	f44f 4280 	mov.w	r2, #16384	; 0x4000
80100df0:	f2c0 220c 	movt	r2, #524	; 0x20c
80100df4:	6992      	ldr	r2, [r2, #24]
80100df6:	f042 7200 	orr.w	r2, r2, #33554432	; 0x2000000
80100dfa:	619a      	str	r2, [r3, #24]
80100dfc:	f44f 4300 	mov.w	r3, #32768	; 0x8000
80100e00:	f2c0 231c 	movt	r3, #540	; 0x21c
80100e04:	f04f 4200 	mov.w	r2, #2147483648	; 0x80000000
80100e08:	601a      	str	r2, [r3, #0]
80100e0a:	2064      	movs	r0, #100	; 0x64
80100e0c:	f7ff fe58 	bl	80100ac0 <delay>
80100e10:	f44f 4300 	mov.w	r3, #32768	; 0x8000
80100e14:	f2c0 231c 	movt	r3, #540	; 0x21c
80100e18:	2200      	movs	r2, #0
80100e1a:	601a      	str	r2, [r3, #0]
80100e1c:	687b      	ldr	r3, [r7, #4]
80100e1e:	6b9b      	ldr	r3, [r3, #56]	; 0x38
80100e20:	2b08      	cmp	r3, #8
80100e22:	d007      	beq.n	80100e34 <Imx6ull_lcd_controller_init+0x11c>
80100e24:	687b      	ldr	r3, [r7, #4]
80100e26:	6b9b      	ldr	r3, [r3, #56]	; 0x38
80100e28:	2b10      	cmp	r3, #16
80100e2a:	d101      	bne.n	80100e30 <Imx6ull_lcd_controller_init+0x118>
80100e2c:	2300      	movs	r3, #0
80100e2e:	e002      	b.n	80100e36 <Imx6ull_lcd_controller_init+0x11e>
80100e30:	2303      	movs	r3, #3
80100e32:	e000      	b.n	80100e36 <Imx6ull_lcd_controller_init+0x11e>
80100e34:	2301      	movs	r3, #1
80100e36:	60fb      	str	r3, [r7, #12]
80100e38:	f44f 4200 	mov.w	r2, #32768	; 0x8000
80100e3c:	f2c0 221c 	movt	r2, #540	; 0x21c
80100e40:	f44f 4300 	mov.w	r3, #32768	; 0x8000
80100e44:	f2c0 231c 	movt	r3, #540	; 0x21c
80100e48:	681b      	ldr	r3, [r3, #0]
80100e4a:	68f9      	ldr	r1, [r7, #12]
80100e4c:	0209      	lsls	r1, r1, #8
80100e4e:	430b      	orrs	r3, r1
80100e50:	f443 2320 	orr.w	r3, r3, #655360	; 0xa0000
80100e54:	f443 6342 	orr.w	r3, r3, #3104	; 0xc20
80100e58:	6013      	str	r3, [r2, #0]
80100e5a:	687b      	ldr	r3, [r7, #4]
80100e5c:	6b9b      	ldr	r3, [r3, #56]	; 0x38
80100e5e:	2b10      	cmp	r3, #16
80100e60:	d10b      	bne.n	80100e7a <Imx6ull_lcd_controller_init+0x162>
80100e62:	f44f 4300 	mov.w	r3, #32768	; 0x8000
80100e66:	f2c0 231c 	movt	r3, #540	; 0x21c
80100e6a:	f44f 4200 	mov.w	r2, #32768	; 0x8000
80100e6e:	f2c0 221c 	movt	r2, #540	; 0x21c
80100e72:	6812      	ldr	r2, [r2, #0]
80100e74:	f042 0208 	orr.w	r2, r2, #8
80100e78:	601a      	str	r2, [r3, #0]
80100e7a:	687b      	ldr	r3, [r7, #4]
80100e7c:	6b9b      	ldr	r3, [r3, #56]	; 0x38
80100e7e:	2b18      	cmp	r3, #24
80100e80:	d003      	beq.n	80100e8a <Imx6ull_lcd_controller_init+0x172>
80100e82:	687b      	ldr	r3, [r7, #4]
80100e84:	6b9b      	ldr	r3, [r3, #56]	; 0x38
80100e86:	2b20      	cmp	r3, #32
80100e88:	d117      	bne.n	80100eba <Imx6ull_lcd_controller_init+0x1a2>
80100e8a:	f44f 4300 	mov.w	r3, #32768	; 0x8000
80100e8e:	f2c0 231c 	movt	r3, #540	; 0x21c
80100e92:	f44f 4200 	mov.w	r2, #32768	; 0x8000
80100e96:	f2c0 221c 	movt	r2, #540	; 0x21c
80100e9a:	6912      	ldr	r2, [r2, #16]
80100e9c:	f422 2270 	bic.w	r2, r2, #983040	; 0xf0000
80100ea0:	611a      	str	r2, [r3, #16]
80100ea2:	f44f 4300 	mov.w	r3, #32768	; 0x8000
80100ea6:	f2c0 231c 	movt	r3, #540	; 0x21c
80100eaa:	f44f 4200 	mov.w	r2, #32768	; 0x8000
80100eae:	f2c0 221c 	movt	r2, #540	; 0x21c
80100eb2:	6912      	ldr	r2, [r2, #16]
80100eb4:	f442 22e0 	orr.w	r2, r2, #458752	; 0x70000
80100eb8:	611a      	str	r2, [r3, #16]
80100eba:	f44f 4300 	mov.w	r3, #32768	; 0x8000
80100ebe:	f2c0 231c 	movt	r3, #540	; 0x21c
80100ec2:	687a      	ldr	r2, [r7, #4]
80100ec4:	6b52      	ldr	r2, [r2, #52]	; 0x34
80100ec6:	0411      	lsls	r1, r2, #16
80100ec8:	687a      	ldr	r2, [r7, #4]
80100eca:	6b12      	ldr	r2, [r2, #48]	; 0x30
80100ecc:	430a      	orrs	r2, r1
80100ece:	631a      	str	r2, [r3, #48]	; 0x30
80100ed0:	f44f 4300 	mov.w	r3, #32768	; 0x8000
80100ed4:	f2c0 231c 	movt	r3, #540	; 0x21c
80100ed8:	687a      	ldr	r2, [r7, #4]
80100eda:	6912      	ldr	r2, [r2, #16]
80100edc:	06d2      	lsls	r2, r2, #27
80100ede:	f042 5180 	orr.w	r1, r2, #268435456	; 0x10000000
80100ee2:	687a      	ldr	r2, [r7, #4]
80100ee4:	68d2      	ldr	r2, [r2, #12]
80100ee6:	0692      	lsls	r2, r2, #26
80100ee8:	4311      	orrs	r1, r2
80100eea:	687a      	ldr	r2, [r7, #4]
80100eec:	6892      	ldr	r2, [r2, #8]
80100eee:	0652      	lsls	r2, r2, #25
80100ef0:	4311      	orrs	r1, r2
80100ef2:	687a      	ldr	r2, [r7, #4]
80100ef4:	6852      	ldr	r2, [r2, #4]
80100ef6:	0612      	lsls	r2, r2, #24
80100ef8:	430a      	orrs	r2, r1
80100efa:	f442 1140 	orr.w	r1, r2, #3145728	; 0x300000
80100efe:	687a      	ldr	r2, [r7, #4]
80100f00:	6952      	ldr	r2, [r2, #20]
80100f02:	430a      	orrs	r2, r1
80100f04:	671a      	str	r2, [r3, #112]	; 0x70
80100f06:	f44f 4300 	mov.w	r3, #32768	; 0x8000
80100f0a:	f2c0 231c 	movt	r3, #540	; 0x21c
80100f0e:	687a      	ldr	r2, [r7, #4]
80100f10:	6991      	ldr	r1, [r2, #24]
80100f12:	687a      	ldr	r2, [r7, #4]
80100f14:	6952      	ldr	r2, [r2, #20]
80100f16:	4411      	add	r1, r2
80100f18:	687a      	ldr	r2, [r7, #4]
80100f1a:	6b52      	ldr	r2, [r2, #52]	; 0x34
80100f1c:	4411      	add	r1, r2
80100f1e:	687a      	ldr	r2, [r7, #4]
80100f20:	69d2      	ldr	r2, [r2, #28]
80100f22:	440a      	add	r2, r1
80100f24:	f8c3 2080 	str.w	r2, [r3, #128]	; 0x80
80100f28:	f44f 4300 	mov.w	r3, #32768	; 0x8000
80100f2c:	f2c0 231c 	movt	r3, #540	; 0x21c
80100f30:	687a      	ldr	r2, [r7, #4]
80100f32:	6a12      	ldr	r2, [r2, #32]
80100f34:	0491      	lsls	r1, r2, #18
80100f36:	687a      	ldr	r2, [r7, #4]
80100f38:	6a50      	ldr	r0, [r2, #36]	; 0x24
80100f3a:	687a      	ldr	r2, [r7, #4]
80100f3c:	6a12      	ldr	r2, [r2, #32]
80100f3e:	4410      	add	r0, r2
80100f40:	687a      	ldr	r2, [r7, #4]
80100f42:	6b12      	ldr	r2, [r2, #48]	; 0x30
80100f44:	4410      	add	r0, r2
80100f46:	687a      	ldr	r2, [r7, #4]
80100f48:	6a92      	ldr	r2, [r2, #40]	; 0x28
80100f4a:	4402      	add	r2, r0
80100f4c:	430a      	orrs	r2, r1
80100f4e:	f8c3 2090 	str.w	r2, [r3, #144]	; 0x90
80100f52:	f44f 4300 	mov.w	r3, #32768	; 0x8000
80100f56:	f2c0 231c 	movt	r3, #540	; 0x21c
80100f5a:	687a      	ldr	r2, [r7, #4]
80100f5c:	6a51      	ldr	r1, [r2, #36]	; 0x24
80100f5e:	687a      	ldr	r2, [r7, #4]
80100f60:	6a12      	ldr	r2, [r2, #32]
80100f62:	440a      	add	r2, r1
80100f64:	0411      	lsls	r1, r2, #16
80100f66:	687a      	ldr	r2, [r7, #4]
80100f68:	6990      	ldr	r0, [r2, #24]
80100f6a:	687a      	ldr	r2, [r7, #4]
80100f6c:	6952      	ldr	r2, [r2, #20]
80100f6e:	4402      	add	r2, r0
80100f70:	430a      	orrs	r2, r1
80100f72:	f8c3 20a0 	str.w	r2, [r3, #160]	; 0xa0
80100f76:	f44f 4300 	mov.w	r3, #32768	; 0x8000
80100f7a:	f2c0 231c 	movt	r3, #540	; 0x21c
80100f7e:	687a      	ldr	r2, [r7, #4]
80100f80:	6b12      	ldr	r2, [r2, #48]	; 0x30
80100f82:	f442 2280 	orr.w	r2, r2, #262144	; 0x40000
80100f86:	f8c3 20b0 	str.w	r2, [r3, #176]	; 0xb0
80100f8a:	f44f 4300 	mov.w	r3, #32768	; 0x8000
80100f8e:	f2c0 231c 	movt	r3, #540	; 0x21c
80100f92:	687a      	ldr	r2, [r7, #4]
80100f94:	6bd2      	ldr	r2, [r2, #60]	; 0x3c
80100f96:	641a      	str	r2, [r3, #64]	; 0x40
80100f98:	f44f 4300 	mov.w	r3, #32768	; 0x8000
80100f9c:	f2c0 231c 	movt	r3, #540	; 0x21c
80100fa0:	687a      	ldr	r2, [r7, #4]
80100fa2:	6bd2      	ldr	r2, [r2, #60]	; 0x3c
80100fa4:	651a      	str	r2, [r3, #80]	; 0x50
80100fa6:	bf00      	nop
80100fa8:	3710      	adds	r7, #16
80100faa:	46bd      	mov	sp, r7
80100fac:	bd80      	pop	{r7, pc}

80100fae <Imx6ull_lcd_controller_enable>:
80100fae:	b480      	push	{r7}
80100fb0:	af00      	add	r7, sp, #0
80100fb2:	f44f 4300 	mov.w	r3, #32768	; 0x8000
80100fb6:	f2c0 231c 	movt	r3, #540	; 0x21c
80100fba:	f44f 4200 	mov.w	r2, #32768	; 0x8000
80100fbe:	f2c0 221c 	movt	r2, #540	; 0x21c
80100fc2:	6812      	ldr	r2, [r2, #0]
80100fc4:	f042 0201 	orr.w	r2, r2, #1
80100fc8:	601a      	str	r2, [r3, #0]
80100fca:	bf00      	nop
80100fcc:	46bd      	mov	sp, r7
80100fce:	f85d 7b04 	ldr.w	r7, [sp], #4
80100fd2:	4770      	bx	lr

80100fd4 <Imx6ull_lcd_controller_disable>:
80100fd4:	b480      	push	{r7}
80100fd6:	af00      	add	r7, sp, #0
80100fd8:	f44f 4300 	mov.w	r3, #32768	; 0x8000
80100fdc:	f2c0 231c 	movt	r3, #540	; 0x21c
80100fe0:	f44f 4200 	mov.w	r2, #32768	; 0x8000
80100fe4:	f2c0 221c 	movt	r2, #540	; 0x21c
80100fe8:	6812      	ldr	r2, [r2, #0]
80100fea:	f022 0201 	bic.w	r2, r2, #1
80100fee:	601a      	str	r2, [r3, #0]
80100ff0:	bf00      	nop
80100ff2:	46bd      	mov	sp, r7
80100ff4:	f85d 7b04 	ldr.w	r7, [sp], #4
80100ff8:	4770      	bx	lr

80100ffa <Imx6ull_lcd_controller_add>:
80100ffa:	b580      	push	{r7, lr}
80100ffc:	af00      	add	r7, sp, #0
80100ffe:	f242 00a0 	movw	r0, #8352	; 0x20a0
80101002:	f2c8 0010 	movt	r0, #32784	; 0x8010
80101006:	f7ff fcb5 	bl	80100974 <register_lcd_controller>
8010100a:	bf00      	nop
8010100c:	bd80      	pop	{r7, pc}

Disassembly of section .rodata:

80101010 <.LC0>:
80101010:	2e777777 	mrccs	7, 3, r7, cr7, cr7, {3}
80101014:	61303031 	teqvs	r0, r1, lsr r0
80101018:	6e2e6b73 	vmovvs.16	d14[3], r6
8010101c:	0d0a7465 	cfstrseq	mvf7, [sl, #-404]	; 0xfffffe6c
80101020:	61303031 	teqvs	r0, r1, lsr r0
80101024:	742e6b73 	strtvc	r6, [lr], #-2931	; 0xfffff48d
80101028:	61626f61 	cmnvs	r2, r1, ror #30
8010102c:	6f632e6f 	svcvs	0x00632e6f
80101030:	0000006d 	andeq	r0, r0, sp, rrx

80101034 <fontdata_8x16>:
	...
80101044:	817e0000 	cmnhi	lr, r0
80101048:	bd8181a5 	stfltd	f0, [r1, #660]	; 0x294
8010104c:	7e818199 	mcrvc	1, 4, r8, cr1, cr9, {4}
80101050:	00000000 	andeq	r0, r0, r0
80101054:	ff7e0000 			; <UNDEFINED> instruction: 0xff7e0000
80101058:	c3ffffdb 	mvnsgt	pc, #876	; 0x36c
8010105c:	7effffe7 	cdpvc	15, 15, cr15, cr15, cr7, {7}
	...
80101068:	fefefe6c 	cdp2	14, 15, cr15, cr14, cr12, {3}
8010106c:	10387cfe 	ldrshtne	r7, [r8], -lr
	...
80101078:	fe7c3810 	mrc2	8, 3, r3, cr12, cr0, {0}
8010107c:	0010387c 	andseq	r3, r0, ip, ror r8
80101080:	00000000 	andeq	r0, r0, r0
80101084:	18000000 	stmdane	r0, {}	; <UNPREDICTABLE>
80101088:	e7e73c3c 			; <UNDEFINED> instruction: 0xe7e73c3c
8010108c:	3c1818e7 	ldccc	8, cr1, [r8], {231}	; 0xe7
80101090:	00000000 	andeq	r0, r0, r0
80101094:	18000000 	stmdane	r0, {}	; <UNPREDICTABLE>
80101098:	ffff7e3c 			; <UNDEFINED> instruction: 0xffff7e3c
8010109c:	3c18187e 	ldccc	8, cr1, [r8], {126}	; 0x7e
	...
801010a8:	3c180000 	ldccc	0, cr0, [r8], {-0}
801010ac:	0000183c 	andeq	r1, r0, ip, lsr r8
801010b0:	00000000 	andeq	r0, r0, r0
801010b4:	ffffffff 			; <UNDEFINED> instruction: 0xffffffff
801010b8:	c3e7ffff 	mvngt	pc, #1020	; 0x3fc
801010bc:	ffffe7c3 			; <UNDEFINED> instruction: 0xffffe7c3
801010c0:	ffffffff 			; <UNDEFINED> instruction: 0xffffffff
801010c4:	00000000 	andeq	r0, r0, r0
801010c8:	42663c00 	rsbmi	r3, r6, #0, 24
801010cc:	003c6642 	eorseq	r6, ip, r2, asr #12
801010d0:	00000000 	andeq	r0, r0, r0
801010d4:	ffffffff 			; <UNDEFINED> instruction: 0xffffffff
801010d8:	bd99c3ff 	ldclt	3, cr12, [r9, #1020]	; 0x3fc
801010dc:	ffc399bd 			; <UNDEFINED> instruction: 0xffc399bd
801010e0:	ffffffff 			; <UNDEFINED> instruction: 0xffffffff
801010e4:	0e1e0000 	cdpeq	0, 1, cr0, cr14, cr0, {0}
801010e8:	cc78321a 	lfmgt	f3, 2, [r8], #-104	; 0xffffff98
801010ec:	78cccccc 	stmiavc	ip, {r2, r3, r6, r7, sl, fp, lr, pc}^
801010f0:	00000000 	andeq	r0, r0, r0
801010f4:	663c0000 	ldrtvs	r0, [ip], -r0
801010f8:	3c666666 	stclcc	6, cr6, [r6], #-408	; 0xfffffe68
801010fc:	18187e18 	ldmdane	r8, {r3, r4, r9, sl, fp, ip, sp, lr}
80101100:	00000000 	andeq	r0, r0, r0
80101104:	333f0000 	teqcc	pc, #0
80101108:	3030303f 	eorscc	r3, r0, pc, lsr r0
8010110c:	e0f07030 	rscs	r7, r0, r0, lsr r0
80101110:	00000000 	andeq	r0, r0, r0
80101114:	637f0000 	cmnvs	pc, #0
80101118:	6363637f 	cmnvs	r3, #-67108863	; 0xfc000001
8010111c:	e6e76763 	strbt	r6, [r7], r3, ror #14
80101120:	000000c0 	andeq	r0, r0, r0, asr #1
80101124:	18000000 	stmdane	r0, {}	; <UNPREDICTABLE>
80101128:	e73cdb18 			; <UNDEFINED> instruction: 0xe73cdb18
8010112c:	1818db3c 	ldmdane	r8, {r2, r3, r4, r5, r8, r9, fp, ip, lr, pc}
80101130:	00000000 	andeq	r0, r0, r0
80101134:	e0c08000 	sbc	r8, r0, r0
80101138:	f8fef8f0 			; <UNDEFINED> instruction: 0xf8fef8f0
8010113c:	80c0e0f0 	strdhi	lr, [r0], #0
80101140:	00000000 	andeq	r0, r0, r0
80101144:	0e060200 	cdpeq	2, 0, cr0, cr6, cr0, {0}
80101148:	3efe3e1e 	mrccc	14, 7, r3, cr14, cr14, {0}
8010114c:	02060e1e 	andeq	r0, r6, #480	; 0x1e0
80101150:	00000000 	andeq	r0, r0, r0
80101154:	3c180000 	ldccc	0, cr0, [r8], {-0}
80101158:	1818187e 	ldmdane	r8, {r1, r2, r3, r4, r5, r6, fp, ip}
8010115c:	00183c7e 	andseq	r3, r8, lr, ror ip
80101160:	00000000 	andeq	r0, r0, r0
80101164:	66660000 	strbtvs	r0, [r6], -r0
80101168:	66666666 	strbtvs	r6, [r6], -r6, ror #12
8010116c:	66660066 	strbtvs	r0, [r6], -r6, rrx
80101170:	00000000 	andeq	r0, r0, r0
80101174:	db7f0000 	blle	820c117c <__bss_end+0x1fbf068>
80101178:	1b7bdbdb 	blne	81ff80ec <__bss_end+0x1ef5fd8>
8010117c:	1b1b1b1b 	blne	807c7df0 <__bss_end+0x6c5cdc>
80101180:	00000000 	andeq	r0, r0, r0
80101184:	60c67c00 	sbcvs	r7, r6, r0, lsl #24
80101188:	c6c66c38 			; <UNDEFINED> instruction: 0xc6c66c38
8010118c:	c60c386c 	strgt	r3, [ip], -ip, ror #16
80101190:	0000007c 	andeq	r0, r0, ip, ror r0
	...
8010119c:	fefefefe 	mrc2	14, 7, pc, cr14, cr14, {7}
801011a0:	00000000 	andeq	r0, r0, r0
801011a4:	3c180000 	ldccc	0, cr0, [r8], {-0}
801011a8:	1818187e 	ldmdane	r8, {r1, r2, r3, r4, r5, r6, fp, ip}
801011ac:	7e183c7e 	mrcvc	12, 0, r3, cr8, cr14, {3}
801011b0:	00000000 	andeq	r0, r0, r0
801011b4:	3c180000 	ldccc	0, cr0, [r8], {-0}
801011b8:	1818187e 	ldmdane	r8, {r1, r2, r3, r4, r5, r6, fp, ip}
801011bc:	18181818 	ldmdane	r8, {r3, r4, fp, ip}
801011c0:	00000000 	andeq	r0, r0, r0
801011c4:	18180000 	ldmdane	r8, {}	; <UNPREDICTABLE>
801011c8:	18181818 	ldmdane	r8, {r3, r4, fp, ip}
801011cc:	183c7e18 	ldmdane	ip!, {r3, r4, r9, sl, fp, ip, sp, lr}
	...
801011d8:	fe0c1800 	cdp2	8, 0, cr1, cr12, cr0, {0}
801011dc:	0000180c 	andeq	r1, r0, ip, lsl #16
	...
801011e8:	fe603000 	cdp2	0, 6, cr3, cr0, cr0, {0}
801011ec:	00003060 	andeq	r3, r0, r0, rrx
	...
801011f8:	c0c00000 	sbcgt	r0, r0, r0
801011fc:	0000fec0 	andeq	pc, r0, r0, asr #29
	...
80101208:	fe6c2800 	cdp2	8, 6, cr2, cr12, cr0, {0}
8010120c:	0000286c 	andeq	r2, r0, ip, ror #16
	...
80101218:	7c383810 	ldcvc	8, cr3, [r8], #-64	; 0xffffffc0
8010121c:	00fefe7c 	rscseq	pc, lr, ip, ror lr	; <UNPREDICTABLE>
	...
80101228:	7c7cfefe 	ldclvc	14, cr15, [ip], #-1016	; 0xfffffc08
8010122c:	00103838 	andseq	r3, r0, r8, lsr r8
	...
80101244:	3c180000 	ldccc	0, cr0, [r8], {-0}
80101248:	18183c3c 	ldmdane	r8, {r2, r3, r4, r5, sl, fp, ip, sp}
8010124c:	18180018 	ldmdane	r8, {r3, r4}
80101250:	00000000 	andeq	r0, r0, r0
80101254:	66666600 	strbtvs	r6, [r6], -r0, lsl #12
80101258:	00000024 	andeq	r0, r0, r4, lsr #32
	...
80101264:	6c000000 	stcvs	0, cr0, [r0], {-0}
80101268:	6c6cfe6c 	stclvs	14, cr15, [ip], #-432	; 0xfffffe50
8010126c:	6c6cfe6c 	stclvs	14, cr15, [ip], #-432	; 0xfffffe50
80101270:	00000000 	andeq	r0, r0, r0
80101274:	c67c1818 			; <UNDEFINED> instruction: 0xc67c1818
80101278:	067cc0c2 	ldrbteq	ip, [ip], -r2, asr #1
8010127c:	7cc68606 	stclvc	6, cr8, [r6], {6}
80101280:	00001818 	andeq	r1, r0, r8, lsl r8
80101284:	00000000 	andeq	r0, r0, r0
80101288:	180cc6c2 	stmdane	ip, {r1, r6, r7, r9, sl, lr, pc}
8010128c:	86c66030 			; <UNDEFINED> instruction: 0x86c66030
80101290:	00000000 	andeq	r0, r0, r0
80101294:	6c380000 	ldcvs	0, cr0, [r8], #-0
80101298:	dc76386c 	ldclle	8, cr3, [r6], #-432	; 0xfffffe50
8010129c:	76cccccc 	strbvc	ip, [ip], ip, asr #25
801012a0:	00000000 	andeq	r0, r0, r0
801012a4:	30303000 	eorscc	r3, r0, r0
801012a8:	00000060 	andeq	r0, r0, r0, rrx
	...
801012b4:	180c0000 	stmdane	ip, {}	; <UNPREDICTABLE>
801012b8:	30303030 	eorscc	r3, r0, r0, lsr r0
801012bc:	0c183030 	ldceq	0, cr3, [r8], {48}	; 0x30
801012c0:	00000000 	andeq	r0, r0, r0
801012c4:	18300000 	ldmdane	r0!, {}	; <UNPREDICTABLE>
801012c8:	0c0c0c0c 	stceq	12, cr0, [ip], {12}
801012cc:	30180c0c 	andscc	r0, r8, ip, lsl #24
	...
801012d8:	ff3c6600 			; <UNDEFINED> instruction: 0xff3c6600
801012dc:	0000663c 	andeq	r6, r0, ip, lsr r6
	...
801012e8:	7e181800 	cdpvc	8, 1, cr1, cr8, cr0, {0}
801012ec:	00001818 	andeq	r1, r0, r8, lsl r8
	...
801012fc:	18181800 	ldmdane	r8, {fp, ip}
80101300:	00000030 	andeq	r0, r0, r0, lsr r0
80101304:	00000000 	andeq	r0, r0, r0
80101308:	fe000000 	cdp2	0, 0, cr0, cr0, cr0, {0}
	...
8010131c:	18180000 	ldmdane	r8, {}	; <UNPREDICTABLE>
	...
80101328:	180c0602 	stmdane	ip, {r1, r9, sl}
8010132c:	80c06030 	sbchi	r6, r0, r0, lsr r0
80101330:	00000000 	andeq	r0, r0, r0
80101334:	6c380000 	ldcvs	0, cr0, [r8], #-0
80101338:	d6d6c6c6 	ldrble	ip, [r6], r6, asr #13
8010133c:	386cc6c6 	stmdacc	ip!, {r1, r2, r6, r7, r9, sl, lr, pc}^
80101340:	00000000 	andeq	r0, r0, r0
80101344:	38180000 	ldmdacc	r8, {}	; <UNPREDICTABLE>
80101348:	18181878 	ldmdane	r8, {r3, r4, r5, r6, fp, ip}
8010134c:	7e181818 	mrcvc	8, 0, r1, cr8, cr8, {0}
80101350:	00000000 	andeq	r0, r0, r0
80101354:	c67c0000 	ldrbtgt	r0, [ip], -r0
80101358:	30180c06 	andscc	r0, r8, r6, lsl #24
8010135c:	fec6c060 	cdp2	0, 12, cr12, cr6, cr0, {3}
80101360:	00000000 	andeq	r0, r0, r0
80101364:	c67c0000 	ldrbtgt	r0, [ip], -r0
80101368:	063c0606 	ldrteq	r0, [ip], -r6, lsl #12
8010136c:	7cc60606 	stclvc	6, cr0, [r6], {6}
80101370:	00000000 	andeq	r0, r0, r0
80101374:	1c0c0000 	stcne	0, cr0, [ip], {-0}
80101378:	fecc6c3c 	mcr2	12, 6, r6, cr12, cr12, {1}
8010137c:	1e0c0c0c 	cdpne	12, 0, cr0, cr12, cr12, {0}
80101380:	00000000 	andeq	r0, r0, r0
80101384:	c0fe0000 	rscsgt	r0, lr, r0
80101388:	06fcc0c0 	ldrbteq	ip, [ip], r0, asr #1
8010138c:	7cc60606 	stclvc	6, cr0, [r6], {6}
80101390:	00000000 	andeq	r0, r0, r0
80101394:	60380000 	eorsvs	r0, r8, r0
80101398:	c6fcc0c0 	ldrbtgt	ip, [ip], r0, asr #1
8010139c:	7cc6c6c6 	stclvc	6, cr12, [r6], {198}	; 0xc6
801013a0:	00000000 	andeq	r0, r0, r0
801013a4:	c6fe0000 	ldrbtgt	r0, [lr], r0
801013a8:	180c0606 	stmdane	ip, {r1, r2, r9, sl}
801013ac:	30303030 	eorscc	r3, r0, r0, lsr r0
801013b0:	00000000 	andeq	r0, r0, r0
801013b4:	c67c0000 	ldrbtgt	r0, [ip], -r0
801013b8:	c67cc6c6 	ldrbtgt	ip, [ip], -r6, asr #13
801013bc:	7cc6c6c6 	stclvc	6, cr12, [r6], {198}	; 0xc6
801013c0:	00000000 	andeq	r0, r0, r0
801013c4:	c67c0000 	ldrbtgt	r0, [ip], -r0
801013c8:	067ec6c6 	ldrbteq	ip, [lr], -r6, asr #13
801013cc:	780c0606 	stmdavc	ip, {r1, r2, r9, sl}
	...
801013d8:	00001818 	andeq	r1, r0, r8, lsl r8
801013dc:	00181800 	andseq	r1, r8, r0, lsl #16
	...
801013e8:	00001818 	andeq	r1, r0, r8, lsl r8
801013ec:	30181800 	andscc	r1, r8, r0, lsl #16
801013f0:	00000000 	andeq	r0, r0, r0
801013f4:	06000000 	streq	r0, [r0], -r0
801013f8:	6030180c 	eorsvs	r1, r0, ip, lsl #16
801013fc:	060c1830 			; <UNDEFINED> instruction: 0x060c1830
	...
80101408:	00007e00 	andeq	r7, r0, r0, lsl #28
8010140c:	0000007e 	andeq	r0, r0, lr, ror r0
80101410:	00000000 	andeq	r0, r0, r0
80101414:	60000000 	andvs	r0, r0, r0
80101418:	060c1830 			; <UNDEFINED> instruction: 0x060c1830
8010141c:	6030180c 	eorsvs	r1, r0, ip, lsl #16
80101420:	00000000 	andeq	r0, r0, r0
80101424:	c67c0000 	ldrbtgt	r0, [ip], -r0
80101428:	18180cc6 	ldmdane	r8, {r1, r2, r6, r7, sl, fp}
8010142c:	18180018 	ldmdane	r8, {r3, r4}
80101430:	00000000 	andeq	r0, r0, r0
80101434:	7c000000 	stcvc	0, cr0, [r0], {-0}
80101438:	dedec6c6 	cdple	6, 13, cr12, cr14, cr6, {6}
8010143c:	7cc0dcde 	stclvc	12, cr13, [r0], {222}	; 0xde
80101440:	00000000 	andeq	r0, r0, r0
80101444:	38100000 	ldmdacc	r0, {}	; <UNPREDICTABLE>
80101448:	fec6c66c 	cdp2	6, 12, cr12, cr6, cr12, {3}
8010144c:	c6c6c6c6 	strbgt	ip, [r6], r6, asr #13
80101450:	00000000 	andeq	r0, r0, r0
80101454:	66fc0000 	ldrbtvs	r0, [ip], r0
80101458:	667c6666 	ldrbtvs	r6, [ip], -r6, ror #12
8010145c:	fc666666 	stc2l	6, cr6, [r6], #-408	; 0xfffffe68
80101460:	00000000 	andeq	r0, r0, r0
80101464:	663c0000 	ldrtvs	r0, [ip], -r0
80101468:	c0c0c0c2 	sbcgt	ip, r0, r2, asr #1
8010146c:	3c66c2c0 	sfmcc	f4, 3, [r6], #-768	; 0xfffffd00
80101470:	00000000 	andeq	r0, r0, r0
80101474:	6cf80000 	ldclvs	0, cr0, [r8]
80101478:	66666666 	strbtvs	r6, [r6], -r6, ror #12
8010147c:	f86c6666 			; <UNDEFINED> instruction: 0xf86c6666
80101480:	00000000 	andeq	r0, r0, r0
80101484:	66fe0000 	ldrbtvs	r0, [lr], r0
80101488:	68786862 	ldmdavs	r8!, {r1, r5, r6, fp, sp, lr}^
8010148c:	fe666260 	cdp2	2, 6, cr6, cr6, cr0, {3}
80101490:	00000000 	andeq	r0, r0, r0
80101494:	66fe0000 	ldrbtvs	r0, [lr], r0
80101498:	68786862 	ldmdavs	r8!, {r1, r5, r6, fp, sp, lr}^
8010149c:	f0606060 			; <UNDEFINED> instruction: 0xf0606060
801014a0:	00000000 	andeq	r0, r0, r0
801014a4:	663c0000 	ldrtvs	r0, [ip], -r0
801014a8:	dec0c0c2 	cdple	0, 12, cr12, cr0, cr2, {6}
801014ac:	3a66c6c6 	bcc	81ab2fcc <__bss_end+0x19b0eb8>
801014b0:	00000000 	andeq	r0, r0, r0
801014b4:	c6c60000 	strbgt	r0, [r6], r0
801014b8:	c6fec6c6 	ldrbtgt	ip, [lr], r6, asr #13
801014bc:	c6c6c6c6 	strbgt	ip, [r6], r6, asr #13
801014c0:	00000000 	andeq	r0, r0, r0
801014c4:	183c0000 	ldmdane	ip!, {}	; <UNPREDICTABLE>
801014c8:	18181818 	ldmdane	r8, {r3, r4, fp, ip}
801014cc:	3c181818 	ldccc	8, cr1, [r8], {24}
801014d0:	00000000 	andeq	r0, r0, r0
801014d4:	0c1e0000 	ldceq	0, cr0, [lr], {-0}
801014d8:	0c0c0c0c 	stceq	12, cr0, [ip], {12}
801014dc:	78cccccc 	stmiavc	ip, {r2, r3, r6, r7, sl, fp, lr, pc}^
801014e0:	00000000 	andeq	r0, r0, r0
801014e4:	66e60000 	strbtvs	r0, [r6], r0
801014e8:	78786c66 	ldmdavc	r8!, {r1, r2, r5, r6, sl, fp, sp, lr}^
801014ec:	e666666c 	strbt	r6, [r6], -ip, ror #12
801014f0:	00000000 	andeq	r0, r0, r0
801014f4:	60f00000 	rscsvs	r0, r0, r0
801014f8:	60606060 	rsbvs	r6, r0, r0, rrx
801014fc:	fe666260 	cdp2	2, 6, cr6, cr6, cr0, {3}
80101500:	00000000 	andeq	r0, r0, r0
80101504:	eec60000 	cdp	0, 12, cr0, cr6, cr0, {0}
80101508:	c6d6fefe 			; <UNDEFINED> instruction: 0xc6d6fefe
8010150c:	c6c6c6c6 	strbgt	ip, [r6], r6, asr #13
80101510:	00000000 	andeq	r0, r0, r0
80101514:	e6c60000 	strb	r0, [r6], r0
80101518:	cedefef6 	mrcgt	14, 6, APSR_nzcv, cr14, cr6, {7}
8010151c:	c6c6c6c6 	strbgt	ip, [r6], r6, asr #13
80101520:	00000000 	andeq	r0, r0, r0
80101524:	c67c0000 	ldrbtgt	r0, [ip], -r0
80101528:	c6c6c6c6 	strbgt	ip, [r6], r6, asr #13
8010152c:	7cc6c6c6 	stclvc	6, cr12, [r6], {198}	; 0xc6
80101530:	00000000 	andeq	r0, r0, r0
80101534:	66fc0000 	ldrbtvs	r0, [ip], r0
80101538:	607c6666 	rsbsvs	r6, ip, r6, ror #12
8010153c:	f0606060 			; <UNDEFINED> instruction: 0xf0606060
80101540:	00000000 	andeq	r0, r0, r0
80101544:	c67c0000 	ldrbtgt	r0, [ip], -r0
80101548:	c6c6c6c6 	strbgt	ip, [r6], r6, asr #13
8010154c:	7cded6c6 	ldclvc	6, cr13, [lr], {198}	; 0xc6
80101550:	00000e0c 	andeq	r0, r0, ip, lsl #28
80101554:	66fc0000 	ldrbtvs	r0, [ip], r0
80101558:	6c7c6666 	ldclvs	6, cr6, [ip], #-408	; 0xfffffe68
8010155c:	e6666666 	strbt	r6, [r6], -r6, ror #12
80101560:	00000000 	andeq	r0, r0, r0
80101564:	c67c0000 	ldrbtgt	r0, [ip], -r0
80101568:	0c3860c6 	ldceq	0, cr6, [r8], #-792	; 0xfffffce8
8010156c:	7cc6c606 	stclvc	6, cr12, [r6], {6}
80101570:	00000000 	andeq	r0, r0, r0
80101574:	7e7e0000 	cdpvc	0, 7, cr0, cr14, cr0, {0}
80101578:	1818185a 	ldmdane	r8, {r1, r3, r4, r6, fp, ip}
8010157c:	3c181818 	ldccc	8, cr1, [r8], {24}
80101580:	00000000 	andeq	r0, r0, r0
80101584:	c6c60000 	strbgt	r0, [r6], r0
80101588:	c6c6c6c6 	strbgt	ip, [r6], r6, asr #13
8010158c:	7cc6c6c6 	stclvc	6, cr12, [r6], {198}	; 0xc6
80101590:	00000000 	andeq	r0, r0, r0
80101594:	c6c60000 	strbgt	r0, [r6], r0
80101598:	c6c6c6c6 	strbgt	ip, [r6], r6, asr #13
8010159c:	10386cc6 	eorsne	r6, r8, r6, asr #25
801015a0:	00000000 	andeq	r0, r0, r0
801015a4:	c6c60000 	strbgt	r0, [r6], r0
801015a8:	d6d6c6c6 	ldrble	ip, [r6], r6, asr #13
801015ac:	6ceefed6 	stclvs	14, cr15, [lr], #856	; 0x358
801015b0:	00000000 	andeq	r0, r0, r0
801015b4:	c6c60000 	strbgt	r0, [r6], r0
801015b8:	38387c6c 	ldmdacc	r8!, {r2, r3, r5, r6, sl, fp, ip, sp, lr}
801015bc:	c6c66c7c 	uxtab16gt	r6, r6, ip, ROR #24
801015c0:	00000000 	andeq	r0, r0, r0
801015c4:	66660000 	strbtvs	r0, [r6], -r0
801015c8:	183c6666 	ldmdane	ip!, {r1, r2, r5, r6, r9, sl, sp, lr}
801015cc:	3c181818 	ldccc	8, cr1, [r8], {24}
801015d0:	00000000 	andeq	r0, r0, r0
801015d4:	c6fe0000 	ldrbtgt	r0, [lr], r0
801015d8:	30180c86 	andscc	r0, r8, r6, lsl #25
801015dc:	fec6c260 	cdp2	2, 12, cr12, cr6, cr0, {3}
801015e0:	00000000 	andeq	r0, r0, r0
801015e4:	303c0000 	eorscc	r0, ip, r0
801015e8:	30303030 	eorscc	r3, r0, r0, lsr r0
801015ec:	3c303030 	ldccc	0, cr3, [r0], #-192	; 0xffffff40
801015f0:	00000000 	andeq	r0, r0, r0
801015f4:	80000000 	andhi	r0, r0, r0
801015f8:	3870e0c0 	ldmdacc	r0!, {r6, r7, sp, lr, pc}^
801015fc:	02060e1c 	andeq	r0, r6, #28, 28	; 0x1c0
80101600:	00000000 	andeq	r0, r0, r0
80101604:	0c3c0000 	ldceq	0, cr0, [ip], #-0
80101608:	0c0c0c0c 	stceq	12, cr0, [ip], {12}
8010160c:	3c0c0c0c 	stccc	12, cr0, [ip], {12}
80101610:	00000000 	andeq	r0, r0, r0
80101614:	c66c3810 			; <UNDEFINED> instruction: 0xc66c3810
	...
80101630:	0000ff00 	andeq	pc, r0, r0, lsl #30
80101634:	0c183000 	ldceq	0, cr3, [r8], {-0}
	...
80101648:	7c0c7800 	stcvc	8, cr7, [ip], {-0}
8010164c:	76cccccc 	strbvc	ip, [ip], ip, asr #25
80101650:	00000000 	andeq	r0, r0, r0
80101654:	60e00000 	rscvs	r0, r0, r0
80101658:	666c7860 	strbtvs	r7, [ip], -r0, ror #16
8010165c:	7c666666 	stclvc	6, cr6, [r6], #-408	; 0xfffffe68
	...
80101668:	c0c67c00 	sbcgt	r7, r6, r0, lsl #24
8010166c:	7cc6c0c0 	stclvc	0, cr12, [r6], {192}	; 0xc0
80101670:	00000000 	andeq	r0, r0, r0
80101674:	0c1c0000 	ldceq	0, cr0, [ip], {-0}
80101678:	cc6c3c0c 	stclgt	12, cr3, [ip], #-48	; 0xffffffd0
8010167c:	76cccccc 	strbvc	ip, [ip], ip, asr #25
	...
80101688:	fec67c00 	cdp2	12, 12, cr7, cr6, cr0, {0}
8010168c:	7cc6c0c0 	stclvc	0, cr12, [r6], {192}	; 0xc0
80101690:	00000000 	andeq	r0, r0, r0
80101694:	361c0000 	ldrcc	r0, [ip], -r0
80101698:	30783032 	rsbscc	r3, r8, r2, lsr r0
8010169c:	78303030 	ldmdavc	r0!, {r4, r5, ip, sp}
	...
801016a8:	cccc7600 	stclgt	6, cr7, [ip], {0}
801016ac:	7ccccccc 	stclvc	12, cr12, [ip], {204}	; 0xcc
801016b0:	0078cc0c 	rsbseq	ip, r8, ip, lsl #24
801016b4:	60e00000 	rscvs	r0, r0, r0
801016b8:	66766c60 	ldrbtvs	r6, [r6], -r0, ror #24
801016bc:	e6666666 	strbt	r6, [r6], -r6, ror #12
801016c0:	00000000 	andeq	r0, r0, r0
801016c4:	18180000 	ldmdane	r8, {}	; <UNPREDICTABLE>
801016c8:	18183800 	ldmdane	r8, {fp, ip, sp}
801016cc:	3c181818 	ldccc	8, cr1, [r8], {24}
801016d0:	00000000 	andeq	r0, r0, r0
801016d4:	06060000 	streq	r0, [r6], -r0
801016d8:	06060e00 	streq	r0, [r6], -r0, lsl #28
801016dc:	06060606 	streq	r0, [r6], -r6, lsl #12
801016e0:	003c6666 	eorseq	r6, ip, r6, ror #12
801016e4:	60e00000 	rscvs	r0, r0, r0
801016e8:	786c6660 	stmdavc	ip!, {r5, r6, r9, sl, sp, lr}^
801016ec:	e6666c78 			; <UNDEFINED> instruction: 0xe6666c78
801016f0:	00000000 	andeq	r0, r0, r0
801016f4:	18380000 	ldmdane	r8!, {}	; <UNPREDICTABLE>
801016f8:	18181818 	ldmdane	r8, {r3, r4, fp, ip}
801016fc:	3c181818 	ldccc	8, cr1, [r8], {24}
	...
80101708:	d6feec00 	ldrbtle	lr, [lr], r0, lsl #24
8010170c:	c6d6d6d6 			; <UNDEFINED> instruction: 0xc6d6d6d6
	...
80101718:	6666dc00 	strbtvs	sp, [r6], -r0, lsl #24
8010171c:	66666666 	strbtvs	r6, [r6], -r6, ror #12
	...
80101728:	c6c67c00 	strbgt	r7, [r6], r0, lsl #24
8010172c:	7cc6c6c6 	stclvc	6, cr12, [r6], {198}	; 0xc6
	...
80101738:	6666dc00 	strbtvs	sp, [r6], -r0, lsl #24
8010173c:	7c666666 	stclvc	6, cr6, [r6], #-408	; 0xfffffe68
80101740:	00f06060 	rscseq	r6, r0, r0, rrx
80101744:	00000000 	andeq	r0, r0, r0
80101748:	cccc7600 	stclgt	6, cr7, [ip], {0}
8010174c:	7ccccccc 	stclvc	12, cr12, [ip], {204}	; 0xcc
80101750:	001e0c0c 	andseq	r0, lr, ip, lsl #24
80101754:	00000000 	andeq	r0, r0, r0
80101758:	6676dc00 	ldrbtvs	sp, [r6], -r0, lsl #24
8010175c:	f0606060 			; <UNDEFINED> instruction: 0xf0606060
	...
80101768:	60c67c00 	sbcvs	r7, r6, r0, lsl #24
8010176c:	7cc60c38 	stclvc	12, cr0, [r6], {56}	; 0x38
80101770:	00000000 	andeq	r0, r0, r0
80101774:	30100000 	andscc	r0, r0, r0
80101778:	3030fc30 	eorscc	pc, r0, r0, lsr ip	; <UNPREDICTABLE>
8010177c:	1c363030 	ldcne	0, cr3, [r6], #-192	; 0xffffff40
	...
80101788:	cccccc00 	stclgt	12, cr12, [ip], {0}
8010178c:	76cccccc 	strbvc	ip, [ip], ip, asr #25
	...
80101798:	c6c6c600 	strbgt	ip, [r6], r0, lsl #12
8010179c:	386cc6c6 	stmdacc	ip!, {r1, r2, r6, r7, r9, sl, lr, pc}^
	...
801017a8:	d6c6c600 	strble	ip, [r6], r0, lsl #12
801017ac:	6cfed6d6 	ldclvs	6, cr13, [lr], #856	; 0x358
	...
801017b8:	386cc600 	stmdacc	ip!, {r9, sl, lr, pc}^
801017bc:	c66c3838 			; <UNDEFINED> instruction: 0xc66c3838
	...
801017c8:	c6c6c600 	strbgt	ip, [r6], r0, lsl #12
801017cc:	7ec6c6c6 	cdpvc	6, 12, cr12, cr6, cr6, {6}
801017d0:	00f80c06 	rscseq	r0, r8, r6, lsl #24
801017d4:	00000000 	andeq	r0, r0, r0
801017d8:	18ccfe00 	stmiane	ip, {r9, sl, fp, ip, sp, lr, pc}^
801017dc:	fec66030 	mcr2	0, 6, r6, cr6, cr0, {1}
801017e0:	00000000 	andeq	r0, r0, r0
801017e4:	180e0000 	stmdane	lr, {}	; <UNPREDICTABLE>
801017e8:	18701818 	ldmdane	r0!, {r3, r4, fp, ip}^
801017ec:	0e181818 	mrceq	8, 0, r1, cr8, cr8, {0}
801017f0:	00000000 	andeq	r0, r0, r0
801017f4:	18180000 	ldmdane	r8, {}	; <UNPREDICTABLE>
801017f8:	18181818 	ldmdane	r8, {r3, r4, fp, ip}
801017fc:	18181818 	ldmdane	r8, {r3, r4, fp, ip}
80101800:	00000000 	andeq	r0, r0, r0
80101804:	18700000 	ldmdane	r0!, {}^	; <UNPREDICTABLE>
80101808:	180e1818 	stmdane	lr, {r3, r4, fp, ip}
8010180c:	70181818 	andsvc	r1, r8, r8, lsl r8
80101810:	00000000 	andeq	r0, r0, r0
80101814:	00dc7600 	sbcseq	r7, ip, r0, lsl #12
	...
80101828:	c66c3810 			; <UNDEFINED> instruction: 0xc66c3810
8010182c:	00fec6c6 	rscseq	ip, lr, r6, asr #13
80101830:	00000000 	andeq	r0, r0, r0
80101834:	663c0000 	ldrtvs	r0, [ip], -r0
80101838:	c0c0c0c2 	sbcgt	ip, r0, r2, asr #1
8010183c:	3c66c2c0 	sfmcc	f4, 3, [r6], #-768	; 0xfffffd00
80101840:	00007018 	andeq	r7, r0, r8, lsl r0
80101844:	00cc0000 	sbceq	r0, ip, r0
80101848:	cccccc00 	stclgt	12, cr12, [ip], {0}
8010184c:	76cccccc 	strbvc	ip, [ip], ip, asr #25
80101850:	00000000 	andeq	r0, r0, r0
80101854:	30180c00 	andscc	r0, r8, r0, lsl #24
80101858:	fec67c00 	cdp2	12, 12, cr7, cr6, cr0, {0}
8010185c:	7cc6c0c0 	stclvc	0, cr12, [r6], {192}	; 0xc0
80101860:	00000000 	andeq	r0, r0, r0
80101864:	6c381000 	ldcvs	0, cr1, [r8], #-0
80101868:	7c0c7800 	stcvc	8, cr7, [ip], {-0}
8010186c:	76cccccc 	strbvc	ip, [ip], ip, asr #25
80101870:	00000000 	andeq	r0, r0, r0
80101874:	00cc0000 	sbceq	r0, ip, r0
80101878:	7c0c7800 	stcvc	8, cr7, [ip], {-0}
8010187c:	76cccccc 	strbvc	ip, [ip], ip, asr #25
80101880:	00000000 	andeq	r0, r0, r0
80101884:	18306000 	ldmdane	r0!, {sp, lr}
80101888:	7c0c7800 	stcvc	8, cr7, [ip], {-0}
8010188c:	76cccccc 	strbvc	ip, [ip], ip, asr #25
80101890:	00000000 	andeq	r0, r0, r0
80101894:	386c3800 	stmdacc	ip!, {fp, ip, sp}^
80101898:	7c0c7800 	stcvc	8, cr7, [ip], {-0}
8010189c:	76cccccc 	strbvc	ip, [ip], ip, asr #25
	...
801018a8:	c0c67c00 	sbcgt	r7, r6, r0, lsl #24
801018ac:	7cc6c0c0 	stclvc	0, cr12, [r6], {192}	; 0xc0
801018b0:	00007018 	andeq	r7, r0, r8, lsl r0
801018b4:	6c381000 	ldcvs	0, cr1, [r8], #-0
801018b8:	fec67c00 	cdp2	12, 12, cr7, cr6, cr0, {0}
801018bc:	7cc6c0c0 	stclvc	0, cr12, [r6], {192}	; 0xc0
801018c0:	00000000 	andeq	r0, r0, r0
801018c4:	00c60000 	sbceq	r0, r6, r0
801018c8:	fec67c00 	cdp2	12, 12, cr7, cr6, cr0, {0}
801018cc:	7cc6c0c0 	stclvc	0, cr12, [r6], {192}	; 0xc0
801018d0:	00000000 	andeq	r0, r0, r0
801018d4:	18306000 	ldmdane	r0!, {sp, lr}
801018d8:	fec67c00 	cdp2	12, 12, cr7, cr6, cr0, {0}
801018dc:	7cc6c0c0 	stclvc	0, cr12, [r6], {192}	; 0xc0
801018e0:	00000000 	andeq	r0, r0, r0
801018e4:	00660000 	rsbeq	r0, r6, r0
801018e8:	18183800 	ldmdane	r8, {fp, ip, sp}
801018ec:	3c181818 	ldccc	8, cr1, [r8], {24}
801018f0:	00000000 	andeq	r0, r0, r0
801018f4:	663c1800 	ldrtvs	r1, [ip], -r0, lsl #16
801018f8:	18183800 	ldmdane	r8, {fp, ip, sp}
801018fc:	3c181818 	ldccc	8, cr1, [r8], {24}
80101900:	00000000 	andeq	r0, r0, r0
80101904:	18306000 	ldmdane	r0!, {sp, lr}
80101908:	18183800 	ldmdane	r8, {fp, ip, sp}
8010190c:	3c181818 	ldccc	8, cr1, [r8], {24}
80101910:	00000000 	andeq	r0, r0, r0
80101914:	1000c600 	andne	ip, r0, r0, lsl #12
80101918:	c6c66c38 			; <UNDEFINED> instruction: 0xc6c66c38
8010191c:	c6c6c6fe 			; <UNDEFINED> instruction: 0xc6c6c6fe
80101920:	00000000 	andeq	r0, r0, r0
80101924:	10386c38 	eorsne	r6, r8, r8, lsr ip
80101928:	fec66c38 	mcr2	12, 6, r6, cr6, cr8, {1}
8010192c:	c6c6c6c6 	strbgt	ip, [r6], r6, asr #13
80101930:	00000000 	andeq	r0, r0, r0
80101934:	fe00180c 	cdp2	8, 0, cr1, cr0, cr12, {0}
80101938:	78686266 	stmdavc	r8!, {r1, r2, r5, r6, r9, sp, lr}^
8010193c:	fe666268 	cdp2	2, 6, cr6, cr6, cr8, {3}
	...
80101948:	3636ec00 	ldrtcc	lr, [r6], -r0, lsl #24
8010194c:	6ed8d87e 	mrcvs	8, 6, sp, cr8, cr14, {3}
80101950:	00000000 	andeq	r0, r0, r0
80101954:	6c3e0000 	ldcvs	0, cr0, [lr], #-0
80101958:	ccfecccc 	ldclgt	12, cr12, [lr], #816	; 0x330
8010195c:	cecccccc 	cdpgt	12, 12, cr12, cr12, cr12, {6}
80101960:	00000000 	andeq	r0, r0, r0
80101964:	6c381000 	ldcvs	0, cr1, [r8], #-0
80101968:	c6c67c00 	strbgt	r7, [r6], r0, lsl #24
8010196c:	7cc6c6c6 	stclvc	6, cr12, [r6], {198}	; 0xc6
80101970:	00000000 	andeq	r0, r0, r0
80101974:	00c60000 	sbceq	r0, r6, r0
80101978:	c6c67c00 	strbgt	r7, [r6], r0, lsl #24
8010197c:	7cc6c6c6 	stclvc	6, cr12, [r6], {198}	; 0xc6
80101980:	00000000 	andeq	r0, r0, r0
80101984:	18306000 	ldmdane	r0!, {sp, lr}
80101988:	c6c67c00 	strbgt	r7, [r6], r0, lsl #24
8010198c:	7cc6c6c6 	stclvc	6, cr12, [r6], {198}	; 0xc6
80101990:	00000000 	andeq	r0, r0, r0
80101994:	cc783000 	ldclgt	0, cr3, [r8], #-0
80101998:	cccccc00 	stclgt	12, cr12, [ip], {0}
8010199c:	76cccccc 	strbvc	ip, [ip], ip, asr #25
801019a0:	00000000 	andeq	r0, r0, r0
801019a4:	18306000 	ldmdane	r0!, {sp, lr}
801019a8:	cccccc00 	stclgt	12, cr12, [ip], {0}
801019ac:	76cccccc 	strbvc	ip, [ip], ip, asr #25
801019b0:	00000000 	andeq	r0, r0, r0
801019b4:	00c60000 	sbceq	r0, r6, r0
801019b8:	c6c6c600 	strbgt	ip, [r6], r0, lsl #12
801019bc:	7ec6c6c6 	cdpvc	6, 12, cr12, cr6, cr6, {6}
801019c0:	00780c06 	rsbseq	r0, r8, r6, lsl #24
801019c4:	7c00c600 	stcvc	6, cr12, [r0], {-0}
801019c8:	c6c6c6c6 	strbgt	ip, [r6], r6, asr #13
801019cc:	7cc6c6c6 	stclvc	6, cr12, [r6], {198}	; 0xc6
801019d0:	00000000 	andeq	r0, r0, r0
801019d4:	c600c600 	strgt	ip, [r0], -r0, lsl #12
801019d8:	c6c6c6c6 	strbgt	ip, [r6], r6, asr #13
801019dc:	7cc6c6c6 	stclvc	6, cr12, [r6], {198}	; 0xc6
801019e0:	00000000 	andeq	r0, r0, r0
801019e4:	7c181800 	ldcvc	8, cr1, [r8], {-0}
801019e8:	c0c0c0c6 	sbcgt	ip, r0, r6, asr #1
801019ec:	18187cc6 	ldmdane	r8, {r1, r2, r6, r7, sl, fp, ip, sp, lr}
801019f0:	00000000 	andeq	r0, r0, r0
801019f4:	646c3800 	strbtvs	r3, [ip], #-2048	; 0xfffff800
801019f8:	6060f060 	rsbvs	pc, r0, r0, rrx
801019fc:	fce66060 	stc2l	0, cr6, [r6], #384	; 0x180
80101a00:	00000000 	andeq	r0, r0, r0
80101a04:	66660000 	strbtvs	r0, [r6], -r0
80101a08:	187e183c 	ldmdane	lr!, {r2, r3, r4, r5, fp, ip}^
80101a0c:	1818187e 	ldmdane	r8, {r1, r2, r3, r4, r5, r6, fp, ip}
80101a10:	00000000 	andeq	r0, r0, r0
80101a14:	ccccf800 	stclgt	8, cr15, [ip], {0}
80101a18:	deccc4f8 	mcrle	4, 6, ip, cr12, cr8, {7}
80101a1c:	c6cccccc 	strbgt	ip, [ip], ip, asr #25
80101a20:	00000000 	andeq	r0, r0, r0
80101a24:	181b0e00 	ldmdane	fp, {r9, sl, fp}
80101a28:	187e1818 	ldmdane	lr!, {r3, r4, fp, ip}^
80101a2c:	70d81818 	sbcsvc	r1, r8, r8, lsl r8
80101a30:	00000000 	andeq	r0, r0, r0
80101a34:	60301800 	eorsvs	r1, r0, r0, lsl #16
80101a38:	7c0c7800 	stcvc	8, cr7, [ip], {-0}
80101a3c:	76cccccc 	strbvc	ip, [ip], ip, asr #25
80101a40:	00000000 	andeq	r0, r0, r0
80101a44:	30180c00 	andscc	r0, r8, r0, lsl #24
80101a48:	18183800 	ldmdane	r8, {fp, ip, sp}
80101a4c:	3c181818 	ldccc	8, cr1, [r8], {24}
80101a50:	00000000 	andeq	r0, r0, r0
80101a54:	60301800 	eorsvs	r1, r0, r0, lsl #16
80101a58:	c6c67c00 	strbgt	r7, [r6], r0, lsl #24
80101a5c:	7cc6c6c6 	stclvc	6, cr12, [r6], {198}	; 0xc6
80101a60:	00000000 	andeq	r0, r0, r0
80101a64:	60301800 	eorsvs	r1, r0, r0, lsl #16
80101a68:	cccccc00 	stclgt	12, cr12, [ip], {0}
80101a6c:	76cccccc 	strbvc	ip, [ip], ip, asr #25
80101a70:	00000000 	andeq	r0, r0, r0
80101a74:	dc760000 	ldclle	0, cr0, [r6], #-0
80101a78:	6666dc00 	strbtvs	sp, [r6], -r0, lsl #24
80101a7c:	66666666 	strbtvs	r6, [r6], -r6, ror #12
80101a80:	00000000 	andeq	r0, r0, r0
80101a84:	c600dc76 			; <UNDEFINED> instruction: 0xc600dc76
80101a88:	defef6e6 	cdple	6, 15, cr15, cr14, cr6, {7}
80101a8c:	c6c6c6ce 	strbgt	ip, [r6], lr, asr #13
80101a90:	00000000 	andeq	r0, r0, r0
80101a94:	6c3c0000 	ldcvs	0, cr0, [ip], #-0
80101a98:	7e003e6c 	cdpvc	14, 0, cr3, cr0, cr12, {3}
	...
80101aa4:	6c380000 	ldcvs	0, cr0, [r8], #-0
80101aa8:	7c00386c 	stcvc	8, cr3, [r0], {108}	; 0x6c
	...
80101ab4:	30300000 	eorscc	r0, r0, r0
80101ab8:	60303000 	eorsvs	r3, r0, r0
80101abc:	7cc6c6c0 	stclvc	6, cr12, [r6], {192}	; 0xc0
	...
80101ac8:	c0fe0000 	rscsgt	r0, lr, r0
80101acc:	00c0c0c0 	sbceq	ip, r0, r0, asr #1
	...
80101ad8:	06fe0000 	ldrbteq	r0, [lr], r0
80101adc:	00060606 	andeq	r0, r6, r6, lsl #12
80101ae0:	00000000 	andeq	r0, r0, r0
80101ae4:	62e06000 	rscvs	r6, r0, #0
80101ae8:	30186c66 	andscc	r6, r8, r6, ror #24
80101aec:	0c86dc60 	stceq	12, cr13, [r6], {96}	; 0x60
80101af0:	00003e18 	andeq	r3, r0, r8, lsl lr
80101af4:	62e06000 	rscvs	r6, r0, #0
80101af8:	30186c66 	andscc	r6, r8, r6, ror #24
80101afc:	3f9ace66 	svccc	0x009ace66
80101b00:	00000606 	andeq	r0, r0, r6, lsl #12
80101b04:	18180000 	ldmdane	r8, {}	; <UNPREDICTABLE>
80101b08:	18181800 	ldmdane	r8, {fp, ip}
80101b0c:	183c3c3c 	ldmdane	ip!, {r2, r3, r4, r5, sl, fp, ip, sp}
	...
80101b18:	d86c3600 	stmdale	ip!, {r9, sl, ip, sp}^
80101b1c:	0000366c 	andeq	r3, r0, ip, ror #12
	...
80101b28:	366cd800 	strbtcc	sp, [ip], -r0, lsl #16
80101b2c:	0000d86c 	andeq	sp, r0, ip, ror #16
80101b30:	00000000 	andeq	r0, r0, r0
80101b34:	44114411 	ldrmi	r4, [r1], #-1041	; 0xfffffbef
80101b38:	44114411 	ldrmi	r4, [r1], #-1041	; 0xfffffbef
80101b3c:	44114411 	ldrmi	r4, [r1], #-1041	; 0xfffffbef
80101b40:	44114411 	ldrmi	r4, [r1], #-1041	; 0xfffffbef
80101b44:	aa55aa55 	bge	8166c4a0 <__bss_end+0x156a38c>
80101b48:	aa55aa55 	bge	8166c4a4 <__bss_end+0x156a390>
80101b4c:	aa55aa55 	bge	8166c4a8 <__bss_end+0x156a394>
80101b50:	aa55aa55 	bge	8166c4ac <__bss_end+0x156a398>
80101b54:	77dd77dd 			; <UNDEFINED> instruction: 0x77dd77dd
80101b58:	77dd77dd 			; <UNDEFINED> instruction: 0x77dd77dd
80101b5c:	77dd77dd 			; <UNDEFINED> instruction: 0x77dd77dd
80101b60:	77dd77dd 			; <UNDEFINED> instruction: 0x77dd77dd
80101b64:	18181818 	ldmdane	r8, {r3, r4, fp, ip}
80101b68:	18181818 	ldmdane	r8, {r3, r4, fp, ip}
80101b6c:	18181818 	ldmdane	r8, {r3, r4, fp, ip}
80101b70:	18181818 	ldmdane	r8, {r3, r4, fp, ip}
80101b74:	18181818 	ldmdane	r8, {r3, r4, fp, ip}
80101b78:	f8181818 			; <UNDEFINED> instruction: 0xf8181818
80101b7c:	18181818 	ldmdane	r8, {r3, r4, fp, ip}
80101b80:	18181818 	ldmdane	r8, {r3, r4, fp, ip}
80101b84:	18181818 	ldmdane	r8, {r3, r4, fp, ip}
80101b88:	f818f818 			; <UNDEFINED> instruction: 0xf818f818
80101b8c:	18181818 	ldmdane	r8, {r3, r4, fp, ip}
80101b90:	18181818 	ldmdane	r8, {r3, r4, fp, ip}
80101b94:	36363636 			; <UNDEFINED> instruction: 0x36363636
80101b98:	f6363636 			; <UNDEFINED> instruction: 0xf6363636
80101b9c:	36363636 			; <UNDEFINED> instruction: 0x36363636
80101ba0:	36363636 			; <UNDEFINED> instruction: 0x36363636
80101ba4:	00000000 	andeq	r0, r0, r0
80101ba8:	fe000000 	cdp2	0, 0, cr0, cr0, cr0, {0}
80101bac:	36363636 			; <UNDEFINED> instruction: 0x36363636
80101bb0:	36363636 			; <UNDEFINED> instruction: 0x36363636
80101bb4:	00000000 	andeq	r0, r0, r0
80101bb8:	f818f800 			; <UNDEFINED> instruction: 0xf818f800
80101bbc:	18181818 	ldmdane	r8, {r3, r4, fp, ip}
80101bc0:	18181818 	ldmdane	r8, {r3, r4, fp, ip}
80101bc4:	36363636 			; <UNDEFINED> instruction: 0x36363636
80101bc8:	f606f636 			; <UNDEFINED> instruction: 0xf606f636
80101bcc:	36363636 			; <UNDEFINED> instruction: 0x36363636
80101bd0:	36363636 			; <UNDEFINED> instruction: 0x36363636
80101bd4:	36363636 			; <UNDEFINED> instruction: 0x36363636
80101bd8:	36363636 			; <UNDEFINED> instruction: 0x36363636
80101bdc:	36363636 			; <UNDEFINED> instruction: 0x36363636
80101be0:	36363636 			; <UNDEFINED> instruction: 0x36363636
80101be4:	00000000 	andeq	r0, r0, r0
80101be8:	f606fe00 			; <UNDEFINED> instruction: 0xf606fe00
80101bec:	36363636 			; <UNDEFINED> instruction: 0x36363636
80101bf0:	36363636 			; <UNDEFINED> instruction: 0x36363636
80101bf4:	36363636 			; <UNDEFINED> instruction: 0x36363636
80101bf8:	fe06f636 	mcr2	6, 0, pc, cr6, cr6, {1}	; <UNPREDICTABLE>
	...
80101c04:	36363636 			; <UNDEFINED> instruction: 0x36363636
80101c08:	fe363636 	mrc2	6, 1, r3, cr6, cr6, {1}
	...
80101c14:	18181818 	ldmdane	r8, {r3, r4, fp, ip}
80101c18:	f818f818 			; <UNDEFINED> instruction: 0xf818f818
	...
80101c28:	f8000000 			; <UNDEFINED> instruction: 0xf8000000
80101c2c:	18181818 	ldmdane	r8, {r3, r4, fp, ip}
80101c30:	18181818 	ldmdane	r8, {r3, r4, fp, ip}
80101c34:	18181818 	ldmdane	r8, {r3, r4, fp, ip}
80101c38:	1f181818 	svcne	0x00181818
	...
80101c44:	18181818 	ldmdane	r8, {r3, r4, fp, ip}
80101c48:	ff181818 			; <UNDEFINED> instruction: 0xff181818
	...
80101c58:	ff000000 			; <UNDEFINED> instruction: 0xff000000
80101c5c:	18181818 	ldmdane	r8, {r3, r4, fp, ip}
80101c60:	18181818 	ldmdane	r8, {r3, r4, fp, ip}
80101c64:	18181818 	ldmdane	r8, {r3, r4, fp, ip}
80101c68:	1f181818 	svcne	0x00181818
80101c6c:	18181818 	ldmdane	r8, {r3, r4, fp, ip}
80101c70:	18181818 	ldmdane	r8, {r3, r4, fp, ip}
80101c74:	00000000 	andeq	r0, r0, r0
80101c78:	ff000000 			; <UNDEFINED> instruction: 0xff000000
	...
80101c84:	18181818 	ldmdane	r8, {r3, r4, fp, ip}
80101c88:	ff181818 			; <UNDEFINED> instruction: 0xff181818
80101c8c:	18181818 	ldmdane	r8, {r3, r4, fp, ip}
80101c90:	18181818 	ldmdane	r8, {r3, r4, fp, ip}
80101c94:	18181818 	ldmdane	r8, {r3, r4, fp, ip}
80101c98:	1f181f18 	svcne	0x00181f18
80101c9c:	18181818 	ldmdane	r8, {r3, r4, fp, ip}
80101ca0:	18181818 	ldmdane	r8, {r3, r4, fp, ip}
80101ca4:	36363636 			; <UNDEFINED> instruction: 0x36363636
80101ca8:	37363636 			; <UNDEFINED> instruction: 0x37363636
80101cac:	36363636 			; <UNDEFINED> instruction: 0x36363636
80101cb0:	36363636 			; <UNDEFINED> instruction: 0x36363636
80101cb4:	36363636 			; <UNDEFINED> instruction: 0x36363636
80101cb8:	3f303736 	svccc	0x00303736
	...
80101cc8:	37303f00 	ldrcc	r3, [r0, -r0, lsl #30]!
80101ccc:	36363636 			; <UNDEFINED> instruction: 0x36363636
80101cd0:	36363636 			; <UNDEFINED> instruction: 0x36363636
80101cd4:	36363636 			; <UNDEFINED> instruction: 0x36363636
80101cd8:	ff00f736 			; <UNDEFINED> instruction: 0xff00f736
	...
80101ce8:	f700ff00 			; <UNDEFINED> instruction: 0xf700ff00
80101cec:	36363636 			; <UNDEFINED> instruction: 0x36363636
80101cf0:	36363636 			; <UNDEFINED> instruction: 0x36363636
80101cf4:	36363636 			; <UNDEFINED> instruction: 0x36363636
80101cf8:	37303736 			; <UNDEFINED> instruction: 0x37303736
80101cfc:	36363636 			; <UNDEFINED> instruction: 0x36363636
80101d00:	36363636 			; <UNDEFINED> instruction: 0x36363636
80101d04:	00000000 	andeq	r0, r0, r0
80101d08:	ff00ff00 			; <UNDEFINED> instruction: 0xff00ff00
	...
80101d14:	36363636 			; <UNDEFINED> instruction: 0x36363636
80101d18:	f700f736 			; <UNDEFINED> instruction: 0xf700f736
80101d1c:	36363636 			; <UNDEFINED> instruction: 0x36363636
80101d20:	36363636 			; <UNDEFINED> instruction: 0x36363636
80101d24:	18181818 	ldmdane	r8, {r3, r4, fp, ip}
80101d28:	ff00ff18 			; <UNDEFINED> instruction: 0xff00ff18
	...
80101d34:	36363636 			; <UNDEFINED> instruction: 0x36363636
80101d38:	ff363636 			; <UNDEFINED> instruction: 0xff363636
	...
80101d48:	ff00ff00 			; <UNDEFINED> instruction: 0xff00ff00
80101d4c:	18181818 	ldmdane	r8, {r3, r4, fp, ip}
80101d50:	18181818 	ldmdane	r8, {r3, r4, fp, ip}
80101d54:	00000000 	andeq	r0, r0, r0
80101d58:	ff000000 			; <UNDEFINED> instruction: 0xff000000
80101d5c:	36363636 			; <UNDEFINED> instruction: 0x36363636
80101d60:	36363636 			; <UNDEFINED> instruction: 0x36363636
80101d64:	36363636 			; <UNDEFINED> instruction: 0x36363636
80101d68:	3f363636 	svccc	0x00363636
	...
80101d74:	18181818 	ldmdane	r8, {r3, r4, fp, ip}
80101d78:	1f181f18 	svcne	0x00181f18
	...
80101d88:	1f181f00 	svcne	0x00181f00
80101d8c:	18181818 	ldmdane	r8, {r3, r4, fp, ip}
80101d90:	18181818 	ldmdane	r8, {r3, r4, fp, ip}
80101d94:	00000000 	andeq	r0, r0, r0
80101d98:	3f000000 	svccc	0x00000000
80101d9c:	36363636 			; <UNDEFINED> instruction: 0x36363636
80101da0:	36363636 			; <UNDEFINED> instruction: 0x36363636
80101da4:	36363636 			; <UNDEFINED> instruction: 0x36363636
80101da8:	ff363636 			; <UNDEFINED> instruction: 0xff363636
80101dac:	36363636 			; <UNDEFINED> instruction: 0x36363636
80101db0:	36363636 			; <UNDEFINED> instruction: 0x36363636
80101db4:	18181818 	ldmdane	r8, {r3, r4, fp, ip}
80101db8:	ff18ff18 			; <UNDEFINED> instruction: 0xff18ff18
80101dbc:	18181818 	ldmdane	r8, {r3, r4, fp, ip}
80101dc0:	18181818 	ldmdane	r8, {r3, r4, fp, ip}
80101dc4:	18181818 	ldmdane	r8, {r3, r4, fp, ip}
80101dc8:	f8181818 			; <UNDEFINED> instruction: 0xf8181818
	...
80101dd8:	1f000000 	svcne	0x00000000
80101ddc:	18181818 	ldmdane	r8, {r3, r4, fp, ip}
80101de0:	18181818 	ldmdane	r8, {r3, r4, fp, ip}
80101de4:	ffffffff 			; <UNDEFINED> instruction: 0xffffffff
80101de8:	ffffffff 			; <UNDEFINED> instruction: 0xffffffff
80101dec:	ffffffff 			; <UNDEFINED> instruction: 0xffffffff
80101df0:	ffffffff 			; <UNDEFINED> instruction: 0xffffffff
80101df4:	00000000 	andeq	r0, r0, r0
80101df8:	ff000000 			; <UNDEFINED> instruction: 0xff000000
80101dfc:	ffffffff 			; <UNDEFINED> instruction: 0xffffffff
80101e00:	ffffffff 			; <UNDEFINED> instruction: 0xffffffff
80101e04:	f0f0f0f0 			; <UNDEFINED> instruction: 0xf0f0f0f0
80101e08:	f0f0f0f0 			; <UNDEFINED> instruction: 0xf0f0f0f0
80101e0c:	f0f0f0f0 			; <UNDEFINED> instruction: 0xf0f0f0f0
80101e10:	f0f0f0f0 			; <UNDEFINED> instruction: 0xf0f0f0f0
80101e14:	0f0f0f0f 	svceq	0x000f0f0f
80101e18:	0f0f0f0f 	svceq	0x000f0f0f
80101e1c:	0f0f0f0f 	svceq	0x000f0f0f
80101e20:	0f0f0f0f 	svceq	0x000f0f0f
80101e24:	ffffffff 			; <UNDEFINED> instruction: 0xffffffff
80101e28:	00ffffff 	ldrshteq	pc, [pc], #255	; <UNPREDICTABLE>
	...
80101e38:	d8dc7600 	ldmle	ip, {r9, sl, ip, sp, lr}^
80101e3c:	76dcd8d8 			; <UNDEFINED> instruction: 0x76dcd8d8
80101e40:	00000000 	andeq	r0, r0, r0
80101e44:	cc780000 	ldclgt	0, cr0, [r8], #-0
80101e48:	ccd8cccc 	ldclgt	12, cr12, [r8], {204}	; 0xcc
80101e4c:	ccc6c6c6 	stclgt	6, cr12, [r6], {198}	; 0xc6
80101e50:	00000000 	andeq	r0, r0, r0
80101e54:	c6fe0000 	ldrbtgt	r0, [lr], r0
80101e58:	c0c0c0c6 	sbcgt	ip, r0, r6, asr #1
80101e5c:	c0c0c0c0 	sbcgt	ip, r0, r0, asr #1
	...
80101e68:	6c6cfe00 	stclvs	14, cr15, [ip], #-0
80101e6c:	6c6c6c6c 	stclvs	12, cr6, [ip], #-432	; 0xfffffe50
80101e70:	00000000 	andeq	r0, r0, r0
80101e74:	c6fe0000 	ldrbtgt	r0, [lr], r0
80101e78:	18183060 	ldmdane	r8, {r5, r6, ip, sp}
80101e7c:	fec66030 	mcr2	0, 6, r6, cr6, cr0, {1}
	...
80101e88:	d8d87e00 	ldmle	r8, {r9, sl, fp, ip, sp, lr}^
80101e8c:	70d8d8d8 	ldrsbvc	sp, [r8], #136	; 0x88
	...
80101e98:	66666600 	strbtvs	r6, [r6], -r0, lsl #12
80101e9c:	7c666666 	stclvc	6, cr6, [r6], #-408	; 0xfffffe68
80101ea0:	00c06060 	sbceq	r6, r0, r0, rrx
80101ea4:	00000000 	andeq	r0, r0, r0
80101ea8:	1818dc76 	ldmdane	r8, {r1, r2, r4, r5, r6, sl, fp, ip, lr, pc}
80101eac:	18181818 	ldmdane	r8, {r3, r4, fp, ip}
80101eb0:	00000000 	andeq	r0, r0, r0
80101eb4:	187e0000 	ldmdane	lr!, {}^	; <UNPREDICTABLE>
80101eb8:	6666663c 			; <UNDEFINED> instruction: 0x6666663c
80101ebc:	7e183c66 	cdpvc	12, 1, cr3, cr8, cr6, {3}
80101ec0:	00000000 	andeq	r0, r0, r0
80101ec4:	6c380000 	ldcvs	0, cr0, [r8], #-0
80101ec8:	c6fec6c6 	ldrbtgt	ip, [lr], r6, asr #13
80101ecc:	386cc6c6 	stmdacc	ip!, {r1, r2, r6, r7, r9, sl, lr, pc}^
80101ed0:	00000000 	andeq	r0, r0, r0
80101ed4:	6c380000 	ldcvs	0, cr0, [r8], #-0
80101ed8:	6cc6c6c6 	stclvs	6, cr12, [r6], {198}	; 0xc6
80101edc:	ee6c6c6c 	cdp	12, 6, cr6, cr12, cr12, {3}
80101ee0:	00000000 	andeq	r0, r0, r0
80101ee4:	301e0000 	andscc	r0, lr, r0
80101ee8:	663e0c18 			; <UNDEFINED> instruction: 0x663e0c18
80101eec:	3c666666 	stclcc	6, cr6, [r6], #-408	; 0xfffffe68
	...
80101ef8:	dbdb7e00 	blle	7f7e1700 <_start-0x91e900>
80101efc:	00007edb 	ldrdeq	r7, [r0], -fp
80101f00:	00000000 	andeq	r0, r0, r0
80101f04:	03000000 	movweq	r0, #0
80101f08:	dbdb7e06 	blle	7f7e1728 <_start-0x91e8d8>
80101f0c:	c0607ef3 	strdgt	r7, [r0], #-227	; 0xffffff1d	; <UNPREDICTABLE>
80101f10:	00000000 	andeq	r0, r0, r0
80101f14:	301c0000 	andscc	r0, ip, r0
80101f18:	607c6060 	rsbsvs	r6, ip, r0, rrx
80101f1c:	1c306060 	ldcne	0, cr6, [r0], #-384	; 0xfffffe80
80101f20:	00000000 	andeq	r0, r0, r0
80101f24:	7c000000 	stcvc	0, cr0, [r0], {-0}
80101f28:	c6c6c6c6 	strbgt	ip, [r6], r6, asr #13
80101f2c:	c6c6c6c6 	strbgt	ip, [r6], r6, asr #13
	...
80101f38:	fe0000fe 	mcr2	0, 0, r0, cr0, cr14, {7}
80101f3c:	00fe0000 	rscseq	r0, lr, r0
	...
80101f48:	187e1818 	ldmdane	lr!, {r3, r4, fp, ip}^
80101f4c:	7e000018 	mcrvc	0, 0, r0, cr0, cr8, {0}
80101f50:	00000000 	andeq	r0, r0, r0
80101f54:	30000000 	andcc	r0, r0, r0
80101f58:	0c060c18 	stceq	12, cr0, [r6], {24}
80101f5c:	7e003018 	mcrvc	0, 0, r3, cr0, cr8, {0}
80101f60:	00000000 	andeq	r0, r0, r0
80101f64:	0c000000 	stceq	0, cr0, [r0], {-0}
80101f68:	30603018 	rsbcc	r3, r0, r8, lsl r0
80101f6c:	7e000c18 	mcrvc	12, 0, r0, cr0, cr8, {0}
80101f70:	00000000 	andeq	r0, r0, r0
80101f74:	1b0e0000 	blne	80481f7c <__bss_end+0x37fe68>
80101f78:	1818181b 	ldmdane	r8, {r0, r1, r3, r4, fp, ip}
80101f7c:	18181818 	ldmdane	r8, {r3, r4, fp, ip}
80101f80:	18181818 	ldmdane	r8, {r3, r4, fp, ip}
80101f84:	18181818 	ldmdane	r8, {r3, r4, fp, ip}
80101f88:	18181818 	ldmdane	r8, {r3, r4, fp, ip}
80101f8c:	d8d8d818 	ldmle	r8, {r3, r4, fp, ip, lr, pc}^
80101f90:	00000070 	andeq	r0, r0, r0, ror r0
80101f94:	00000000 	andeq	r0, r0, r0
80101f98:	7e001800 	cdpvc	8, 0, cr1, cr0, cr0, {0}
80101f9c:	00001800 	andeq	r1, r0, r0, lsl #16
	...
80101fa8:	00dc7600 	sbcseq	r7, ip, r0, lsl #12
80101fac:	0000dc76 	andeq	sp, r0, r6, ror ip
80101fb0:	00000000 	andeq	r0, r0, r0
80101fb4:	6c6c3800 	stclvs	8, cr3, [ip], #-0
80101fb8:	00000038 	andeq	r0, r0, r8, lsr r0
	...
80101fc8:	18000000 	stmdane	r0, {}	; <UNPREDICTABLE>
80101fcc:	00000018 	andeq	r0, r0, r8, lsl r0
	...
80101fd8:	18000000 	stmdane	r0, {}	; <UNPREDICTABLE>
	...
80101fe4:	0c0c0f00 	stceq	15, cr0, [ip], {-0}
80101fe8:	ec0c0c0c 	stc	12, cr0, [ip], {12}
80101fec:	1c3c6c6c 	ldcne	12, cr6, [ip], #-432	; 0xfffffe50
80101ff0:	00000000 	andeq	r0, r0, r0
80101ff4:	36366c00 	ldrtcc	r6, [r6], -r0, lsl #24
80101ff8:	00363636 	eorseq	r3, r6, r6, lsr r6
	...
80102004:	0c663c00 	stcleq	12, cr3, [r6], #-0
80102008:	007e3218 	rsbseq	r3, lr, r8, lsl r2
	...
80102018:	7e7e7e7e 	mrcvc	14, 3, r7, cr14, cr14, {3}
8010201c:	007e7e7e 	rsbseq	r7, lr, lr, ror lr
	...

80102034 <.LC0>:
80102034:	36786d49 	ldrbtcc	r6, [r8], -r9, asr #26
80102038:	006c6c75 	rsbeq	r6, ip, r5, ror ip

8010203c <.LC1>:
8010203c:	5f64636c 	svcpl	0x0064636c
80102040:	00302e37 	eorseq	r2, r0, r7, lsr lr
80102044:	5f64636c 	svcpl	0x0064636c
80102048:	00302e37 	eorseq	r2, r0, r7, lsr lr
8010204c:	36786d49 	ldrbtcc	r6, [r8], -r9, asr #26
80102050:	006c6c75 	rsbeq	r6, ip, r5, ror ip

Disassembly of section .data:

80102054 <lcd_7_0_params>:
80102054:	80102044 	andshi	r2, r0, r4, asr #32
80102058:	00000001 	andeq	r0, r0, r1
8010205c:	00000001 	andeq	r0, r0, r1
	...
80102068:	00000003 	andeq	r0, r0, r3
8010206c:	00000014 	andeq	r0, r0, r4, lsl r0
80102070:	0000000c 	andeq	r0, r0, ip
80102074:	00000014 	andeq	r0, r0, r4, lsl r0
80102078:	0000008c 	andeq	r0, r0, ip, lsl #1
8010207c:	000000a0 	andeq	r0, r0, r0, lsr #1
80102080:	00000033 	andeq	r0, r0, r3, lsr r0
80102084:	00000400 	andeq	r0, r0, r0, lsl #8
80102088:	00000258 	andeq	r0, r0, r8, asr r2
8010208c:	00000010 	andeq	r0, r0, r0, lsl r0
80102090:	99000000 	stmdbls	r0, {}	; <UNPREDICTABLE>

80102094 <GPIO1_IO08_PAD>:
80102094:	020e0308 	andeq	r0, lr, #8, 6	; 0x20000000

80102098 <GPIO1_GDIR>:
80102098:	0209c000 	andeq	ip, r9, #0

8010209c <GPIO1_DR>:
8010209c:	0209c004 	andeq	ip, r9, #4

801020a0 <Imx6ull_lcd_controller>:
801020a0:	8010204c 	andshi	r2, r0, ip, asr #32
801020a4:	80100d19 	andshi	r0, r0, r9, lsl sp
801020a8:	80100faf 	andshi	r0, r0, pc, lsr #31
801020ac:	80100fd5 			; <UNDEFINED> instruction: 0x80100fd5

Disassembly of section .bss:

801020b0 <__bss_start>:
801020b0:	00000000 	andeq	r0, r0, r0

801020b4 <xres>:
801020b4:	00000000 	andeq	r0, r0, r0

801020b8 <yres>:
801020b8:	00000000 	andeq	r0, r0, r0

801020bc <bpp>:
801020bc:	00000000 	andeq	r0, r0, r0

801020c0 <fb_base>:
801020c0:	00000000 	andeq	r0, r0, r0

801020c4 <xres>:
801020c4:	00000000 	andeq	r0, r0, r0

801020c8 <yres>:
801020c8:	00000000 	andeq	r0, r0, r0

801020cc <bpp>:
801020cc:	00000000 	andeq	r0, r0, r0

801020d0 <p_array_lcd_controller>:
	...

801020f8 <g_p_lcd_controller_selected>:
801020f8:	00000000 	andeq	r0, r0, r0

801020fc <p_array_lcd>:
	...

80102110 <g_p_lcd_selected>:
80102110:	00000000 	andeq	r0, r0, r0

Disassembly of section .ARM.attributes:

00000000 <.ARM.attributes>:
   0:	00002e41 	andeq	r2, r0, r1, asr #28
   4:	61656100 	cmnvs	r5, r0, lsl #2
   8:	01006962 	tsteq	r0, r2, ror #18
   c:	00000024 	andeq	r0, r0, r4, lsr #32
  10:	412d3705 			; <UNDEFINED> instruction: 0x412d3705
  14:	070a0600 	streq	r0, [sl, -r0, lsl #12]
  18:	09010841 	stmdbeq	r1, {r0, r6, fp}
  1c:	12040a02 	andne	r0, r4, #8192	; 0x2000
  20:	15011404 	strne	r1, [r1, #-1028]	; 0xfffffbfc
  24:	18031701 	stmdane	r3, {r0, r8, r9, sl, ip}
  28:	1c021a01 			; <UNDEFINED> instruction: 0x1c021a01
  2c:	Address 0x000000000000002c is out of bounds.


Disassembly of section .comment:

00000000 <.comment>:
   0:	3a434347 	bcc	10d0d24 <_start-0x7f02f2dc>
   4:	694c2820 	stmdbvs	ip, {r5, fp, sp}^
   8:	6f72616e 	svcvs	0x0072616e
   c:	43434720 	movtmi	r4, #14112	; 0x3720
  10:	322e3620 	eorcc	r3, lr, #32, 12	; 0x2000000
  14:	3130322d 	teqcc	r0, sp, lsr #4
  18:	31312e36 	teqcc	r1, r6, lsr lr
  1c:	2e362029 	cdpcs	0, 3, cr2, cr6, cr9, {1}
  20:	20312e32 	eorscs	r2, r1, r2, lsr lr
  24:	36313032 			; <UNDEFINED> instruction: 0x36313032
  28:	36313031 			; <UNDEFINED> instruction: 0x36313031
	...

Disassembly of section .debug_line:

00000000 <.debug_line>:
   0:	00000043 	andeq	r0, r0, r3, asr #32
   4:	001e0002 	andseq	r0, lr, r2
   8:	01020000 	mrseq	r0, (UNDEF: 2)
   c:	000d0efb 	strdeq	r0, [sp], -fp
  10:	01010101 	tsteq	r1, r1, lsl #2
  14:	01000000 	mrseq	r0, (UNDEF: 0)
  18:	00010000 	andeq	r0, r1, r0
  1c:	72617473 	rsbvc	r7, r1, #1929379840	; 0x73000000
  20:	00532e74 	subseq	r2, r3, r4, ror lr
  24:	00000000 	andeq	r0, r0, r0
  28:	00020500 	andeq	r0, r2, r0, lsl #10
  2c:	18801000 	stmne	r0, {ip}
  30:	32313030 	eorscc	r3, r1, #48	; 0x30
  34:	2f302f2f 	svccs	0x00302f2f
  38:	03302f2f 	teqeq	r0, #47, 30	; 0xbc
  3c:	0b032e6c 	bleq	cb9f4 <_start-0x8003460c>
  40:	02022f2e 	andeq	r2, r2, #46, 30	; 0xb8
  44:	0b010100 	bleq	4044c <_start-0x800bfbb4>
  48:	02000001 	andeq	r0, r0, #1
  4c:	00001d00 	andeq	r1, r0, r0, lsl #26
  50:	fb010200 	blx	4085a <_start-0x800bf7a6>
  54:	01000d0e 	tsteq	r0, lr, lsl #26
  58:	00010101 	andeq	r0, r1, r1, lsl #2
  5c:	00010000 	andeq	r0, r1, r0
  60:	6d000100 	stfvss	f0, [r0, #-0]
  64:	2e6e6961 	vnmulcs.f16	s13, s28, s3	; <UNPREDICTABLE>
  68:	00000063 	andeq	r0, r0, r3, rrx
  6c:	05000000 	streq	r0, [r0, #-0]
  70:	10003c02 	andne	r3, r0, r2, lsl #24
  74:	31441880 	smlalbbcc	r1, r4, r0, r8
  78:	3d2f4285 	sfmcc	f4, 4, [pc, #-532]!	; fffffe6c <__bss_end+0x7fefdd58>
  7c:	03040200 	movweq	r0, #16896	; 0x4200
  80:	0402003d 	streq	r0, [r2], #-61	; 0xffffffc3
  84:	02006503 	andeq	r6, r0, #12582912	; 0xc00000
  88:	3c060104 	stfccs	f0, [r6], {4}
  8c:	02040200 	andeq	r0, r4, #0, 4
  90:	02004906 	andeq	r4, r0, #98304	; 0x18000
  94:	3c060104 	stfccs	f0, [r6], {4}
  98:	3d2f4f06 	stccc	15, cr4, [pc, #-24]!	; 88 <_start-0x800fff78>
  9c:	03040200 	movweq	r0, #16896	; 0x4200
  a0:	0402003d 	streq	r0, [r2], #-61	; 0xffffffc3
  a4:	02006503 	andeq	r6, r0, #12582912	; 0xc00000
  a8:	3c060104 	stfccs	f0, [r6], {4}
  ac:	02040200 	andeq	r0, r4, #0, 4
  b0:	02004906 	andeq	r4, r0, #98304	; 0x18000
  b4:	3c060104 	stfccs	f0, [r6], {4}
  b8:	3d2f4f06 	stccc	15, cr4, [pc, #-24]!	; a8 <_start-0x800fff58>
  bc:	03040200 	movweq	r0, #16896	; 0x4200
  c0:	0402003d 	streq	r0, [r2], #-61	; 0xffffffc3
  c4:	02005703 	andeq	r5, r0, #786432	; 0xc0000
  c8:	3c060104 	stfccs	f0, [r6], {4}
  cc:	02040200 	andeq	r0, r4, #0, 4
  d0:	02004906 	andeq	r4, r0, #98304	; 0x18000
  d4:	3c060104 	stfccs	f0, [r6], {4}
  d8:	2f425d06 	svccs	0x00425d06
  dc:	0402003d 	streq	r0, [r2], #-61	; 0xffffffc3
  e0:	02003d03 	andeq	r3, r0, #3, 26	; 0xc0
  e4:	00650304 	rsbeq	r0, r5, r4, lsl #6
  e8:	06010402 	streq	r0, [r1], -r2, lsl #8
  ec:	0402003c 	streq	r0, [r2], #-60	; 0xffffffc4
  f0:	00490602 	subeq	r0, r9, r2, lsl #12
  f4:	06010402 	streq	r0, [r1], -r2, lsl #8
  f8:	2f4f063c 	svccs	0x004f063c
  fc:	0402003d 	streq	r0, [r2], #-61	; 0xffffffc3
 100:	02003d03 	andeq	r3, r0, #3, 26	; 0xc0
 104:	00650304 	rsbeq	r0, r5, r4, lsl #6
 108:	06010402 	streq	r0, [r1], -r2, lsl #8
 10c:	0402003c 	streq	r0, [r2], #-60	; 0xffffffc4
 110:	00490602 	subeq	r0, r9, r2, lsl #12
 114:	06010402 	streq	r0, [r1], -r2, lsl #8
 118:	2f4f063c 	svccs	0x004f063c
 11c:	0402003d 	streq	r0, [r2], #-61	; 0xffffffc3
 120:	02003d03 	andeq	r3, r0, #3, 26	; 0xc0
 124:	00570304 	subseq	r0, r7, r4, lsl #6
 128:	06010402 	streq	r0, [r1], -r2, lsl #8
 12c:	0402003c 	streq	r0, [r2], #-60	; 0xffffffc4
 130:	00490602 	subeq	r0, r9, r2, lsl #12
 134:	06010402 	streq	r0, [r1], -r2, lsl #8
 138:	3052063c 	subscc	r0, r2, ip, lsr r6
 13c:	e5679f68 	strb	r9, [r7, #-3944]!	; 0xfffff098
 140:	bb67d767 	bllt	19f5ee4 <_start-0x7e70a11c>
 144:	d767d767 	strble	sp, [r7, -r7, ror #14]!
 148:	315d0869 	cmpcc	sp, r9, ror #16
 14c:	31304fa1 	teqcc	r0, r1, lsr #31
 150:	0002023e 	andeq	r0, r2, lr, lsr r2
 154:	00740101 	rsbseq	r0, r4, r1, lsl #2
 158:	00020000 	andeq	r0, r2, r0
 15c:	0000001d 	andeq	r0, r0, sp, lsl r0
 160:	0efb0102 	cdpeq	1, 15, cr0, cr11, cr2, {0}
 164:	0101000d 	tsteq	r1, sp
 168:	00000101 	andeq	r0, r0, r1, lsl #2
 16c:	00000100 	andeq	r0, r0, r0, lsl #2
 170:	6f660001 	svcvs	0x00660001
 174:	632e746e 			; <UNDEFINED> instruction: 0x632e746e
 178:	00000000 	andeq	r0, r0, r0
 17c:	02050000 	andeq	r0, r5, #0
 180:	80100304 	andshi	r0, r0, r4, lsl #6
 184:	2f011403 	svccs	0x00011403
 188:	0d032108 	stfeqs	f2, [r3, #-32]	; 0xffffffe0
 18c:	3e88862e 	cdpcc	6, 8, cr8, cr8, cr14, {1}
 190:	833f2f59 	teqhi	pc, #356	; 0x164
 194:	02040200 	andeq	r0, r4, #0, 4
 198:	04020059 	streq	r0, [r2], #-89	; 0xffffffa7
 19c:	02003702 	andeq	r3, r0, #524288	; 0x80000
 1a0:	3c060104 	stfccs	f0, [r6], {4}
 1a4:	02040200 	andeq	r0, r4, #0, 4
 1a8:	02006206 	andeq	r6, r0, #1610612736	; 0x60000000
 1ac:	3c060104 	stfccs	f0, [r6], {4}
 1b0:	660c0306 	strvs	r0, [ip], -r6, lsl #6
 1b4:	754a0e03 	strbvc	r0, [sl, #-3587]	; 0xfffff1fd
 1b8:	4b672230 	blmi	19c8a80 <_start-0x7e737580>
 1bc:	3d914067 	ldccc	0, cr4, [r1, #412]	; 0x19c
 1c0:	033f2f84 	teqeq	pc, #132, 30	; 0x210
 1c4:	13033c6f 	movwne	r3, #15471	; 0x3c6f
 1c8:	00040266 	andeq	r0, r4, r6, ror #4
 1cc:	00280101 	eoreq	r0, r8, r1, lsl #2
 1d0:	00020000 	andeq	r0, r2, r0
 1d4:	00000022 	andeq	r0, r0, r2, lsr #32
 1d8:	0efb0102 	cdpeq	1, 15, cr0, cr11, cr2, {0}
 1dc:	0101000d 	tsteq	r1, sp
 1e0:	00000101 	andeq	r0, r0, r1, lsl #2
 1e4:	00000100 	andeq	r0, r0, r0, lsl #2
 1e8:	6f660001 	svcvs	0x00660001
 1ec:	385f746e 	ldmdacc	pc, {r1, r2, r3, r5, r6, sl, ip, sp, lr}^	; <UNPREDICTABLE>
 1f0:	2e363178 	mrccs	1, 1, r3, cr6, cr8, {3}
 1f4:	00000063 	andeq	r0, r0, r3, rrx
 1f8:	00f80000 	rscseq	r0, r8, r0
 1fc:	00020000 	andeq	r0, r2, r0
 200:	00000021 	andeq	r0, r0, r1, lsr #32
 204:	0efb0102 	cdpeq	1, 15, cr0, cr11, cr2, {0}
 208:	0101000d 	tsteq	r1, sp
 20c:	00000101 	andeq	r0, r0, r1, lsl #2
 210:	00000100 	andeq	r0, r0, r0, lsl #2
 214:	65670001 	strbvs	r0, [r7, #-1]!
 218:	74656d6f 	strbtvc	r6, [r5], #-3439	; 0xfffff291
 21c:	632e7972 			; <UNDEFINED> instruction: 0x632e7972
 220:	00000000 	andeq	r0, r0, r0
 224:	02050000 	andeq	r0, r5, #0
 228:	8010043c 	andshi	r0, r0, ip, lsr r4
 22c:	76011d03 	strvc	r1, [r1], -r3, lsl #26
 230:	9f222f2f 	svcls	0x00222f2f
 234:	9fa09f9f 	svcls	0x00a09f9f
 238:	3da09f9f 	stccc	15, cr9, [r0, #636]!	; 0x27c
 23c:	033d3ee5 	teqeq	sp, #3664	; 0xe50
 240:	14033c6f 	strne	r3, [r3], #-3183	; 0xfffff391
 244:	4a0f03c8 	bmi	3c116c <_start-0x7fd3ee94>
 248:	4c4b4b76 	mcrrmi	11, 7, r4, fp, cr6
 24c:	22914c3e 	addscs	r4, r1, #15872	; 0x3e00
 250:	04020067 	streq	r0, [r2], #-103	; 0xffffff99
 254:	063c0601 	ldrteq	r0, [ip], -r1, lsl #12
 258:	03453d75 	movteq	r3, #23925	; 0x5d75
 25c:	034a00e6 	movteq	r0, #41190	; 0xa0e6
 260:	91207fa4 			; <UNDEFINED> instruction: 0x91207fa4
 264:	02006722 	andeq	r6, r0, #8912896	; 0x880000
 268:	3c060104 	stfccs	f0, [r6], {4}
 26c:	453d7506 	ldrmi	r7, [sp, #-1286]!	; 0xfffffafa
 270:	4a00db03 	bmi	36e84 <_start-0x800c917c>
 274:	207fb003 	rsbscs	fp, pc, r3
 278:	22914c3d 	addscs	r4, r1, #15616	; 0x3d00
 27c:	04020067 	streq	r0, [r2], #-103	; 0xffffff99
 280:	063c0601 	ldrteq	r0, [ip], -r1, lsl #12
 284:	03453d75 	movteq	r3, #23925	; 0x5d75
 288:	034a00cc 	movteq	r0, #41164	; 0xa0cc
 28c:	91207fbe 			; <UNDEFINED> instruction: 0x91207fbe
 290:	02006722 	andeq	r6, r0, #8912896	; 0x880000
 294:	3c060104 	stfccs	f0, [r6], {4}
 298:	453d7506 	ldrmi	r7, [sp, #-1286]!	; 0xfffffafa
 29c:	4a00c103 	bmi	306b0 <_start-0x800cf950>
 2a0:	3d204b03 	fstmdbxcc	r0!, {d4}	;@ Deprecated
 2a4:	22914c3e 	addscs	r4, r1, #15872	; 0x3e00
 2a8:	04020067 	streq	r0, [r2], #-103	; 0xffffff99
 2ac:	063c0601 	ldrteq	r0, [ip], -r1, lsl #12
 2b0:	03453d75 	movteq	r3, #23925	; 0x5d75
 2b4:	5b034a2f 	blpl	d2b78 <_start-0x8002d488>
 2b8:	67229120 	strvs	r9, [r2, -r0, lsr #2]!
 2bc:	01040200 	mrseq	r0, R12_usr
 2c0:	75063c06 	strvc	r3, [r6, #-3078]	; 0xfffff3fa
 2c4:	2403453d 	strcs	r4, [r3], #-1341	; 0xfffffac3
 2c8:	2067034a 	rsbcs	r0, r7, sl, asr #6
 2cc:	22914c3d 	addscs	r4, r1, #15616	; 0x3d00
 2d0:	04020067 	streq	r0, [r2], #-103	; 0xffffff99
 2d4:	063c0601 	ldrteq	r0, [ip], -r1, lsl #12
 2d8:	03453d75 	movteq	r3, #23925	; 0x5d75
 2dc:	75034a15 	strvc	r4, [r3, #-2581]	; 0xfffff5eb
 2e0:	67229120 	strvs	r9, [r2, -r0, lsr #2]!
 2e4:	01040200 	mrseq	r0, R12_usr
 2e8:	75063c06 	strvc	r3, [r6, #-3078]	; 0xfffff3fa
 2ec:	0a03453d 	beq	d17e8 <_start-0x8002e818>
 2f0:	0004024a 	andeq	r0, r4, sl, asr #4
 2f4:	00580101 	subseq	r0, r8, r1, lsl #2
 2f8:	00020000 	andeq	r0, r2, r0
 2fc:	00000024 	andeq	r0, r0, r4, lsr #32
 300:	0efb0102 	cdpeq	1, 15, cr0, cr11, cr2, {0}
 304:	0101000d 	tsteq	r1, sp
 308:	00000101 	andeq	r0, r0, r1, lsl #2
 30c:	00000100 	andeq	r0, r0, r0, lsl #2
 310:	72660001 	rsbvc	r0, r6, #1
 314:	62656d61 	rsbvs	r6, r5, #6208	; 0x1840
 318:	65666675 	strbvs	r6, [r6, #-1653]!	; 0xfffff98b
 31c:	00632e72 	rsbeq	r2, r3, r2, ror lr
 320:	00000000 	andeq	r0, r0, r0
 324:	16020500 	strne	r0, [r2], -r0, lsl #10
 328:	03801008 	orreq	r1, r0, #8
 32c:	082f0115 	stmdaeq	pc!, {r0, r2, r4, r8}	; <UNPREDICTABLE>
 330:	4b4b3221 	blmi	12ccbbc <_start-0x7ee33444>
 334:	3d3d3f4b 	ldccc	15, cr3, [sp, #-300]!	; 0xfffffed4
 338:	1203c93e 	andne	ip, r3, #1015808	; 0xf8000
 33c:	2d026a66 	vstrcs	s12, [r2, #-408]	; 0xfffffe68
 340:	900b0314 	andls	r0, fp, r4, lsl r3
 344:	2f207803 	svccs	0x00207803
 348:	3d2f2275 	sfmcc	f2, 4, [pc, #-468]!	; 17c <_start-0x800ffe84>
 34c:	00040222 	andeq	r0, r4, r2, lsr #4
 350:	00c60101 	sbceq	r0, r6, r1, lsl #2
 354:	00020000 	andeq	r0, r2, r0
 358:	0000005c 	andeq	r0, r0, ip, asr r0
 35c:	0efb0102 	cdpeq	1, 15, cr0, cr11, cr2, {0}
 360:	0101000d 	tsteq	r1, sp
 364:	00000101 	andeq	r0, r0, r1, lsl #2
 368:	00000100 	andeq	r0, r0, r0, lsl #2
 36c:	636c0001 	cmnvs	ip, #1
 370:	6f635f64 	svcvs	0x00635f64
 374:	6f72746e 	svcvs	0x0072746e
 378:	72656c6c 	rsbvc	r6, r5, #108, 24	; 0x6c00
 37c:	6e616d5f 	mcrvs	13, 3, r6, cr1, cr15, {2}
 380:	72656761 	rsbvc	r6, r5, #25427968	; 0x1840000
 384:	0000632e 	andeq	r6, r0, lr, lsr #6
 388:	636c0000 	cmnvs	ip, #0
 38c:	616d5f64 	cmnvs	sp, r4, ror #30
 390:	6567616e 	strbvs	r6, [r7, #-366]!	; 0xfffffe92
 394:	00682e72 	rsbeq	r2, r8, r2, ror lr
 398:	6c000000 	stcvs	0, cr0, [r0], {-0}
 39c:	635f6463 	cmpvs	pc, #1660944384	; 0x63000000
 3a0:	72746e6f 	rsbsvc	r6, r4, #1776	; 0x6f0
 3a4:	656c6c6f 	strbvs	r6, [ip, #-3183]!	; 0xfffff391
 3a8:	616d5f72 	smcvs	54770	; 0xd5f2
 3ac:	6567616e 	strbvs	r6, [r7, #-366]!	; 0xfffffe92
 3b0:	00682e72 	rsbeq	r2, r8, r2, ror lr
 3b4:	00000000 	andeq	r0, r0, r0
 3b8:	3a020500 	bcc	817c0 <_start-0x8007e840>
 3bc:	03801009 	orreq	r1, r0, #9
 3c0:	005c0114 	subseq	r0, ip, r4, lsl r1
 3c4:	06010402 	streq	r0, [r1], -r2, lsl #8
 3c8:	240666ac 	strcs	r6, [r6], #-1708	; 0xfffff954
 3cc:	580d0321 	stmdapl	sp, {r0, r5, r8, r9}
 3d0:	83923e4c 	orrshi	r3, r2, #76, 28	; 0x4c0
 3d4:	02040200 	andeq	r0, r4, #0, 4
 3d8:	04020029 	streq	r0, [r2], #-41	; 0xffffffd7
 3dc:	063c0601 	ldrteq	r0, [ip], -r1, lsl #12
 3e0:	0d032f44 	stceq	15, cr2, [r3, #-272]	; 0xfffffef0
 3e4:	003e4c66 	eorseq	r4, lr, r6, ror #24
 3e8:	06010402 	streq	r0, [r1], -r2, lsl #8
 3ec:	bbe60690 	bllt	ff981e34 <__bss_end+0x7f87fd20>
 3f0:	02040200 	andeq	r0, r4, #0, 4
 3f4:	04020029 	streq	r0, [r2], #-41	; 0xffffffd7
 3f8:	063c0601 	ldrteq	r0, [ip], -r1, lsl #12
 3fc:	0d032f44 	stceq	15, cr2, [r3, #-272]	; 0xfffffef0
 400:	83764b4a 	cmnhi	r6, #75776	; 0x12800
 404:	0d032f30 	stceq	15, cr2, [r3, #-192]	; 0xffffff40
 408:	76762f4a 	ldrbtvc	r2, [r6], -sl, asr #30
 40c:	2f2e0d03 	svccs	0x002e0d03
 410:	0d037676 	stceq	6, cr7, [r3, #-472]	; 0xfffffe28
 414:	022f2f2e 	eoreq	r2, pc, #46, 30	; 0xb8
 418:	01010002 	tsteq	r1, r2
 41c:	0000009d 	muleq	r0, sp, r0
 420:	00350002 	eorseq	r0, r5, r2
 424:	01020000 	mrseq	r0, (UNDEF: 2)
 428:	000d0efb 	strdeq	r0, [sp], -fp
 42c:	01010101 	tsteq	r1, r1, lsl #2
 430:	01000000 	mrseq	r0, (UNDEF: 0)
 434:	00010000 	andeq	r0, r1, r0
 438:	5f64636c 	svcpl	0x0064636c
 43c:	616e616d 	cmnvs	lr, sp, ror #2
 440:	2e726567 	cdpcs	5, 7, cr6, cr2, cr7, {3}
 444:	00000063 	andeq	r0, r0, r3, rrx
 448:	64636c00 	strbtvs	r6, [r3], #-3072	; 0xfffff400
 44c:	6e616d5f 	mcrvs	13, 3, r6, cr1, cr15, {2}
 450:	72656761 	rsbvc	r6, r5, #25427968	; 0x1840000
 454:	0000682e 	andeq	r6, r0, lr, lsr #16
 458:	00000000 	andeq	r0, r0, r0
 45c:	0ac00205 	beq	ff000c78 <__bss_end+0x7eefeb64>
 460:	14038010 	strne	r8, [r3], #-16
 464:	02004b01 	andeq	r4, r0, #1024	; 0x400
 468:	20060104 	andcs	r0, r6, r4, lsl #2
 46c:	0e035906 	vmlaeq.f16	s10, s6, s12	; <UNPREDICTABLE>
 470:	923e4c66 	eorsls	r4, lr, #26112	; 0x6600
 474:	04020083 	streq	r0, [r2], #-131	; 0xffffff7d
 478:	02002902 	andeq	r2, r0, #32768	; 0x8000
 47c:	3c060104 	stfccs	f0, [r6], {4}
 480:	692f4406 	stmdbvs	pc!, {r1, r2, sl, lr}	; <UNPREDICTABLE>
 484:	02003e4c 	andeq	r3, r0, #76, 28	; 0x4c0
 488:	90060104 	andls	r0, r6, r4, lsl #2
 48c:	00bbe606 	adcseq	lr, fp, r6, lsl #12
 490:	29020402 	stmdbcs	r2, {r1, sl}
 494:	01040200 	mrseq	r0, R12_usr
 498:	44063c06 	strmi	r3, [r6], #-3078	; 0xfffff3fa
 49c:	4a0d032f 	bmi	341160 <_start-0x7fdbeea0>
 4a0:	83838375 	orrhi	r8, r3, #-738197503	; 0xd4000001
 4a4:	660e0383 	strvs	r0, [lr], -r3, lsl #7
 4a8:	0d032f2f 	stceq	15, cr2, [r3, #-188]	; 0xffffff44
 4ac:	032f2f2e 			; <UNDEFINED> instruction: 0x032f2f2e
 4b0:	31302e0d 	teqcc	r0, sp, lsl #28
 4b4:	83686931 	cmnhi	r8, #802816	; 0xc4000
 4b8:	01000202 	tsteq	r0, r2, lsl #4
 4bc:	00004801 	andeq	r4, r0, r1, lsl #16
 4c0:	31000200 	mrscc	r0, R8_usr
 4c4:	02000000 	andeq	r0, r0, #0
 4c8:	0d0efb01 	vstreq	d15, [lr, #-4]
 4cc:	01010100 	mrseq	r0, (UNDEF: 17)
 4d0:	00000001 	andeq	r0, r0, r1
 4d4:	01000001 	tsteq	r0, r1
 4d8:	64636c00 	strbtvs	r6, [r3], #-3072	; 0xfffff400
 4dc:	305f375f 	subscc	r3, pc, pc, asr r7	; <UNPREDICTABLE>
 4e0:	0000632e 	andeq	r6, r0, lr, lsr #6
 4e4:	636c0000 	cmnvs	ip, #0
 4e8:	616d5f64 	cmnvs	sp, r4, ror #30
 4ec:	6567616e 	strbvs	r6, [r7, #-366]!	; 0xfffffe92
 4f0:	00682e72 	rsbeq	r2, r8, r2, ror lr
 4f4:	00000000 	andeq	r0, r0, r0
 4f8:	4c020500 	cfstr32mi	mvfx0, [r2], {-0}
 4fc:	0380100c 	orreq	r1, r0, #12
 500:	672f012b 	strvs	r0, [pc, -fp, lsr #2]!
 504:	01000202 	tsteq	r0, r2, lsl #4
 508:	00012401 	andeq	r2, r1, r1, lsl #8
 50c:	62000200 	andvs	r0, r0, #0, 4
 510:	02000000 	andeq	r0, r0, #0
 514:	0d0efb01 	vstreq	d15, [lr, #-4]
 518:	01010100 	mrseq	r0, (UNDEF: 17)
 51c:	00000001 	andeq	r0, r0, r1
 520:	01000001 	tsteq	r0, r1
 524:	786d6900 	stmdavc	sp!, {r8, fp, sp, lr}^
 528:	6c6c7536 	cfstr64vs	mvdx7, [ip], #-216	; 0xffffff28
 52c:	6e6f635f 	mcrvs	3, 3, r6, cr15, cr15, {2}
 530:	0000632e 	andeq	r6, r0, lr, lsr #6
 534:	6d690000 	stclvs	0, cr0, [r9, #-0]
 538:	6c753678 	ldclvs	6, cr3, [r5], #-480	; 0xfffffe20
 53c:	6f735f6c 	svcvs	0x00735f6c
 540:	00682e63 	rsbeq	r2, r8, r3, ror #28
 544:	6c000000 	stcvs	0, cr0, [r0], {-0}
 548:	6d5f6463 	cfldrdvs	mvd6, [pc, #-396]	; 3c4 <_start-0x800ffc3c>
 54c:	67616e61 	strbvs	r6, [r1, -r1, ror #28]!
 550:	682e7265 	stmdavs	lr!, {r0, r2, r5, r6, r9, ip, sp, lr}
 554:	00000000 	andeq	r0, r0, r0
 558:	5f64636c 	svcpl	0x0064636c
 55c:	746e6f63 	strbtvc	r6, [lr], #-3939	; 0xfffff09d
 560:	6c6c6f72 	stclvs	15, cr6, [ip], #-456	; 0xfffffe38
 564:	6d5f7265 	lfmvs	f7, 2, [pc, #-404]	; 3d8 <_start-0x800ffc28>
 568:	67616e61 	strbvs	r6, [r1, -r1, ror #28]!
 56c:	682e7265 	stmdavs	lr!, {r0, r2, r5, r6, r9, ip, sp, lr}
 570:	00000000 	andeq	r0, r0, r0
 574:	02050000 	andeq	r0, r5, #0
 578:	80100c60 	andshi	r0, r0, r0, ror #24
 57c:	3e010903 	vmlacc.f16	s0, s2, s6	; <UNPREDICTABLE>
 580:	02005930 	andeq	r5, r0, #48, 18	; 0xc0000
 584:	003e0304 	eorseq	r0, lr, r4, lsl #6
 588:	3d030402 	cfstrscc	mvf0, [r3, #-8]
 58c:	03040200 	movweq	r0, #16896	; 0x4200
 590:	04020039 	streq	r0, [r2], #-57	; 0xffffffc7
 594:	063c0601 	ldrteq	r0, [ip], -r1, lsl #12
 598:	593c1003 	ldmdbpl	ip!, {r0, r1, ip}
 59c:	03040200 	movweq	r0, #16896	; 0x4200
 5a0:	0402003e 	streq	r0, [r2], #-62	; 0xffffffc2
 5a4:	02003d03 	andeq	r3, r0, #3, 26	; 0xc0
 5a8:	00670304 	rsbeq	r0, r7, r4, lsl #6
 5ac:	38030402 	stmdacc	r3, {r1, sl}
 5b0:	01040200 	mrseq	r0, R12_usr
 5b4:	03063c06 	movweq	r3, #27654	; 0x6c06
 5b8:	d8763c0a 	ldmdale	r6!, {r1, r3, sl, fp, ip, sp}^
 5bc:	034c68d9 	movteq	r6, #51417	; 0xc8d9
 5c0:	03752e1b 	cmneq	r5, #432	; 0x1b0
 5c4:	1603740d 	strne	r7, [r3], -sp, lsl #8
 5c8:	bbbcbb9e 	bllt	fef2f448 <__bss_end+0x7ee2d334>
 5cc:	ba0d03bc 	blt	3414c4 <_start-0x7fdbeb3c>
 5d0:	3f77bdbb 	svccc	0x0077bdbb
 5d4:	00661003 	rsbeq	r1, r6, r3
 5d8:	06010402 	streq	r0, [r1], -r2, lsl #8
 5dc:	0402004a 	streq	r0, [r2], #-74	; 0xffffffb6
 5e0:	02004a03 	andeq	r4, r0, #12288	; 0x3000
 5e4:	002e0404 	eoreq	r0, lr, r4, lsl #8
 5e8:	2e020402 	cdpcs	4, 0, cr0, cr2, cr2, {0}
 5ec:	08040200 	stmdaeq	r4, {r9}
 5f0:	04020020 	streq	r0, [r2], #-32	; 0xffffffe0
 5f4:	00220608 	eoreq	r0, r2, r8, lsl #12
 5f8:	08080402 	stmdaeq	r8, {r1, sl}
 5fc:	00c14c15 	sbceq	r4, r1, r5, lsl ip
 600:	06010402 	streq	r0, [r1], -r2, lsl #8
 604:	bb4c064a 	bllt	1301f34 <_start-0x7edfe0cc>
 608:	ac0e03c2 	stcge	3, cr0, [lr], {194}	; 0xc2
 60c:	4b4b4b91 	blmi	12d3458 <_start-0x7ee2cba8>
 610:	200a0354 	andcs	r0, sl, r4, asr r3
 614:	12080903 	andne	r0, r8, #49152	; 0xc000
 618:	28085208 	stmdacs	r8, {r3, r9, ip, lr}
 61c:	759e0903 	ldrvc	r0, [lr, #2307]	; 0x903
 620:	bb2f4c76 	bllt	bd3800 <_start-0x7f52c800>
 624:	03bb2f5a 			; <UNDEFINED> instruction: 0x03bb2f5a
 628:	672f5814 			; <UNDEFINED> instruction: 0x672f5814
 62c:	01000202 	tsteq	r0, r2, lsl #4
 630:	Address 0x0000000000000630 is out of bounds.


Disassembly of section .debug_info:

00000000 <.debug_info>:
       0:	0000007d 	andeq	r0, r0, sp, ror r0
       4:	00000002 	andeq	r0, r0, r2
       8:	01040000 	mrseq	r0, (UNDEF: 4)
       c:	00000000 	andeq	r0, r0, r0
      10:	80100000 	andshi	r0, r0, r0
      14:	8010003c 	andshi	r0, r0, ip, lsr r0
      18:	72617473 	rsbvc	r7, r1, #1929379840	; 0x73000000
      1c:	00532e74 	subseq	r2, r3, r4, ror lr
      20:	6d6f682f 	stclvs	8, cr6, [pc, #-188]!	; ffffff6c <__bss_end+0x7fefde58>
      24:	6f622f65 	svcvs	0x00622f65
      28:	442f6b6f 	strtmi	r6, [pc], #-2927	; 30 <_start-0x800fffd0>
      2c:	6c6e776f 	stclvs	7, cr7, [lr], #-444	; 0xfffffe44
      30:	7364616f 	cmnvc	r4, #-1073741797	; 0xc000001b
      34:	3030312f 	eorscc	r3, r0, pc, lsr #2
      38:	5f6b7361 	svcpl	0x006b7361
      3c:	36786d69 	ldrbtcc	r6, [r8], -r9, ror #26
      40:	5f6c6c75 	svcpl	0x006c6c75
      44:	736f6f4e 	cmnvc	pc, #312	; 0x138
      48:	676f7250 			; <UNDEFINED> instruction: 0x676f7250
      4c:	506d6172 	rsbpl	r6, sp, r2, ror r1
      50:	656a6f72 	strbvs	r6, [sl, #-3954]!	; 0xfffff08e
      54:	312f7463 			; <UNDEFINED> instruction: 0x312f7463
      58:	434c5f35 	movtmi	r5, #53045	; 0xcf35
      5c:	96bce744 	ldrtls	lr, [ip], r4, asr #14
      60:	2f8ba8e7 	svccs	0x008ba8e7
      64:	665f3330 			; <UNDEFINED> instruction: 0x665f3330
      68:	5f746e6f 	svcpl	0x00746e6f
      6c:	74736574 	ldrbtvc	r6, [r3], #-1396	; 0xfffffa8c
      70:	554e4700 	strbpl	r4, [lr, #-1792]	; 0xfffff900
      74:	20534120 	subscs	r4, r3, r0, lsr #2
      78:	37322e32 			; <UNDEFINED> instruction: 0x37322e32
      7c:	0100302e 	tsteq	r0, lr, lsr #32
      80:	0000de80 	andeq	sp, r0, r0, lsl #29
      84:	14000400 	strne	r0, [r0], #-1024	; 0xfffffc00
      88:	04000000 	streq	r0, [r0], #-0
      8c:	00000001 	andeq	r0, r0, r1
      90:	00750c00 	rsbseq	r0, r5, r0, lsl #24
      94:	00aa0000 	adceq	r0, sl, r0
      98:	003c0000 	eorseq	r0, ip, r0
      9c:	02c88010 	sbceq	r8, r8, #16
      a0:	00470000 	subeq	r0, r7, r0
      a4:	04020000 	streq	r0, [r2], #-0
      a8:	00009d07 	andeq	r9, r0, r7, lsl #26
      ac:	05040300 	streq	r0, [r4, #-768]	; 0xfffffd00
      b0:	00746e69 	rsbseq	r6, r4, r9, ror #28
      b4:	36080102 	strcc	r0, [r8], -r2, lsl #2
      b8:	04000001 	streq	r0, [r0], #-1
      bc:	0000007c 	andeq	r0, r0, ip, ror r0
      c0:	002c6901 	eoreq	r6, ip, r1, lsl #18
      c4:	02f20000 	rscseq	r0, r2, #0
      c8:	00128010 	andseq	r8, r2, r0, lsl r0
      cc:	9c010000 	stcls	0, cr0, [r1], {-0}
      d0:	00008605 	andeq	r8, r0, r5, lsl #12
      d4:	3c060100 	stfccs	f0, [r6], {-0}
      d8:	b6801000 	strlt	r1, [r0], r0
      dc:	01000002 	tsteq	r0, r2
      e0:	0000ce9c 	muleq	r0, ip, lr
      e4:	008f0600 	addeq	r0, pc, r0, lsl #12
      e8:	08010000 	stmdaeq	r1, {}	; <UNPREDICTABLE>
      ec:	00000025 	andeq	r0, r0, r5, lsr #32
      f0:	06649102 	strbteq	r9, [r4], -r2, lsl #2
      f4:	00000081 	andeq	r0, r0, r1, lsl #1
      f8:	002c0901 	eoreq	r0, ip, r1, lsl #18
      fc:	91020000 	mrsls	r0, (UNDEF: 2)
     100:	00fb0660 	rscseq	r0, fp, r0, ror #12
     104:	09010000 	stmdbeq	r1, {}	; <UNPREDICTABLE>
     108:	0000002c 	andeq	r0, r0, ip, lsr #32
     10c:	075c9102 	ldrbeq	r9, [ip, -r2, lsl #2]
     110:	00707062 	rsbseq	r7, r0, r2, rrx
     114:	002c0901 	eoreq	r0, ip, r1, lsl #18
     118:	91020000 	mrsls	r0, (UNDEF: 2)
     11c:	00780758 	rsbseq	r0, r8, r8, asr r7
     120:	002c0a01 	eoreq	r0, ip, r1, lsl #20
     124:	91020000 	mrsls	r0, (UNDEF: 2)
     128:	00790774 	rsbseq	r0, r9, r4, ror r7
     12c:	002c0a01 	eoreq	r0, ip, r1, lsl #20
     130:	91020000 	mrsls	r0, (UNDEF: 2)
     134:	00700770 	rsbseq	r0, r0, r0, ror r7
     138:	00ce0b01 	sbceq	r0, lr, r1, lsl #22
     13c:	91020000 	mrsls	r0, (UNDEF: 2)
     140:	3270076c 	rsbscc	r0, r0, #108, 14	; 0x1b00000
     144:	db0c0100 	blle	30054c <_start-0x7fdffab4>
     148:	02000000 	andeq	r0, r0, #0
     14c:	08006891 	stmdaeq	r0, {r0, r4, r7, fp, sp, lr}
     150:	0000d404 	andeq	sp, r0, r4, lsl #8
     154:	07020200 	streq	r0, [r2, -r0, lsl #4]
     158:	00000097 	muleq	r0, r7, r0
     15c:	00250408 	eoreq	r0, r5, r8, lsl #8
     160:	a8000000 	stmdage	r0, {}	; <UNPREDICTABLE>
     164:	04000001 	streq	r0, [r0], #-1
     168:	00009900 	andeq	r9, r0, r0, lsl #18
     16c:	00010400 	andeq	r0, r1, r0, lsl #8
     170:	0c000000 	stceq	0, cr0, [r0], {-0}
     174:	00000100 	andeq	r0, r0, r0, lsl #2
     178:	000000aa 	andeq	r0, r0, sl, lsr #1
     17c:	80100304 	andshi	r0, r0, r4, lsl #6
     180:	00000138 	andeq	r0, r0, r8, lsr r1
     184:	00000156 	andeq	r0, r0, r6, asr r1
     188:	9d070402 	cfstrsls	mvf0, [r7, #-8]
     18c:	03000000 	movweq	r0, #0
     190:	6e690504 	cdpvs	5, 6, cr0, cr9, cr4, {0}
     194:	04040074 	streq	r0, [r4], #-116	; 0xffffff8c
     198:	00000039 	andeq	r0, r0, r9, lsr r0
     19c:	36080102 	strcc	r0, [r8], -r2, lsl #2
     1a0:	05000001 	streq	r0, [r0, #-1]
     1a4:	00000057 	andeq	r0, r0, r7, asr r0
     1a8:	0000004b 	andeq	r0, r0, fp, asr #32
     1ac:	40070006 	andmi	r0, r7, r6
     1b0:	02000000 	andeq	r0, r0, #0
     1b4:	012d0801 			; <UNDEFINED> instruction: 0x012d0801
     1b8:	50070000 	andpl	r0, r7, r0
     1bc:	08000000 	stmdaeq	r0, {}	; <UNPREDICTABLE>
     1c0:	00000107 	andeq	r0, r0, r7, lsl #2
     1c4:	004b0401 	subeq	r0, fp, r1, lsl #8
     1c8:	8f090000 	svchi	0x00090000
     1cc:	01000000 	mrseq	r0, (UNDEF: 0)
     1d0:	00002506 	andeq	r2, r0, r6, lsl #10
     1d4:	b0030500 	andlt	r0, r3, r0, lsl #10
     1d8:	09801020 	stmibeq	r0, {r5, ip}
     1dc:	00000081 	andeq	r0, r0, r1, lsl #1
     1e0:	002c0701 	eoreq	r0, ip, r1, lsl #14
     1e4:	03050000 	movweq	r0, #20480	; 0x5000
     1e8:	801020b4 	ldrhhi	r2, [r0], -r4
     1ec:	0000fb09 	andeq	pc, r0, r9, lsl #22
     1f0:	2c070100 	stfcss	f0, [r7], {-0}
     1f4:	05000000 	streq	r0, [r0, #-0]
     1f8:	1020b803 	eorne	fp, r0, r3, lsl #16
     1fc:	70620a80 	rsbvc	r0, r2, r0, lsl #21
     200:	07010070 	smlsdxeq	r1, r0, r0, r0
     204:	0000002c 	andeq	r0, r0, ip, lsr #32
     208:	20bc0305 	adcscs	r0, ip, r5, lsl #6
     20c:	4b0b8010 	blmi	2e0254 <_start-0x7fe1fdac>
     210:	01000001 	tsteq	r0, r1
     214:	1003b647 	andne	fp, r3, r7, asr #12
     218:	00008680 	andeq	r8, r0, r0, lsl #13
     21c:	0a9c0100 	beq	fe700624 <__bss_end+0x7e5fe510>
     220:	0c000001 	stceq	0, cr0, [r0], {1}
     224:	47010078 	smlsdxmi	r1, r8, r0, r0
     228:	0000002c 	andeq	r0, r0, ip, lsr #32
     22c:	0c6c9102 	stfeqp	f1, [ip], #-8
     230:	47010079 	smlsdxmi	r1, r9, r0, r0
     234:	0000002c 	andeq	r0, r0, ip, lsr #32
     238:	0c689102 	stfeqp	f1, [r8], #-8
     23c:	00727473 	rsbseq	r7, r2, r3, ror r4
     240:	00334701 	eorseq	r4, r3, r1, lsl #14
     244:	91020000 	mrsls	r0, (UNDEF: 2)
     248:	013b0d64 	teqeq	fp, r4, ror #26
     24c:	47010000 	strmi	r0, [r1, -r0]
     250:	00000025 	andeq	r0, r0, r5, lsr #32
     254:	0a609102 	beq	1824664 <_start-0x7e8db99c>
     258:	49010069 	stmdbmi	r1, {r0, r3, r5, r6}
     25c:	0000002c 	andeq	r0, r0, ip, lsr #32
     260:	0e749102 	expeqs	f1, f2
     264:	4901006a 	stmdbmi	r1, {r1, r3, r5, r6}
     268:	0000002c 	andeq	r0, r0, ip, lsr #32
     26c:	01150b00 	tsteq	r5, r0, lsl #22
     270:	23010000 	movwcs	r0, #4096	; 0x1000
     274:	80100330 	andshi	r0, r0, r0, lsr r3
     278:	00000086 	andeq	r0, r0, r6, lsl #1
     27c:	01949c01 	orrseq	r9, r4, r1, lsl #24
     280:	780c0000 	stmdavc	ip, {}	; <UNPREDICTABLE>
     284:	2c230100 	stfcss	f0, [r3], #-0
     288:	02000000 	andeq	r0, r0, #0
     28c:	790c5c91 	stmdbvc	ip, {r0, r4, r7, sl, fp, ip, lr}
     290:	2c230100 	stfcss	f0, [r3], #-0
     294:	02000000 	andeq	r0, r0, #0
     298:	630c5891 	movwvs	r5, #51345	; 0xc891
     29c:	39230100 	stmdbcc	r3!, {r8}
     2a0:	02000000 	andeq	r0, r0, #0
     2a4:	3b0d5791 	blcc	3560f0 <_start-0x7fda9f10>
     2a8:	01000001 	tsteq	r0, r1
     2ac:	00002523 	andeq	r2, r0, r3, lsr #10
     2b0:	50910200 	addspl	r0, r1, r0, lsl #4
     2b4:	0100690a 	tsteq	r0, sl, lsl #18
     2b8:	00002c25 	andeq	r2, r0, r5, lsr #24
     2bc:	74910200 	ldrvc	r0, [r1], #512	; 0x200
     2c0:	01006a0a 	tsteq	r0, sl, lsl #20
     2c4:	00002c25 	andeq	r2, r0, r5, lsr #24
     2c8:	70910200 	addsvc	r0, r1, r0, lsl #4
     2cc:	00012309 	andeq	r2, r1, r9, lsl #6
     2d0:	94280100 	strtls	r0, [r8], #-256	; 0xffffff00
     2d4:	02000001 	andeq	r0, r0, #1
     2d8:	28096c91 	stmdacs	r9, {r0, r4, r7, sl, fp, sp, lr}
     2dc:	01000001 	tsteq	r0, r1
     2e0:	0000502a 	andeq	r5, r0, sl, lsr #32
     2e4:	67910200 	ldrvs	r0, [r1, r0, lsl #4]
     2e8:	7469620a 	strbtvc	r6, [r9], #-522	; 0xfffffdf6
     2ec:	2c2b0100 	stfcss	f0, [fp], #-0
     2f0:	02000000 	andeq	r0, r0, #0
     2f4:	04006891 	streq	r6, [r0], #-2193	; 0xfffff76f
     2f8:	00005704 	andeq	r5, r0, r4, lsl #14
     2fc:	01410f00 	cmpeq	r1, r0, lsl #30
     300:	14010000 	strne	r0, [r1], #-0
     304:	80100304 	andshi	r0, r0, r4, lsl #6
     308:	0000002c 	andeq	r0, r0, ip, lsr #32
     30c:	54009c01 	strpl	r9, [r0], #-3073	; 0xfffff3ff
     310:	04000000 	streq	r0, [r0], #-0
     314:	00016d00 	andeq	r6, r1, r0, lsl #26
     318:	00010400 	andeq	r0, r1, r0, lsl #8
     31c:	0c000000 	stceq	0, cr0, [r0], {-0}
     320:	00000164 	andeq	r0, r0, r4, ror #2
     324:	000000aa 	andeq	r0, r0, sl, lsr #1
     328:	000001ce 	andeq	r0, r0, lr, asr #3
     32c:	00004102 	andeq	r4, r0, r2, lsl #2
     330:	00002e00 	andeq	r2, r0, r0, lsl #28
     334:	00330300 	eorseq	r0, r3, r0, lsl #6
     338:	0fff0000 	svceq	0x00ff0000
     33c:	001d0400 	andseq	r0, sp, r0, lsl #8
     340:	04050000 	streq	r0, [r5], #-0
     344:	00015b07 	andeq	r5, r1, r7, lsl #22
     348:	08010500 	stmdaeq	r1, {r8, sl}
     34c:	0000012d 	andeq	r0, r0, sp, lsr #2
     350:	00003a04 	andeq	r3, r0, r4, lsl #20
     354:	01070600 	tsteq	r7, r0, lsl #12
     358:	0a010000 	beq	40360 <_start-0x800bfca0>
     35c:	0000002e 	andeq	r0, r0, lr, lsr #32
     360:	10340305 	eorsne	r0, r4, r5, lsl #6
     364:	11008010 	tstne	r0, r0, lsl r0
     368:	04000001 	streq	r0, [r0], #-1
     36c:	0001b200 	andeq	fp, r1, r0, lsl #4
     370:	00010400 	andeq	r0, r1, r0, lsl #8
     374:	0c000000 	stceq	0, cr0, [r0], {-0}
     378:	00000170 	andeq	r0, r0, r0, ror r1
     37c:	000000aa 	andeq	r0, r0, sl, lsr #1
     380:	8010043c 	andshi	r0, r0, ip, lsr r4
     384:	000003da 	ldrdeq	r0, [r0], -sl
     388:	000001fa 	strdeq	r0, [r0], -sl
     38c:	00018702 	andeq	r8, r1, r2, lsl #14
     390:	4c440100 	stfmie	f0, [r4], {-0}
     394:	ca801005 	bgt	fe0043b0 <__bss_end+0x7df0229c>
     398:	01000002 	tsteq	r0, r2
     39c:	0000a39c 	muleq	r0, ip, r3
     3a0:	31780300 	cmncc	r8, r0, lsl #6
     3a4:	a3440100 	movtge	r0, #16640	; 0x4100
     3a8:	02000000 	andeq	r0, r0, #0
     3ac:	79036491 	stmdbvc	r3, {r0, r4, r7, sl, sp, lr}
     3b0:	44010031 	strmi	r0, [r1], #-49	; 0xffffffcf
     3b4:	000000a3 	andeq	r0, r0, r3, lsr #1
     3b8:	03609102 	cmneq	r0, #-2147483648	; 0x80000000
     3bc:	01003278 	tsteq	r0, r8, ror r2
     3c0:	0000a344 	andeq	sl, r0, r4, asr #6
     3c4:	5c910200 	lfmpl	f0, 4, [r1], {0}
     3c8:	00327903 	eorseq	r7, r2, r3, lsl #18
     3cc:	00a34401 	adceq	r4, r3, r1, lsl #8
     3d0:	91020000 	mrsls	r0, (UNDEF: 2)
     3d4:	013b0458 	teqeq	fp, r8, asr r4
     3d8:	44010000 	strmi	r0, [r1], #-0
     3dc:	000000a3 	andeq	r0, r0, r3, lsr #1
     3e0:	05009102 	streq	r9, [r0, #-258]	; 0xfffffefe
     3e4:	01007864 	tsteq	r0, r4, ror #16
     3e8:	0000a346 	andeq	sl, r0, r6, asr #6
     3ec:	70910200 	addsvc	r0, r1, r0, lsl #4
     3f0:	00796405 	rsbseq	r6, r9, r5, lsl #8
     3f4:	00a34601 	adceq	r4, r3, r1, lsl #12
     3f8:	91020000 	mrsls	r0, (UNDEF: 2)
     3fc:	0065056c 	rsbeq	r0, r5, ip, ror #10
     400:	00a34601 	adceq	r4, r3, r1, lsl #12
     404:	91020000 	mrsls	r0, (UNDEF: 2)
     408:	04060074 	streq	r0, [r6], #-116	; 0xffffff8c
     40c:	746e6905 	strbtvc	r6, [lr], #-2309	; 0xfffff6fb
     410:	017b0700 	cmneq	fp, r0, lsl #14
     414:	1d010000 	stcne	0, cr0, [r1, #-0]
     418:	8010043c 	andshi	r0, r0, ip, lsr r4
     41c:	00000110 	andeq	r0, r0, r0, lsl r1
     420:	78039c01 	stmdavc	r3, {r0, sl, fp, ip, pc}
     424:	a31d0100 	tstge	sp, #0, 2
     428:	02000000 	andeq	r0, r0, #0
     42c:	79036491 	stmdbvc	r3, {r0, r4, r7, sl, sp, lr}
     430:	a31d0100 	tstge	sp, #0, 2
     434:	02000000 	andeq	r0, r0, #0
     438:	72036091 	andvc	r6, r3, #145	; 0x91
     43c:	a31d0100 	tstge	sp, #0, 2
     440:	02000000 	andeq	r0, r0, #0
     444:	3b045c91 	blcc	117690 <_start-0x7ffe8970>
     448:	01000001 	tsteq	r0, r1
     44c:	0000a31d 	andeq	sl, r0, sp, lsl r3
     450:	58910200 	ldmpl	r1, {r9}
     454:	01006105 	tsteq	r0, r5, lsl #2
     458:	0000a31f 	andeq	sl, r0, pc, lsl r3
     45c:	74910200 	ldrvc	r0, [r1], #512	; 0x200
     460:	01006205 	tsteq	r0, r5, lsl #4
     464:	0000a31f 	andeq	sl, r0, pc, lsl r3
     468:	70910200 	addsvc	r0, r1, r0, lsl #4
     46c:	6d756e05 	ldclvs	14, cr6, [r5, #-20]!	; 0xffffffec
     470:	a31f0100 	tstge	pc, #0, 2
     474:	02000000 	andeq	r0, r0, #0
     478:	00006c91 	muleq	r0, r1, ip
     47c:	00000150 	andeq	r0, r0, r0, asr r1
     480:	02300004 	eorseq	r0, r0, #4
     484:	01040000 	mrseq	r0, (UNDEF: 4)
     488:	00000000 	andeq	r0, r0, r0
     48c:	0001cf0c 	andeq	ip, r1, ip, lsl #30
     490:	0000aa00 	andeq	sl, r0, r0, lsl #20
     494:	10081600 	andne	r1, r8, r0, lsl #12
     498:	00012480 	andeq	r2, r1, r0, lsl #9
     49c:	0002f600 	andeq	pc, r2, r0, lsl #12
     4a0:	07040200 	streq	r0, [r4, -r0, lsl #4]
     4a4:	0000009d 	muleq	r0, sp, r0
     4a8:	69050403 	stmdbvs	r5, {r0, r1, sl}
     4ac:	0200746e 	andeq	r7, r0, #1845493760	; 0x6e000000
     4b0:	01360801 	teqeq	r6, r1, lsl #16
     4b4:	8f040000 	svchi	0x00040000
     4b8:	01000000 	mrseq	r0, (UNDEF: 0)
     4bc:	00002508 	andeq	r2, r0, r8, lsl #10
     4c0:	c0030500 	andgt	r0, r3, r0, lsl #10
     4c4:	04801020 	streq	r1, [r0], #32
     4c8:	00000081 	andeq	r0, r0, r1, lsl #1
     4cc:	002c0901 	eoreq	r0, ip, r1, lsl #18
     4d0:	03050000 	movweq	r0, #20480	; 0x5000
     4d4:	801020c4 	andshi	r2, r0, r4, asr #1
     4d8:	0000fb04 	andeq	pc, r0, r4, lsl #22
     4dc:	2c090100 	stfcss	f0, [r9], {-0}
     4e0:	05000000 	streq	r0, [r0, #-0]
     4e4:	1020c803 	eorne	ip, r0, r3, lsl #16
     4e8:	70620580 	rsbvc	r0, r2, r0, lsl #11
     4ec:	09010070 	stmdbeq	r1, {r4, r5, r6}
     4f0:	0000002c 	andeq	r0, r0, ip, lsr #32
     4f4:	20cc0305 	sbccs	r0, ip, r5, lsl #6
     4f8:	9c068010 	stcls	0, cr8, [r6], {16}
     4fc:	01000001 	tsteq	r0, r1
     500:	10089838 	andne	r9, r8, r8, lsr r8
     504:	0000a280 	andeq	sl, r0, r0, lsl #5
     508:	e39c0100 	orrs	r0, ip, #0, 2
     50c:	07000000 	streq	r0, [r0, -r0]
     510:	38010078 	stmdacc	r1, {r3, r4, r5, r6}
     514:	0000002c 	andeq	r0, r0, ip, lsr #32
     518:	07649102 	strbeq	r9, [r4, -r2, lsl #2]!
     51c:	38010079 	stmdacc	r1, {r0, r3, r4, r5, r6}
     520:	0000002c 	andeq	r0, r0, ip, lsr #32
     524:	08609102 	stmdaeq	r0!, {r1, r8, ip, pc}^
     528:	0000013b 	andeq	r0, r0, fp, lsr r1
     52c:	00253801 	eoreq	r3, r5, r1, lsl #16
     530:	91020000 	mrsls	r0, (UNDEF: 2)
     534:	7770055c 			; <UNDEFINED> instruction: 0x7770055c
     538:	e33a0100 	teq	sl, #0, 2
     53c:	02000000 	andeq	r0, r0, #0
     540:	70057091 	mulvc	r5, r1, r0
     544:	01007764 	tsteq	r0, r4, ror #14
     548:	0000f03b 	andeq	pc, r0, fp, lsr r0	; <UNPREDICTABLE>
     54c:	6c910200 	lfmvs	f0, 4, [r1], {0}
     550:	00019104 	andeq	r9, r1, r4, lsl #2
     554:	253d0100 	ldrcs	r0, [sp, #-256]!	; 0xffffff00
     558:	02000000 	andeq	r0, r0, #0
     55c:	09007491 	stmdbeq	r0, {r0, r4, r7, sl, ip, sp, lr}
     560:	0000e904 	andeq	lr, r0, r4, lsl #18
     564:	07020200 	streq	r0, [r2, -r0, lsl #4]
     568:	00000097 	muleq	r0, r7, r0
     56c:	00250409 	eoreq	r0, r5, r9, lsl #8
     570:	bb0a0000 	bllt	280578 <_start-0x7fe7fa88>
     574:	01000001 	tsteq	r0, r1
     578:	0000e91b 	andeq	lr, r0, fp, lsl r9
     57c:	10084200 	andne	r4, r8, r0, lsl #4
     580:	00005680 	andeq	r5, r0, r0, lsl #13
     584:	429c0100 	addsmi	r0, ip, #0, 2
     588:	07000001 	streq	r0, [r0, -r1]
     58c:	00626772 	rsbeq	r6, r2, r2, ror r7
     590:	00251b01 	eoreq	r1, r5, r1, lsl #22
     594:	91020000 	mrsls	r0, (UNDEF: 2)
     598:	00720564 	rsbseq	r0, r2, r4, ror #10
     59c:	002c1d01 	eoreq	r1, ip, r1, lsl #26
     5a0:	91020000 	mrsls	r0, (UNDEF: 2)
     5a4:	00670574 	rsbeq	r0, r7, r4, ror r5
     5a8:	002c1e01 	eoreq	r1, ip, r1, lsl #28
     5ac:	91020000 	mrsls	r0, (UNDEF: 2)
     5b0:	00620570 	rsbeq	r0, r2, r0, ror r5
     5b4:	002c1f01 	eoreq	r1, ip, r1, lsl #30
     5b8:	91020000 	mrsls	r0, (UNDEF: 2)
     5bc:	a90b006c 	stmdbge	fp, {r2, r3, r5, r6}
     5c0:	01000001 	tsteq	r0, r1
     5c4:	10081615 	andne	r1, r8, r5, lsl r6
     5c8:	00002c80 	andeq	r2, r0, r0, lsl #25
     5cc:	009c0100 	addseq	r0, ip, r0, lsl #2
     5d0:	00000317 	andeq	r0, r0, r7, lsl r3
     5d4:	02ed0004 	rsceq	r0, sp, #4
     5d8:	01040000 	mrseq	r0, (UNDEF: 4)
     5dc:	00000000 	andeq	r0, r0, r0
     5e0:	00022a0c 	andeq	r2, r2, ip, lsl #20
     5e4:	0000aa00 	andeq	sl, r0, r0, lsl #20
     5e8:	10093a00 	andne	r3, r9, r0, lsl #20
     5ec:	00018680 	andeq	r8, r1, r0, lsl #13
     5f0:	00035200 	andeq	r5, r3, r0, lsl #4
     5f4:	07040200 	streq	r0, [r4, -r0, lsl #4]
     5f8:	0000009d 	muleq	r0, sp, r0
     5fc:	00020b03 	andeq	r0, r2, r3, lsl #22
     600:	0c021000 	stceq	0, cr1, [r2], {-0}
     604:	00000068 	andeq	r0, r0, r8, rrx
     608:	00656404 	rsbeq	r6, r5, r4, lsl #8
     60c:	00680d02 	rsbeq	r0, r8, r2, lsl #26
     610:	05000000 	streq	r0, [r0, #-0]
     614:	0000027d 	andeq	r0, r0, sp, ror r2
     618:	00680e02 	rsbeq	r0, r8, r2, lsl #28
     61c:	05040000 	streq	r0, [r4, #-0]
     620:	0000025f 	andeq	r0, r0, pc, asr r2
     624:	00680f02 	rsbeq	r0, r8, r2, lsl #30
     628:	05080000 	streq	r0, [r8, #-0]
     62c:	000002c3 	andeq	r0, r0, r3, asr #5
     630:	00681002 	rsbeq	r1, r8, r2
     634:	000c0000 	andeq	r0, ip, r0
     638:	69050406 	stmdbvs	r5, {r1, r2, sl}
     63c:	0700746e 	streq	r7, [r0, -lr, ror #8]
     640:	0000020b 	andeq	r0, r0, fp, lsl #4
     644:	002c1102 	eoreq	r1, ip, r2, lsl #2
     648:	d7030000 	strle	r0, [r3, -r0]
     64c:	1c000002 	stcne	0, cr0, [r0], {2}
     650:	00db1302 	sbcseq	r1, fp, r2, lsl #6
     654:	74040000 	strvc	r0, [r4], #-0
     658:	02007076 	andeq	r7, r0, #118	; 0x76
     65c:	00006815 	andeq	r6, r0, r5, lsl r8
     660:	74040000 	strvc	r0, [r4], #-0
     664:	02006276 	andeq	r6, r0, #1610612743	; 0x60000007
     668:	00006816 	andeq	r6, r0, r6, lsl r8
     66c:	74040400 	strvc	r0, [r4], #-1024	; 0xfffffc00
     670:	02006676 	andeq	r6, r0, #123731968	; 0x7600000
     674:	00006817 	andeq	r6, r0, r7, lsl r8
     678:	74040800 	strvc	r0, [r4], #-2048	; 0xfffff800
     67c:	02007068 	andeq	r7, r0, #104	; 0x68
     680:	0000681a 	andeq	r6, r0, sl, lsl r8
     684:	74040c00 	strvc	r0, [r4], #-3072	; 0xfffff400
     688:	02006268 	andeq	r6, r0, #104, 4	; 0x80000006
     68c:	0000681b 	andeq	r6, r0, fp, lsl r8
     690:	74041000 	strvc	r1, [r4], #-0
     694:	02006668 	andeq	r6, r0, #104, 12	; 0x6800000
     698:	0000681c 	andeq	r6, r0, ip, lsl r8
     69c:	7d051400 	cfstrsvc	mvf1, [r5, #-0]
     6a0:	02000002 	andeq	r0, r0, #2
     6a4:	0000681e 	andeq	r6, r0, lr, lsl r8
     6a8:	07001800 	streq	r1, [r0, -r0, lsl #16]
     6ac:	000002d7 	ldrdeq	r0, [r0], -r7
     6b0:	007a1f02 	rsbseq	r1, sl, r2, lsl #30
     6b4:	84030000 	strhi	r0, [r3], #-0
     6b8:	40000002 	andmi	r0, r0, r2
     6bc:	01472202 	cmpeq	r7, r2, lsl #4
     6c0:	c9050000 	stmdbgt	r5, {}	; <UNPREDICTABLE>
     6c4:	02000002 	andeq	r0, r0, #2
     6c8:	00014724 	andeq	r4, r1, r4, lsr #14
     6cc:	ce050000 	cdpgt	0, 0, cr0, cr5, cr0, {0}
     6d0:	02000002 	andeq	r0, r0, #2
     6d4:	00006f27 	andeq	r6, r0, r7, lsr #30
     6d8:	19050400 	stmdbne	r5, {sl}
     6dc:	02000002 	andeq	r0, r0, #2
     6e0:	0000db2a 	andeq	sp, r0, sl, lsr #22
     6e4:	81051400 	tsthi	r5, r0, lsl #8
     6e8:	02000000 	andeq	r0, r0, #0
     6ec:	0000682d 	andeq	r6, r0, sp, lsr #16
     6f0:	fb053000 	blx	14c6fa <_start-0x7ffb3906>
     6f4:	02000000 	andeq	r0, r0, #0
     6f8:	0000682e 	andeq	r6, r0, lr, lsr #16
     6fc:	62043400 	andvs	r3, r4, #0, 8
     700:	02007070 	andeq	r7, r0, #112	; 0x70
     704:	0000682f 	andeq	r6, r0, pc, lsr #16
     708:	8f053800 	svchi	0x00053800
     70c:	02000000 	andeq	r0, r0, #0
     710:	00002532 	andeq	r2, r0, r2, lsr r5
     714:	08003c00 	stmdaeq	r0, {sl, fp, ip, sp}
     718:	00014d04 	andeq	r4, r1, r4, lsl #26
     71c:	08010200 	stmdaeq	r1, {r9}
     720:	00000136 	andeq	r0, r0, r6, lsr r1
     724:	00014d09 	andeq	r4, r1, r9, lsl #26
     728:	02820700 	addeq	r0, r2, #0, 14
     72c:	34020000 	strcc	r0, [r2], #-0
     730:	00000164 	andeq	r0, r0, r4, ror #2
     734:	00e60408 	rsceq	r0, r6, r8, lsl #8
     738:	8d030000 	stchi	0, cr0, [r3, #-0]
     73c:	10000004 	andne	r0, r0, r4
     740:	01a70703 			; <UNDEFINED> instruction: 0x01a70703
     744:	c9050000 	stmdbgt	r5, {}	; <UNPREDICTABLE>
     748:	03000002 	movweq	r0, #2
     74c:	00014708 	andeq	r4, r1, r8, lsl #14
     750:	03050000 	movweq	r0, #20480	; 0x5000
     754:	03000003 	movweq	r0, #3
     758:	0001b209 	andeq	fp, r1, r9, lsl #4
     75c:	24050400 	strcs	r0, [r5], #-1024	; 0xfffffc00
     760:	03000003 	movweq	r0, #3
     764:	0001b90a 	andeq	fp, r1, sl, lsl #18
     768:	0c050800 	stceq	8, cr0, [r5], {-0}
     76c:	03000003 	movweq	r0, #3
     770:	0001b90b 	andeq	fp, r1, fp, lsl #18
     774:	0a000c00 	beq	377c <_start-0x800fc884>
     778:	000001b2 			; <UNDEFINED> instruction: 0x000001b2
     77c:	0001590b 	andeq	r5, r1, fp, lsl #18
     780:	04080000 	streq	r0, [r8], #-0
     784:	000001a7 	andeq	r0, r0, r7, lsr #3
     788:	b804080c 	stmdalt	r4, {r2, r3, fp}
     78c:	07000001 	streq	r0, [r0, -r1]
     790:	000001dd 	ldrdeq	r0, [r0], -sp
     794:	01ca0c03 	biceq	r0, sl, r3, lsl #24
     798:	04080000 	streq	r0, [r8], #-0
     79c:	0000016a 	andeq	r0, r0, sl, ror #2
     7a0:	0001bf0d 	andeq	fp, r1, sp, lsl #30
     7a4:	0001e000 	andeq	lr, r1, r0
     7a8:	01e00e00 	mvneq	r0, r0, lsl #28
     7ac:	00090000 	andeq	r0, r9, r0
     7b0:	5b070402 	blpl	1c17c0 <_start-0x7ff3e840>
     7b4:	0f000001 	svceq	0x00000001
     7b8:	0000028f 	andeq	r0, r0, pc, lsl #5
     7bc:	01d00701 	bicseq	r0, r0, r1, lsl #14
     7c0:	03050000 	movweq	r0, #20480	; 0x5000
     7c4:	801020d0 	ldrsbhi	r2, [r0], -r0
     7c8:	0002430f 	andeq	r4, r2, pc, lsl #6
     7cc:	bf080100 	svclt	0x00080100
     7d0:	05000001 	streq	r0, [r0, #-1]
     7d4:	1020f803 	eorne	pc, r0, r3, lsl #16
     7d8:	01ee1080 	mvneq	r1, r0, lsl #1
     7dc:	92010000 	andls	r0, r1, #0
     7e0:	80100ab4 			; <UNDEFINED> instruction: 0x80100ab4
     7e4:	0000000c 	andeq	r0, r0, ip
     7e8:	87109c01 	ldrhi	r9, [r0, -r1, lsl #24]
     7ec:	0100000a 	tsteq	r0, sl
     7f0:	100a9080 	andne	r9, sl, r0, lsl #1
     7f4:	00002480 	andeq	r2, r0, r0, lsl #9
     7f8:	109c0100 	addsne	r0, ip, r0, lsl #2
     7fc:	00000ac9 	andeq	r0, r0, r9, asr #21
     800:	0a6c6e01 	beq	1b1c00c <_start-0x7e5e3ff4>
     804:	00248010 	eoreq	r8, r4, r0, lsl r0
     808:	9c010000 	stcls	0, cr0, [r1], {-0}
     80c:	00108511 	andseq	r8, r0, r1, lsl r5
     810:	685a0100 	ldmdavs	sl, {r8}^
     814:	36000000 	strcc	r0, [r0], -r0
     818:	3680100a 	strcc	r1, [r0], sl
     81c:	01000000 	mrseq	r0, (UNDEF: 0)
     820:	0002649c 	muleq	r2, ip, r4
     824:	02001200 	andeq	r1, r0, #0, 4
     828:	5a010000 	bpl	40830 <_start-0x800bf7d0>
     82c:	00000159 	andeq	r0, r0, r9, asr r1
     830:	00749102 	rsbseq	r9, r4, r2, lsl #2
     834:	0002ad11 	andeq	sl, r2, r1, lsl sp
     838:	68420100 	stmdavs	r2, {r8}^
     83c:	c4000000 	strgt	r0, [r0], #-0
     840:	72801009 	addvc	r1, r0, #9
     844:	01000000 	mrseq	r0, (UNDEF: 0)
     848:	0002989c 	muleq	r2, ip, r8
     84c:	02c91200 	sbceq	r1, r9, #0, 4
     850:	42010000 	andmi	r0, r1, #0
     854:	00000147 	andeq	r0, r0, r7, asr #2
     858:	136c9102 	cmnne	ip, #-2147483648	; 0x80000000
     85c:	44010069 	strmi	r0, [r1], #-105	; 0xffffff97
     860:	00000068 	andeq	r0, r0, r8, rrx
     864:	00749102 	rsbseq	r9, r4, r2, lsl #2
     868:	00026514 	andeq	r6, r2, r4, lsl r5
     86c:	682a0100 	stmdavs	sl!, {r8}
     870:	74000000 	strvc	r0, [r0], #-0
     874:	50801009 	addpl	r1, r0, r9
     878:	01000000 	mrseq	r0, (UNDEF: 0)
     87c:	0002cc9c 	muleq	r2, ip, ip
     880:	02221200 	eoreq	r1, r2, #0, 4
     884:	2a010000 	bcs	4088c <_start-0x800bf774>
     888:	000001bf 			; <UNDEFINED> instruction: 0x000001bf
     88c:	136c9102 	cmnne	ip, #-2147483648	; 0x80000000
     890:	2c010069 	stccs	0, cr0, [r1], {105}	; 0x69
     894:	00000068 	andeq	r0, r0, r8, rrx
     898:	00749102 	rsbseq	r9, r4, r2, lsl #2
     89c:	0002a614 	andeq	sl, r2, r4, lsl r6
     8a0:	68140100 	ldmdavs	r4, {r8}
     8a4:	3a000000 	bcc	8ac <_start-0x800ff754>
     8a8:	3a801009 	bcc	fe0048d4 <__bss_end+0x7df027c0>
     8ac:	01000000 	mrseq	r0, (UNDEF: 0)
     8b0:	00030d9c 	muleq	r3, ip, sp
     8b4:	73631500 	cmnvc	r3, #0, 10
     8b8:	0d140100 	ldfeqs	f0, [r4, #-0]
     8bc:	02000003 	andeq	r0, r0, #3
     8c0:	63157491 	tstvs	r5, #-1862270976	; 0x91000000
     8c4:	14010074 	strne	r0, [r1], #-116	; 0xffffff8c
     8c8:	0000030d 	andeq	r0, r0, sp, lsl #6
     8cc:	0f709102 	svceq	0x00709102
     8d0:	000002e5 	andeq	r0, r0, r5, ror #5
     8d4:	03131601 	tsteq	r3, #1048576	; 0x100000
     8d8:	54010000 	strpl	r0, [r1], #-0
     8dc:	54040800 	strpl	r0, [r4], #-2048	; 0xfffff800
     8e0:	02000001 	andeq	r0, r0, #1
     8e4:	012f0601 			; <UNDEFINED> instruction: 0x012f0601
     8e8:	b3000000 	movwlt	r0, #0
     8ec:	04000002 	streq	r0, [r0], #-2
     8f0:	00041600 	andeq	r1, r4, r0, lsl #12
     8f4:	00010400 	andeq	r0, r1, r0, lsl #8
     8f8:	0c000000 	stceq	0, cr0, [r0], {-0}
     8fc:	000002eb 	andeq	r0, r0, fp, ror #5
     900:	000000aa 	andeq	r0, r0, sl, lsr #1
     904:	80100ac0 	andshi	r0, r0, r0, asr #21
     908:	0000018c 	andeq	r0, r0, ip, lsl #3
     90c:	0000041c 	andeq	r0, r0, ip, lsl r4
     910:	9d070402 	cfstrsls	mvf0, [r7, #-8]
     914:	03000000 	movweq	r0, #0
     918:	0000020b 	andeq	r0, r0, fp, lsl #4
     91c:	680c0210 	stmdavs	ip, {r4, r9}
     920:	04000000 	streq	r0, [r0], #-0
     924:	02006564 	andeq	r6, r0, #100, 10	; 0x19000000
     928:	0000680d 	andeq	r6, r0, sp, lsl #16
     92c:	7d050000 	stcvc	0, cr0, [r5, #-0]
     930:	02000002 	andeq	r0, r0, #2
     934:	0000680e 	andeq	r6, r0, lr, lsl #16
     938:	5f050400 	svcpl	0x00050400
     93c:	02000002 	andeq	r0, r0, #2
     940:	0000680f 	andeq	r6, r0, pc, lsl #16
     944:	c3050800 	movwgt	r0, #22528	; 0x5800
     948:	02000002 	andeq	r0, r0, #2
     94c:	00006810 	andeq	r6, r0, r0, lsl r8
     950:	06000c00 	streq	r0, [r0], -r0, lsl #24
     954:	6e690504 	cdpvs	5, 6, cr0, cr9, cr4, {0}
     958:	68070074 	stmdavs	r7, {r2, r4, r5, r6}
     95c:	08000000 	stmdaeq	r0, {}	; <UNPREDICTABLE>
     960:	0000020b 	andeq	r0, r0, fp, lsl #4
     964:	002c1102 	eoreq	r1, ip, r2, lsl #2
     968:	d7030000 	strle	r0, [r3, -r0]
     96c:	1c000002 	stcne	0, cr0, [r0], {2}
     970:	00e01302 	rsceq	r1, r0, r2, lsl #6
     974:	74040000 	strvc	r0, [r4], #-0
     978:	02007076 	andeq	r7, r0, #118	; 0x76
     97c:	00006815 	andeq	r6, r0, r5, lsl r8
     980:	74040000 	strvc	r0, [r4], #-0
     984:	02006276 	andeq	r6, r0, #1610612743	; 0x60000007
     988:	00006816 	andeq	r6, r0, r6, lsl r8
     98c:	74040400 	strvc	r0, [r4], #-1024	; 0xfffffc00
     990:	02006676 	andeq	r6, r0, #123731968	; 0x7600000
     994:	00006817 	andeq	r6, r0, r7, lsl r8
     998:	74040800 	strvc	r0, [r4], #-2048	; 0xfffff800
     99c:	02007068 	andeq	r7, r0, #104	; 0x68
     9a0:	0000681a 	andeq	r6, r0, sl, lsl r8
     9a4:	74040c00 	strvc	r0, [r4], #-3072	; 0xfffff400
     9a8:	02006268 	andeq	r6, r0, #104, 4	; 0x80000006
     9ac:	0000681b 	andeq	r6, r0, fp, lsl r8
     9b0:	74041000 	strvc	r1, [r4], #-0
     9b4:	02006668 	andeq	r6, r0, #104, 12	; 0x6800000
     9b8:	0000681c 	andeq	r6, r0, ip, lsl r8
     9bc:	7d051400 	cfstrsvc	mvf1, [r5, #-0]
     9c0:	02000002 	andeq	r0, r0, #2
     9c4:	0000681e 	andeq	r6, r0, lr, lsl r8
     9c8:	08001800 	stmdaeq	r0, {fp, ip}
     9cc:	000002d7 	ldrdeq	r0, [r0], -r7
     9d0:	007f1f02 	rsbseq	r1, pc, r2, lsl #30
     9d4:	84030000 	strhi	r0, [r3], #-0
     9d8:	40000002 	andmi	r0, r0, r2
     9dc:	014c2202 	cmpeq	ip, r2, lsl #4
     9e0:	c9050000 	stmdbgt	r5, {}	; <UNPREDICTABLE>
     9e4:	02000002 	andeq	r0, r0, #2
     9e8:	00014c24 	andeq	r4, r1, r4, lsr #24
     9ec:	ce050000 	cdpgt	0, 0, cr0, cr5, cr0, {0}
     9f0:	02000002 	andeq	r0, r0, #2
     9f4:	00007427 	andeq	r7, r0, r7, lsr #8
     9f8:	19050400 	stmdbne	r5, {sl}
     9fc:	02000002 	andeq	r0, r0, #2
     a00:	0000e02a 	andeq	lr, r0, sl, lsr #32
     a04:	81051400 	tsthi	r5, r0, lsl #8
     a08:	02000000 	andeq	r0, r0, #0
     a0c:	0000682d 	andeq	r6, r0, sp, lsr #16
     a10:	fb053000 	blx	14ca1a <_start-0x7ffb35e6>
     a14:	02000000 	andeq	r0, r0, #0
     a18:	0000682e 	andeq	r6, r0, lr, lsr #16
     a1c:	62043400 	andvs	r3, r4, #0, 8
     a20:	02007070 	andeq	r7, r0, #112	; 0x70
     a24:	0000682f 	andeq	r6, r0, pc, lsr #16
     a28:	8f053800 	svchi	0x00053800
     a2c:	02000000 	andeq	r0, r0, #0
     a30:	00002532 	andeq	r2, r0, r2, lsr r5
     a34:	09003c00 	stmdbeq	r0, {sl, fp, ip, sp}
     a38:	00015204 	andeq	r5, r1, r4, lsl #4
     a3c:	08010200 	stmdaeq	r1, {r9}
     a40:	00000136 	andeq	r0, r0, r6, lsr r1
     a44:	00028208 	andeq	r8, r2, r8, lsl #4
     a48:	64340200 	ldrtvs	r0, [r4], #-512	; 0xfffffe00
     a4c:	09000001 	stmdbeq	r0, {r0}
     a50:	0000eb04 	andeq	lr, r0, r4, lsl #22
     a54:	01590a00 	cmpeq	r9, r0, lsl #20
     a58:	017a0000 	cmneq	sl, r0
     a5c:	7a0b0000 	bvc	2c0a64 <_start-0x7fe3f59c>
     a60:	04000001 	streq	r0, [r0], #-1
     a64:	07040200 	streq	r0, [r4, -r0, lsl #4]
     a68:	0000015b 	andeq	r0, r0, fp, asr r1
     a6c:	0003140c 	andeq	r1, r3, ip, lsl #8
     a70:	6a070100 	bvs	1c0e78 <_start-0x7ff3f188>
     a74:	05000001 	streq	r0, [r0, #-1]
     a78:	1020fc03 	eorne	pc, r0, r3, lsl #24
     a7c:	03360c80 	teqeq	r6, #128, 24	; 0x8000
     a80:	08010000 	stmdaeq	r1, {}	; <UNPREDICTABLE>
     a84:	00000159 	andeq	r0, r0, r9, asr r1
     a88:	21100305 	tstcs	r0, r5, lsl #6
     a8c:	ff0d8010 			; <UNDEFINED> instruction: 0xff0d8010
     a90:	01000002 	tsteq	r0, r2
     a94:	100c147b 	andne	r1, ip, fp, ror r4
     a98:	00003880 	andeq	r3, r0, r0, lsl #17
     a9c:	0d9c0100 	ldfeqs	f0, [ip]
     aa0:	00000308 	andeq	r0, r0, r8, lsl #6
     aa4:	0c086c01 	stceq	12, cr6, [r8], {1}
     aa8:	000c8010 	andeq	r8, ip, r0, lsl r0
     aac:	9c010000 	stcls	0, cr0, [r1], {-0}
     ab0:	0003200d 	andeq	r2, r3, sp
     ab4:	fc5d0100 	mrrc2	1, 0, r0, sp, cr0
     ab8:	0c80100b 	stceq	0, cr1, [r0], {11}
     abc:	01000000 	mrseq	r0, (UNDEF: 0)
     ac0:	01ac0e9c 	stlexdeq	r0, ip, sp, [ip]
     ac4:	4a010000 	bmi	40acc <_start-0x800bf534>
     ac8:	80100ba2 	andshi	r0, r0, r2, lsr #23
     acc:	0000005a 	andeq	r0, r0, sl, asr r0
     ad0:	02249c01 	eoreq	r9, r4, #256	; 0x100
     ad4:	8f0f0000 	svchi	0x000f0000
     ad8:	01000000 	mrseq	r0, (UNDEF: 0)
     adc:	0002244a 	andeq	r2, r2, sl, asr #8
     ae0:	74910200 	ldrvc	r0, [r1], #512	; 0x200
     ae4:	0000810f 	andeq	r8, r0, pc, lsl #2
     ae8:	2a4a0100 	bcs	1280ef0 <_start-0x7ee7f110>
     aec:	02000002 	andeq	r0, r0, #2
     af0:	fb0f7091 	blx	3dcd3e <_start-0x7fd232c2>
     af4:	01000000 	mrseq	r0, (UNDEF: 0)
     af8:	00022a4a 	andeq	r2, r2, sl, asr #20
     afc:	6c910200 	lfmvs	f0, 4, [r1], {0}
     b00:	70706210 	rsbsvc	r6, r0, r0, lsl r2
     b04:	2a4a0100 	bcs	1280f0c <_start-0x7ee7f0f4>
     b08:	02000002 	andeq	r0, r0, #2
     b0c:	09006891 	stmdbeq	r0, {r0, r4, r7, fp, sp, lr}
     b10:	00002504 	andeq	r2, r0, r4, lsl #10
     b14:	68040900 	stmdavs	r4, {r8, fp}
     b18:	11000000 	mrsne	r0, (UNDEF: 0)
     b1c:	0000032b 	andeq	r0, r0, fp, lsr #6
     b20:	00683201 	rsbeq	r3, r8, r1, lsl #4
     b24:	0b300000 	bleq	c00b2c <_start-0x7f4ff4d4>
     b28:	00728010 	rsbseq	r8, r2, r0, lsl r0
     b2c:	9c010000 	stcls	0, cr0, [r1], {-0}
     b30:	00000264 	andeq	r0, r0, r4, ror #4
     b34:	0002c90f 	andeq	ip, r2, pc, lsl #18
     b38:	4c320100 	ldfmis	f0, [r2], #-0
     b3c:	02000001 	andeq	r0, r0, #1
     b40:	69126c91 	ldmdbvs	r2, {r0, r4, r7, sl, fp, sp, lr}
     b44:	68340100 	ldmdavs	r4!, {r8}
     b48:	02000000 	andeq	r0, r0, #0
     b4c:	13007491 	movwne	r7, #1169	; 0x491
     b50:	00000347 	andeq	r0, r0, r7, asr #6
     b54:	00682401 	rsbeq	r2, r8, r1, lsl #8
     b58:	0ae00000 	beq	ff800b60 <__bss_end+0x7f6fea4c>
     b5c:	00508010 	subseq	r8, r0, r0, lsl r0
     b60:	9c010000 	stcls	0, cr0, [r1], {-0}
     b64:	00000298 	muleq	r0, r8, r2
     b68:	0003540f 	andeq	r5, r3, pc, lsl #8
     b6c:	59240100 	stmdbpl	r4!, {r8}
     b70:	02000001 	andeq	r0, r0, #1
     b74:	69126c91 	ldmdbvs	r2, {r0, r4, r7, sl, fp, sp, lr}
     b78:	68260100 	stmdavs	r6!, {r8}
     b7c:	02000000 	andeq	r0, r0, #0
     b80:	14007491 	strne	r7, [r0], #-1169	; 0xfffffb6f
     b84:	000002f9 	strdeq	r0, [r0], -r9
     b88:	0ac01401 	beq	ff005b94 <__bss_end+0x7ef03a80>
     b8c:	00208010 	eoreq	r8, r0, r0, lsl r0
     b90:	9c010000 	stcls	0, cr0, [r1], {-0}
     b94:	01006410 	tsteq	r0, r0, lsl r4
     b98:	00006f14 	andeq	r6, r0, r4, lsl pc
     b9c:	74910200 	ldrvc	r0, [r1], #512	; 0x200
     ba0:	01970000 	orrseq	r0, r7, r0
     ba4:	00040000 	andeq	r0, r4, r0
     ba8:	0000055a 	andeq	r0, r0, sl, asr r5
     bac:	00000104 	andeq	r0, r0, r4, lsl #2
     bb0:	820c0000 	andhi	r0, ip, #0
     bb4:	aa000003 	bge	bc8 <_start-0x800ff438>
     bb8:	4c000000 	stcmi	0, cr0, [r0], {-0}
     bbc:	1480100c 	strne	r1, [r0], #12
     bc0:	bd000000 	stclt	0, cr0, [r0, #-0]
     bc4:	02000004 	andeq	r0, r0, #4
     bc8:	00003e04 	andeq	r3, r0, r4, lsl #28
     bcc:	3e040200 	cdpcc	2, 0, cr0, cr4, cr0, {0}
     bd0:	03000000 	movweq	r0, #0
     bd4:	0000037b 	andeq	r0, r0, fp, ror r3
     bd8:	03650300 	cmneq	r5, #0, 6
     bdc:	00010000 	andeq	r0, r1, r0
     be0:	9d070404 	cfstrsls	mvf0, [r7, #-16]
     be4:	05000000 	streq	r0, [r0, #-0]
     be8:	0000020b 	andeq	r0, r0, fp, lsl #4
     bec:	810c0210 	tsthi	ip, r0, lsl r2
     bf0:	06000000 	streq	r0, [r0], -r0
     bf4:	02006564 	andeq	r6, r0, #100, 10	; 0x19000000
     bf8:	0000810d 	andeq	r8, r0, sp, lsl #2
     bfc:	7d070000 	stcvc	0, cr0, [r7, #-0]
     c00:	02000002 	andeq	r0, r0, #2
     c04:	0000810e 	andeq	r8, r0, lr, lsl #2
     c08:	5f070400 	svcpl	0x00070400
     c0c:	02000002 	andeq	r0, r0, #2
     c10:	0000810f 	andeq	r8, r0, pc, lsl #2
     c14:	c3070800 	movwgt	r0, #30720	; 0x7800
     c18:	02000002 	andeq	r0, r0, #2
     c1c:	00008110 	andeq	r8, r0, r0, lsl r1
     c20:	08000c00 	stmdaeq	r0, {sl, fp}
     c24:	6e690504 	cdpvs	5, 6, cr0, cr9, cr4, {0}
     c28:	0b090074 	bleq	240e00 <_start-0x7febf200>
     c2c:	02000002 	andeq	r0, r0, #2
     c30:	00004511 	andeq	r4, r0, r1, lsl r5
     c34:	02d70500 	sbcseq	r0, r7, #0, 10
     c38:	021c0000 	andseq	r0, ip, #0
     c3c:	0000f413 	andeq	pc, r0, r3, lsl r4	; <UNPREDICTABLE>
     c40:	76740600 	ldrbtvc	r0, [r4], -r0, lsl #12
     c44:	15020070 	strne	r0, [r2, #-112]	; 0xffffff90
     c48:	00000081 	andeq	r0, r0, r1, lsl #1
     c4c:	76740600 	ldrbtvc	r0, [r4], -r0, lsl #12
     c50:	16020062 	strne	r0, [r2], -r2, rrx
     c54:	00000081 	andeq	r0, r0, r1, lsl #1
     c58:	76740604 	ldrbtvc	r0, [r4], -r4, lsl #12
     c5c:	17020066 	strne	r0, [r2, -r6, rrx]
     c60:	00000081 	andeq	r0, r0, r1, lsl #1
     c64:	68740608 	ldmdavs	r4!, {r3, r9, sl}^
     c68:	1a020070 	bne	80e30 <_start-0x8007f1d0>
     c6c:	00000081 	andeq	r0, r0, r1, lsl #1
     c70:	6874060c 	ldmdavs	r4!, {r2, r3, r9, sl}^
     c74:	1b020062 	blne	80e04 <_start-0x8007f1fc>
     c78:	00000081 	andeq	r0, r0, r1, lsl #1
     c7c:	68740610 	ldmdavs	r4!, {r4, r9, sl}^
     c80:	1c020066 	stcne	0, cr0, [r2], {102}	; 0x66
     c84:	00000081 	andeq	r0, r0, r1, lsl #1
     c88:	027d0714 	rsbseq	r0, sp, #20, 14	; 0x500000
     c8c:	1e020000 	cdpne	0, 0, cr0, cr2, cr0, {0}
     c90:	00000081 	andeq	r0, r0, r1, lsl #1
     c94:	d7090018 	smladle	r9, r8, r0, r0
     c98:	02000002 	andeq	r0, r0, #2
     c9c:	0000931f 	andeq	r9, r0, pc, lsl r3
     ca0:	02840500 	addeq	r0, r4, #0, 10
     ca4:	02400000 	subeq	r0, r0, #0
     ca8:	00016022 	andeq	r6, r1, r2, lsr #32
     cac:	02c90700 	sbceq	r0, r9, #0, 14
     cb0:	24020000 	strcs	r0, [r2], #-0
     cb4:	00000160 	andeq	r0, r0, r0, ror #2
     cb8:	02ce0700 	sbceq	r0, lr, #0, 14
     cbc:	27020000 	strcs	r0, [r2, -r0]
     cc0:	00000088 	andeq	r0, r0, r8, lsl #1
     cc4:	02190704 	andseq	r0, r9, #4, 14	; 0x100000
     cc8:	2a020000 	bcs	80cd0 <_start-0x8007f330>
     ccc:	000000f4 	strdeq	r0, [r0], -r4
     cd0:	00810714 	addeq	r0, r1, r4, lsl r7
     cd4:	2d020000 	stccs	0, cr0, [r2, #-0]
     cd8:	00000081 	andeq	r0, r0, r1, lsl #1
     cdc:	00fb0730 	rscseq	r0, fp, r0, lsr r7
     ce0:	2e020000 	cdpcs	0, 0, cr0, cr2, cr0, {0}
     ce4:	00000081 	andeq	r0, r0, r1, lsl #1
     ce8:	70620634 	rsbvc	r0, r2, r4, lsr r6
     cec:	2f020070 	svccs	0x00020070
     cf0:	00000081 	andeq	r0, r0, r1, lsl #1
     cf4:	008f0738 	addeq	r0, pc, r8, lsr r7	; <UNPREDICTABLE>
     cf8:	32020000 	andcc	r0, r2, #0
     cfc:	0000003e 	andeq	r0, r0, lr, lsr r0
     d00:	040a003c 	streq	r0, [sl], #-60	; 0xffffffc4
     d04:	00000166 	andeq	r0, r0, r6, ror #2
     d08:	36080104 	strcc	r0, [r8], -r4, lsl #2
     d0c:	09000001 	stmdbeq	r0, {r0}
     d10:	00000284 	andeq	r0, r0, r4, lsl #5
     d14:	00ff3402 	rscseq	r3, pc, r2, lsl #8
     d18:	6c0b0000 	stcvs	0, cr0, [fp], {-0}
     d1c:	01000003 	tsteq	r0, r3
     d20:	00016d06 	andeq	r6, r1, r6, lsl #26
     d24:	54030500 	strpl	r0, [r3], #-1280	; 0xfffffb00
     d28:	0c801020 	stceq	0, cr1, [r0], {32}
     d2c:	00000359 	andeq	r0, r0, r9, asr r3
     d30:	0c4c2b01 	mcrreq	11, 0, r2, ip, cr1
     d34:	00148010 	andseq	r8, r4, r0, lsl r0
     d38:	9c010000 	stcls	0, cr0, [r1], {-0}
     d3c:	000e9100 	andeq	r9, lr, r0, lsl #2
     d40:	08000400 	stmdaeq	r0, {sl}
     d44:	04000006 	streq	r0, [r0], #-6
     d48:	00000001 	andeq	r0, r0, r1
     d4c:	08a00c00 	stmiaeq	r0!, {sl, fp}
     d50:	00aa0000 	adceq	r0, sl, r0
     d54:	0c600000 	stcleq	0, cr0, [r0], #-0
     d58:	03ae8010 			; <UNDEFINED> instruction: 0x03ae8010
     d5c:	05090000 	streq	r0, [r9, #-0]
     d60:	74020000 	strvc	r0, [r2], #-0
     d64:	018a1702 	orreq	r1, sl, r2, lsl #14
     d68:	44030000 	strmi	r0, [r3], #-0
     d6c:	02000008 	andeq	r0, r0, #8
     d70:	00019118 	andeq	r9, r1, r8, lsl r1
     d74:	14030000 	strne	r0, [r3], #-0
     d78:	02000005 	andeq	r0, r0, #5
     d7c:	00019119 	andeq	r9, r1, r9, lsl r1
     d80:	99030400 	stmdbls	r3, {sl}
     d84:	02000009 	andeq	r0, r0, #9
     d88:	0001911a 	andeq	r9, r1, sl, lsl r1
     d8c:	24030800 	strcs	r0, [r3], #-2048	; 0xfffff800
     d90:	02000008 	andeq	r0, r0, #8
     d94:	0001911b 	andeq	r9, r1, fp, lsl r1
     d98:	f1030c00 			; <UNDEFINED> instruction: 0xf1030c00
     d9c:	02000006 	andeq	r0, r0, #6
     da0:	0001911c 	andeq	r9, r1, ip, lsl r1
     da4:	49031000 	stmdbmi	r3, {ip}
     da8:	0200000b 	andeq	r0, r0, #11
     dac:	0001911d 	andeq	r9, r1, sp, lsl r1
     db0:	63031400 	movwvs	r1, #13312	; 0x3400
     db4:	0200000b 	andeq	r0, r0, #11
     db8:	0001911e 	andeq	r9, r1, lr, lsl r1
     dbc:	7d031800 	stcvc	8, cr1, [r3, #-0]
     dc0:	0200000b 	andeq	r0, r0, #11
     dc4:	0001911f 	andeq	r9, r1, pc, lsl r1
     dc8:	97031c00 	strls	r1, [r3, -r0, lsl #24]
     dcc:	0200000b 	andeq	r0, r0, #11
     dd0:	00019120 	andeq	r9, r1, r0, lsr #2
     dd4:	b1032000 	mrslt	r2, (UNDEF: 3)
     dd8:	0200000b 	andeq	r0, r0, #11
     ddc:	00019121 	andeq	r9, r1, r1, lsr #2
     de0:	cb032400 	blgt	c9de8 <_start-0x80036218>
     de4:	0200000b 	andeq	r0, r0, #11
     de8:	00019122 	andeq	r9, r1, r2, lsr #2
     dec:	e5032800 	str	r2, [r3, #-2048]	; 0xfffff800
     df0:	0200000b 	andeq	r0, r0, #11
     df4:	00019123 	andeq	r9, r1, r3, lsr #2
     df8:	ff032c00 			; <UNDEFINED> instruction: 0xff032c00
     dfc:	0200000b 	andeq	r0, r0, #11
     e00:	00019124 	andeq	r9, r1, r4, lsr #2
     e04:	19033000 	stmdbne	r3, {ip, sp}
     e08:	0200000c 	andeq	r0, r0, #12
     e0c:	00019125 	andeq	r9, r1, r5, lsr #2
     e10:	33033400 	movwcc	r3, #13312	; 0x3400
     e14:	0200000c 	andeq	r0, r0, #12
     e18:	00019126 	andeq	r9, r1, r6, lsr #2
     e1c:	9c033800 	stcls	8, cr3, [r3], {-0}
     e20:	0200000d 	andeq	r0, r0, #13
     e24:	00019127 	andeq	r9, r1, r7, lsr #2
     e28:	b6033c00 	strlt	r3, [r3], -r0, lsl #24
     e2c:	0200000d 	andeq	r0, r0, #13
     e30:	00019128 	andeq	r9, r1, r8, lsr #2
     e34:	d0034000 	andle	r4, r3, r0
     e38:	0200000d 	andeq	r0, r0, #13
     e3c:	00019129 	andeq	r9, r1, r9, lsr #2
     e40:	ea034400 	b	d1e48 <_start-0x8002e1b8>
     e44:	0200000d 	andeq	r0, r0, #13
     e48:	0001912a 	andeq	r9, r1, sl, lsr #2
     e4c:	04034800 	streq	r4, [r3], #-2048	; 0xfffff800
     e50:	0200000e 	andeq	r0, r0, #14
     e54:	0001912b 	andeq	r9, r1, fp, lsr #2
     e58:	1e034c00 	cdpne	12, 0, cr4, cr3, cr0, {0}
     e5c:	0200000e 	andeq	r0, r0, #14
     e60:	0001912c 	andeq	r9, r1, ip, lsr #2
     e64:	38035000 	stmdacc	r3, {ip, lr}
     e68:	0200000e 	andeq	r0, r0, #14
     e6c:	0001912d 	andeq	r9, r1, sp, lsr #2
     e70:	52035400 	andpl	r5, r3, #0, 8
     e74:	0200000e 	andeq	r0, r0, #14
     e78:	0001912e 	andeq	r9, r1, lr, lsr #2
     e7c:	6c035800 	stcvs	8, cr5, [r3], {-0}
     e80:	0200000e 	andeq	r0, r0, #14
     e84:	0001912f 	andeq	r9, r1, pc, lsr #2
     e88:	86035c00 	strhi	r5, [r3], -r0, lsl #24
     e8c:	0200000e 	andeq	r0, r0, #14
     e90:	00019130 	andeq	r9, r1, r0, lsr r1
     e94:	b8036000 	stmdalt	r3, {sp, lr}
     e98:	0200000f 	andeq	r0, r0, #15
     e9c:	00019131 	andeq	r9, r1, r1, lsr r1
     ea0:	d2036400 	andle	r6, r3, #0, 8
     ea4:	0200000f 	andeq	r0, r0, #15
     ea8:	00019132 	andeq	r9, r1, r2, lsr r1
     eac:	ec036800 	stc	8, cr6, [r3], {-0}
     eb0:	0200000f 	andeq	r0, r0, #15
     eb4:	00019133 	andeq	r9, r1, r3, lsr r1
     eb8:	06036c00 	streq	r6, [r3], -r0, lsl #24
     ebc:	02000010 	andeq	r0, r0, #16
     ec0:	00019134 	andeq	r9, r1, r4, lsr r1
     ec4:	04007000 	streq	r7, [r0], #-0
     ec8:	009d0704 	addseq	r0, sp, r4, lsl #14
     ecc:	8a050000 	bhi	140ed4 <_start-0x7ffbf12c>
     ed0:	06000001 	streq	r0, [r0], -r1
     ed4:	000006d3 	ldrdeq	r0, [r0], -r3
     ed8:	00253502 	eoreq	r3, r5, r2, lsl #10
     edc:	74020000 	strvc	r0, [r2], #-0
     ee0:	03063702 	movweq	r3, #26370	; 0x6702
     ee4:	1f030000 	svcne	0x00030000
     ee8:	0200000a 	andeq	r0, r0, #10
     eec:	00019138 	andeq	r9, r1, r8, lsr r1
     ef0:	27030000 	strcs	r0, [r3, -r0]
     ef4:	02000007 	andeq	r0, r0, #7
     ef8:	00019139 	andeq	r9, r1, r9, lsr r1
     efc:	a5030400 	strge	r0, [r3, #-1024]	; 0xfffffc00
     f00:	02000010 	andeq	r0, r0, #16
     f04:	0001913a 	andeq	r9, r1, sl, lsr r1
     f08:	0f030800 	svceq	0x00030800
     f0c:	0200000b 	andeq	r0, r0, #11
     f10:	0001913b 	andeq	r9, r1, fp, lsr r1
     f14:	f0030c00 			; <UNDEFINED> instruction: 0xf0030c00
     f18:	0200000c 	andeq	r0, r0, #12
     f1c:	0001913c 	andeq	r9, r1, ip, lsr r1
     f20:	e8031000 	stmda	r3, {ip}
     f24:	02000010 	andeq	r0, r0, #16
     f28:	0001913d 	andeq	r9, r1, sp, lsr r1
     f2c:	09031400 	stmdbeq	r3, {sl, ip}
     f30:	02000011 	andeq	r0, r0, #17
     f34:	0001913e 	andeq	r9, r1, lr, lsr r1
     f38:	2a031800 	bcs	c6f40 <_start-0x800390c0>
     f3c:	02000011 	andeq	r0, r0, #17
     f40:	0001913f 	andeq	r9, r1, pc, lsr r1
     f44:	4b031c00 	blmi	c7f4c <_start-0x800380b4>
     f48:	02000011 	andeq	r0, r0, #17
     f4c:	00019140 	andeq	r9, r1, r0, asr #2
     f50:	6c032000 	stcvs	0, cr2, [r3], {-0}
     f54:	02000011 	andeq	r0, r0, #17
     f58:	00019141 	andeq	r9, r1, r1, asr #2
     f5c:	8c032400 	cfstrshi	mvf2, [r3], {-0}
     f60:	02000003 	andeq	r0, r0, #3
     f64:	00019142 	andeq	r9, r1, r2, asr #2
     f68:	ad032800 	stcge	8, cr2, [r3, #-0]
     f6c:	02000003 	andeq	r0, r0, #3
     f70:	00019143 	andeq	r9, r1, r3, asr #2
     f74:	ce032c00 	cdpgt	12, 0, cr2, cr3, cr0, {0}
     f78:	02000003 	andeq	r0, r0, #3
     f7c:	00019144 	andeq	r9, r1, r4, asr #2
     f80:	ef033000 	svc	0x00033000
     f84:	02000003 	andeq	r0, r0, #3
     f88:	00019145 	andeq	r9, r1, r5, asr #2
     f8c:	10033400 	andne	r3, r3, r0, lsl #8
     f90:	02000004 	andeq	r0, r0, #4
     f94:	00019146 	andeq	r9, r1, r6, asr #2
     f98:	35033800 	strcc	r3, [r3, #-2048]	; 0xfffff800
     f9c:	02000005 	andeq	r0, r0, #5
     fa0:	00019147 	andeq	r9, r1, r7, asr #2
     fa4:	56033c00 	strpl	r3, [r3], -r0, lsl #24
     fa8:	02000005 	andeq	r0, r0, #5
     fac:	00019148 	andeq	r9, r1, r8, asr #2
     fb0:	77034000 	strvc	r4, [r3, -r0]
     fb4:	02000005 	andeq	r0, r0, #5
     fb8:	00019149 	andeq	r9, r1, r9, asr #2
     fbc:	98034400 	stmdals	r3, {sl, lr}
     fc0:	02000005 	andeq	r0, r0, #5
     fc4:	0001914a 	andeq	r9, r1, sl, asr #2
     fc8:	b9034800 	stmdblt	r3, {fp, lr}
     fcc:	02000005 	andeq	r0, r0, #5
     fd0:	0001914b 	andeq	r9, r1, fp, asr #2
     fd4:	da034c00 	ble	d3fdc <_start-0x8002c024>
     fd8:	02000005 	andeq	r0, r0, #5
     fdc:	0001914c 	andeq	r9, r1, ip, asr #2
     fe0:	fb035000 	blx	d4fea <_start-0x8002b016>
     fe4:	02000005 	andeq	r0, r0, #5
     fe8:	0001914d 	andeq	r9, r1, sp, asr #2
     fec:	1c035400 	cfstrsne	mvf5, [r3], {-0}
     ff0:	02000006 	andeq	r0, r0, #6
     ff4:	0001914e 	andeq	r9, r1, lr, asr #2
     ff8:	3d035800 	stccc	8, cr5, [r3, #-0]
     ffc:	02000006 	andeq	r0, r0, #6
    1000:	0001914f 	andeq	r9, r1, pc, asr #2
    1004:	5e035c00 	cdppl	12, 0, cr5, cr3, cr0, {0}
    1008:	02000006 	andeq	r0, r0, #6
    100c:	00019150 	andeq	r9, r1, r0, asr r1
    1010:	c1036000 	mrsgt	r6, (UNDEF: 3)
    1014:	02000007 	andeq	r0, r0, #7
    1018:	00019151 	andeq	r9, r1, r1, asr r1
    101c:	e2036400 	and	r6, r3, #0, 8
    1020:	02000007 	andeq	r0, r0, #7
    1024:	00019152 	andeq	r9, r1, r2, asr r1
    1028:	03036800 	movweq	r6, #14336	; 0x3800
    102c:	02000008 	andeq	r0, r0, #8
    1030:	00019153 	andeq	r9, r1, r3, asr r1
    1034:	f2036c00 			; <UNDEFINED> instruction: 0xf2036c00
    1038:	02000008 	andeq	r0, r0, #8
    103c:	00019154 	andeq	r9, r1, r4, asr r1
    1040:	06007000 	streq	r7, [r0], -r0
    1044:	00000d81 	andeq	r0, r0, r1, lsl #27
    1048:	01a15502 			; <UNDEFINED> instruction: 0x01a15502
    104c:	8c020000 	stchi	0, cr0, [r2], {-0}
    1050:	04a65902 	strteq	r5, [r6], #2306	; 0x902
    1054:	43070000 	movwmi	r0, #28672	; 0x7000
    1058:	02005243 	andeq	r5, r0, #805306372	; 0x30000004
    105c:	0001915a 	andeq	r9, r1, sl, asr r1
    1060:	60030000 	andvs	r0, r3, r0
    1064:	02000004 	andeq	r0, r0, #4
    1068:	0001915b 	andeq	r9, r1, fp, asr r1
    106c:	43070400 	movwmi	r0, #29696	; 0x7400
    1070:	02005253 	andeq	r5, r0, #805306373	; 0x30000005
    1074:	0001915c 	andeq	r9, r1, ip, asr r1
    1078:	b5030800 	strlt	r0, [r3, #-2048]	; 0xfffff800
    107c:	02000004 	andeq	r0, r0, #4
    1080:	0001915d 	andeq	r9, r1, sp, asr r1
    1084:	64030c00 	strvs	r0, [r3], #-3072	; 0xfffff400
    1088:	02000007 	andeq	r0, r0, #7
    108c:	0001915e 	andeq	r9, r1, lr, asr r1
    1090:	76031000 	strvc	r1, [r3], -r0
    1094:	02000008 	andeq	r0, r0, #8
    1098:	0001915f 	andeq	r9, r1, pc, asr r1
    109c:	b9031400 	stmdblt	r3, {sl, ip}
    10a0:	02000009 	andeq	r0, r0, #9
    10a4:	00019160 	andeq	r9, r1, r0, ror #2
    10a8:	a2031800 	andge	r1, r3, #0, 16
    10ac:	0200000c 	andeq	r0, r0, #12
    10b0:	00019161 	andeq	r9, r1, r1, ror #2
    10b4:	eb031c00 	bl	c80bc <_start-0x80037f44>
    10b8:	02000008 	andeq	r0, r0, #8
    10bc:	00019162 	andeq	r9, r1, r2, ror #2
    10c0:	da032000 	ble	c90c8 <_start-0x80036f38>
    10c4:	02000010 	andeq	r0, r0, #16
    10c8:	00019163 	andeq	r9, r1, r3, ror #2
    10cc:	13032400 	movwne	r2, #13312	; 0x3400
    10d0:	02000009 	andeq	r0, r0, #9
    10d4:	00019164 	andeq	r9, r1, r4, ror #2
    10d8:	bc032800 	stclt	8, cr2, [r3], {-0}
    10dc:	02000008 	andeq	r0, r0, #8
    10e0:	00019165 	andeq	r9, r1, r5, ror #2
    10e4:	a6032c00 	strge	r2, [r3], -r0, lsl #24
    10e8:	02000004 	andeq	r0, r0, #4
    10ec:	00019166 	andeq	r9, r1, r6, ror #2
    10f0:	5d033000 	stcpl	0, cr3, [r3, #-0]
    10f4:	02000004 	andeq	r0, r0, #4
    10f8:	00019167 	andeq	r9, r1, r7, ror #2
    10fc:	e1033400 	tst	r3, r0, lsl #8
    1100:	02000010 	andeq	r0, r0, #16
    1104:	00019168 	andeq	r9, r1, r8, ror #2
    1108:	bf033800 	svclt	0x00033800
    110c:	02000009 	andeq	r0, r0, #9
    1110:	00019169 	andeq	r9, r1, r9, ror #2
    1114:	4e033c00 	cdpmi	12, 0, cr3, cr3, cr0, {0}
    1118:	02000007 	andeq	r0, r0, #7
    111c:	0004a66a 	andeq	sl, r4, sl, ror #12
    1120:	2c034000 	stccs	0, cr4, [r3], {-0}
    1124:	02000010 	andeq	r0, r0, #16
    1128:	0001916b 	andeq	r9, r1, fp, ror #2
    112c:	59034800 	stmdbpl	r3, {fp, lr}
    1130:	02000007 	andeq	r0, r0, #7
    1134:	0004a66c 	andeq	sl, r4, ip, ror #12
    1138:	ce034c00 	cdpgt	12, 0, cr4, cr3, cr0, {0}
    113c:	0200000c 	andeq	r0, r0, #12
    1140:	0001916d 	andeq	r9, r1, sp, ror #2
    1144:	d5035400 	strle	r5, [r3, #-1024]	; 0xfffffc00
    1148:	02000010 	andeq	r0, r0, #16
    114c:	0001916e 	andeq	r9, r1, lr, ror #2
    1150:	b8035800 	stmdalt	r3, {fp, ip, lr}
    1154:	02000006 	andeq	r0, r0, #6
    1158:	0001916f 	andeq	r9, r1, pc, ror #2
    115c:	cf035c00 	svcgt	0x00035c00
    1160:	02000010 	andeq	r0, r0, #16
    1164:	00019170 	andeq	r9, r1, r0, ror r1
    1168:	78036000 	stmdavc	r3, {sp, lr}
    116c:	02000010 	andeq	r0, r0, #16
    1170:	00019171 	andeq	r9, r1, r1, ror r1
    1174:	21036400 	tstcs	r3, r0, lsl #8
    1178:	02000007 	andeq	r0, r0, #7
    117c:	00019172 	andeq	r9, r1, r2, ror r1
    1180:	6d036800 	stcvs	8, cr6, [r3, #-0]
    1184:	02000004 	andeq	r0, r0, #4
    1188:	00019173 	andeq	r9, r1, r3, ror r1
    118c:	48036c00 	stmdami	r3, {sl, fp, sp, lr}
    1190:	02000007 	andeq	r0, r0, #7
    1194:	00019174 	andeq	r9, r1, r4, ror r1
    1198:	73037000 	movwvc	r7, #12288	; 0x3000
    119c:	02000004 	andeq	r0, r0, #4
    11a0:	00019175 	andeq	r9, r1, r5, ror r1
    11a4:	79037400 	stmdbvc	r3, {sl, ip, sp, lr}
    11a8:	02000004 	andeq	r0, r0, #4
    11ac:	00019176 	andeq	r9, r1, r6, ror r1
    11b0:	7f037800 	svcvc	0x00037800
    11b4:	02000004 	andeq	r0, r0, #4
    11b8:	00019177 	andeq	r9, r1, r7, ror r1
    11bc:	6a037c00 	bvs	e01c4 <_start-0x8001fe3c>
    11c0:	02000007 	andeq	r0, r0, #7
    11c4:	00019178 	andeq	r9, r1, r8, ror r1
    11c8:	91038000 	mrsls	r8, (UNDEF: 3)
    11cc:	0200000d 	andeq	r0, r0, #13
    11d0:	0004c479 	andeq	ip, r4, r9, ror r4
    11d4:	a2038400 	andge	r8, r3, #0, 8
    11d8:	02000006 	andeq	r0, r0, #6
    11dc:	0001917a 	andeq	r9, r1, sl, ror r1
    11e0:	08008800 	stmdaeq	r0, {fp, pc}
    11e4:	000004bd 			; <UNDEFINED> instruction: 0x000004bd
    11e8:	000004b6 			; <UNDEFINED> instruction: 0x000004b6
    11ec:	0004b609 	andeq	fp, r4, r9, lsl #12
    11f0:	04000700 	streq	r0, [r0], #-1792	; 0xfffff900
    11f4:	015b0704 	cmpeq	fp, r4, lsl #14
    11f8:	01040000 	mrseq	r0, (UNDEF: 4)
    11fc:	00012d08 	andeq	r2, r1, r8, lsl #26
    1200:	04bd0800 	ldrteq	r0, [sp], #2048	; 0x800
    1204:	04d40000 	ldrbeq	r0, [r4], #0
    1208:	b6090000 	strlt	r0, [r9], -r0
    120c:	03000004 	movweq	r0, #4
    1210:	04d00600 	ldrbeq	r0, [r0], #1536	; 0x600
    1214:	7b020000 	blvc	8121c <_start-0x8007ede4>
    1218:	00000311 	andeq	r0, r0, r1, lsl r3
    121c:	0202640a 	andeq	r6, r2, #167772160	; 0xa000000
    1220:	0008aa7e 	andeq	sl, r8, lr, ror sl
    1224:	0a650300 	beq	1941e2c <_start-0x7e7be1d4>
    1228:	7f020000 	svcvc	0x00020000
    122c:	00000191 	muleq	r0, r1, r1
    1230:	04ac0300 	strteq	r0, [ip], #768	; 0x300
    1234:	80020000 	andhi	r0, r2, r0
    1238:	00000191 	muleq	r0, r1, r1
    123c:	0f500304 	svceq	0x00500304
    1240:	81020000 	mrshi	r0, (UNDEF: 2)
    1244:	00000191 	muleq	r0, r1, r1
    1248:	06af0308 	strteq	r0, [pc], r8, lsl #6
    124c:	82020000 	andhi	r0, r2, #0
    1250:	00000191 	muleq	r0, r1, r1
    1254:	08e5030c 	stmiaeq	r5!, {r2, r3, r8, r9}^
    1258:	83020000 	movwhi	r0, #8192	; 0x2000
    125c:	00000191 	muleq	r0, r1, r1
    1260:	06bd0310 	ssateq	r0, #30, r0, lsl #6
    1264:	84020000 	strhi	r0, [r2], #-0
    1268:	00000191 	muleq	r0, r1, r1
    126c:	0edd0314 	mrceq	3, 6, r0, cr13, cr4, {0}
    1270:	85020000 	strhi	r0, [r2, #-0]
    1274:	00000191 	muleq	r0, r1, r1
    1278:	09770318 	ldmdbeq	r7!, {r3, r4, r8, r9}^
    127c:	86020000 	strhi	r0, [r2], -r0
    1280:	00000191 	muleq	r0, r1, r1
    1284:	04db031c 	ldrbeq	r0, [fp], #796	; 0x31c
    1288:	87020000 	strhi	r0, [r2, -r0]
    128c:	00000191 	muleq	r0, r1, r1
    1290:	106e0320 	rsbne	r0, lr, r0, lsr #6
    1294:	88020000 	stmdahi	r2, {}	; <UNPREDICTABLE>
    1298:	00000191 	muleq	r0, r1, r1
    129c:	0d770324 	ldcleq	3, cr0, [r7, #-144]!	; 0xffffff70
    12a0:	89020000 	stmdbhi	r2, {}	; <UNPREDICTABLE>
    12a4:	00000191 	muleq	r0, r1, r1
    12a8:	049c0328 	ldreq	r0, [ip], #808	; 0x328
    12ac:	8a020000 	bhi	812b4 <_start-0x8007ed4c>
    12b0:	00000191 	muleq	r0, r1, r1
    12b4:	07b2032c 	ldreq	r0, [r2, ip, lsr #6]!
    12b8:	8b020000 	blhi	812c0 <_start-0x8007ed40>
    12bc:	00000191 	muleq	r0, r1, r1
    12c0:	074e0330 	smlaldxeq	r0, lr, r0, r3
    12c4:	8c020000 	stchi	0, cr0, [r2], {-0}
    12c8:	000008aa 	andeq	r0, r0, sl, lsr #17
    12cc:	09f00334 	ldmibeq	r0!, {r2, r4, r5, r8, r9}^
    12d0:	8d020000 	stchi	0, cr0, [r2, #-0]
    12d4:	00000191 	muleq	r0, r1, r1
    12d8:	07590340 	ldrbeq	r0, [r9, -r0, asr #6]
    12dc:	8e020000 	cdphi	0, 0, cr0, cr2, cr0, {0}
    12e0:	000008aa 	andeq	r0, r0, sl, lsr #17
    12e4:	0b060344 	bleq	181ffc <_start-0x7ff7e004>
    12e8:	8f020000 	svchi	0x00020000
    12ec:	00000191 	muleq	r0, r1, r1
    12f0:	0d910350 	ldceq	3, cr0, [r1, #320]	; 0x140
    12f4:	90020000 	andls	r0, r2, r0
    12f8:	000008aa 	andeq	r0, r0, sl, lsr #17
    12fc:	0ec20354 	mcreq	3, 6, r0, cr2, cr4, {2}
    1300:	91020000 	mrsls	r0, (UNDEF: 2)
    1304:	00000191 	muleq	r0, r1, r1
    1308:	0a470360 	beq	11c2090 <_start-0x7ef3df70>
    130c:	92020000 	andls	r0, r2, #0
    1310:	000008aa 	andeq	r0, r0, sl, lsr #17
    1314:	08db0364 	ldmeq	fp, {r2, r5, r6, r8, r9}^
    1318:	93020000 	movwls	r0, #8192	; 0x2000
    131c:	00000191 	muleq	r0, r1, r1
    1320:	06c70370 			; <UNDEFINED> instruction: 0x06c70370
    1324:	94020000 	strls	r0, [r2], #-0
    1328:	00000191 	muleq	r0, r1, r1
    132c:	04490374 	strbeq	r0, [r9], #-884	; 0xfffffc8c
    1330:	95020000 	strls	r0, [r2, #-0]
    1334:	00000191 	muleq	r0, r1, r1
    1338:	0c8d0378 	stceq	3, cr0, [sp], {120}	; 0x78
    133c:	96020000 	strls	r0, [r2], -r0
    1340:	00000191 	muleq	r0, r1, r1
    1344:	08e3037c 	stmiaeq	r3!, {r2, r3, r4, r5, r6, r8, r9}^
    1348:	97020000 	strls	r0, [r2, -r0]
    134c:	00000191 	muleq	r0, r1, r1
    1350:	07700380 	ldrbeq	r0, [r0, -r0, lsl #7]!
    1354:	98020000 	stmdals	r2, {}	; <UNPREDICTABLE>
    1358:	000008aa 	andeq	r0, r0, sl, lsr #17
    135c:	04d90384 	ldrbeq	r0, [r9], #900	; 0x384
    1360:	99020000 	stmdbls	r2, {}	; <UNPREDICTABLE>
    1364:	00000191 	muleq	r0, r1, r1
    1368:	077b0390 			; <UNDEFINED> instruction: 0x077b0390
    136c:	9a020000 	bls	81374 <_start-0x8007ec8c>
    1370:	000008aa 	andeq	r0, r0, sl, lsr #17
    1374:	0d100394 	ldceq	3, cr0, [r0, #-592]	; 0xfffffdb0
    1378:	9b020000 	blls	81380 <_start-0x8007ec80>
    137c:	00000191 	muleq	r0, r1, r1
    1380:	078603a0 	streq	r0, [r6, r0, lsr #7]
    1384:	9c020000 	stcls	0, cr0, [r2], {-0}
    1388:	000008aa 	andeq	r0, r0, sl, lsr #17
    138c:	0d1803a4 	ldceq	3, cr0, [r8, #-656]	; 0xfffffd70
    1390:	9d020000 	stcls	0, cr0, [r2, #-0]
    1394:	00000191 	muleq	r0, r1, r1
    1398:	079103b0 			; <UNDEFINED> instruction: 0x079103b0
    139c:	9e020000 	cdpls	0, 0, cr0, cr2, cr0, {0}
    13a0:	000008aa 	andeq	r0, r0, sl, lsr #17
    13a4:	0c7b03b4 	ldcleq	3, cr0, [fp], #-720	; 0xfffffd30
    13a8:	9f020000 	svcls	0x00020000
    13ac:	00000191 	muleq	r0, r1, r1
    13b0:	079c03c0 	ldreq	r0, [ip, r0, asr #7]
    13b4:	a0020000 	andge	r0, r2, r0
    13b8:	000008aa 	andeq	r0, r0, sl, lsr #17
    13bc:	0c8403c4 	stceq	3, cr0, [r4], {196}	; 0xc4
    13c0:	a1020000 	mrsge	r0, (UNDEF: 2)
    13c4:	00000191 	muleq	r0, r1, r1
    13c8:	07a703d0 	sbfxeq	r0, r0, #7, #8
    13cc:	a2020000 	andge	r0, r2, #0
    13d0:	000008aa 	andeq	r0, r0, sl, lsr #17
    13d4:	0d4003d4 	stcleq	3, cr0, [r0, #-848]	; 0xfffffcb0
    13d8:	a3020000 	movwge	r0, #8192	; 0x2000
    13dc:	00000191 	muleq	r0, r1, r1
    13e0:	0f2003e0 	svceq	0x002003e0
    13e4:	a4020000 	strge	r0, [r2], #-0
    13e8:	000008aa 	andeq	r0, r0, sl, lsr #17
    13ec:	0c9903e4 	ldceq	3, cr0, [r9], {228}	; 0xe4
    13f0:	a5020000 	strge	r0, [r2, #-0]
    13f4:	00000191 	muleq	r0, r1, r1
    13f8:	0f2c03f0 	svceq	0x002c03f0
    13fc:	a6020000 	strge	r0, [r2], -r0
    1400:	000008aa 	andeq	r0, r0, sl, lsr #17
    1404:	0d620bf4 	vstmdbeq	r2!, {d16-<overflow reg d73>}
    1408:	a7020000 	strge	r0, [r2, -r0]
    140c:	00000191 	muleq	r0, r1, r1
    1410:	380b0100 	stmdacc	fp, {r8}
    1414:	0200000f 	andeq	r0, r0, #15
    1418:	0008aaa8 	andeq	sl, r8, r8, lsr #21
    141c:	0b010400 	bleq	42424 <_start-0x800bdbdc>
    1420:	00000926 	andeq	r0, r0, r6, lsr #18
    1424:	0191a902 	orrseq	sl, r1, r2, lsl #18
    1428:	01100000 	tsteq	r0, r0
    142c:	000f440b 	andeq	r4, pc, fp, lsl #8
    1430:	aaaa0200 	bge	fea81c38 <__bss_end+0x7e97fb24>
    1434:	14000008 	strne	r0, [r0], #-8
    1438:	09310b01 	ldmdbeq	r1!, {r0, r8, r9, fp}
    143c:	ab020000 	blge	81444 <_start-0x8007ebbc>
    1440:	00000191 	muleq	r0, r1, r1
    1444:	3d0b0120 	stfccs	f0, [fp, #-128]	; 0xffffff80
    1448:	0200000b 	andeq	r0, r0, #11
    144c:	0008aaac 	andeq	sl, r8, ip, lsr #21
    1450:	0b012400 	bleq	4a458 <_start-0x800b5ba8>
    1454:	0000093c 	andeq	r0, r0, ip, lsr r9
    1458:	0191ad02 	orrseq	sl, r1, r2, lsl #26
    145c:	01300000 	teqeq	r0, r0
    1460:	000f590b 	andeq	r5, pc, fp, lsl #18
    1464:	aaae0200 	bge	feb81c6c <__bss_end+0x7ea7fb58>
    1468:	34000008 	strcc	r0, [r0], #-8
    146c:	09470b01 	stmdbeq	r7, {r0, r8, r9, fp}^
    1470:	af020000 	svcge	0x00020000
    1474:	00000191 	muleq	r0, r1, r1
    1478:	650b0140 	strvs	r0, [fp, #-320]	; 0xfffffec0
    147c:	0200000f 	andeq	r0, r0, #15
    1480:	0008aab0 			; <UNDEFINED> instruction: 0x0008aab0
    1484:	0b014400 	bleq	5248c <_start-0x800adb74>
    1488:	00000952 	andeq	r0, r0, r2, asr r9
    148c:	0191b102 	orrseq	fp, r1, r2, lsl #2
    1490:	01500000 	cmpeq	r0, r0
    1494:	000f710b 	andeq	r7, pc, fp, lsl #2
    1498:	aab20200 	bge	fec81ca0 <__bss_end+0x7eb7fb8c>
    149c:	54000008 	strpl	r0, [r0], #-8
    14a0:	0fa10b01 	svceq	0x00a10b01
    14a4:	b3020000 	movwlt	r0, #8192	; 0x2000
    14a8:	00000191 	muleq	r0, r1, r1
    14ac:	7d0b0160 	stfvcs	f0, [fp, #-384]	; 0xfffffe80
    14b0:	0200000f 	andeq	r0, r0, #15
    14b4:	0008aab4 			; <UNDEFINED> instruction: 0x0008aab4
    14b8:	0b016400 	bleq	5a4c0 <_start-0x800a5b40>
    14bc:	00000d20 	andeq	r0, r0, r0, lsr #26
    14c0:	0191b502 	orrseq	fp, r1, r2, lsl #10
    14c4:	01700000 	cmneq	r0, r0
    14c8:	000f890b 	andeq	r8, pc, fp, lsl #18
    14cc:	aab60200 	bge	fed81cd4 <__bss_end+0x7ec7fbc0>
    14d0:	74000008 	strvc	r0, [r0], #-8
    14d4:	09720b01 	ldmdbeq	r2!, {r0, r8, r9, fp}^
    14d8:	b7020000 	strlt	r0, [r2, -r0]
    14dc:	00000191 	muleq	r0, r1, r1
    14e0:	6b0b0180 	blvs	2c1ae8 <_start-0x7fe3e518>
    14e4:	0200000d 	andeq	r0, r0, #13
    14e8:	0008aab8 			; <UNDEFINED> instruction: 0x0008aab8
    14ec:	0b018400 	bleq	624f4 <_start-0x8009db0c>
    14f0:	0000068a 	andeq	r0, r0, sl, lsl #13
    14f4:	0191b902 	orrseq	fp, r1, r2, lsl #18
    14f8:	01900000 	orrseq	r0, r0, r0
    14fc:	000a130b 	andeq	r1, sl, fp, lsl #6
    1500:	aaba0200 	bge	fee81d08 <__bss_end+0x7ed7fbf4>
    1504:	94000008 	strls	r0, [r0], #-8
    1508:	0a6a0b01 	beq	1a84114 <_start-0x7e67beec>
    150c:	bb020000 	bllt	81514 <_start-0x8007eaec>
    1510:	00000191 	muleq	r0, r1, r1
    1514:	660b01a0 	strvs	r0, [fp], -r0, lsr #3
    1518:	02000009 	andeq	r0, r0, #9
    151c:	0008aabc 			; <UNDEFINED> instruction: 0x0008aabc
    1520:	0b01a400 	bleq	6a528 <_start-0x80095ad8>
    1524:	00000a6e 	andeq	r0, r0, lr, ror #20
    1528:	0191bd02 	orrseq	fp, r1, r2, lsl #26
    152c:	01b00000 	movseq	r0, r0
    1530:	000f950b 	andeq	r9, pc, fp, lsl #10
    1534:	babe0200 	blt	fef81d3c <__bss_end+0x7ee7fc28>
    1538:	b4000008 	strlt	r0, [r0], #-8
    153c:	0a050b01 	beq	144148 <_start-0x7ffbbeb8>
    1540:	bf020000 	svclt	0x00020000
    1544:	00000191 	muleq	r0, r1, r1
    1548:	ac0b0200 	sfmge	f0, 4, [fp], {-0}
    154c:	0200000f 	andeq	r0, r0, #15
    1550:	0008aac0 	andeq	sl, r8, r0, asr #21
    1554:	0b020400 	bleq	8255c <_start-0x8007daa4>
    1558:	00000a62 	andeq	r0, r0, r2, ror #20
    155c:	0191c102 	orrseq	ip, r1, r2, lsl #2
    1560:	02100000 	andseq	r0, r0, #0
    1564:	000ea00b 	andeq	sl, lr, fp
    1568:	aac20200 	bge	ff081d70 <__bss_end+0x7ef7fc5c>
    156c:	14000008 	strne	r0, [r0], #-8
    1570:	06a80b02 	strteq	r0, [r8], r2, lsl #22
    1574:	c3020000 	movwgt	r0, #8192	; 0x2000
    1578:	00000191 	muleq	r0, r1, r1
    157c:	b60b0220 	strlt	r0, [fp], -r0, lsr #4
    1580:	0200000e 	andeq	r0, r0, #14
    1584:	0008aac4 	andeq	sl, r8, r4, asr #21
    1588:	0b022400 	bleq	8a590 <_start-0x80075a70>
    158c:	00000b03 	andeq	r0, r0, r3, lsl #22
    1590:	0191c502 	orrseq	ip, r1, r2, lsl #10
    1594:	02300000 	eorseq	r0, r0, #0
    1598:	0010200b 	andseq	r2, r0, fp
    159c:	aac60200 	bge	ff181da4 <__bss_end+0x7f07fc90>
    15a0:	34000008 	strcc	r0, [r0], #-8
    15a4:	0cb50b02 	vldmiaeq	r5!, {d0}
    15a8:	c7020000 	strgt	r0, [r2, -r0]
    15ac:	00000191 	muleq	r0, r1, r1
    15b0:	310b0240 	tstcc	fp, r0, asr #4
    15b4:	02000004 	andeq	r0, r0, #4
    15b8:	0008aac8 	andeq	sl, r8, r8, asr #21
    15bc:	0b024400 	bleq	925c4 <_start-0x8006da3c>
    15c0:	00001033 	andeq	r1, r0, r3, lsr r0
    15c4:	0191c902 	orrseq	ip, r1, r2, lsl #18
    15c8:	02500000 	subseq	r0, r0, #0
    15cc:	00043d0b 	andeq	r3, r4, fp, lsl #26
    15d0:	aaca0200 	bge	ff281dd8 <__bss_end+0x7f17fcc4>
    15d4:	54000008 	strpl	r0, [r0], #-8
    15d8:	0aab0b02 	beq	feac41e8 <__bss_end+0x7e9c20d4>
    15dc:	cb020000 	blgt	815e4 <_start-0x8007ea1c>
    15e0:	00000191 	muleq	r0, r1, r1
    15e4:	08000260 	stmdaeq	r0, {r5, r6, r9}
    15e8:	000004bd 			; <UNDEFINED> instruction: 0x000004bd
    15ec:	000008ba 			; <UNDEFINED> instruction: 0x000008ba
    15f0:	0004b609 	andeq	fp, r4, r9, lsl #12
    15f4:	08000b00 	stmdaeq	r0, {r8, r9, fp}
    15f8:	000004bd 			; <UNDEFINED> instruction: 0x000004bd
    15fc:	000008ca 	andeq	r0, r0, sl, asr #17
    1600:	0004b609 	andeq	fp, r4, r9, lsl #12
    1604:	06004b00 	streq	r4, [r0], -r0, lsl #22
    1608:	00000888 	andeq	r0, r0, r8, lsl #17
    160c:	04dfcc02 	ldrbeq	ip, [pc], #3074	; 1614 <_start-0x800fe9ec>
    1610:	800a0000 	andhi	r0, sl, r0
    1614:	f3cf0201 	vsubl.u8	q8, d15, d1
    1618:	0300000b 	movweq	r0, #11
    161c:	00000a0b 	andeq	r0, r0, fp, lsl #20
    1620:	0191d002 	orrseq	sp, r1, r2
    1624:	03000000 	movweq	r0, #0
    1628:	000009d4 	ldrdeq	r0, [r0], -r4
    162c:	0191d102 	orrseq	sp, r1, r2, lsl #2
    1630:	03040000 	movweq	r0, #16384	; 0x4000
    1634:	0000087c 	andeq	r0, r0, ip, ror r8
    1638:	0191d202 	orrseq	sp, r1, r2, lsl #4
    163c:	03080000 	movweq	r0, #32768	; 0x8000
    1640:	00000af7 	strdeq	r0, [r0], -r7
    1644:	0191d302 	orrseq	sp, r1, r2, lsl #6
    1648:	030c0000 	movweq	r0, #49152	; 0xc000
    164c:	00000f17 	andeq	r0, r0, r7, lsl pc
    1650:	0191d402 	orrseq	sp, r1, r2, lsl #8
    1654:	03100000 	tsteq	r0, #0
    1658:	000009f8 	strdeq	r0, [r0], -r8
    165c:	0191d502 	orrseq	sp, r1, r2, lsl #10
    1660:	03140000 	tsteq	r4, #0
    1664:	00000893 	muleq	r0, r3, r8
    1668:	0191d602 	orrseq	sp, r1, r2, lsl #12
    166c:	03180000 	tsteq	r8, #0
    1670:	00000a9e 	muleq	r0, lr, sl
    1674:	0191d702 	orrseq	sp, r1, r2, lsl #14
    1678:	031c0000 	tsteq	ip, #0
    167c:	00001065 	andeq	r1, r0, r5, rrx
    1680:	0191d802 	orrseq	sp, r1, r2, lsl #16
    1684:	03200000 	nopeq	{0}	; <UNPREDICTABLE>
    1688:	00000d2a 	andeq	r0, r0, sl, lsr #26
    168c:	0191d902 	orrseq	sp, r1, r2, lsl #18
    1690:	03240000 			; <UNDEFINED> instruction: 0x03240000
    1694:	00000c4d 	andeq	r0, r0, sp, asr #24
    1698:	0191da02 	orrseq	sp, r1, r2, lsl #20
    169c:	03280000 			; <UNDEFINED> instruction: 0x03280000
    16a0:	00000d49 	andeq	r0, r0, r9, asr #26
    16a4:	0191db02 	orrseq	sp, r1, r2, lsl #22
    16a8:	032c0000 			; <UNDEFINED> instruction: 0x032c0000
    16ac:	00000455 	andeq	r0, r0, r5, asr r4
    16b0:	0191dc02 	orrseq	sp, r1, r2, lsl #24
    16b4:	03300000 	teqeq	r0, #0
    16b8:	00000aeb 	andeq	r0, r0, fp, ror #21
    16bc:	0191dd02 	orrseq	sp, r1, r2, lsl #26
    16c0:	03340000 	teqeq	r4, #0
    16c4:	0000091a 	andeq	r0, r0, sl, lsl r9
    16c8:	0191de02 	orrseq	sp, r1, r2, lsl #28
    16cc:	03380000 	teqeq	r8, #0
    16d0:	00000ca9 	andeq	r0, r0, r9, lsr #25
    16d4:	0191df02 	orrseq	sp, r1, r2, lsl #30
    16d8:	033c0000 	teqeq	ip, #0
    16dc:	0000067f 	andeq	r0, r0, pc, ror r6
    16e0:	0191e002 	orrseq	lr, r1, r2
    16e4:	03400000 	movteq	r0, #0
    16e8:	0000074e 	andeq	r0, r0, lr, asr #14
    16ec:	08aae102 	stmiaeq	sl!, {r1, r8, sp, lr, pc}
    16f0:	03440000 	movteq	r0, #16384	; 0x4000
    16f4:	00000adf 	ldrdeq	r0, [r0], -pc	; <UNPREDICTABLE>
    16f8:	0191e202 	orrseq	lr, r1, r2, lsl #4
    16fc:	03500000 	cmpeq	r0, #0
    1700:	00000759 	andeq	r0, r0, r9, asr r7
    1704:	08aae302 	stmiaeq	sl!, {r1, r8, r9, sp, lr, pc}
    1708:	03540000 	cmpeq	r4, #0
    170c:	00000b2f 	andeq	r0, r0, pc, lsr #22
    1710:	0191e402 	orrseq	lr, r1, r2, lsl #8
    1714:	03600000 	cmneq	r0, #0
    1718:	00000d91 	muleq	r0, r1, sp
    171c:	08aae502 	stmiaeq	sl!, {r1, r8, sl, sp, lr, pc}
    1720:	03640000 	cmneq	r4, #0
    1724:	00000ed3 	ldrdeq	r0, [r0], -r3
    1728:	0191e602 	orrseq	lr, r1, r2, lsl #12
    172c:	03700000 	cmneq	r0, #0
    1730:	000004c2 	andeq	r0, r0, r2, asr #9
    1734:	0191e702 	orrseq	lr, r1, r2, lsl #14
    1738:	03740000 	cmneq	r4, #0
    173c:	000008c3 	andeq	r0, r0, r3, asr #17
    1740:	0191e802 	orrseq	lr, r1, r2, lsl #16
    1744:	03780000 	cmneq	r8, #0
    1748:	000008ae 	andeq	r0, r0, lr, lsr #17
    174c:	0191e902 	orrseq	lr, r1, r2, lsl #18
    1750:	037c0000 	cmneq	ip, #0
    1754:	00000981 	andeq	r0, r0, r1, lsl #19
    1758:	0191ea02 	orrseq	lr, r1, r2, lsl #20
    175c:	03800000 	orreq	r0, r0, #0
    1760:	00000a47 	andeq	r0, r0, r7, asr #20
    1764:	08aaeb02 	stmiaeq	sl!, {r1, r8, r9, fp, sp, lr, pc}
    1768:	03840000 	orreq	r0, r4, #0
    176c:	00000a52 	andeq	r0, r0, r2, asr sl
    1770:	0191ec02 	orrseq	lr, r1, r2, lsl #24
    1774:	03900000 	orrseq	r0, r0, #0
    1778:	00000770 	andeq	r0, r0, r0, ror r7
    177c:	08aaed02 	stmiaeq	sl!, {r1, r8, sl, fp, sp, lr, pc}
    1780:	03940000 	orrseq	r0, r4, #0
    1784:	00000ec9 	andeq	r0, r0, r9, asr #29
    1788:	0191ee02 	orrseq	lr, r1, r2, lsl #28
    178c:	03a00000 	moveq	r0, #0
    1790:	000006e3 	andeq	r0, r0, r3, ror #13
    1794:	0191ef02 	orrseq	lr, r1, r2, lsl #30
    1798:	03a40000 			; <UNDEFINED> instruction: 0x03a40000
    179c:	00000868 	andeq	r0, r0, r8, ror #16
    17a0:	0191f002 	orrseq	pc, r1, r2
    17a4:	03a80000 			; <UNDEFINED> instruction: 0x03a80000
    17a8:	000009c6 	andeq	r0, r0, r6, asr #19
    17ac:	0191f102 	orrseq	pc, r1, r2, lsl #2
    17b0:	03ac0000 			; <UNDEFINED> instruction: 0x03ac0000
    17b4:	00000506 	andeq	r0, r0, r6, lsl #10
    17b8:	0191f202 	orrseq	pc, r1, r2, lsl #4
    17bc:	03b00000 	movseq	r0, #0
    17c0:	0000077b 	andeq	r0, r0, fp, ror r7
    17c4:	08aaf302 	stmiaeq	sl!, {r1, r8, r9, ip, sp, lr, pc}
    17c8:	03b40000 			; <UNDEFINED> instruction: 0x03b40000
    17cc:	000009e0 	andeq	r0, r0, r0, ror #19
    17d0:	0191f402 	orrseq	pc, r1, r2, lsl #8
    17d4:	03c00000 	biceq	r0, r0, #0
    17d8:	00000786 	andeq	r0, r0, r6, lsl #15
    17dc:	0bf3f502 	bleq	ffcfebec <__bss_end+0x7fbfcad8>
    17e0:	03c40000 	biceq	r0, r4, #0
    17e4:	00001041 	andeq	r1, r0, r1, asr #32
    17e8:	0191f602 	orrseq	pc, r1, r2, lsl #12
    17ec:	03e00000 	mvneq	r0, #0
    17f0:	00000ef1 	strdeq	r0, [r0], -r1
    17f4:	0191f702 	orrseq	pc, r1, r2, lsl #14
    17f8:	03e40000 	mvneq	r0, #0
    17fc:	00000c6e 	andeq	r0, r0, lr, ror #24
    1800:	0191f802 	orrseq	pc, r1, r2, lsl #16
    1804:	03e80000 	mvneq	r0, #0
    1808:	00000efe 	strdeq	r0, [r0], -lr
    180c:	0191f902 	orrseq	pc, r1, r2, lsl #18
    1810:	03ec0000 	mvneq	r0, #0
    1814:	00000465 	andeq	r0, r0, r5, ror #8
    1818:	0191fa02 	orrseq	pc, r1, r2, lsl #20
    181c:	03f00000 	mvnseq	r0, #0
    1820:	00000d56 	andeq	r0, r0, r6, asr sp
    1824:	0191fb02 	orrseq	pc, r1, r2, lsl #22
    1828:	03f40000 	mvnseq	r0, #0
    182c:	00000a73 	andeq	r0, r0, r3, ror sl
    1830:	0191fc02 	orrseq	pc, r1, r2, lsl #24
    1834:	03f80000 	mvnseq	r0, #0
    1838:	00000f0b 	andeq	r0, r0, fp, lsl #30
    183c:	0191fd02 	orrseq	pc, r1, r2, lsl #26
    1840:	0bfc0000 	bleq	fff01848 <__bss_end+0x7fdff734>
    1844:	000004ba 			; <UNDEFINED> instruction: 0x000004ba
    1848:	0191fe02 	orrseq	pc, r1, r2, lsl #28
    184c:	01000000 	mrseq	r0, (UNDEF: 0)
    1850:	0010990b 	andseq	r9, r0, fp, lsl #18
    1854:	91ff0200 	mvnsls	r0, r0, lsl #4
    1858:	04000001 	streq	r0, [r0], #-1
    185c:	0cc20c01 	stcleq	12, cr0, [r2], {1}
    1860:	00020000 	andeq	r0, r2, r0
    1864:	00019101 	andeq	r9, r1, r1, lsl #2
    1868:	0c010800 	stceq	8, cr0, [r1], {-0}
    186c:	0000104a 	andeq	r1, r0, sl, asr #32
    1870:	91010102 	tstls	r1, r2, lsl #2
    1874:	0c000001 	stceq	0, cr0, [r0], {1}
    1878:	07910c01 	ldreq	r0, [r1, r1, lsl #24]
    187c:	02020000 	andeq	r0, r2, #0
    1880:	000c0301 	andeq	r0, ip, r1, lsl #6
    1884:	0c011000 	stceq	0, cr1, [r1], {-0}
    1888:	00000cd4 	ldrdeq	r0, [r0], -r4
    188c:	91010302 	tstls	r1, r2, lsl #6
    1890:	50000001 	andpl	r0, r0, r1
    1894:	0ce60c01 	stcleq	12, cr0, [r6], #4
    1898:	04020000 	streq	r0, [r2], #-0
    189c:	00019101 	andeq	r9, r1, r1, lsl #2
    18a0:	0c015400 	cfstrseq	mvf5, [r1], {-0}
    18a4:	00000a3d 	andeq	r0, r0, sp, lsr sl
    18a8:	91010502 	tstls	r1, r2, lsl #10
    18ac:	58000001 	stmdapl	r0, {r0}
    18b0:	0ee70c01 	cdpeq	12, 14, cr0, cr7, cr1, {0}
    18b4:	06020000 	streq	r0, [r2], -r0
    18b8:	00019101 	andeq	r9, r1, r1, lsl #2
    18bc:	0c015c00 	stceq	12, cr5, [r1], {-0}
    18c0:	00000cda 	ldrdeq	r0, [r0], -sl
    18c4:	91010702 	tstls	r1, r2, lsl #14
    18c8:	60000001 	andvs	r0, r0, r1
    18cc:	08d10c01 	ldmeq	r1, {r0, sl, fp}^
    18d0:	08020000 	stmdaeq	r2, {}	; <UNPREDICTABLE>
    18d4:	00019101 	andeq	r9, r1, r1, lsl #2
    18d8:	0c016400 	cfstrseq	mvf6, [r1], {-0}
    18dc:	00000698 	muleq	r0, r8, r6
    18e0:	91010902 	tstls	r1, r2, lsl #18
    18e4:	68000001 	stmdavs	r0, {r0}
    18e8:	098f0c01 	stmibeq	pc, {r0, sl, fp}	; <UNPREDICTABLE>
    18ec:	0a020000 	beq	818f4 <_start-0x8007e70c>
    18f0:	00019101 	andeq	r9, r1, r1, lsl #2
    18f4:	0c016c00 	stceq	12, cr6, [r1], {-0}
    18f8:	00000ce0 	andeq	r0, r0, r0, ror #25
    18fc:	91010b02 	tstls	r1, r2, lsl #22
    1900:	70000001 	andvc	r0, r0, r1
    1904:	10c50c01 	sbcne	r0, r5, r1, lsl #24
    1908:	0c020000 	stceq	0, cr0, [r2], {-0}
    190c:	00019101 	andeq	r9, r1, r1, lsl #2
    1910:	0c017400 	cfstrseq	mvf7, [r1], {-0}
    1914:	00000eac 	andeq	r0, r0, ip, lsr #29
    1918:	91010d02 	tstls	r1, r2, lsl #26
    191c:	78000001 	stmdavc	r0, {r0}
    1920:	04e10c01 	strbteq	r0, [r1], #3073	; 0xc01
    1924:	0e020000 	cdpeq	0, 0, cr0, cr2, cr0, {0}
    1928:	00019101 	andeq	r9, r1, r1, lsl #2
    192c:	00017c00 	andeq	r7, r1, r0, lsl #24
    1930:	0004bd08 	andeq	fp, r4, r8, lsl #26
    1934:	000c0300 	andeq	r0, ip, r0, lsl #6
    1938:	04b60900 	ldrteq	r0, [r6], #2304	; 0x900
    193c:	001b0000 	andseq	r0, fp, r0
    1940:	0004bd08 	andeq	fp, r4, r8, lsl #26
    1944:	000c1300 	andeq	r1, ip, r0, lsl #6
    1948:	04b60900 	ldrteq	r0, [r6], #2304	; 0x900
    194c:	003f0000 	eorseq	r0, pc, r0
    1950:	0007110d 	andeq	r1, r7, sp, lsl #2
    1954:	010f0200 	mrseq	r0, (UNDEF: 47)
    1958:	000008d5 	ldrdeq	r0, [r0], -r5
    195c:	00020b0e 	andeq	r0, r2, lr, lsl #22
    1960:	0c031000 	stceq	0, cr1, [r3], {-0}
    1964:	00000c5b 	andeq	r0, r0, fp, asr ip
    1968:	00656407 	rsbeq	r6, r5, r7, lsl #8
    196c:	0c5b0d03 	mrrceq	13, 0, r0, fp, cr3
    1970:	03000000 	movweq	r0, #0
    1974:	0000027d 	andeq	r0, r0, sp, ror r2
    1978:	0c5b0e03 	mrrceq	14, 0, r0, fp, cr3
    197c:	03040000 	movweq	r0, #16384	; 0x4000
    1980:	0000025f 	andeq	r0, r0, pc, asr r2
    1984:	0c5b0f03 	mrrceq	15, 0, r0, fp, cr3
    1988:	03080000 	movweq	r0, #32768	; 0x8000
    198c:	000002c3 	andeq	r0, r0, r3, asr #5
    1990:	0c5b1003 	mrrceq	0, 0, r1, fp, cr3
    1994:	000c0000 	andeq	r0, ip, r0
    1998:	6905040f 	stmdbvs	r5, {r0, r1, r2, r3, sl}
    199c:	0600746e 	streq	r7, [r0], -lr, ror #8
    19a0:	0000020b 	andeq	r0, r0, fp, lsl #4
    19a4:	0c1f1103 	ldfeqs	f1, [pc], {3}
    19a8:	d70e0000 	strle	r0, [lr, -r0]
    19ac:	1c000002 	stcne	0, cr0, [r0], {2}
    19b0:	0cce1303 	stcleq	3, cr1, [lr], {3}
    19b4:	74070000 	strvc	r0, [r7], #-0
    19b8:	03007076 	movweq	r7, #118	; 0x76
    19bc:	000c5b15 	andeq	r5, ip, r5, lsl fp
    19c0:	74070000 	strvc	r0, [r7], #-0
    19c4:	03006276 	movweq	r6, #630	; 0x276
    19c8:	000c5b16 	andeq	r5, ip, r6, lsl fp
    19cc:	74070400 	strvc	r0, [r7], #-1024	; 0xfffffc00
    19d0:	03006676 	movweq	r6, #1654	; 0x676
    19d4:	000c5b17 	andeq	r5, ip, r7, lsl fp
    19d8:	74070800 	strvc	r0, [r7], #-2048	; 0xfffff800
    19dc:	03007068 	movweq	r7, #104	; 0x68
    19e0:	000c5b1a 	andeq	r5, ip, sl, lsl fp
    19e4:	74070c00 	strvc	r0, [r7], #-3072	; 0xfffff400
    19e8:	03006268 	movweq	r6, #616	; 0x268
    19ec:	000c5b1b 	andeq	r5, ip, fp, lsl fp
    19f0:	74071000 	strvc	r1, [r7], #-0
    19f4:	03006668 	movweq	r6, #1640	; 0x668
    19f8:	000c5b1c 	andeq	r5, ip, ip, lsl fp
    19fc:	7d031400 	cfstrsvc	mvf1, [r3, #-0]
    1a00:	03000002 	movweq	r0, #2
    1a04:	000c5b1e 	andeq	r5, ip, lr, lsl fp
    1a08:	06001800 	streq	r1, [r0], -r0, lsl #16
    1a0c:	000002d7 	ldrdeq	r0, [r0], -r7
    1a10:	0c6d1f03 	stcleq	15, cr1, [sp], #-12
    1a14:	840e0000 	strhi	r0, [lr], #-0
    1a18:	40000002 	andmi	r0, r0, r2
    1a1c:	0d3a2203 	lfmeq	f2, 4, [sl, #-12]!
    1a20:	c9030000 	stmdbgt	r3, {}	; <UNPREDICTABLE>
    1a24:	03000002 	movweq	r0, #2
    1a28:	000d3a24 	andeq	r3, sp, r4, lsr #20
    1a2c:	ce030000 	cdpgt	0, 0, cr0, cr3, cr0, {0}
    1a30:	03000002 	movweq	r0, #2
    1a34:	000c6227 	andeq	r6, ip, r7, lsr #4
    1a38:	19030400 	stmdbne	r3, {sl}
    1a3c:	03000002 	movweq	r0, #2
    1a40:	000cce2a 	andeq	ip, ip, sl, lsr #28
    1a44:	81031400 	tsthi	r3, r0, lsl #8
    1a48:	03000000 	movweq	r0, #0
    1a4c:	000c5b2d 	andeq	r5, ip, sp, lsr #22
    1a50:	fb033000 	blx	cda5a <_start-0x800325a6>
    1a54:	03000000 	movweq	r0, #0
    1a58:	000c5b2e 	andeq	r5, ip, lr, lsr #22
    1a5c:	62073400 	andvs	r3, r7, #0, 8
    1a60:	03007070 	movweq	r7, #112	; 0x70
    1a64:	000c5b2f 	andeq	r5, ip, pc, lsr #22
    1a68:	8f033800 	svchi	0x00033800
    1a6c:	03000000 	movweq	r0, #0
    1a70:	00018a32 	andeq	r8, r1, r2, lsr sl
    1a74:	10003c00 	andne	r3, r0, r0, lsl #24
    1a78:	000d4004 	andeq	r4, sp, r4
    1a7c:	08010400 	stmdaeq	r1, {sl}
    1a80:	00000136 	andeq	r0, r0, r6, lsr r1
    1a84:	00028206 	andeq	r8, r2, r6, lsl #4
    1a88:	52340300 	eorspl	r0, r4, #0, 6
    1a8c:	1000000d 	andne	r0, r0, sp
    1a90:	000cd904 	andeq	sp, ip, r4, lsl #18
    1a94:	048d0e00 	streq	r0, [sp], #3584	; 0xe00
    1a98:	04100000 	ldreq	r0, [r0], #-0
    1a9c:	000d9507 	andeq	r9, sp, r7, lsl #10
    1aa0:	02c90300 	sbceq	r0, r9, #0, 6
    1aa4:	08040000 	stmdaeq	r4, {}	; <UNPREDICTABLE>
    1aa8:	00000d3a 	andeq	r0, r0, sl, lsr sp
    1aac:	03030300 	movweq	r0, #13056	; 0x3300
    1ab0:	09040000 	stmdbeq	r4, {}	; <UNPREDICTABLE>
    1ab4:	00000da0 	andeq	r0, r0, r0, lsr #27
    1ab8:	03240304 			; <UNDEFINED> instruction: 0x03240304
    1abc:	0a040000 	beq	101ac4 <_start-0x7fffe53c>
    1ac0:	00000da7 	andeq	r0, r0, r7, lsr #27
    1ac4:	030c0308 	movweq	r0, #49928	; 0xc308
    1ac8:	0b040000 	bleq	101ad0 <_start-0x7fffe530>
    1acc:	00000da7 	andeq	r0, r0, r7, lsr #27
    1ad0:	a011000c 	andsge	r0, r1, ip
    1ad4:	1200000d 	andne	r0, r0, #13
    1ad8:	00000d47 	andeq	r0, r0, r7, asr #26
    1adc:	95041000 	strls	r1, [r4, #-0]
    1ae0:	1300000d 	movwne	r0, #13
    1ae4:	0da60410 	cfstrseq	mvf0, [r6, #64]!	; 0x40
    1ae8:	56140000 	ldrpl	r0, [r4], -r0
    1aec:	01000010 	tsteq	r0, r0, lsl r0
    1af0:	000dbe05 	andeq	fp, sp, r5, lsl #28
    1af4:	94030500 	strls	r0, [r3], #-1280	; 0xfffffb00
    1af8:	10801020 	addne	r1, r0, r0, lsr #32
    1afc:	00019104 	andeq	r9, r1, r4, lsl #2
    1b00:	0ab61400 	beq	fed86b08 <__bss_end+0x7ec849f4>
    1b04:	06010000 	streq	r0, [r1], -r0
    1b08:	00000dbe 			; <UNDEFINED> instruction: 0x00000dbe
    1b0c:	20980305 	addscs	r0, r8, r5, lsl #6
    1b10:	37148010 			; <UNDEFINED> instruction: 0x37148010
    1b14:	0100000d 	tsteq	r0, sp
    1b18:	000dbe07 	andeq	fp, sp, r7, lsl #28
    1b1c:	9c030500 	cfstr32ls	mvfx0, [r3], {-0}
    1b20:	15801020 	strne	r1, [r0, #32]
    1b24:	00000485 	andeq	r0, r0, r5, lsl #9
    1b28:	58010101 	stmdapl	r1, {r0, r8}
    1b2c:	0500000d 	streq	r0, [r0, #-13]
    1b30:	1020a003 	eorne	sl, r0, r3
    1b34:	04eb1680 	strbteq	r1, [fp], #1664	; 0x680
    1b38:	12010000 	andne	r0, r1, #0
    1b3c:	100ffa01 	andne	pc, pc, r1, lsl #20
    1b40:	00001480 	andeq	r1, r0, r0, lsl #9
    1b44:	179c0100 	ldrne	r0, [ip, r0, lsl #2]
    1b48:	00000a7f 	andeq	r0, r0, pc, ror sl
    1b4c:	0fd4fc01 	svceq	0x00d4fc01
    1b50:	00268010 	eoreq	r8, r6, r0, lsl r0
    1b54:	9c010000 	stcls	0, cr0, [r1], {-0}
    1b58:	000ac117 	andeq	ip, sl, r7, lsl r1
    1b5c:	aef80100 	cdpge	1, 15, cr0, cr8, cr0, {0}
    1b60:	2680100f 	strcs	r1, [r0], pc
    1b64:	01000000 	mrseq	r0, (UNDEF: 0)
    1b68:	107d189c 			; <UNDEFINED> instruction: 0x107d189c
    1b6c:	32010000 	andcc	r0, r1, #0
    1b70:	80100d18 	andshi	r0, r0, r8, lsl sp
    1b74:	00000296 	muleq	r0, r6, r2
    1b78:	0e5e9c01 	cdpeq	12, 5, cr9, cr14, cr1, {0}
    1b7c:	00190000 	andseq	r0, r9, r0
    1b80:	01000002 	tsteq	r0, r2
    1b84:	000d4732 	andeq	r4, sp, r2, lsr r7
    1b88:	6c910200 	lfmvs	f0, 4, [r1], {0}
    1b8c:	00095d14 	andeq	r5, r9, r4, lsl sp
    1b90:	5b340100 	blpl	d01f98 <_start-0x7f3fe068>
    1b94:	0200000c 	andeq	r0, r0, #12
    1b98:	1a007491 	bne	1ede4 <_start-0x800e121c>
    1b9c:	00000c5a 	andeq	r0, r0, sl, asr ip
    1ba0:	0c600901 			; <UNDEFINED> instruction: 0x0c600901
    1ba4:	00b88010 	adcseq	r8, r8, r0, lsl r0
    1ba8:	9c010000 	stcls	0, cr0, [r1], {-0}
    1bac:	00000e8e 	andeq	r0, r0, lr, lsl #29
    1bb0:	00086214 	andeq	r6, r8, r4, lsl r2
    1bb4:	8e0b0100 	adfhie	f0, f3, f0
    1bb8:	0200000e 	andeq	r0, r0, #14
    1bbc:	691b7491 	ldmdbvs	fp, {r0, r4, r7, sl, ip, sp, lr}
    1bc0:	8a0c0100 	bhi	301fc8 <_start-0x7fdfe038>
    1bc4:	02000001 	andeq	r0, r0, #1
    1bc8:	10007091 	mulne	r0, r1, r0
    1bcc:	00018a04 	andeq	r8, r1, r4, lsl #20
	...

Disassembly of section .debug_abbrev:

00000000 <.debug_abbrev>:
   0:	10001101 	andne	r1, r0, r1, lsl #2
   4:	12011106 	andne	r1, r1, #-2147483647	; 0x80000001
   8:	1b080301 	blne	200c14 <_start-0x7feff3ec>
   c:	13082508 	movwne	r2, #34056	; 0x8508
  10:	00000005 	andeq	r0, r0, r5
  14:	25011101 	strcs	r1, [r1, #-257]	; 0xfffffeff
  18:	030b130e 	movweq	r1, #45838	; 0xb30e
  1c:	110e1b0e 	tstne	lr, lr, lsl #22
  20:	10061201 	andne	r1, r6, r1, lsl #4
  24:	02000017 	andeq	r0, r0, #23
  28:	0b0b0024 	bleq	2c00c0 <_start-0x7fe3ff40>
  2c:	0e030b3e 	vmoveq.16	d3[0], r0
  30:	24030000 	strcs	r0, [r3], #-0
  34:	3e0b0b00 	vmlacc.f64	d0, d11, d0
  38:	0008030b 	andeq	r0, r8, fp, lsl #6
  3c:	002e0400 	eoreq	r0, lr, r0, lsl #8
  40:	0e03193f 			; <UNDEFINED> instruction: 0x0e03193f
  44:	0b3b0b3a 	bleq	ec2d34 <_start-0x7f23d2cc>
  48:	13491927 	movtne	r1, #39207	; 0x9927
  4c:	06120111 			; <UNDEFINED> instruction: 0x06120111
  50:	42961840 	addsmi	r1, r6, #64, 16	; 0x400000
  54:	05000019 	streq	r0, [r0, #-25]	; 0xffffffe7
  58:	193f012e 	ldmdbne	pc!, {r1, r2, r3, r5, r8}	; <UNPREDICTABLE>
  5c:	0b3a0e03 	bleq	e83870 <_start-0x7f27c790>
  60:	19270b3b 	stmdbne	r7!, {r0, r1, r3, r4, r5, r8, r9, fp}
  64:	06120111 			; <UNDEFINED> instruction: 0x06120111
  68:	42961840 	addsmi	r1, r6, #64, 16	; 0x400000
  6c:	00130119 	andseq	r0, r3, r9, lsl r1
  70:	00340600 	eorseq	r0, r4, r0, lsl #12
  74:	0b3a0e03 	bleq	e83888 <_start-0x7f27c778>
  78:	13490b3b 	movtne	r0, #39739	; 0x9b3b
  7c:	00001802 	andeq	r1, r0, r2, lsl #16
  80:	03003407 	movweq	r3, #1031	; 0x407
  84:	3b0b3a08 	blcc	2ce8ac <_start-0x7fe31754>
  88:	0213490b 	andseq	r4, r3, #180224	; 0x2c000
  8c:	08000018 	stmdaeq	r0, {r3, r4}
  90:	0b0b000f 	bleq	2c00d4 <_start-0x7fe3ff2c>
  94:	00001349 	andeq	r1, r0, r9, asr #6
  98:	01110100 	tsteq	r1, r0, lsl #2
  9c:	0b130e25 	bleq	4c3938 <_start-0x7fc3c6c8>
  a0:	0e1b0e03 	cdpeq	14, 1, cr0, cr11, cr3, {0}
  a4:	06120111 			; <UNDEFINED> instruction: 0x06120111
  a8:	00001710 	andeq	r1, r0, r0, lsl r7
  ac:	0b002402 	bleq	90bc <_start-0x800f6f44>
  b0:	030b3e0b 	movweq	r3, #48651	; 0xbe0b
  b4:	0300000e 	movweq	r0, #14
  b8:	0b0b0024 	bleq	2c0150 <_start-0x7fe3feb0>
  bc:	08030b3e 	stmdaeq	r3, {r1, r2, r3, r4, r5, r8, r9, fp}
  c0:	0f040000 	svceq	0x00040000
  c4:	490b0b00 	stmdbmi	fp, {r8, r9, fp}
  c8:	05000013 	streq	r0, [r0, #-19]	; 0xffffffed
  cc:	13490101 	movtne	r0, #37121	; 0x9101
  d0:	00001301 	andeq	r1, r0, r1, lsl #6
  d4:	00002106 	andeq	r2, r0, r6, lsl #2
  d8:	00260700 	eoreq	r0, r6, r0, lsl #14
  dc:	00001349 	andeq	r1, r0, r9, asr #6
  e0:	03003408 	movweq	r3, #1032	; 0x408
  e4:	3b0b3a0e 	blcc	2ce924 <_start-0x7fe316dc>
  e8:	3f13490b 	svccc	0x0013490b
  ec:	00193c19 	andseq	r3, r9, r9, lsl ip
  f0:	00340900 	eorseq	r0, r4, r0, lsl #18
  f4:	0b3a0e03 	bleq	e83908 <_start-0x7f27c6f8>
  f8:	13490b3b 	movtne	r0, #39739	; 0x9b3b
  fc:	00001802 	andeq	r1, r0, r2, lsl #16
 100:	0300340a 	movweq	r3, #1034	; 0x40a
 104:	3b0b3a08 	blcc	2ce92c <_start-0x7fe316d4>
 108:	0213490b 	andseq	r4, r3, #180224	; 0x2c000
 10c:	0b000018 	bleq	174 <_start-0x800ffe8c>
 110:	193f012e 	ldmdbne	pc!, {r1, r2, r3, r5, r8}	; <UNPREDICTABLE>
 114:	0b3a0e03 	bleq	e83928 <_start-0x7f27c6d8>
 118:	19270b3b 	stmdbne	r7!, {r0, r1, r3, r4, r5, r8, r9, fp}
 11c:	06120111 			; <UNDEFINED> instruction: 0x06120111
 120:	42961840 	addsmi	r1, r6, #64, 16	; 0x400000
 124:	00130119 	andseq	r0, r3, r9, lsl r1
 128:	00050c00 	andeq	r0, r5, r0, lsl #24
 12c:	0b3a0803 	bleq	e82140 <_start-0x7f27dec0>
 130:	13490b3b 	movtne	r0, #39739	; 0x9b3b
 134:	00001802 	andeq	r1, r0, r2, lsl #16
 138:	0300050d 	movweq	r0, #1293	; 0x50d
 13c:	3b0b3a0e 	blcc	2ce97c <_start-0x7fe31684>
 140:	0213490b 	andseq	r4, r3, #180224	; 0x2c000
 144:	0e000018 	mcreq	0, 0, r0, cr0, cr8, {0}
 148:	08030034 	stmdaeq	r3, {r2, r4, r5}
 14c:	0b3b0b3a 	bleq	ec2e3c <_start-0x7f23d1c4>
 150:	00001349 	andeq	r1, r0, r9, asr #6
 154:	3f002e0f 	svccc	0x00002e0f
 158:	3a0e0319 	bcc	380dc4 <_start-0x7fd7f23c>
 15c:	270b3b0b 	strcs	r3, [fp, -fp, lsl #22]
 160:	12011119 	andne	r1, r1, #1073741830	; 0x40000006
 164:	96184006 	ldrls	r4, [r8], -r6
 168:	00001942 	andeq	r1, r0, r2, asr #18
 16c:	01110100 	tsteq	r1, r0, lsl #2
 170:	0b130e25 	bleq	4c3a0c <_start-0x7fc3c5f4>
 174:	0e1b0e03 	cdpeq	14, 1, cr0, cr11, cr3, {0}
 178:	00001710 	andeq	r1, r0, r0, lsl r7
 17c:	49010102 	stmdbmi	r1, {r1, r8}
 180:	00130113 	andseq	r0, r3, r3, lsl r1
 184:	00210300 	eoreq	r0, r1, r0, lsl #6
 188:	052f1349 	streq	r1, [pc, #-841]!	; fffffe47 <__bss_end+0x7fefdd33>
 18c:	26040000 	strcs	r0, [r4], -r0
 190:	00134900 	andseq	r4, r3, r0, lsl #18
 194:	00240500 	eoreq	r0, r4, r0, lsl #10
 198:	0b3e0b0b 	bleq	f82dcc <_start-0x7f17d234>
 19c:	00000e03 	andeq	r0, r0, r3, lsl #28
 1a0:	03003406 	movweq	r3, #1030	; 0x406
 1a4:	3b0b3a0e 	blcc	2ce9e4 <_start-0x7fe3161c>
 1a8:	3f13490b 	svccc	0x0013490b
 1ac:	00180219 	andseq	r0, r8, r9, lsl r2
 1b0:	11010000 	mrsne	r0, (UNDEF: 1)
 1b4:	130e2501 	movwne	r2, #58625	; 0xe501
 1b8:	1b0e030b 	blne	380dec <_start-0x7fd7f214>
 1bc:	1201110e 	andne	r1, r1, #-2147483645	; 0x80000003
 1c0:	00171006 	andseq	r1, r7, r6
 1c4:	012e0200 			; <UNDEFINED> instruction: 0x012e0200
 1c8:	0e03193f 			; <UNDEFINED> instruction: 0x0e03193f
 1cc:	0b3b0b3a 	bleq	ec2ebc <_start-0x7f23d144>
 1d0:	01111927 	tsteq	r1, r7, lsr #18
 1d4:	18400612 	stmdane	r0, {r1, r4, r9, sl}^
 1d8:	01194296 			; <UNDEFINED> instruction: 0x01194296
 1dc:	03000013 	movweq	r0, #19
 1e0:	08030005 	stmdaeq	r3, {r0, r2}
 1e4:	0b3b0b3a 	bleq	ec2ed4 <_start-0x7f23d12c>
 1e8:	18021349 	stmdane	r2, {r0, r3, r6, r8, r9, ip}
 1ec:	05040000 	streq	r0, [r4, #-0]
 1f0:	3a0e0300 	bcc	380df8 <_start-0x7fd7f208>
 1f4:	490b3b0b 	stmdbmi	fp, {r0, r1, r3, r8, r9, fp, ip, sp}
 1f8:	00180213 	andseq	r0, r8, r3, lsl r2
 1fc:	00340500 	eorseq	r0, r4, r0, lsl #10
 200:	0b3a0803 	bleq	e82214 <_start-0x7f27ddec>
 204:	13490b3b 	movtne	r0, #39739	; 0x9b3b
 208:	00001802 	andeq	r1, r0, r2, lsl #16
 20c:	0b002406 	bleq	922c <_start-0x800f6dd4>
 210:	030b3e0b 	movweq	r3, #48651	; 0xbe0b
 214:	07000008 	streq	r0, [r0, -r8]
 218:	193f012e 	ldmdbne	pc!, {r1, r2, r3, r5, r8}	; <UNPREDICTABLE>
 21c:	0b3a0e03 	bleq	e83a30 <_start-0x7f27c5d0>
 220:	19270b3b 	stmdbne	r7!, {r0, r1, r3, r4, r5, r8, r9, fp}
 224:	06120111 			; <UNDEFINED> instruction: 0x06120111
 228:	42961840 	addsmi	r1, r6, #64, 16	; 0x400000
 22c:	00000019 	andeq	r0, r0, r9, lsl r0
 230:	25011101 	strcs	r1, [r1, #-257]	; 0xfffffeff
 234:	030b130e 	movweq	r1, #45838	; 0xb30e
 238:	110e1b0e 	tstne	lr, lr, lsl #22
 23c:	10061201 	andne	r1, r6, r1, lsl #4
 240:	02000017 	andeq	r0, r0, #23
 244:	0b0b0024 	bleq	2c02dc <_start-0x7fe3fd24>
 248:	0e030b3e 	vmoveq.16	d3[0], r0
 24c:	24030000 	strcs	r0, [r3], #-0
 250:	3e0b0b00 	vmlacc.f64	d0, d11, d0
 254:	0008030b 	andeq	r0, r8, fp, lsl #6
 258:	00340400 	eorseq	r0, r4, r0, lsl #8
 25c:	0b3a0e03 	bleq	e83a70 <_start-0x7f27c590>
 260:	13490b3b 	movtne	r0, #39739	; 0x9b3b
 264:	00001802 	andeq	r1, r0, r2, lsl #16
 268:	03003405 	movweq	r3, #1029	; 0x405
 26c:	3b0b3a08 	blcc	2cea94 <_start-0x7fe3156c>
 270:	0213490b 	andseq	r4, r3, #180224	; 0x2c000
 274:	06000018 			; <UNDEFINED> instruction: 0x06000018
 278:	193f012e 	ldmdbne	pc!, {r1, r2, r3, r5, r8}	; <UNPREDICTABLE>
 27c:	0b3a0e03 	bleq	e83a90 <_start-0x7f27c570>
 280:	19270b3b 	stmdbne	r7!, {r0, r1, r3, r4, r5, r8, r9, fp}
 284:	06120111 			; <UNDEFINED> instruction: 0x06120111
 288:	42961840 	addsmi	r1, r6, #64, 16	; 0x400000
 28c:	00130119 	andseq	r0, r3, r9, lsl r1
 290:	00050700 	andeq	r0, r5, r0, lsl #14
 294:	0b3a0803 	bleq	e822a8 <_start-0x7f27dd58>
 298:	13490b3b 	movtne	r0, #39739	; 0x9b3b
 29c:	00001802 	andeq	r1, r0, r2, lsl #16
 2a0:	03000508 	movweq	r0, #1288	; 0x508
 2a4:	3b0b3a0e 	blcc	2ceae4 <_start-0x7fe3151c>
 2a8:	0213490b 	andseq	r4, r3, #180224	; 0x2c000
 2ac:	09000018 	stmdbeq	r0, {r3, r4}
 2b0:	0b0b000f 	bleq	2c02f4 <_start-0x7fe3fd0c>
 2b4:	00001349 	andeq	r1, r0, r9, asr #6
 2b8:	3f012e0a 	svccc	0x00012e0a
 2bc:	3a0e0319 	bcc	380f28 <_start-0x7fd7f0d8>
 2c0:	270b3b0b 	strcs	r3, [fp, -fp, lsl #22]
 2c4:	11134919 	tstne	r3, r9, lsl r9
 2c8:	40061201 	andmi	r1, r6, r1, lsl #4
 2cc:	19429718 	stmdbne	r2, {r3, r4, r8, r9, sl, ip, pc}^
 2d0:	00001301 	andeq	r1, r0, r1, lsl #6
 2d4:	3f002e0b 	svccc	0x00002e0b
 2d8:	3a0e0319 	bcc	380f44 <_start-0x7fd7f0bc>
 2dc:	270b3b0b 	strcs	r3, [fp, -fp, lsl #22]
 2e0:	12011119 	andne	r1, r1, #1073741830	; 0x40000006
 2e4:	96184006 	ldrls	r4, [r8], -r6
 2e8:	00001942 	andeq	r1, r0, r2, asr #18
 2ec:	01110100 	tsteq	r1, r0, lsl #2
 2f0:	0b130e25 	bleq	4c3b8c <_start-0x7fc3c474>
 2f4:	0e1b0e03 	cdpeq	14, 1, cr0, cr11, cr3, {0}
 2f8:	06120111 			; <UNDEFINED> instruction: 0x06120111
 2fc:	00001710 	andeq	r1, r0, r0, lsl r7
 300:	0b002402 	bleq	9310 <_start-0x800f6cf0>
 304:	030b3e0b 	movweq	r3, #48651	; 0xbe0b
 308:	0300000e 	movweq	r0, #14
 30c:	0e030113 	mcreq	1, 0, r0, cr3, cr3, {0}
 310:	0b3a0b0b 	bleq	e82f44 <_start-0x7f27d0bc>
 314:	13010b3b 	movwne	r0, #6971	; 0x1b3b
 318:	0d040000 	stceq	0, cr0, [r4, #-0]
 31c:	3a080300 	bcc	200f24 <_start-0x7feff0dc>
 320:	490b3b0b 	stmdbmi	fp, {r0, r1, r3, r8, r9, fp, ip, sp}
 324:	000b3813 	andeq	r3, fp, r3, lsl r8
 328:	000d0500 	andeq	r0, sp, r0, lsl #10
 32c:	0b3a0e03 	bleq	e83b40 <_start-0x7f27c4c0>
 330:	13490b3b 	movtne	r0, #39739	; 0x9b3b
 334:	00000b38 	andeq	r0, r0, r8, lsr fp
 338:	0b002406 	bleq	9358 <_start-0x800f6ca8>
 33c:	030b3e0b 	movweq	r3, #48651	; 0xbe0b
 340:	07000008 	streq	r0, [r0, -r8]
 344:	0e030016 	mcreq	0, 0, r0, cr3, cr6, {0}
 348:	0b3b0b3a 	bleq	ec3038 <_start-0x7f23cfc8>
 34c:	00001349 	andeq	r1, r0, r9, asr #6
 350:	0b000f08 	bleq	3f78 <_start-0x800fc088>
 354:	0013490b 	andseq	r4, r3, fp, lsl #18
 358:	00260900 	eoreq	r0, r6, r0, lsl #18
 35c:	00001349 	andeq	r1, r0, r9, asr #6
 360:	2701150a 	strcs	r1, [r1, -sl, lsl #10]
 364:	00130119 	andseq	r0, r3, r9, lsl r1
 368:	00050b00 	andeq	r0, r5, r0, lsl #22
 36c:	00001349 	andeq	r1, r0, r9, asr #6
 370:	2700150c 	strcs	r1, [r0, -ip, lsl #10]
 374:	0d000019 	stceq	0, cr0, [r0, #-100]	; 0xffffff9c
 378:	13490101 	movtne	r0, #37121	; 0x9101
 37c:	00001301 	andeq	r1, r0, r1, lsl #6
 380:	4900210e 	stmdbmi	r0, {r1, r2, r3, r8, sp}
 384:	000b2f13 	andeq	r2, fp, r3, lsl pc
 388:	00340f00 	eorseq	r0, r4, r0, lsl #30
 38c:	0b3a0e03 	bleq	e83ba0 <_start-0x7f27c460>
 390:	13490b3b 	movtne	r0, #39739	; 0x9b3b
 394:	00001802 	andeq	r1, r0, r2, lsl #16
 398:	3f002e10 	svccc	0x00002e10
 39c:	3a0e0319 	bcc	381008 <_start-0x7fd7eff8>
 3a0:	270b3b0b 	strcs	r3, [fp, -fp, lsl #22]
 3a4:	12011119 	andne	r1, r1, #1073741830	; 0x40000006
 3a8:	96184006 	ldrls	r4, [r8], -r6
 3ac:	00001942 	andeq	r1, r0, r2, asr #18
 3b0:	3f012e11 	svccc	0x00012e11
 3b4:	3a0e0319 	bcc	381020 <_start-0x7fd7efe0>
 3b8:	270b3b0b 	strcs	r3, [fp, -fp, lsl #22]
 3bc:	11134919 	tstne	r3, r9, lsl r9
 3c0:	40061201 	andmi	r1, r6, r1, lsl #4
 3c4:	19429618 	stmdbne	r2, {r3, r4, r9, sl, ip, pc}^
 3c8:	00001301 	andeq	r1, r0, r1, lsl #6
 3cc:	03000512 	movweq	r0, #1298	; 0x512
 3d0:	3b0b3a0e 	blcc	2cec10 <_start-0x7fe313f0>
 3d4:	0213490b 	andseq	r4, r3, #180224	; 0x2c000
 3d8:	13000018 	movwne	r0, #24
 3dc:	08030034 	stmdaeq	r3, {r2, r4, r5}
 3e0:	0b3b0b3a 	bleq	ec30d0 <_start-0x7f23cf30>
 3e4:	18021349 	stmdane	r2, {r0, r3, r6, r8, r9, ip}
 3e8:	2e140000 	cdpcs	0, 1, cr0, cr4, cr0, {0}
 3ec:	03193f01 	tsteq	r9, #1, 30
 3f0:	3b0b3a0e 	blcc	2cec30 <_start-0x7fe313d0>
 3f4:	4919270b 	ldmdbmi	r9, {r0, r1, r3, r8, r9, sl, sp}
 3f8:	12011113 	andne	r1, r1, #-1073741820	; 0xc0000004
 3fc:	97184006 	ldrls	r4, [r8, -r6]
 400:	13011942 	movwne	r1, #6466	; 0x1942
 404:	05150000 	ldreq	r0, [r5, #-0]
 408:	3a080300 	bcc	201010 <_start-0x7fefeff0>
 40c:	490b3b0b 	stmdbmi	fp, {r0, r1, r3, r8, r9, fp, ip, sp}
 410:	00180213 	andseq	r0, r8, r3, lsl r2
 414:	11010000 	mrsne	r0, (UNDEF: 1)
 418:	130e2501 	movwne	r2, #58625	; 0xe501
 41c:	1b0e030b 	blne	381050 <_start-0x7fd7efb0>
 420:	1201110e 	andne	r1, r1, #-2147483645	; 0x80000003
 424:	00171006 	andseq	r1, r7, r6
 428:	00240200 	eoreq	r0, r4, r0, lsl #4
 42c:	0b3e0b0b 	bleq	f83060 <_start-0x7f17cfa0>
 430:	00000e03 	andeq	r0, r0, r3, lsl #28
 434:	03011303 	movweq	r1, #4867	; 0x1303
 438:	3a0b0b0e 	bcc	2c3078 <_start-0x7fe3cf88>
 43c:	010b3b0b 	tsteq	fp, fp, lsl #22
 440:	04000013 	streq	r0, [r0], #-19	; 0xffffffed
 444:	0803000d 	stmdaeq	r3, {r0, r2, r3}
 448:	0b3b0b3a 	bleq	ec3138 <_start-0x7f23cec8>
 44c:	0b381349 	bleq	e05178 <_start-0x7f2fae88>
 450:	0d050000 	stceq	0, cr0, [r5, #-0]
 454:	3a0e0300 	bcc	38105c <_start-0x7fd7efa4>
 458:	490b3b0b 	stmdbmi	fp, {r0, r1, r3, r8, r9, fp, ip, sp}
 45c:	000b3813 	andeq	r3, fp, r3, lsl r8
 460:	00240600 	eoreq	r0, r4, r0, lsl #12
 464:	0b3e0b0b 	bleq	f83098 <_start-0x7f17cf68>
 468:	00000803 	andeq	r0, r0, r3, lsl #16
 46c:	49003507 	stmdbmi	r0, {r0, r1, r2, r8, sl, ip, sp}
 470:	08000013 	stmdaeq	r0, {r0, r1, r4}
 474:	0e030016 	mcreq	0, 0, r0, cr3, cr6, {0}
 478:	0b3b0b3a 	bleq	ec3168 <_start-0x7f23ce98>
 47c:	00001349 	andeq	r1, r0, r9, asr #6
 480:	0b000f09 	bleq	40ac <_start-0x800fbf54>
 484:	0013490b 	andseq	r4, r3, fp, lsl #18
 488:	01010a00 	tsteq	r1, r0, lsl #20
 48c:	13011349 	movwne	r1, #4937	; 0x1349
 490:	210b0000 	mrscs	r0, (UNDEF: 11)
 494:	2f134900 	svccs	0x00134900
 498:	0c00000b 	stceq	0, cr0, [r0], {11}
 49c:	0e030034 	mcreq	0, 0, r0, cr3, cr4, {1}
 4a0:	0b3b0b3a 	bleq	ec3190 <_start-0x7f23ce70>
 4a4:	18021349 	stmdane	r2, {r0, r3, r6, r8, r9, ip}
 4a8:	2e0d0000 	cdpcs	0, 0, cr0, cr13, cr0, {0}
 4ac:	03193f00 	tsteq	r9, #0, 30
 4b0:	3b0b3a0e 	blcc	2cecf0 <_start-0x7fe31310>
 4b4:	1119270b 	tstne	r9, fp, lsl #14
 4b8:	40061201 	andmi	r1, r6, r1, lsl #4
 4bc:	19429618 	stmdbne	r2, {r3, r4, r9, sl, ip, pc}^
 4c0:	2e0e0000 	cdpcs	0, 0, cr0, cr14, cr0, {0}
 4c4:	03193f01 	tsteq	r9, #1, 30
 4c8:	3b0b3a0e 	blcc	2ced08 <_start-0x7fe312f8>
 4cc:	1119270b 	tstne	r9, fp, lsl #14
 4d0:	40061201 	andmi	r1, r6, r1, lsl #4
 4d4:	19429718 	stmdbne	r2, {r3, r4, r8, r9, sl, ip, pc}^
 4d8:	00001301 	andeq	r1, r0, r1, lsl #6
 4dc:	0300050f 	movweq	r0, #1295	; 0x50f
 4e0:	3b0b3a0e 	blcc	2ced20 <_start-0x7fe312e0>
 4e4:	0213490b 	andseq	r4, r3, #180224	; 0x2c000
 4e8:	10000018 	andne	r0, r0, r8, lsl r0
 4ec:	08030005 	stmdaeq	r3, {r0, r2}
 4f0:	0b3b0b3a 	bleq	ec31e0 <_start-0x7f23ce20>
 4f4:	18021349 	stmdane	r2, {r0, r3, r6, r8, r9, ip}
 4f8:	2e110000 	cdpcs	0, 1, cr0, cr1, cr0, {0}
 4fc:	03193f01 	tsteq	r9, #1, 30
 500:	3b0b3a0e 	blcc	2ced40 <_start-0x7fe312c0>
 504:	4919270b 	ldmdbmi	r9, {r0, r1, r3, r8, r9, sl, sp}
 508:	12011113 	andne	r1, r1, #-1073741820	; 0xc0000004
 50c:	96184006 	ldrls	r4, [r8], -r6
 510:	13011942 	movwne	r1, #6466	; 0x1942
 514:	34120000 	ldrcc	r0, [r2], #-0
 518:	3a080300 	bcc	201120 <_start-0x7fefeee0>
 51c:	490b3b0b 	stmdbmi	fp, {r0, r1, r3, r8, r9, fp, ip, sp}
 520:	00180213 	andseq	r0, r8, r3, lsl r2
 524:	012e1300 			; <UNDEFINED> instruction: 0x012e1300
 528:	0e03193f 			; <UNDEFINED> instruction: 0x0e03193f
 52c:	0b3b0b3a 	bleq	ec321c <_start-0x7f23cde4>
 530:	13491927 	movtne	r1, #39207	; 0x9927
 534:	06120111 			; <UNDEFINED> instruction: 0x06120111
 538:	42971840 	addsmi	r1, r7, #64, 16	; 0x400000
 53c:	00130119 	andseq	r0, r3, r9, lsl r1
 540:	012e1400 			; <UNDEFINED> instruction: 0x012e1400
 544:	0e03193f 			; <UNDEFINED> instruction: 0x0e03193f
 548:	0b3b0b3a 	bleq	ec3238 <_start-0x7f23cdc8>
 54c:	01111927 	tsteq	r1, r7, lsr #18
 550:	18400612 	stmdane	r0, {r1, r4, r9, sl}^
 554:	00194297 	mulseq	r9, r7, r2
 558:	11010000 	mrsne	r0, (UNDEF: 1)
 55c:	130e2501 	movwne	r2, #58625	; 0xe501
 560:	1b0e030b 	blne	381194 <_start-0x7fd7ee6c>
 564:	1201110e 	andne	r1, r1, #-2147483645	; 0x80000003
 568:	00171006 	andseq	r1, r7, r6
 56c:	01040200 	mrseq	r0, R12_usr
 570:	13490b0b 	movtne	r0, #39691	; 0x9b0b
 574:	0b3b0b3a 	bleq	ec3264 <_start-0x7f23cd9c>
 578:	00001301 	andeq	r1, r0, r1, lsl #6
 57c:	03002803 	movweq	r2, #2051	; 0x803
 580:	000b1c0e 	andeq	r1, fp, lr, lsl #24
 584:	00240400 	eoreq	r0, r4, r0, lsl #8
 588:	0b3e0b0b 	bleq	f831bc <_start-0x7f17ce44>
 58c:	00000e03 	andeq	r0, r0, r3, lsl #28
 590:	03011305 	movweq	r1, #4869	; 0x1305
 594:	3a0b0b0e 	bcc	2c31d4 <_start-0x7fe3ce2c>
 598:	010b3b0b 	tsteq	fp, fp, lsl #22
 59c:	06000013 			; <UNDEFINED> instruction: 0x06000013
 5a0:	0803000d 	stmdaeq	r3, {r0, r2, r3}
 5a4:	0b3b0b3a 	bleq	ec3294 <_start-0x7f23cd6c>
 5a8:	0b381349 	bleq	e052d4 <_start-0x7f2fad2c>
 5ac:	0d070000 	stceq	0, cr0, [r7, #-0]
 5b0:	3a0e0300 	bcc	3811b8 <_start-0x7fd7ee48>
 5b4:	490b3b0b 	stmdbmi	fp, {r0, r1, r3, r8, r9, fp, ip, sp}
 5b8:	000b3813 	andeq	r3, fp, r3, lsl r8
 5bc:	00240800 	eoreq	r0, r4, r0, lsl #16
 5c0:	0b3e0b0b 	bleq	f831f4 <_start-0x7f17ce0c>
 5c4:	00000803 	andeq	r0, r0, r3, lsl #16
 5c8:	03001609 	movweq	r1, #1545	; 0x609
 5cc:	3b0b3a0e 	blcc	2cee0c <_start-0x7fe311f4>
 5d0:	0013490b 	andseq	r4, r3, fp, lsl #18
 5d4:	000f0a00 	andeq	r0, pc, r0, lsl #20
 5d8:	13490b0b 	movtne	r0, #39691	; 0x9b0b
 5dc:	340b0000 	strcc	r0, [fp], #-0
 5e0:	3a0e0300 	bcc	3811e8 <_start-0x7fd7ee18>
 5e4:	490b3b0b 	stmdbmi	fp, {r0, r1, r3, r8, r9, fp, ip, sp}
 5e8:	02193f13 	andseq	r3, r9, #19, 30	; 0x4c
 5ec:	0c000018 	stceq	0, cr0, [r0], {24}
 5f0:	193f002e 	ldmdbne	pc!, {r1, r2, r3, r5}	; <UNPREDICTABLE>
 5f4:	0b3a0e03 	bleq	e83e08 <_start-0x7f27c1f8>
 5f8:	19270b3b 	stmdbne	r7!, {r0, r1, r3, r4, r5, r8, r9, fp}
 5fc:	06120111 			; <UNDEFINED> instruction: 0x06120111
 600:	42961840 	addsmi	r1, r6, #64, 16	; 0x400000
 604:	00000019 	andeq	r0, r0, r9, lsl r0
 608:	25011101 	strcs	r1, [r1, #-257]	; 0xfffffeff
 60c:	030b130e 	movweq	r1, #45838	; 0xb30e
 610:	110e1b0e 	tstne	lr, lr, lsl #22
 614:	10061201 	andne	r1, r6, r1, lsl #4
 618:	02000017 	andeq	r0, r0, #23
 61c:	0b0b0113 	bleq	2c0a70 <_start-0x7fe3f590>
 620:	0b3b0b3a 	bleq	ec3310 <_start-0x7f23ccf0>
 624:	00001301 	andeq	r1, r0, r1, lsl #6
 628:	03000d03 	movweq	r0, #3331	; 0xd03
 62c:	3b0b3a0e 	blcc	2cee6c <_start-0x7fe31194>
 630:	3813490b 	ldmdacc	r3, {r0, r1, r3, r8, fp, lr}
 634:	0400000b 	streq	r0, [r0], #-11
 638:	0b0b0024 	bleq	2c06d0 <_start-0x7fe3f930>
 63c:	0e030b3e 	vmoveq.16	d3[0], r0
 640:	35050000 	strcc	r0, [r5, #-0]
 644:	00134900 	andseq	r4, r3, r0, lsl #18
 648:	00160600 	andseq	r0, r6, r0, lsl #12
 64c:	0b3a0e03 	bleq	e83e60 <_start-0x7f27c1a0>
 650:	13490b3b 	movtne	r0, #39739	; 0x9b3b
 654:	0d070000 	stceq	0, cr0, [r7, #-0]
 658:	3a080300 	bcc	201260 <_start-0x7fefeda0>
 65c:	490b3b0b 	stmdbmi	fp, {r0, r1, r3, r8, r9, fp, ip, sp}
 660:	000b3813 	andeq	r3, fp, r3, lsl r8
 664:	01010800 	tsteq	r1, r0, lsl #16
 668:	13011349 	movwne	r1, #4937	; 0x1349
 66c:	21090000 	mrscs	r0, (UNDEF: 9)
 670:	2f134900 	svccs	0x00134900
 674:	0a00000b 	beq	6a8 <_start-0x800ff958>
 678:	050b0113 	streq	r0, [fp, #-275]	; 0xfffffeed
 67c:	0b3b0b3a 	bleq	ec336c <_start-0x7f23cc94>
 680:	00001301 	andeq	r1, r0, r1, lsl #6
 684:	03000d0b 	movweq	r0, #3339	; 0xd0b
 688:	3b0b3a0e 	blcc	2ceec8 <_start-0x7fe31138>
 68c:	3813490b 	ldmdacc	r3, {r0, r1, r3, r8, fp, lr}
 690:	0c000005 	stceq	0, cr0, [r0], {5}
 694:	0e03000d 	cdpeq	0, 0, cr0, cr3, cr13, {0}
 698:	053b0b3a 	ldreq	r0, [fp, #-2874]!	; 0xfffff4c6
 69c:	05381349 	ldreq	r1, [r8, #-841]!	; 0xfffffcb7
 6a0:	160d0000 	strne	r0, [sp], -r0
 6a4:	3a0e0300 	bcc	3812ac <_start-0x7fd7ed54>
 6a8:	49053b0b 	stmdbmi	r5, {r0, r1, r3, r8, r9, fp, ip, sp}
 6ac:	0e000013 	mcreq	0, 0, r0, cr0, cr3, {0}
 6b0:	0e030113 	mcreq	1, 0, r0, cr3, cr3, {0}
 6b4:	0b3a0b0b 	bleq	e832e8 <_start-0x7f27cd18>
 6b8:	13010b3b 	movwne	r0, #6971	; 0x1b3b
 6bc:	240f0000 	strcs	r0, [pc], #-0	; 6c4 <_start-0x800ff93c>
 6c0:	3e0b0b00 	vmlacc.f64	d0, d11, d0
 6c4:	0008030b 	andeq	r0, r8, fp, lsl #6
 6c8:	000f1000 	andeq	r1, pc, r0
 6cc:	13490b0b 	movtne	r0, #39691	; 0x9b0b
 6d0:	15110000 	ldrne	r0, [r1, #-0]
 6d4:	01192701 	tsteq	r9, r1, lsl #14
 6d8:	12000013 	andne	r0, r0, #19
 6dc:	13490005 	movtne	r0, #36869	; 0x9005
 6e0:	15130000 	ldrne	r0, [r3, #-0]
 6e4:	00192700 	andseq	r2, r9, r0, lsl #14
 6e8:	00341400 	eorseq	r1, r4, r0, lsl #8
 6ec:	0b3a0e03 	bleq	e83f00 <_start-0x7f27c100>
 6f0:	13490b3b 	movtne	r0, #39739	; 0x9b3b
 6f4:	00001802 	andeq	r1, r0, r2, lsl #16
 6f8:	03003415 	movweq	r3, #1045	; 0x415
 6fc:	3b0b3a0e 	blcc	2cef3c <_start-0x7fe310c4>
 700:	3f134905 	svccc	0x00134905
 704:	00180219 	andseq	r0, r8, r9, lsl r2
 708:	002e1600 	eoreq	r1, lr, r0, lsl #12
 70c:	0e03193f 			; <UNDEFINED> instruction: 0x0e03193f
 710:	053b0b3a 	ldreq	r0, [fp, #-2874]!	; 0xfffff4c6
 714:	01111927 	tsteq	r1, r7, lsr #18
 718:	18400612 	stmdane	r0, {r1, r4, r9, sl}^
 71c:	00194296 	mulseq	r9, r6, r2
 720:	002e1700 	eoreq	r1, lr, r0, lsl #14
 724:	0b3a0e03 	bleq	e83f38 <_start-0x7f27c0c8>
 728:	19270b3b 	stmdbne	r7!, {r0, r1, r3, r4, r5, r8, r9, fp}
 72c:	06120111 			; <UNDEFINED> instruction: 0x06120111
 730:	42971840 	addsmi	r1, r7, #64, 16	; 0x400000
 734:	18000019 	stmdane	r0, {r0, r3, r4}
 738:	0e03012e 	adfeqsp	f0, f3, #0.5
 73c:	0b3b0b3a 	bleq	ec342c <_start-0x7f23cbd4>
 740:	01111927 	tsteq	r1, r7, lsr #18
 744:	18400612 	stmdane	r0, {r1, r4, r9, sl}^
 748:	01194296 			; <UNDEFINED> instruction: 0x01194296
 74c:	19000013 	stmdbne	r0, {r0, r1, r4}
 750:	0e030005 	cdpeq	0, 0, cr0, cr3, cr5, {0}
 754:	0b3b0b3a 	bleq	ec3444 <_start-0x7f23cbbc>
 758:	18021349 	stmdane	r2, {r0, r3, r6, r8, r9, ip}
 75c:	2e1a0000 	cdpcs	0, 1, cr0, cr10, cr0, {0}
 760:	3a0e0301 	bcc	38136c <_start-0x7fd7ec94>
 764:	270b3b0b 	strcs	r3, [fp, -fp, lsl #22]
 768:	12011119 	andne	r1, r1, #1073741830	; 0x40000006
 76c:	97184006 	ldrls	r4, [r8, -r6]
 770:	13011942 	movwne	r1, #6466	; 0x1942
 774:	341b0000 	ldrcc	r0, [fp], #-0
 778:	3a080300 	bcc	201380 <_start-0x7fefec80>
 77c:	490b3b0b 	stmdbmi	fp, {r0, r1, r3, r8, r9, fp, ip, sp}
 780:	00180213 	andseq	r0, r8, r3, lsl r2
	...

Disassembly of section .debug_aranges:

00000000 <.debug_aranges>:
   0:	0000001c 	andeq	r0, r0, ip, lsl r0
   4:	00000002 	andeq	r0, r0, r2
   8:	00040000 	andeq	r0, r4, r0
   c:	00000000 	andeq	r0, r0, r0
  10:	80100000 	andshi	r0, r0, r0
  14:	0000003c 	andeq	r0, r0, ip, lsr r0
	...
  20:	0000001c 	andeq	r0, r0, ip, lsl r0
  24:	00810002 	addeq	r0, r1, r2
  28:	00040000 	andeq	r0, r4, r0
  2c:	00000000 	andeq	r0, r0, r0
  30:	8010003c 	andshi	r0, r0, ip, lsr r0
  34:	000002c8 	andeq	r0, r0, r8, asr #5
	...
  40:	0000001c 	andeq	r0, r0, ip, lsl r0
  44:	01630002 	cmneq	r3, r2
  48:	00040000 	andeq	r0, r4, r0
  4c:	00000000 	andeq	r0, r0, r0
  50:	80100304 	andshi	r0, r0, r4, lsl #6
  54:	00000138 	andeq	r0, r0, r8, lsr r1
	...
  60:	00000014 	andeq	r0, r0, r4, lsl r0
  64:	030f0002 	movweq	r0, #61442	; 0xf002
  68:	00040000 	andeq	r0, r4, r0
	...
  78:	0000001c 	andeq	r0, r0, ip, lsl r0
  7c:	03670002 	cmneq	r7, #2
  80:	00040000 	andeq	r0, r4, r0
  84:	00000000 	andeq	r0, r0, r0
  88:	8010043c 	andshi	r0, r0, ip, lsr r4
  8c:	000003da 	ldrdeq	r0, [r0], -sl
	...
  98:	0000001c 	andeq	r0, r0, ip, lsl r0
  9c:	047c0002 	ldrbteq	r0, [ip], #-2
  a0:	00040000 	andeq	r0, r4, r0
  a4:	00000000 	andeq	r0, r0, r0
  a8:	80100816 	andshi	r0, r0, r6, lsl r8
  ac:	00000124 	andeq	r0, r0, r4, lsr #2
	...
  b8:	0000001c 	andeq	r0, r0, ip, lsl r0
  bc:	05d00002 	ldrbeq	r0, [r0, #2]
  c0:	00040000 	andeq	r0, r4, r0
  c4:	00000000 	andeq	r0, r0, r0
  c8:	8010093a 	andshi	r0, r0, sl, lsr r9
  cc:	00000186 	andeq	r0, r0, r6, lsl #3
	...
  d8:	0000001c 	andeq	r0, r0, ip, lsl r0
  dc:	08eb0002 	stmiaeq	fp!, {r1}^
  e0:	00040000 	andeq	r0, r4, r0
  e4:	00000000 	andeq	r0, r0, r0
  e8:	80100ac0 	andshi	r0, r0, r0, asr #21
  ec:	0000018c 	andeq	r0, r0, ip, lsl #3
	...
  f8:	0000001c 	andeq	r0, r0, ip, lsl r0
  fc:	0ba20002 	bleq	fe88010c <__bss_end+0x7e77dff8>
 100:	00040000 	andeq	r0, r4, r0
 104:	00000000 	andeq	r0, r0, r0
 108:	80100c4c 	andshi	r0, r0, ip, asr #24
 10c:	00000014 	andeq	r0, r0, r4, lsl r0
	...
 118:	0000001c 	andeq	r0, r0, ip, lsl r0
 11c:	0d3d0002 	ldceq	0, cr0, [sp, #-8]!
 120:	00040000 	andeq	r0, r4, r0
 124:	00000000 	andeq	r0, r0, r0
 128:	80100c60 	andshi	r0, r0, r0, ror #24
 12c:	000003ae 	andeq	r0, r0, lr, lsr #7
	...

Disassembly of section .debug_str:

00000000 <.debug_str>:
       0:	20554e47 	subscs	r4, r5, r7, asr #28
       4:	20313143 	eorscs	r3, r1, r3, asr #2
       8:	2e322e36 	mrccs	14, 1, r2, cr2, cr6, {1}
       c:	30322031 	eorscc	r2, r2, r1, lsr r0
      10:	30313631 	eorscc	r3, r1, r1, lsr r6
      14:	2d203631 	stccs	6, cr3, [r0, #-196]!	; 0xffffff3c
      18:	6372616d 	cmnvs	r2, #1073741851	; 0x4000001b
      1c:	72613d68 	rsbvc	r3, r1, #104, 26	; 0x1a00
      20:	2d37766d 	ldccs	6, cr7, [r7, #-436]!	; 0xfffffe4c
      24:	6d2d2061 	stcvs	0, cr2, [sp, #-388]!	; 0xfffffe7c
      28:	656e7574 	strbvs	r7, [lr, #-1396]!	; 0xfffffa8c
      2c:	726f633d 	rsbvc	r6, pc, #-201326592	; 0xf4000000
      30:	2d786574 	cfldr64cs	mvdx6, [r8, #-464]!	; 0xfffffe30
      34:	2d203961 			; <UNDEFINED> instruction: 0x2d203961
      38:	6f6c666d 	svcvs	0x006c666d
      3c:	612d7461 			; <UNDEFINED> instruction: 0x612d7461
      40:	683d6962 	ldmdavs	sp!, {r1, r5, r6, r8, fp, sp, lr}
      44:	20647261 	rsbcs	r7, r4, r1, ror #4
      48:	70666d2d 	rsbvc	r6, r6, sp, lsr #26
      4c:	66763d75 			; <UNDEFINED> instruction: 0x66763d75
      50:	2d337670 	ldccs	6, cr7, [r3, #-448]!	; 0xfffffe40
      54:	20363164 	eorscs	r3, r6, r4, ror #2
      58:	68746d2d 	ldmdavs	r4!, {r0, r2, r3, r5, r8, sl, fp, sp, lr}^
      5c:	20626d75 	rsbcs	r6, r2, r5, ror sp
      60:	6c746d2d 	ldclvs	13, cr6, [r4], #-180	; 0xffffff4c
      64:	69642d73 	stmdbvs	r4!, {r0, r1, r4, r5, r6, r8, sl, fp, sp}^
      68:	63656c61 	cmnvs	r5, #24832	; 0x6100
      6c:	6e673d74 	mcrvs	13, 3, r3, cr7, cr4, {3}
      70:	672d2075 			; <UNDEFINED> instruction: 0x672d2075
      74:	69616d00 	stmdbvs	r1!, {r8, sl, fp, sp, lr}^
      78:	00632e6e 	rsbeq	r2, r3, lr, ror #28
      7c:	6e69616d 	powvsez	f6, f1, #5.0
      80:	65727800 	ldrbvs	r7, [r2, #-2048]!	; 0xfffff800
      84:	636c0073 	cmnvs	ip, #115	; 0x73
      88:	65745f64 	ldrbvs	r5, [r4, #-3940]!	; 0xfffff09c
      8c:	66007473 			; <UNDEFINED> instruction: 0x66007473
      90:	61625f62 	cmnvs	r2, r2, ror #30
      94:	73006573 	movwvc	r6, #1395	; 0x573
      98:	74726f68 	ldrbtvc	r6, [r2], #-3944	; 0xfffff098
      9c:	736e7520 	cmnvc	lr, #32, 10	; 0x8000000
      a0:	656e6769 	strbvs	r6, [lr, #-1897]!	; 0xfffff897
      a4:	6e692064 	cdpvs	0, 6, cr2, cr9, cr4, {3}
      a8:	682f0074 	stmdavs	pc!, {r2, r4, r5, r6}	; <UNPREDICTABLE>
      ac:	2f656d6f 	svccs	0x00656d6f
      b0:	6b6f6f62 	blvs	1bdbe40 <_start-0x7e5241c0>
      b4:	776f442f 	strbvc	r4, [pc, -pc, lsr #8]!
      b8:	616f6c6e 	cmnvs	pc, lr, ror #24
      bc:	312f7364 			; <UNDEFINED> instruction: 0x312f7364
      c0:	73613030 	cmnvc	r1, #48	; 0x30
      c4:	6d695f6b 	stclvs	15, cr5, [r9, #-428]!	; 0xfffffe54
      c8:	6c753678 	ldclvs	6, cr3, [r5], #-480	; 0xfffffe20
      cc:	6f4e5f6c 	svcvs	0x004e5f6c
      d0:	7250736f 	subsvc	r7, r0, #-1140850687	; 0xbc000001
      d4:	6172676f 	cmnvs	r2, pc, ror #14
      d8:	6f72506d 	svcvs	0x0072506d
      dc:	7463656a 	strbtvc	r6, [r3], #-1386	; 0xfffffa96
      e0:	5f35312f 	svcpl	0x0035312f
      e4:	e744434c 	strb	r4, [r4, -ip, asr #6]
      e8:	a8e796bc 	stmiage	r7!, {r2, r3, r4, r5, r7, r9, sl, ip, pc}^
      ec:	33302f8b 	teqcc	r0, #556	; 0x22c
      f0:	6e6f665f 	mcrvs	6, 3, r6, cr15, cr15, {2}
      f4:	65745f74 	ldrbvs	r5, [r4, #-3956]!	; 0xfffff08c
      f8:	79007473 	stmdbvc	r0, {r0, r1, r4, r5, r6, sl, ip, sp, lr}
      fc:	00736572 	rsbseq	r6, r3, r2, ror r5
     100:	746e6f66 	strbtvc	r6, [lr], #-3942	; 0xfffff09a
     104:	6600632e 	strvs	r6, [r0], -lr, lsr #6
     108:	64746e6f 	ldrbtvs	r6, [r4], #-3695	; 0xfffff191
     10c:	5f617461 	svcpl	0x00617461
     110:	36317838 			; <UNDEFINED> instruction: 0x36317838
     114:	5f626600 	svcpl	0x00626600
     118:	6e697270 	mcrvs	2, 3, r7, cr9, cr0, {3}
     11c:	68635f74 	stmdavs	r3!, {r2, r4, r5, r6, r8, r9, sl, fp, ip, lr}^
     120:	64007261 	strvs	r7, [r0], #-609	; 0xfffffd9f
     124:	0073746f 	rsbseq	r7, r3, pc, ror #8
     128:	61746164 	cmnvs	r4, r4, ror #2
     12c:	736e7500 	cmnvc	lr, #0, 10
     130:	656e6769 	strbvs	r6, [lr, #-1897]!	; 0xfffff897
     134:	68632064 	stmdavs	r3!, {r2, r5, r6, sp}^
     138:	63007261 	movwvs	r7, #609	; 0x261
     13c:	726f6c6f 	rsbvc	r6, pc, #28416	; 0x6f00
     140:	6e6f6600 	cdpvs	6, 6, cr6, cr15, cr0, {0}
     144:	6e695f74 	mcrvs	15, 3, r5, cr9, cr4, {3}
     148:	66007469 	strvs	r7, [r0], -r9, ror #8
     14c:	72705f62 	rsbsvc	r5, r0, #392	; 0x188
     150:	5f746e69 	svcpl	0x00746e69
     154:	69727473 	ldmdbvs	r2!, {r0, r1, r4, r5, r6, sl, ip, sp, lr}^
     158:	7300676e 	movwvc	r6, #1902	; 0x76e
     15c:	74657a69 	strbtvc	r7, [r5], #-2665	; 0xfffff597
     160:	00657079 	rsbeq	r7, r5, r9, ror r0
     164:	746e6f66 	strbtvc	r6, [lr], #-3942	; 0xfffff09a
     168:	3178385f 	cmncc	r8, pc, asr r8
     16c:	00632e36 	rsbeq	r2, r3, r6, lsr lr
     170:	6d6f6567 	cfstr64vs	mvdx6, [pc, #-412]!	; ffffffdc <__bss_end+0x7fefdec8>
     174:	79727465 	ldmdbvc	r2!, {r0, r2, r5, r6, sl, ip, sp, lr}^
     178:	6400632e 	strvs	r6, [r0], #-814	; 0xfffffcd2
     17c:	5f776172 	svcpl	0x00776172
     180:	63726963 	cmnvs	r2, #1622016	; 0x18c000
     184:	6400656c 	strvs	r6, [r0], #-1388	; 0xfffffa94
     188:	5f776172 	svcpl	0x00776172
     18c:	656e696c 	strbvs	r6, [lr, #-2412]!	; 0xfffff694
     190:	78697000 	stmdavc	r9!, {ip, sp, lr}^
     194:	625f6c65 	subsvs	r6, pc, #25856	; 0x6500
     198:	00657361 	rsbeq	r7, r5, r1, ror #6
     19c:	705f6266 	subsvc	r6, pc, r6, ror #4
     1a0:	705f7475 	subsvc	r7, pc, r5, ror r4	; <UNPREDICTABLE>
     1a4:	6c657869 	stclvs	8, cr7, [r5], #-420	; 0xfffffe5c
     1a8:	5f626600 	svcpl	0x00626600
     1ac:	5f746567 	svcpl	0x00746567
     1b0:	5f64636c 	svcpl	0x0064636c
     1b4:	61726170 	cmnvs	r2, r0, ror r1
     1b8:	6300736d 	movwvs	r7, #877	; 0x36d
     1bc:	65766e6f 	ldrbvs	r6, [r6, #-3695]!	; 0xfffff191
     1c0:	32337472 	eorscc	r7, r3, #1912602624	; 0x72000000
     1c4:	74707062 	ldrbtvc	r7, [r0], #-98	; 0xffffff9e
     1c8:	6236316f 	eorsvs	r3, r6, #-1073741797	; 0xc000001b
     1cc:	66007070 			; <UNDEFINED> instruction: 0x66007070
     1d0:	656d6172 	strbvs	r6, [sp, #-370]!	; 0xfffffe8e
     1d4:	66667562 	strbtvs	r7, [r6], -r2, ror #10
     1d8:	632e7265 			; <UNDEFINED> instruction: 0x632e7265
     1dc:	6c5f7000 	mravs	r7, pc, acc0
     1e0:	635f6463 	cmpvs	pc, #1660944384	; 0x63000000
     1e4:	72746e6f 	rsbsvc	r6, r4, #1776	; 0x6f0
     1e8:	656c6c6f 	strbvs	r6, [ip, #-3183]!	; 0xfffff391
     1ec:	636c0072 	cmnvs	ip, #114	; 0x72
     1f0:	6f635f64 	svcvs	0x00635f64
     1f4:	6c6f746e 	cfstrdvs	mvd7, [pc], #-440	; 44 <_start-0x800fffbc>
     1f8:	5f72656c 	svcpl	0x0072656c
     1fc:	00646461 	rsbeq	r6, r4, r1, ror #8
     200:	64636c70 	strbtvs	r6, [r3], #-3184	; 0xfffff390
     204:	61726170 	cmnvs	r2, r0, ror r1
     208:	7000736d 	andvc	r7, r0, sp, ror #6
     20c:	5f736e69 	svcpl	0x00736e69
     210:	616c6f70 	smcvs	50928	; 0xc6f0
     214:	79746972 	ldmdbvc	r4!, {r1, r4, r5, r6, r8, fp, sp, lr}^
     218:	6d697400 	cfstrdvs	mvd7, [r9, #-0]
     21c:	65735f65 	ldrbvs	r5, [r3, #-3941]!	; 0xfffff09b
     220:	6c700071 	ldclvs	0, cr0, [r0], #-452	; 0xfffffe3c
     224:	6f636463 	svcvs	0x00636463
     228:	636c006e 	cmnvs	ip, #110	; 0x6e
     22c:	6f635f64 	svcvs	0x00635f64
     230:	6f72746e 	svcvs	0x0072746e
     234:	72656c6c 	rsbvc	r6, r5, #108, 24	; 0x6c00
     238:	6e616d5f 	mcrvs	13, 3, r6, cr1, cr15, {2}
     23c:	72656761 	rsbvc	r6, r5, #25427968	; 0x1840000
     240:	6700632e 	strvs	r6, [r0, -lr, lsr #6]
     244:	6c5f705f 	mrrcvs	0, 5, r7, pc, cr15	; <UNPREDICTABLE>
     248:	635f6463 	cmpvs	pc, #1660944384	; 0x63000000
     24c:	72746e6f 	rsbsvc	r6, r4, #1776	; 0x6f0
     250:	656c6c6f 	strbvs	r6, [ip, #-3183]!	; 0xfffff391
     254:	65735f72 	ldrbvs	r5, [r3, #-3954]!	; 0xfffff08e
     258:	7463656c 	strbtvc	r6, [r3], #-1388	; 0xfffffa94
     25c:	68006465 	stmdavs	r0, {r0, r2, r5, r6, sl, sp, lr}
     260:	636e7973 	cmnvs	lr, #1884160	; 0x1cc000
     264:	67657200 	strbvs	r7, [r5, -r0, lsl #4]!
     268:	65747369 	ldrbvs	r7, [r4, #-873]!	; 0xfffffc97
     26c:	636c5f72 	cmnvs	ip, #456	; 0x1c8
     270:	6f635f64 	svcvs	0x00635f64
     274:	6f72746e 	svcvs	0x0072746e
     278:	72656c6c 	rsbvc	r6, r5, #108, 24	; 0x6c00
     27c:	6c637600 	stclvs	6, cr7, [r3], #-0
     280:	5f70006b 	svcpl	0x0070006b
     284:	5f64636c 	svcpl	0x0064636c
     288:	61726170 	cmnvs	r2, r0, ror r1
     28c:	7000736d 	andvc	r7, r0, sp, ror #6
     290:	7272615f 	rsbsvc	r6, r2, #-1073741801	; 0xc0000017
     294:	6c5f7961 	mrrcvs	9, 6, r7, pc, cr1	; <UNPREDICTABLE>
     298:	635f6463 	cmpvs	pc, #1660944384	; 0x63000000
     29c:	72746e6f 	rsbsvc	r6, r4, #1776	; 0x6f0
     2a0:	656c6c6f 	strbvs	r6, [ip, #-3183]!	; 0xfffff391
     2a4:	74730072 	ldrbtvc	r0, [r3], #-114	; 0xffffff8e
     2a8:	706d6372 	rsbvc	r6, sp, r2, ror r3
     2ac:	6c657300 	stclvs	3, cr7, [r5], #-0
     2b0:	5f746365 	svcpl	0x00746365
     2b4:	5f64636c 	svcpl	0x0064636c
     2b8:	746e6f63 	strbtvc	r6, [lr], #-3939	; 0xfffff09d
     2bc:	6c6c6f72 	stclvs	15, cr6, [ip], #-456	; 0xfffffe38
     2c0:	76007265 	strvc	r7, [r0], -r5, ror #4
     2c4:	636e7973 	cmnvs	lr, #1884160	; 0x1cc000
     2c8:	6d616e00 	stclvs	14, cr6, [r1, #-0]
     2cc:	69700065 	ldmdbvs	r0!, {r0, r2, r5, r6}^
     2d0:	705f736e 	subsvc	r7, pc, lr, ror #6
     2d4:	74006c6f 	strvc	r6, [r0], #-3183	; 0xfffff391
     2d8:	5f656d69 	svcpl	0x00656d69
     2dc:	75716573 	ldrbvc	r6, [r1, #-1395]!	; 0xfffffa8d
     2e0:	65636e65 	strbvs	r6, [r3, #-3685]!	; 0xfffff19b
     2e4:	725f5f00 	subsvc	r5, pc, #0, 30
     2e8:	6c007365 	stcvs	3, cr7, [r0], {101}	; 0x65
     2ec:	6d5f6463 	cfldrdvs	mvd6, [pc, #-396]	; 168 <_start-0x800ffe98>
     2f0:	67616e61 	strbvs	r6, [r1, -r1, ror #28]!
     2f4:	632e7265 			; <UNDEFINED> instruction: 0x632e7265
     2f8:	6c656400 	cfstrdvs	mvd6, [r5], #-0
     2fc:	6c007961 			; <UNDEFINED> instruction: 0x6c007961
     300:	695f6463 	ldmdbvs	pc, {r0, r1, r5, r6, sl, sp, lr}^	; <UNPREDICTABLE>
     304:	0074696e 	rsbseq	r6, r4, lr, ror #18
     308:	5f64636c 	svcpl	0x0064636c
     30c:	61736964 	cmnvs	r3, r4, ror #18
     310:	00656c62 	rsbeq	r6, r5, r2, ror #24
     314:	72615f70 	rsbvc	r5, r1, #112, 30	; 0x1c0
     318:	5f796172 	svcpl	0x00796172
     31c:	0064636c 	rsbeq	r6, r4, ip, ror #6
     320:	5f64636c 	svcpl	0x0064636c
     324:	62616e65 	rsbvs	r6, r1, #1616	; 0x650
     328:	7300656c 	movwvc	r6, #1388	; 0x56c
     32c:	63656c65 	cmnvs	r5, #25856	; 0x6500
     330:	636c5f74 	cmnvs	ip, #116, 30	; 0x1d0
     334:	5f670064 	svcpl	0x00670064
     338:	636c5f70 	cmnvs	ip, #112, 30	; 0x1c0
     33c:	65735f64 	ldrbvs	r5, [r3, #-3940]!	; 0xfffff09c
     340:	7463656c 	strbtvc	r6, [r3], #-1388	; 0xfffffa94
     344:	72006465 	andvc	r6, r0, #1694498816	; 0x65000000
     348:	73696765 	cmnvc	r9, #26476544	; 0x1940000
     34c:	5f726574 	svcpl	0x00726574
     350:	0064636c 	rsbeq	r6, r4, ip, ror #6
     354:	64636c70 	strbtvs	r6, [r3], #-3184	; 0xfffff390
     358:	64636c00 	strbtvs	r6, [r3], #-3072	; 0xfffff400
     35c:	305f375f 	subscc	r3, pc, pc, asr r7	; <UNPREDICTABLE>
     360:	6464615f 	strbtvs	r6, [r4], #-351	; 0xfffffea1
     364:	564e4900 	strbpl	r4, [lr], -r0, lsl #18
     368:	00545245 	subseq	r5, r4, r5, asr #4
     36c:	5f64636c 	svcpl	0x0064636c
     370:	5f305f37 	svcpl	0x00305f37
     374:	61726170 	cmnvs	r2, r0, ror r1
     378:	4e00736d 	cdpmi	3, 0, cr7, cr0, cr13, {3}
     37c:	414d524f 	cmpmi	sp, pc, asr #4
     380:	636c004c 	cmnvs	ip, #76	; 0x4c
     384:	5f375f64 	svcpl	0x00375f64
     388:	00632e30 	rsbeq	r2, r3, r0, lsr lr
     38c:	554d4f49 	strbpl	r4, [sp, #-3913]	; 0xfffff0b7
     390:	535f4358 	cmppl	pc, #88, 6	; 0x60000001
     394:	41505f57 	cmpmi	r0, r7, asr pc
     398:	54435f44 	strbpl	r5, [r3], #-3908	; 0xfffff0bc
     39c:	41505f4c 	cmpmi	r0, ip, asr #30
     3a0:	434c5f44 	movtmi	r5, #53060	; 0xcf44
     3a4:	41445f44 	cmpmi	r4, r4, asr #30
     3a8:	35304154 	ldrcc	r4, [r0, #-340]!	; 0xfffffeac
     3ac:	4d4f4900 	vstrmi.16	s9, [pc, #-0]	; 3b4 <_start-0x800ffc4c>	; <UNPREDICTABLE>
     3b0:	5f435855 	svcpl	0x00435855
     3b4:	505f5753 	subspl	r5, pc, r3, asr r7	; <UNPREDICTABLE>
     3b8:	435f4441 	cmpmi	pc, #1090519040	; 0x41000000
     3bc:	505f4c54 	subspl	r4, pc, r4, asr ip	; <UNPREDICTABLE>
     3c0:	4c5f4441 	cfldrdmi	mvd4, [pc], {65}	; 0x41
     3c4:	445f4443 	ldrbmi	r4, [pc], #-1091	; 3cc <_start-0x800ffc34>
     3c8:	30415441 	subcc	r5, r1, r1, asr #8
     3cc:	4f490036 	svcmi	0x00490036
     3d0:	4358554d 	cmpmi	r8, #322961408	; 0x13400000
     3d4:	5f57535f 	svcpl	0x0057535f
     3d8:	5f444150 	svcpl	0x00444150
     3dc:	5f4c5443 	svcpl	0x004c5443
     3e0:	5f444150 	svcpl	0x00444150
     3e4:	5f44434c 	svcpl	0x0044434c
     3e8:	41544144 	cmpmi	r4, r4, asr #2
     3ec:	49003730 	stmdbmi	r0, {r4, r5, r8, r9, sl, ip, sp}
     3f0:	58554d4f 	ldmdapl	r5, {r0, r1, r2, r3, r6, r8, sl, fp, lr}^
     3f4:	57535f43 	ldrbpl	r5, [r3, -r3, asr #30]
     3f8:	4441505f 	strbmi	r5, [r1], #-95	; 0xffffffa1
     3fc:	4c54435f 	mrrcmi	3, 5, r4, r4, cr15	; <UNPREDICTABLE>
     400:	4441505f 	strbmi	r5, [r1], #-95	; 0xffffffa1
     404:	44434c5f 	strbmi	r4, [r3], #-3167	; 0xfffff3a1
     408:	5441445f 	strbpl	r4, [r1], #-1119	; 0xfffffba1
     40c:	00383041 	eorseq	r3, r8, r1, asr #32
     410:	554d4f49 	strbpl	r4, [sp, #-3913]	; 0xfffff0b7
     414:	535f4358 	cmppl	pc, #88, 6	; 0x60000001
     418:	41505f57 	cmpmi	r0, r7, asr pc
     41c:	54435f44 	strbpl	r5, [r3], #-3908	; 0xfffff0bc
     420:	41505f4c 	cmpmi	r0, ip, asr #30
     424:	434c5f44 	movtmi	r5, #53060	; 0xcf44
     428:	41445f44 	cmpmi	r4, r4, asr #30
     42c:	39304154 	ldmdbcc	r0!, {r2, r4, r6, r8, lr}
     430:	53455200 	movtpl	r5, #20992	; 0x5200
     434:	45565245 	ldrbmi	r5, [r6, #-581]	; 0xfffffdbb
     438:	38325f44 	ldmdacc	r2!, {r2, r6, r8, r9, sl, fp, ip, lr}
     43c:	53455200 	movtpl	r5, #20992	; 0x5200
     440:	45565245 	ldrbmi	r5, [r6, #-581]	; 0xfffffdbb
     444:	39325f44 	ldmdbcc	r2!, {r2, r6, r8, r9, sl, fp, ip, lr}
     448:	43445600 	movtmi	r5, #17920	; 0x4600
     44c:	304c5254 	subcc	r5, ip, r4, asr r2
     450:	524c435f 	subpl	r4, ip, #2080374785	; 0x7c000001
     454:	4c4c5000 	marmi	acc0, r5, ip
     458:	5359535f 	cmppl	r9, #2080374785	; 0x7c000001
     45c:	53484300 	movtpl	r4, #33536	; 0x8300
     460:	52444343 	subpl	r4, r4, #201326593	; 0xc000001
     464:	44465000 	strbmi	r5, [r6], #-0
     468:	3038345f 	eorscc	r3, r8, pc, asr r4
     46c:	47434300 	strbmi	r4, [r3, -r0, lsl #6]
     470:	43003152 	movwmi	r3, #338	; 0x152
     474:	33524743 	cmpcc	r2, #17563648	; 0x10c0000
     478:	47434300 	strbmi	r4, [r3, -r0, lsl #6]
     47c:	43003452 	movwmi	r3, #1106	; 0x452
     480:	35524743 	ldrbcc	r4, [r2, #-1859]	; 0xfffff8bd
     484:	786d4900 	stmdavc	sp!, {r8, fp, lr}^
     488:	6c6c7536 	cfstr64vs	mvdx7, [ip], #-216	; 0xffffff28
     48c:	64636c5f 	strbtvs	r6, [r3], #-3167	; 0xfffff3a1
     490:	6e6f635f 	mcrvs	3, 3, r6, cr15, cr15, {2}
     494:	6c6f7274 	sfmvs	f7, 2, [pc], #-464	; 2cc <_start-0x800ffd34>
     498:	0072656c 	rsbseq	r6, r2, ip, ror #10
     49c:	4c525443 	cfldrdmi	mvd5, [r2], {67}	; 0x43
     4a0:	4f545f32 	svcmi	0x00545f32
     4a4:	44430047 	strbmi	r0, [r3], #-71	; 0xffffffb9
     4a8:	00524443 	subseq	r4, r2, r3, asr #8
     4ac:	4c525443 	cfldrdmi	mvd5, [r2], {67}	; 0x43
     4b0:	5445535f 	strbpl	r5, [r5], #-863	; 0xfffffca1
     4b4:	53434300 	movtpl	r4, #13056	; 0x3300
     4b8:	46500052 			; <UNDEFINED> instruction: 0x46500052
     4bc:	32355f44 	eorscc	r5, r5, #68, 30	; 0x110
     4c0:	4c500038 	mrrcmi	0, 3, r0, r0, cr8	; <UNPREDICTABLE>
     4c4:	55415f4c 	strbpl	r5, [r1, #-3916]	; 0xfffff0b4
     4c8:	5f4f4944 	svcpl	0x004f4944
     4cc:	00544553 	subseq	r4, r4, r3, asr r5
     4d0:	5f4d4343 	svcpl	0x004d4343
     4d4:	65707954 	ldrbvs	r7, [r0, #-2388]!	; 0xfffff6ac
     4d8:	43445600 	movtmi	r5, #17920	; 0x4600
     4dc:	324c5254 	subcc	r5, ip, #84, 4	; 0x40000005
     4e0:	53494d00 	movtpl	r4, #40192	; 0x9d00
     4e4:	545f3243 	ldrbpl	r3, [pc], #-579	; 4ec <_start-0x800ffb14>
     4e8:	4900474f 	stmdbmi	r0, {r0, r1, r2, r3, r6, r8, r9, sl, lr}
     4ec:	7536786d 	ldrvc	r7, [r6, #-2157]!	; 0xfffff793
     4f0:	6c5f6c6c 	mrrcvs	12, 6, r6, pc, cr12	; <UNPREDICTABLE>
     4f4:	635f6463 	cmpvs	pc, #1660944384	; 0x63000000
     4f8:	72746e6f 	rsbsvc	r6, r4, #1776	; 0x6f0
     4fc:	656c6c6f 	strbvs	r6, [ip, #-3183]!	; 0xfffff391
     500:	64615f72 	strbtvs	r5, [r1], #-3954	; 0xfffff08e
     504:	4c500064 	mrrcmi	0, 6, r0, r0, cr4	; <UNPREDICTABLE>
     508:	49565f4c 	ldmdbmi	r6, {r2, r3, r6, r8, r9, sl, fp, ip, lr}^
     50c:	5f4f4544 	svcpl	0x004f4544
     510:	004d554e 	subeq	r5, sp, lr, asr #10
     514:	554d4f49 	strbpl	r4, [sp, #-3913]	; 0xfffff0b7
     518:	535f4358 	cmppl	pc, #88, 6	; 0x60000001
     51c:	554d5f57 	strbpl	r5, [sp, #-3927]	; 0xfffff0a9
     520:	54435f58 	strbpl	r5, [r3], #-3928	; 0xfffff0a8
     524:	41505f4c 	cmpmi	r0, ip, asr #30
     528:	434c5f44 	movtmi	r5, #53060	; 0xcf44
     52c:	4e455f44 	cdpmi	15, 4, cr5, cr5, cr4, {2}
     530:	454c4241 	strbmi	r4, [ip, #-577]	; 0xfffffdbf
     534:	4d4f4900 	vstrmi.16	s9, [pc, #-0]	; 53c <_start-0x800ffac4>	; <UNPREDICTABLE>
     538:	5f435855 	svcpl	0x00435855
     53c:	505f5753 	subspl	r5, pc, r3, asr r7	; <UNPREDICTABLE>
     540:	435f4441 	cmpmi	pc, #1090519040	; 0x41000000
     544:	505f4c54 	subspl	r4, pc, r4, asr ip	; <UNPREDICTABLE>
     548:	4c5f4441 	cfldrdmi	mvd4, [pc], {65}	; 0x41
     54c:	445f4443 	ldrbmi	r4, [pc], #-1091	; 554 <_start-0x800ffaac>
     550:	31415441 	cmpcc	r1, r1, asr #8
     554:	4f490030 	svcmi	0x00490030
     558:	4358554d 	cmpmi	r8, #322961408	; 0x13400000
     55c:	5f57535f 	svcpl	0x0057535f
     560:	5f444150 	svcpl	0x00444150
     564:	5f4c5443 	svcpl	0x004c5443
     568:	5f444150 	svcpl	0x00444150
     56c:	5f44434c 	svcpl	0x0044434c
     570:	41544144 	cmpmi	r4, r4, asr #2
     574:	49003131 	stmdbmi	r0, {r0, r4, r5, r8, ip, sp}
     578:	58554d4f 	ldmdapl	r5, {r0, r1, r2, r3, r6, r8, sl, fp, lr}^
     57c:	57535f43 	ldrbpl	r5, [r3, -r3, asr #30]
     580:	4441505f 	strbmi	r5, [r1], #-95	; 0xffffffa1
     584:	4c54435f 	mrrcmi	3, 5, r4, r4, cr15	; <UNPREDICTABLE>
     588:	4441505f 	strbmi	r5, [r1], #-95	; 0xffffffa1
     58c:	44434c5f 	strbmi	r4, [r3], #-3167	; 0xfffff3a1
     590:	5441445f 	strbpl	r4, [r1], #-1119	; 0xfffffba1
     594:	00323141 	eorseq	r3, r2, r1, asr #2
     598:	554d4f49 	strbpl	r4, [sp, #-3913]	; 0xfffff0b7
     59c:	535f4358 	cmppl	pc, #88, 6	; 0x60000001
     5a0:	41505f57 	cmpmi	r0, r7, asr pc
     5a4:	54435f44 	strbpl	r5, [r3], #-3908	; 0xfffff0bc
     5a8:	41505f4c 	cmpmi	r0, ip, asr #30
     5ac:	434c5f44 	movtmi	r5, #53060	; 0xcf44
     5b0:	41445f44 	cmpmi	r4, r4, asr #30
     5b4:	33314154 	teqcc	r1, #84, 2
     5b8:	4d4f4900 	vstrmi.16	s9, [pc, #-0]	; 5c0 <_start-0x800ffa40>	; <UNPREDICTABLE>
     5bc:	5f435855 	svcpl	0x00435855
     5c0:	505f5753 	subspl	r5, pc, r3, asr r7	; <UNPREDICTABLE>
     5c4:	435f4441 	cmpmi	pc, #1090519040	; 0x41000000
     5c8:	505f4c54 	subspl	r4, pc, r4, asr ip	; <UNPREDICTABLE>
     5cc:	4c5f4441 	cfldrdmi	mvd4, [pc], {65}	; 0x41
     5d0:	445f4443 	ldrbmi	r4, [pc], #-1091	; 5d8 <_start-0x800ffa28>
     5d4:	31415441 	cmpcc	r1, r1, asr #8
     5d8:	4f490034 	svcmi	0x00490034
     5dc:	4358554d 	cmpmi	r8, #322961408	; 0x13400000
     5e0:	5f57535f 	svcpl	0x0057535f
     5e4:	5f444150 	svcpl	0x00444150
     5e8:	5f4c5443 	svcpl	0x004c5443
     5ec:	5f444150 	svcpl	0x00444150
     5f0:	5f44434c 	svcpl	0x0044434c
     5f4:	41544144 	cmpmi	r4, r4, asr #2
     5f8:	49003531 	stmdbmi	r0, {r0, r4, r5, r8, sl, ip, sp}
     5fc:	58554d4f 	ldmdapl	r5, {r0, r1, r2, r3, r6, r8, sl, fp, lr}^
     600:	57535f43 	ldrbpl	r5, [r3, -r3, asr #30]
     604:	4441505f 	strbmi	r5, [r1], #-95	; 0xffffffa1
     608:	4c54435f 	mrrcmi	3, 5, r4, r4, cr15	; <UNPREDICTABLE>
     60c:	4441505f 	strbmi	r5, [r1], #-95	; 0xffffffa1
     610:	44434c5f 	strbmi	r4, [r3], #-3167	; 0xfffff3a1
     614:	5441445f 	strbpl	r4, [r1], #-1119	; 0xfffffba1
     618:	00363141 	eorseq	r3, r6, r1, asr #2
     61c:	554d4f49 	strbpl	r4, [sp, #-3913]	; 0xfffff0b7
     620:	535f4358 	cmppl	pc, #88, 6	; 0x60000001
     624:	41505f57 	cmpmi	r0, r7, asr pc
     628:	54435f44 	strbpl	r5, [r3], #-3908	; 0xfffff0bc
     62c:	41505f4c 	cmpmi	r0, ip, asr #30
     630:	434c5f44 	movtmi	r5, #53060	; 0xcf44
     634:	41445f44 	cmpmi	r4, r4, asr #30
     638:	37314154 			; <UNDEFINED> instruction: 0x37314154
     63c:	4d4f4900 	vstrmi.16	s9, [pc, #-0]	; 644 <_start-0x800ff9bc>	; <UNPREDICTABLE>
     640:	5f435855 	svcpl	0x00435855
     644:	505f5753 	subspl	r5, pc, r3, asr r7	; <UNPREDICTABLE>
     648:	435f4441 	cmpmi	pc, #1090519040	; 0x41000000
     64c:	505f4c54 	subspl	r4, pc, r4, asr ip	; <UNPREDICTABLE>
     650:	4c5f4441 	cfldrdmi	mvd4, [pc], {65}	; 0x41
     654:	445f4443 	ldrbmi	r4, [pc], #-1091	; 65c <_start-0x800ff9a4>
     658:	31415441 	cmpcc	r1, r1, asr #8
     65c:	4f490038 	svcmi	0x00490038
     660:	4358554d 	cmpmi	r8, #322961408	; 0x13400000
     664:	5f57535f 	svcpl	0x0057535f
     668:	5f444150 	svcpl	0x00444150
     66c:	5f4c5443 	svcpl	0x004c5443
     670:	5f444150 	svcpl	0x00444150
     674:	5f44434c 	svcpl	0x0044434c
     678:	41544144 	cmpmi	r4, r4, asr #2
     67c:	50003931 	andpl	r3, r0, r1, lsr r9
     680:	535f4c4c 	cmppl	pc, #76, 24	; 0x4c00
     684:	535f5359 	cmppl	pc, #1677721601	; 0x64000001
     688:	4d420053 	stclmi	0, cr0, [r2, #-332]	; 0xfffffeb4
     68c:	5252455f 	subspl	r4, r2, #398458880	; 0x17c00000
     690:	535f524f 	cmppl	pc, #-268435452	; 0xf0000004
     694:	00544154 	subseq	r4, r4, r4, asr r1
     698:	4353494d 	cmpmi	r3, #1261568	; 0x134000
     69c:	4c435f31 	mcrrmi	15, 3, r5, r3, cr1
     6a0:	4d430052 	stclmi	0, cr0, [r3, #-328]	; 0xfffffeb8
     6a4:	00524f45 	subseq	r4, r2, r5, asr #30
     6a8:	425f5341 	subsmi	r5, pc, #67108865	; 0x4000001
     6ac:	43004655 	movwmi	r4, #1621	; 0x655
     6b0:	5f4c5254 	svcpl	0x004c5254
     6b4:	00474f54 	subeq	r4, r7, r4, asr pc
     6b8:	524d4943 	subpl	r4, sp, #1097728	; 0x10c000
     6bc:	52544300 	subspl	r4, r4, #0, 6
     6c0:	535f314c 	cmppl	pc, #76, 2
     6c4:	56005445 	strpl	r5, [r0], -r5, asr #8
     6c8:	52544344 	subspl	r4, r4, #68, 6	; 0x10000001
     6cc:	535f304c 	cmppl	pc, #76	; 0x4c
     6d0:	53005445 	movwpl	r5, #1093	; 0x445
     6d4:	554d5f57 	strbpl	r5, [sp, #-3927]	; 0xfffff0a9
     6d8:	54435f58 	strbpl	r5, [r3], #-3928	; 0xfffff0a8
     6dc:	79545f4c 	ldmdbvc	r4, {r2, r3, r6, r8, r9, sl, fp, ip, lr}^
     6e0:	50006570 	andpl	r6, r0, r0, ror r5
     6e4:	565f4c4c 	ldrbpl	r4, [pc], -ip, asr #24
     6e8:	4f454449 	svcmi	0x00454449
     6ec:	5445535f 	strbpl	r5, [r5], #-863	; 0xfffffca1
     6f0:	4d4f4900 	vstrmi.16	s9, [pc, #-0]	; 6f8 <_start-0x800ff908>	; <UNPREDICTABLE>
     6f4:	5f435855 	svcpl	0x00435855
     6f8:	4d5f5753 	ldclmi	7, cr5, [pc, #-332]	; 5b4 <_start-0x800ffa4c>
     6fc:	435f5855 	cmpmi	pc, #5570560	; 0x550000
     700:	505f4c54 	subspl	r4, pc, r4, asr ip	; <UNPREDICTABLE>
     704:	4c5f4441 	cfldrdmi	mvd4, [pc], {65}	; 0x41
     708:	525f4443 	subspl	r4, pc, #1124073472	; 0x43000000
     70c:	54455345 	strbpl	r5, [r5], #-837	; 0xfffffcbb
     710:	4d434300 	stclmi	3, cr4, [r3, #-0]
     714:	414e415f 	cmpmi	lr, pc, asr r1
     718:	5f474f4c 	svcpl	0x00474f4c
     71c:	65707954 	ldrbvs	r7, [r0, #-2388]!	; 0xfffff6ac
     720:	47434300 	strbmi	r4, [r3, -r0, lsl #6]
     724:	49003052 	stmdbmi	r0, {r1, r4, r6, ip, sp}
     728:	58554d4f 	ldmdapl	r5, {r0, r1, r2, r3, r6, r8, sl, fp, lr}^
     72c:	57535f43 	ldrbpl	r5, [r3, -r3, asr #30]
     730:	4441505f 	strbmi	r5, [r1], #-95	; 0xffffffa1
     734:	4c54435f 	mrrcmi	3, 5, r4, r4, cr15	; <UNPREDICTABLE>
     738:	4441505f 	strbmi	r5, [r1], #-95	; 0xffffffa1
     73c:	44434c5f 	strbmi	r4, [r3], #-3167	; 0xfffff3a1
     740:	414e455f 	cmpmi	lr, pc, asr r5
     744:	00454c42 	subeq	r4, r5, r2, asr #24
     748:	52474343 	subpl	r4, r7, #201326593	; 0xc000001
     74c:	45520032 	ldrbmi	r0, [r2, #-50]	; 0xffffffce
     750:	56524553 			; <UNDEFINED> instruction: 0x56524553
     754:	305f4445 	subscc	r4, pc, r5, asr #8
     758:	53455200 	movtpl	r5, #20992	; 0x5200
     75c:	45565245 	ldrbmi	r5, [r6, #-581]	; 0xfffffdbb
     760:	00315f44 	eorseq	r5, r1, r4, asr #30
     764:	52434143 	subpl	r4, r3, #-1073741808	; 0xc0000010
     768:	43430052 	movtmi	r0, #12370	; 0x3052
     76c:	00365247 	eorseq	r5, r6, r7, asr #4
     770:	45534552 	ldrbmi	r4, [r3, #-1362]	; 0xfffffaae
     774:	44455652 	strbmi	r5, [r5], #-1618	; 0xfffff9ae
     778:	5200345f 	andpl	r3, r0, #1593835520	; 0x5f000000
     77c:	52455345 	subpl	r5, r5, #335544321	; 0x14000001
     780:	5f444556 	svcpl	0x00444556
     784:	45520035 	ldrbmi	r0, [r2, #-53]	; 0xffffffcb
     788:	56524553 			; <UNDEFINED> instruction: 0x56524553
     78c:	365f4445 	ldrbcc	r4, [pc], -r5, asr #8
     790:	53455200 	movtpl	r5, #20992	; 0x5200
     794:	45565245 	ldrbmi	r5, [r6, #-581]	; 0xfffffdbb
     798:	00375f44 	eorseq	r5, r7, r4, asr #30
     79c:	45534552 	ldrbmi	r4, [r3, #-1362]	; 0xfffffaae
     7a0:	44455652 	strbmi	r5, [r5], #-1618	; 0xfffff9ae
     7a4:	5200385f 	andpl	r3, r0, #6225920	; 0x5f0000
     7a8:	52455345 	subpl	r5, r5, #335544321	; 0x14000001
     7ac:	5f444556 	svcpl	0x00444556
     7b0:	52540039 	subspl	r0, r4, #57	; 0x39
     7b4:	46534e41 	ldrbmi	r4, [r3], -r1, asr #28
     7b8:	435f5245 	cmpmi	pc, #1342177284	; 0x50000004
     7bc:	544e554f 	strbpl	r5, [lr], #-1359	; 0xfffffab1
     7c0:	4d4f4900 	vstrmi.16	s9, [pc, #-0]	; 7c8 <_start-0x800ff838>	; <UNPREDICTABLE>
     7c4:	5f435855 	svcpl	0x00435855
     7c8:	505f5753 	subspl	r5, pc, r3, asr r7	; <UNPREDICTABLE>
     7cc:	435f4441 	cmpmi	pc, #1090519040	; 0x41000000
     7d0:	505f4c54 	subspl	r4, pc, r4, asr ip	; <UNPREDICTABLE>
     7d4:	4c5f4441 	cfldrdmi	mvd4, [pc], {65}	; 0x41
     7d8:	445f4443 	ldrbmi	r4, [pc], #-1091	; 7e0 <_start-0x800ff820>
     7dc:	32415441 	subcc	r5, r1, #1090519040	; 0x41000000
     7e0:	4f490030 	svcmi	0x00490030
     7e4:	4358554d 	cmpmi	r8, #322961408	; 0x13400000
     7e8:	5f57535f 	svcpl	0x0057535f
     7ec:	5f444150 	svcpl	0x00444150
     7f0:	5f4c5443 	svcpl	0x004c5443
     7f4:	5f444150 	svcpl	0x00444150
     7f8:	5f44434c 	svcpl	0x0044434c
     7fc:	41544144 	cmpmi	r4, r4, asr #2
     800:	49003132 	stmdbmi	r0, {r1, r4, r5, r8, ip, sp}
     804:	58554d4f 	ldmdapl	r5, {r0, r1, r2, r3, r6, r8, sl, fp, lr}^
     808:	57535f43 	ldrbpl	r5, [r3, -r3, asr #30]
     80c:	4441505f 	strbmi	r5, [r1], #-95	; 0xffffffa1
     810:	4c54435f 	mrrcmi	3, 5, r4, r4, cr15	; <UNPREDICTABLE>
     814:	4441505f 	strbmi	r5, [r1], #-95	; 0xffffffa1
     818:	44434c5f 	strbmi	r4, [r3], #-3167	; 0xfffff3a1
     81c:	5441445f 	strbpl	r4, [r1], #-1119	; 0xfffffba1
     820:	00323241 	eorseq	r3, r2, r1, asr #4
     824:	554d4f49 	strbpl	r4, [sp, #-3913]	; 0xfffff0b7
     828:	535f4358 	cmppl	pc, #88, 6	; 0x60000001
     82c:	554d5f57 	strbpl	r5, [sp, #-3927]	; 0xfffff0a9
     830:	54435f58 	strbpl	r5, [r3], #-3928	; 0xfffff0a8
     834:	41505f4c 	cmpmi	r0, ip, asr #30
     838:	434c5f44 	movtmi	r5, #53060	; 0xcf44
     83c:	53565f44 	cmppl	r6, #68, 30	; 0x110
     840:	00434e59 	subeq	r4, r3, r9, asr lr
     844:	554d4f49 	strbpl	r4, [sp, #-3913]	; 0xfffff0b7
     848:	535f4358 	cmppl	pc, #88, 6	; 0x60000001
     84c:	554d5f57 	strbpl	r5, [sp, #-3927]	; 0xfffff0a9
     850:	54435f58 	strbpl	r5, [r3], #-3928	; 0xfffff0a8
     854:	41505f4c 	cmpmi	r0, ip, asr #30
     858:	434c5f44 	movtmi	r5, #53060	; 0xcf44
     85c:	4c435f44 	mcrrmi	15, 4, r5, r3, cr4
     860:	5f70004b 	svcpl	0x0070004b
     864:	00706d74 	rsbseq	r6, r0, r4, ror sp
     868:	5f4c4c50 	svcpl	0x004c4c50
     86c:	45444956 	strbmi	r4, [r4, #-2390]	; 0xfffff6aa
     870:	4c435f4f 	mcrrmi	15, 4, r5, r3, cr15
     874:	42430052 	submi	r0, r3, #82	; 0x52
     878:	00524443 	subseq	r4, r2, r3, asr #8
     87c:	5f4c4c50 	svcpl	0x004c4c50
     880:	5f4d5241 	svcpl	0x004d5241
     884:	00524c43 	subseq	r4, r2, r3, asr #24
     888:	4944434c 	stmdbmi	r4, {r2, r3, r6, r8, r9, lr}^
     88c:	79545f46 	ldmdbvc	r4, {r1, r2, r6, r8, r9, sl, fp, ip, lr}^
     890:	50006570 	andpl	r6, r0, r0, ror r5
     894:	555f4c4c 	ldrbpl	r4, [pc, #-3148]	; fffffc50 <__bss_end+0x7fefdb3c>
     898:	5f314253 	svcpl	0x00314253
     89c:	00524c43 	subseq	r4, r2, r3, asr #24
     8a0:	36786d69 	ldrbtcc	r6, [r8], -r9, ror #26
     8a4:	5f6c6c75 	svcpl	0x006c6c75
     8a8:	2e6e6f63 	cdpcs	15, 6, cr6, cr14, cr3, {3}
     8ac:	4c500063 	mrrcmi	0, 6, r0, r0, cr3	; <UNPREDICTABLE>
     8b0:	55415f4c 	strbpl	r5, [r1, #-3916]	; 0xfffff0b4
     8b4:	5f4f4944 	svcpl	0x004f4944
     8b8:	00474f54 	subeq	r4, r7, r4, asr pc
     8bc:	43325343 	teqmi	r2, #201326593	; 0xc000001
     8c0:	50005244 	andpl	r5, r0, r4, asr #4
     8c4:	415f4c4c 	cmpmi	pc, ip, asr #24
     8c8:	4f494455 	svcmi	0x00494455
     8cc:	524c435f 	subpl	r4, ip, #2080374785	; 0x7c000001
     8d0:	53494d00 	movtpl	r4, #40192	; 0x9d00
     8d4:	535f3143 	cmppl	pc, #-1073741808	; 0xc0000010
     8d8:	56005445 	strpl	r5, [r0], -r5, asr #8
     8dc:	52544344 	subspl	r4, r4, #68, 6	; 0x10000001
     8e0:	5600304c 	strpl	r3, [r0], -ip, asr #32
     8e4:	52544344 	subspl	r4, r4, #68, 6	; 0x10000001
     8e8:	4300314c 	movwmi	r3, #332	; 0x14c
     8ec:	524d4353 	subpl	r4, sp, #1275068417	; 0x4c000001
     8f0:	4f490032 	svcmi	0x00490032
     8f4:	4358554d 	cmpmi	r8, #322961408	; 0x13400000
     8f8:	5f57535f 	svcpl	0x0057535f
     8fc:	5f444150 	svcpl	0x00444150
     900:	5f4c5443 	svcpl	0x004c5443
     904:	5f444150 	svcpl	0x00444150
     908:	5f44434c 	svcpl	0x0044434c
     90c:	41544144 	cmpmi	r4, r4, asr #2
     910:	43003332 	movwmi	r3, #818	; 0x332
     914:	44433153 	strbmi	r3, [r3], #-339	; 0xfffffead
     918:	4c500052 	mrrcmi	0, 5, r0, r0, cr2	; <UNPREDICTABLE>
     91c:	59535f4c 	ldmdbpl	r3, {r2, r3, r6, r8, r9, sl, fp, ip, lr}^
     920:	4c435f53 	mcrrmi	15, 5, r5, r3, cr3
     924:	53430052 	movtpl	r0, #12370	; 0x3052
     928:	4f435f43 	svcmi	0x00435f43
     92c:	30464645 	subcc	r4, r6, r5, asr #12
     930:	43534300 	cmpmi	r3, #0, 6
     934:	454f435f 	strbmi	r4, [pc, #-863]	; 5dd <_start-0x800ffa23>
     938:	00314646 	eorseq	r4, r1, r6, asr #12
     93c:	5f435343 	svcpl	0x00435343
     940:	46454f43 	strbmi	r4, [r5], -r3, asr #30
     944:	43003246 	movwmi	r3, #582	; 0x246
     948:	435f4353 	cmpmi	pc, #1275068417	; 0x4c000001
     94c:	4646454f 	strbmi	r4, [r6], -pc, asr #10
     950:	53430033 	movtpl	r0, #12339	; 0x3033
     954:	4f435f43 	svcmi	0x00435f43
     958:	34464645 	strbcc	r4, [r6], #-1605	; 0xfffff9bb
     95c:	70706200 	rsbsvc	r6, r0, r0, lsl #4
     960:	646f6d5f 	strbtvs	r6, [pc], #-3423	; 968 <_start-0x800ff698>
     964:	45520065 	ldrbmi	r0, [r2, #-101]	; 0xffffff9b
     968:	56524553 			; <UNDEFINED> instruction: 0x56524553
     96c:	325f4445 	subscc	r4, pc, #1157627904	; 0x45000000
     970:	41440032 	cmpmi	r4, r2, lsr r0
     974:	43004154 	movwmi	r4, #340	; 0x154
     978:	314c5254 	cmpcc	ip, r4, asr r2
     97c:	474f545f 	smlsldmi	r5, pc, pc, r4	; <UNPREDICTABLE>
     980:	4c4c5000 	marmi	acc0, r5, ip
     984:	4455415f 	ldrbmi	r4, [r5], #-351	; 0xfffffea1
     988:	4e5f4f49 	cdpmi	15, 5, cr4, cr15, cr9, {2}
     98c:	4d004d55 	stcmi	13, cr4, [r0, #-340]	; 0xfffffeac
     990:	31435349 	cmpcc	r3, r9, asr #6
     994:	474f545f 	smlsldmi	r5, pc, pc, r4	; <UNPREDICTABLE>
     998:	4d4f4900 	vstrmi.16	s9, [pc, #-0]	; 9a0 <_start-0x800ff660>	; <UNPREDICTABLE>
     99c:	5f435855 	svcpl	0x00435855
     9a0:	4d5f5753 	ldclmi	7, cr5, [pc, #-332]	; 85c <_start-0x800ff7a4>
     9a4:	435f5855 	cmpmi	pc, #5570560	; 0x550000
     9a8:	505f4c54 	subspl	r4, pc, r4, asr ip	; <UNPREDICTABLE>
     9ac:	4c5f4441 	cfldrdmi	mvd4, [pc], {65}	; 0x41
     9b0:	485f4443 	ldmdami	pc, {r0, r1, r6, sl, lr}^	; <UNPREDICTABLE>
     9b4:	434e5953 	movtmi	r5, #59731	; 0xe953
     9b8:	43424300 	movtmi	r4, #8960	; 0x2300
     9bc:	4300524d 	movwmi	r5, #589	; 0x24d
     9c0:	52444353 	subpl	r4, r4, #1275068417	; 0x4c000001
     9c4:	4c500033 	mrrcmi	0, 3, r0, r0, cr3	; <UNPREDICTABLE>
     9c8:	49565f4c 	ldmdbmi	r6, {r2, r3, r6, r8, r9, sl, fp, ip, lr}^
     9cc:	5f4f4544 	svcpl	0x004f4544
     9d0:	00474f54 	subeq	r4, r7, r4, asr pc
     9d4:	5f4c4c50 	svcpl	0x004c4c50
     9d8:	5f4d5241 	svcpl	0x004d5241
     9dc:	00544553 	subseq	r4, r4, r3, asr r5
     9e0:	5f4c4c50 	svcpl	0x004c4c50
     9e4:	45444956 	strbmi	r4, [r4, #-2390]	; 0xfffff6aa
     9e8:	45445f4f 	strbmi	r5, [r4, #-3919]	; 0xfffff0b1
     9ec:	004d4f4e 	subeq	r4, sp, lr, asr #30
     9f0:	5f525543 	svcpl	0x00525543
     9f4:	00465542 	subeq	r5, r6, r2, asr #10
     9f8:	5f4c4c50 	svcpl	0x004c4c50
     9fc:	31425355 	cmpcc	r2, r5, asr r3
     a00:	5445535f 	strbpl	r5, [r5], #-863	; 0xfffffca1
     a04:	52485400 	subpl	r5, r8, #0, 8
     a08:	50005345 	andpl	r5, r0, r5, asr #6
     a0c:	415f4c4c 	cmpmi	pc, ip, asr #24
     a10:	52004d52 	andpl	r4, r0, #5248	; 0x1480
     a14:	52455345 	subpl	r5, r5, #335544321	; 0x14000001
     a18:	5f444556 	svcpl	0x00444556
     a1c:	49003132 	stmdbmi	r0, {r1, r4, r5, r8, ip, sp}
     a20:	58554d4f 	ldmdapl	r5, {r0, r1, r2, r3, r6, r8, sl, fp, lr}^
     a24:	57535f43 	ldrbpl	r5, [r3, -r3, asr #30]
     a28:	4441505f 	strbmi	r5, [r1], #-95	; 0xffffffa1
     a2c:	4c54435f 	mrrcmi	3, 5, r4, r4, cr15	; <UNPREDICTABLE>
     a30:	4441505f 	strbmi	r5, [r1], #-95	; 0xffffffa1
     a34:	44434c5f 	strbmi	r4, [r3], #-3167	; 0xfffff3a1
     a38:	4b4c435f 	blmi	13117bc <_start-0x7edee844>
     a3c:	53494d00 	movtpl	r4, #40192	; 0x9d00
     a40:	435f3043 	cmpmi	pc, #67	; 0x43
     a44:	5200524c 	andpl	r5, r0, #76, 4	; 0xc0000004
     a48:	52455345 	subpl	r5, r5, #335544321	; 0x14000001
     a4c:	5f444556 	svcpl	0x00444556
     a50:	4c500033 	mrrcmi	0, 3, r0, r0, cr3	; <UNPREDICTABLE>
     a54:	55415f4c 	strbpl	r5, [r1, #-3916]	; 0xfffff0b4
     a58:	5f4f4944 	svcpl	0x004f4944
     a5c:	4f4e4544 	svcmi	0x004e4544
     a60:	5341004d 	movtpl	r0, #4173	; 0x104d
     a64:	5254435f 	subspl	r4, r4, #2080374785	; 0x7c000001
     a68:	5243004c 	subpl	r0, r3, #76	; 0x4c
     a6c:	54535f43 	ldrbpl	r5, [r3], #-3907	; 0xfffff0bd
     a70:	50005441 	andpl	r5, r0, r1, asr #8
     a74:	345f4446 	ldrbcc	r4, [pc], #-1094	; a7c <_start-0x800ff584>
     a78:	435f3038 	cmpmi	pc, #56	; 0x38
     a7c:	4900524c 	stmdbmi	r0, {r2, r3, r6, r9, ip, lr}
     a80:	7536786d 	ldrvc	r7, [r6, #-2157]!	; 0xfffff793
     a84:	6c5f6c6c 	mrrcvs	12, 6, r6, pc, cr12	; <UNPREDICTABLE>
     a88:	635f6463 	cmpvs	pc, #1660944384	; 0x63000000
     a8c:	72746e6f 	rsbsvc	r6, r4, #1776	; 0x6f0
     a90:	656c6c6f 	strbvs	r6, [ip, #-3183]!	; 0xfffff391
     a94:	69645f72 	stmdbvs	r4!, {r1, r4, r5, r6, r8, r9, sl, fp, ip, lr}^
     a98:	6c626173 	stfvse	f6, [r2], #-460	; 0xfffffe34
     a9c:	4c500065 	mrrcmi	0, 6, r0, r0, cr5	; <UNPREDICTABLE>
     aa0:	53555f4c 	cmppl	r5, #76, 30	; 0x130
     aa4:	545f3142 	ldrbpl	r3, [pc], #-322	; aac <_start-0x800ff554>
     aa8:	5300474f 	movwpl	r4, #1871	; 0x74f
     aac:	5f434e59 	svcpl	0x00434e59
     ab0:	414c4544 	cmpmi	ip, r4, asr #10
     ab4:	50470059 	subpl	r0, r7, r9, asr r0
     ab8:	5f314f49 	svcpl	0x00314f49
     abc:	52494447 	subpl	r4, r9, #1191182336	; 0x47000000
     ac0:	786d4900 	stmdavc	sp!, {r8, fp, lr}^
     ac4:	6c6c7536 	cfstr64vs	mvdx7, [ip], #-216	; 0xffffff28
     ac8:	64636c5f 	strbtvs	r6, [r3], #-3167	; 0xfffff3a1
     acc:	6e6f635f 	mcrvs	3, 3, r6, cr15, cr15, {2}
     ad0:	6c6f7274 	sfmvs	f7, 2, [pc], #-464	; 908 <_start-0x800ff6f8>
     ad4:	5f72656c 	svcpl	0x0072656c
     ad8:	62616e65 	rsbvs	r6, r1, #1616	; 0x650
     adc:	5000656c 	andpl	r6, r0, ip, ror #10
     ae0:	535f4c4c 	cmppl	pc, #76, 24	; 0x4c00
     ae4:	4e5f5359 	mrcmi	3, 2, r5, cr15, cr9, {2}
     ae8:	50004d55 	andpl	r4, r0, r5, asr sp
     aec:	535f4c4c 	cmppl	pc, #76, 24	; 0x4c00
     af0:	535f5359 	cmppl	pc, #1677721601	; 0x64000001
     af4:	50005445 	andpl	r5, r0, r5, asr #8
     af8:	415f4c4c 	cmpmi	pc, ip, asr #24
     afc:	545f4d52 	ldrbpl	r4, [pc], #-3410	; b04 <_start-0x800ff4fc>
     b00:	4100474f 	tstmi	r0, pc, asr #14
     b04:	454e5f53 	strbmi	r5, [lr, #-3923]	; 0xfffff0ad
     b08:	425f5458 	subsmi	r5, pc, #88, 8	; 0x58000000
     b0c:	49004655 	stmdbmi	r0, {r0, r2, r4, r6, r9, sl, lr}
     b10:	58554d4f 	ldmdapl	r5, {r0, r1, r2, r3, r6, r8, sl, fp, lr}^
     b14:	57535f43 	ldrbpl	r5, [r3, -r3, asr #30]
     b18:	4441505f 	strbmi	r5, [r1], #-95	; 0xffffffa1
     b1c:	4c54435f 	mrrcmi	3, 5, r4, r4, cr15	; <UNPREDICTABLE>
     b20:	4441505f 	strbmi	r5, [r1], #-95	; 0xffffffa1
     b24:	44434c5f 	strbmi	r4, [r3], #-3167	; 0xfffff3a1
     b28:	5953565f 	ldmdbpl	r3, {r0, r1, r2, r3, r4, r6, r9, sl, ip, lr}^
     b2c:	5000434e 	andpl	r4, r0, lr, asr #6
     b30:	535f4c4c 	cmppl	pc, #76, 24	; 0x4c00
     b34:	445f5359 	ldrbmi	r5, [pc], #-857	; b3c <_start-0x800ff4c4>
     b38:	4d4f4e45 	stclmi	14, cr4, [pc, #-276]	; a2c <_start-0x800ff5d4>
     b3c:	53455200 	movtpl	r5, #20992	; 0x5200
     b40:	45565245 	ldrbmi	r5, [r6, #-581]	; 0xfffffdbb
     b44:	34315f44 	ldrtcc	r5, [r1], #-3908	; 0xfffff0bc
     b48:	5f575300 	svcpl	0x00575300
     b4c:	5f58554d 	svcpl	0x0058554d
     b50:	5f4c5443 	svcpl	0x004c5443
     b54:	5f444150 	svcpl	0x00444150
     b58:	5f44434c 	svcpl	0x0044434c
     b5c:	41544144 	cmpmi	r4, r4, asr #2
     b60:	53003030 	movwpl	r3, #48	; 0x30
     b64:	554d5f57 	strbpl	r5, [sp, #-3927]	; 0xfffff0a9
     b68:	54435f58 	strbpl	r5, [r3], #-3928	; 0xfffff0a8
     b6c:	41505f4c 	cmpmi	r0, ip, asr #30
     b70:	434c5f44 	movtmi	r5, #53060	; 0xcf44
     b74:	41445f44 	cmpmi	r4, r4, asr #30
     b78:	31304154 	teqcc	r0, r4, asr r1
     b7c:	5f575300 	svcpl	0x00575300
     b80:	5f58554d 	svcpl	0x0058554d
     b84:	5f4c5443 	svcpl	0x004c5443
     b88:	5f444150 	svcpl	0x00444150
     b8c:	5f44434c 	svcpl	0x0044434c
     b90:	41544144 	cmpmi	r4, r4, asr #2
     b94:	53003230 	movwpl	r3, #560	; 0x230
     b98:	554d5f57 	strbpl	r5, [sp, #-3927]	; 0xfffff0a9
     b9c:	54435f58 	strbpl	r5, [r3], #-3928	; 0xfffff0a8
     ba0:	41505f4c 	cmpmi	r0, ip, asr #30
     ba4:	434c5f44 	movtmi	r5, #53060	; 0xcf44
     ba8:	41445f44 	cmpmi	r4, r4, asr #30
     bac:	33304154 	teqcc	r0, #84, 2
     bb0:	5f575300 	svcpl	0x00575300
     bb4:	5f58554d 	svcpl	0x0058554d
     bb8:	5f4c5443 	svcpl	0x004c5443
     bbc:	5f444150 	svcpl	0x00444150
     bc0:	5f44434c 	svcpl	0x0044434c
     bc4:	41544144 	cmpmi	r4, r4, asr #2
     bc8:	53003430 	movwpl	r3, #1072	; 0x430
     bcc:	554d5f57 	strbpl	r5, [sp, #-3927]	; 0xfffff0a9
     bd0:	54435f58 	strbpl	r5, [r3], #-3928	; 0xfffff0a8
     bd4:	41505f4c 	cmpmi	r0, ip, asr #30
     bd8:	434c5f44 	movtmi	r5, #53060	; 0xcf44
     bdc:	41445f44 	cmpmi	r4, r4, asr #30
     be0:	35304154 	ldrcc	r4, [r0, #-340]!	; 0xfffffeac
     be4:	5f575300 	svcpl	0x00575300
     be8:	5f58554d 	svcpl	0x0058554d
     bec:	5f4c5443 	svcpl	0x004c5443
     bf0:	5f444150 	svcpl	0x00444150
     bf4:	5f44434c 	svcpl	0x0044434c
     bf8:	41544144 	cmpmi	r4, r4, asr #2
     bfc:	53003630 	movwpl	r3, #1584	; 0x630
     c00:	554d5f57 	strbpl	r5, [sp, #-3927]	; 0xfffff0a9
     c04:	54435f58 	strbpl	r5, [r3], #-3928	; 0xfffff0a8
     c08:	41505f4c 	cmpmi	r0, ip, asr #30
     c0c:	434c5f44 	movtmi	r5, #53060	; 0xcf44
     c10:	41445f44 	cmpmi	r4, r4, asr #30
     c14:	37304154 			; <UNDEFINED> instruction: 0x37304154
     c18:	5f575300 	svcpl	0x00575300
     c1c:	5f58554d 	svcpl	0x0058554d
     c20:	5f4c5443 	svcpl	0x004c5443
     c24:	5f444150 	svcpl	0x00444150
     c28:	5f44434c 	svcpl	0x0044434c
     c2c:	41544144 	cmpmi	r4, r4, asr #2
     c30:	53003830 	movwpl	r3, #2096	; 0x830
     c34:	554d5f57 	strbpl	r5, [sp, #-3927]	; 0xfffff0a9
     c38:	54435f58 	strbpl	r5, [r3], #-3928	; 0xfffff0a8
     c3c:	41505f4c 	cmpmi	r0, ip, asr #30
     c40:	434c5f44 	movtmi	r5, #53060	; 0xcf44
     c44:	41445f44 	cmpmi	r4, r4, asr #30
     c48:	39304154 	ldmdbcc	r0!, {r2, r4, r6, r8, lr}
     c4c:	4c4c5000 	marmi	acc0, r5, ip
     c50:	4253555f 	subsmi	r5, r3, #398458880	; 0x17c00000
     c54:	4c435f32 	mcrrmi	15, 3, r5, r3, cr2
     c58:	6d490052 	stclvs	0, cr0, [r9, #-328]	; 0xfffffeb8
     c5c:	6c753678 	ldclvs	6, cr3, [r5], #-480	; 0xfffffe20
     c60:	636c5f6c 	cmnvs	ip, #108, 30	; 0x1b0
     c64:	6f695f64 	svcvs	0x00695f64
     c68:	696e695f 	stmdbvs	lr!, {r0, r1, r2, r3, r4, r6, r8, fp, sp, lr}^
     c6c:	4c500074 	mrrcmi	0, 7, r0, r0, cr4	; <UNPREDICTABLE>
     c70:	4e455f4c 	cdpmi	15, 4, cr5, cr5, cr12, {2}
     c74:	435f5445 	cmpmi	pc, #1157627904	; 0x45000000
     c78:	4400524c 	strmi	r5, [r0], #-588	; 0xfffffdb4
     c7c:	54434956 	strbpl	r4, [r3], #-2390	; 0xfffff6aa
     c80:	00304c52 	eorseq	r4, r0, r2, asr ip
     c84:	43495644 	movtmi	r5, #38468	; 0x9644
     c88:	314c5254 	cmpcc	ip, r4, asr r2
     c8c:	43445600 	movtmi	r5, #17920	; 0x4600
     c90:	304c5254 	subcc	r5, ip, r4, asr r2
     c94:	474f545f 	smlsldmi	r5, pc, pc, r4	; <UNPREDICTABLE>
     c98:	49564400 	ldmdbmi	r6, {sl, lr}^
     c9c:	4c525443 	cfldrdmi	mvd5, [r2], {67}	; 0x43
     ca0:	53430033 	movtpl	r0, #12339	; 0x3033
     ca4:	31524d43 	cmpcc	r2, r3, asr #26
     ca8:	4c4c5000 	marmi	acc0, r5, ip
     cac:	5359535f 	cmppl	r9, #2080374785	; 0x7c000001
     cb0:	474f545f 	smlsldmi	r5, pc, pc, r4	; <UNPREDICTABLE>
     cb4:	5f534100 	svcpl	0x00534100
     cb8:	4b524c43 	blmi	1493dcc <_start-0x7ec6c234>
     cbc:	4f4c5945 	svcmi	0x004c5945
     cc0:	46500057 			; <UNDEFINED> instruction: 0x46500057
     cc4:	32355f44 	eorscc	r5, r5, #68, 30	; 0x110
     cc8:	4c435f38 	mcrrmi	15, 3, r5, r3, cr8
     ccc:	4c430052 	mcrrmi	0, 5, r0, r3, cr2
     cd0:	00524350 	subseq	r4, r2, r0, asr r3
     cd4:	4353494d 	cmpmi	r3, #1261568	; 0x134000
     cd8:	494d0030 	stmdbmi	sp, {r4, r5}^
     cdc:	00314353 	eorseq	r4, r1, r3, asr r3
     ce0:	4353494d 	cmpmi	r3, #1261568	; 0x134000
     ce4:	494d0032 	stmdbmi	sp, {r1, r4, r5}^
     ce8:	5f304353 	svcpl	0x00304353
     cec:	00544553 	subseq	r4, r4, r3, asr r5
     cf0:	554d4f49 	strbpl	r4, [sp, #-3913]	; 0xfffff0b7
     cf4:	535f4358 	cmppl	pc, #88, 6	; 0x60000001
     cf8:	41505f57 	cmpmi	r0, r7, asr pc
     cfc:	54435f44 	strbpl	r5, [r3], #-3908	; 0xfffff0bc
     d00:	41505f4c 	cmpmi	r0, ip, asr #30
     d04:	434c5f44 	movtmi	r5, #53060	; 0xcf44
     d08:	45525f44 	ldrbmi	r5, [r2, #-3908]	; 0xfffff0bc
     d0c:	00544553 	subseq	r4, r4, r3, asr r5
     d10:	54434456 	strbpl	r4, [r3], #-1110	; 0xfffffbaa
     d14:	00334c52 	eorseq	r4, r3, r2, asr ip
     d18:	54434456 	strbpl	r4, [r3], #-1110	; 0xfffffbaa
     d1c:	00344c52 	eorseq	r4, r4, r2, asr ip
     d20:	5f435343 	svcpl	0x00435343
     d24:	494d494c 	stmdbmi	sp, {r2, r3, r6, r8, fp, lr}^
     d28:	4c500054 	mrrcmi	0, 5, r0, r0, cr4	; <UNPREDICTABLE>
     d2c:	53555f4c 	cmppl	r5, #76, 30	; 0x130
     d30:	535f3242 	cmppl	pc, #536870916	; 0x20000004
     d34:	47005445 	strmi	r5, [r0, -r5, asr #8]
     d38:	314f4950 	cmpcc	pc, r0, asr r9	; <UNPREDICTABLE>
     d3c:	0052445f 	subseq	r4, r2, pc, asr r4
     d40:	43495644 	movtmi	r5, #38468	; 0x9644
     d44:	324c5254 	subcc	r5, ip, #84, 4	; 0x40000005
     d48:	4c4c5000 	marmi	acc0, r5, ip
     d4c:	4253555f 	subsmi	r5, r3, #398458880	; 0x17c00000
     d50:	4f545f32 	svcmi	0x00545f32
     d54:	46500047 	ldrbmi	r0, [r0], -r7, asr #32
     d58:	38345f44 	ldmdacc	r4!, {r2, r6, r8, r9, sl, fp, ip, lr}
     d5c:	45535f30 	ldrbmi	r5, [r3, #-3888]	; 0xfffff0d0
     d60:	56440054 			; <UNDEFINED> instruction: 0x56440054
     d64:	52544349 	subspl	r4, r4, #603979777	; 0x24000001
     d68:	5200344c 	andpl	r3, r0, #76, 8	; 0x4c000000
     d6c:	52455345 	subpl	r5, r5, #335544321	; 0x14000001
     d70:	5f444556 	svcpl	0x00444556
     d74:	43003032 	movwmi	r3, #50	; 0x32
     d78:	324c5254 	subcc	r5, ip, #84, 4	; 0x40000005
     d7c:	524c435f 	subpl	r4, ip, #2080374785	; 0x7c000001
     d80:	5f575300 	svcpl	0x00575300
     d84:	5f444150 	svcpl	0x00444150
     d88:	5f4c5443 	svcpl	0x004c5443
     d8c:	65707954 	ldrbvs	r7, [r0, #-2388]!	; 0xfffff6ac
     d90:	53455200 	movtpl	r5, #20992	; 0x5200
     d94:	45565245 	ldrbmi	r5, [r6, #-581]	; 0xfffffdbb
     d98:	00325f44 	eorseq	r5, r2, r4, asr #30
     d9c:	4d5f5753 	ldclmi	7, cr5, [pc, #-332]	; c58 <_start-0x800ff3a8>
     da0:	435f5855 	cmpmi	pc, #5570560	; 0x550000
     da4:	505f4c54 	subspl	r4, pc, r4, asr ip	; <UNPREDICTABLE>
     da8:	4c5f4441 	cfldrdmi	mvd4, [pc], {65}	; 0x41
     dac:	445f4443 	ldrbmi	r4, [pc], #-1091	; db4 <_start-0x800ff24c>
     db0:	31415441 	cmpcc	r1, r1, asr #8
     db4:	57530030 	smmlarpl	r3, r0, r0, r0
     db8:	58554d5f 	ldmdapl	r5, {r0, r1, r2, r3, r4, r6, r8, sl, fp, lr}^
     dbc:	4c54435f 	mrrcmi	3, 5, r4, r4, cr15	; <UNPREDICTABLE>
     dc0:	4441505f 	strbmi	r5, [r1], #-95	; 0xffffffa1
     dc4:	44434c5f 	strbmi	r4, [r3], #-3167	; 0xfffff3a1
     dc8:	5441445f 	strbpl	r4, [r1], #-1119	; 0xfffffba1
     dcc:	00313141 	eorseq	r3, r1, r1, asr #2
     dd0:	4d5f5753 	ldclmi	7, cr5, [pc, #-332]	; c8c <_start-0x800ff374>
     dd4:	435f5855 	cmpmi	pc, #5570560	; 0x550000
     dd8:	505f4c54 	subspl	r4, pc, r4, asr ip	; <UNPREDICTABLE>
     ddc:	4c5f4441 	cfldrdmi	mvd4, [pc], {65}	; 0x41
     de0:	445f4443 	ldrbmi	r4, [pc], #-1091	; de8 <_start-0x800ff218>
     de4:	31415441 	cmpcc	r1, r1, asr #8
     de8:	57530032 	smmlarpl	r3, r2, r0, r0
     dec:	58554d5f 	ldmdapl	r5, {r0, r1, r2, r3, r4, r6, r8, sl, fp, lr}^
     df0:	4c54435f 	mrrcmi	3, 5, r4, r4, cr15	; <UNPREDICTABLE>
     df4:	4441505f 	strbmi	r5, [r1], #-95	; 0xffffffa1
     df8:	44434c5f 	strbmi	r4, [r3], #-3167	; 0xfffff3a1
     dfc:	5441445f 	strbpl	r4, [r1], #-1119	; 0xfffffba1
     e00:	00333141 	eorseq	r3, r3, r1, asr #2
     e04:	4d5f5753 	ldclmi	7, cr5, [pc, #-332]	; cc0 <_start-0x800ff340>
     e08:	435f5855 	cmpmi	pc, #5570560	; 0x550000
     e0c:	505f4c54 	subspl	r4, pc, r4, asr ip	; <UNPREDICTABLE>
     e10:	4c5f4441 	cfldrdmi	mvd4, [pc], {65}	; 0x41
     e14:	445f4443 	ldrbmi	r4, [pc], #-1091	; e1c <_start-0x800ff1e4>
     e18:	31415441 	cmpcc	r1, r1, asr #8
     e1c:	57530034 	smmlarpl	r3, r4, r0, r0
     e20:	58554d5f 	ldmdapl	r5, {r0, r1, r2, r3, r4, r6, r8, sl, fp, lr}^
     e24:	4c54435f 	mrrcmi	3, 5, r4, r4, cr15	; <UNPREDICTABLE>
     e28:	4441505f 	strbmi	r5, [r1], #-95	; 0xffffffa1
     e2c:	44434c5f 	strbmi	r4, [r3], #-3167	; 0xfffff3a1
     e30:	5441445f 	strbpl	r4, [r1], #-1119	; 0xfffffba1
     e34:	00353141 	eorseq	r3, r5, r1, asr #2
     e38:	4d5f5753 	ldclmi	7, cr5, [pc, #-332]	; cf4 <_start-0x800ff30c>
     e3c:	435f5855 	cmpmi	pc, #5570560	; 0x550000
     e40:	505f4c54 	subspl	r4, pc, r4, asr ip	; <UNPREDICTABLE>
     e44:	4c5f4441 	cfldrdmi	mvd4, [pc], {65}	; 0x41
     e48:	445f4443 	ldrbmi	r4, [pc], #-1091	; e50 <_start-0x800ff1b0>
     e4c:	31415441 	cmpcc	r1, r1, asr #8
     e50:	57530036 	smmlarpl	r3, r6, r0, r0
     e54:	58554d5f 	ldmdapl	r5, {r0, r1, r2, r3, r4, r6, r8, sl, fp, lr}^
     e58:	4c54435f 	mrrcmi	3, 5, r4, r4, cr15	; <UNPREDICTABLE>
     e5c:	4441505f 	strbmi	r5, [r1], #-95	; 0xffffffa1
     e60:	44434c5f 	strbmi	r4, [r3], #-3167	; 0xfffff3a1
     e64:	5441445f 	strbpl	r4, [r1], #-1119	; 0xfffffba1
     e68:	00373141 	eorseq	r3, r7, r1, asr #2
     e6c:	4d5f5753 	ldclmi	7, cr5, [pc, #-332]	; d28 <_start-0x800ff2d8>
     e70:	435f5855 	cmpmi	pc, #5570560	; 0x550000
     e74:	505f4c54 	subspl	r4, pc, r4, asr ip	; <UNPREDICTABLE>
     e78:	4c5f4441 	cfldrdmi	mvd4, [pc], {65}	; 0x41
     e7c:	445f4443 	ldrbmi	r4, [pc], #-1091	; e84 <_start-0x800ff17c>
     e80:	31415441 	cmpcc	r1, r1, asr #8
     e84:	57530038 	smmlarpl	r3, r8, r0, r0
     e88:	58554d5f 	ldmdapl	r5, {r0, r1, r2, r3, r4, r6, r8, sl, fp, lr}^
     e8c:	4c54435f 	mrrcmi	3, 5, r4, r4, cr15	; <UNPREDICTABLE>
     e90:	4441505f 	strbmi	r5, [r1], #-95	; 0xffffffa1
     e94:	44434c5f 	strbmi	r4, [r3], #-3167	; 0xfffff3a1
     e98:	5441445f 	strbpl	r4, [r1], #-1119	; 0xfffffba1
     e9c:	00393141 	eorseq	r3, r9, r1, asr #2
     ea0:	45534552 	ldrbmi	r4, [r3, #-1362]	; 0xfffffaae
     ea4:	44455652 	strbmi	r5, [r5], #-1618	; 0xfffff9ae
     ea8:	0035325f 	eorseq	r3, r5, pc, asr r2
     eac:	4353494d 	cmpmi	r3, #1261568	; 0x134000
     eb0:	4c435f32 	mcrrmi	15, 3, r5, r3, cr2
     eb4:	45520052 	ldrbmi	r0, [r2, #-82]	; 0xffffffae
     eb8:	56524553 			; <UNDEFINED> instruction: 0x56524553
     ebc:	325f4445 	subscc	r4, pc, #1157627904	; 0x45000000
     ec0:	49540036 	ldmdbmi	r4, {r1, r2, r4, r5}^
     ec4:	474e494d 	strbmi	r4, [lr, -sp, asr #18]
     ec8:	4c4c5000 	marmi	acc0, r5, ip
     ecc:	4449565f 	strbmi	r5, [r9], #-1631	; 0xfffff9a1
     ed0:	50004f45 	andpl	r4, r0, r5, asr #30
     ed4:	415f4c4c 	cmpmi	pc, ip, asr #24
     ed8:	4f494455 	svcmi	0x00494455
     edc:	52544300 	subspl	r4, r4, #0, 6
     ee0:	435f314c 	cmpmi	pc, #76, 2
     ee4:	4d00524c 	sfmmi	f5, 4, [r0, #-304]	; 0xfffffed0
     ee8:	30435349 	subcc	r5, r3, r9, asr #6
     eec:	474f545f 	smlsldmi	r5, pc, pc, r4	; <UNPREDICTABLE>
     ef0:	4c4c5000 	marmi	acc0, r5, ip
     ef4:	454e455f 	strbmi	r4, [lr, #-1375]	; 0xfffffaa1
     ef8:	45535f54 	ldrbmi	r5, [r3, #-3924]	; 0xfffff0ac
     efc:	4c500054 	mrrcmi	0, 5, r0, r0, cr4	; <UNPREDICTABLE>
     f00:	4e455f4c 	cdpmi	15, 4, cr5, cr5, cr12, {2}
     f04:	545f5445 	ldrbpl	r5, [pc], #-1093	; f0c <_start-0x800ff0f4>
     f08:	5000474f 	andpl	r4, r0, pc, asr #14
     f0c:	345f4446 	ldrbcc	r4, [pc], #-1094	; f14 <_start-0x800ff0ec>
     f10:	545f3038 	ldrbpl	r3, [pc], #-56	; f18 <_start-0x800ff0e8>
     f14:	5000474f 	andpl	r4, r0, pc, asr #14
     f18:	555f4c4c 	ldrbpl	r4, [pc, #-3148]	; 2d4 <_start-0x800ffd2c>
     f1c:	00314253 	eorseq	r4, r1, r3, asr r2
     f20:	45534552 	ldrbmi	r4, [r3, #-1362]	; 0xfffffaae
     f24:	44455652 	strbmi	r5, [r5], #-1618	; 0xfffff9ae
     f28:	0030315f 	eorseq	r3, r0, pc, asr r1
     f2c:	45534552 	ldrbmi	r4, [r3, #-1362]	; 0xfffffaae
     f30:	44455652 	strbmi	r5, [r5], #-1618	; 0xfffff9ae
     f34:	0031315f 	eorseq	r3, r1, pc, asr r1
     f38:	45534552 	ldrbmi	r4, [r3, #-1362]	; 0xfffffaae
     f3c:	44455652 	strbmi	r5, [r5], #-1618	; 0xfffff9ae
     f40:	0032315f 	eorseq	r3, r2, pc, asr r1
     f44:	45534552 	ldrbmi	r4, [r3, #-1362]	; 0xfffffaae
     f48:	44455652 	strbmi	r5, [r5], #-1618	; 0xfffff9ae
     f4c:	0033315f 	eorseq	r3, r3, pc, asr r1
     f50:	4c525443 	cfldrdmi	mvd5, [r2], {67}	; 0x43
     f54:	524c435f 	subpl	r4, ip, #2080374785	; 0x7c000001
     f58:	53455200 	movtpl	r5, #20992	; 0x5200
     f5c:	45565245 	ldrbmi	r5, [r6, #-581]	; 0xfffffdbb
     f60:	35315f44 	ldrcc	r5, [r1, #-3908]!	; 0xfffff0bc
     f64:	53455200 	movtpl	r5, #20992	; 0x5200
     f68:	45565245 	ldrbmi	r5, [r6, #-581]	; 0xfffffdbb
     f6c:	36315f44 	ldrtcc	r5, [r1], -r4, asr #30
     f70:	53455200 	movtpl	r5, #20992	; 0x5200
     f74:	45565245 	ldrbmi	r5, [r6, #-581]	; 0xfffffdbb
     f78:	37315f44 	ldrcc	r5, [r1, -r4, asr #30]!
     f7c:	53455200 	movtpl	r5, #20992	; 0x5200
     f80:	45565245 	ldrbmi	r5, [r6, #-581]	; 0xfffffdbb
     f84:	38315f44 	ldmdacc	r1!, {r2, r6, r8, r9, sl, fp, ip, lr}
     f88:	53455200 	movtpl	r5, #20992	; 0x5200
     f8c:	45565245 	ldrbmi	r5, [r6, #-581]	; 0xfffffdbb
     f90:	39315f44 	ldmdbcc	r1!, {r2, r6, r8, r9, sl, fp, ip, lr}
     f94:	53455200 	movtpl	r5, #20992	; 0x5200
     f98:	45565245 	ldrbmi	r5, [r6, #-581]	; 0xfffffdbb
     f9c:	33325f44 	teqcc	r2, #68, 30	; 0x110
     fa0:	43534300 	cmpmi	r3, #0, 6
     fa4:	46464f5f 			; <UNDEFINED> instruction: 0x46464f5f
     fa8:	00544553 	subseq	r4, r4, r3, asr r5
     fac:	45534552 	ldrbmi	r4, [r3, #-1362]	; 0xfffffaae
     fb0:	44455652 	strbmi	r5, [r5], #-1618	; 0xfffff9ae
     fb4:	0034325f 	eorseq	r3, r4, pc, asr r2
     fb8:	4d5f5753 	ldclmi	7, cr5, [pc, #-332]	; e74 <_start-0x800ff18c>
     fbc:	435f5855 	cmpmi	pc, #5570560	; 0x550000
     fc0:	505f4c54 	subspl	r4, pc, r4, asr ip	; <UNPREDICTABLE>
     fc4:	4c5f4441 	cfldrdmi	mvd4, [pc], {65}	; 0x41
     fc8:	445f4443 	ldrbmi	r4, [pc], #-1091	; fd0 <_start-0x800ff030>
     fcc:	32415441 	subcc	r5, r1, #1090519040	; 0x41000000
     fd0:	57530030 	smmlarpl	r3, r0, r0, r0
     fd4:	58554d5f 	ldmdapl	r5, {r0, r1, r2, r3, r4, r6, r8, sl, fp, lr}^
     fd8:	4c54435f 	mrrcmi	3, 5, r4, r4, cr15	; <UNPREDICTABLE>
     fdc:	4441505f 	strbmi	r5, [r1], #-95	; 0xffffffa1
     fe0:	44434c5f 	strbmi	r4, [r3], #-3167	; 0xfffff3a1
     fe4:	5441445f 	strbpl	r4, [r1], #-1119	; 0xfffffba1
     fe8:	00313241 	eorseq	r3, r1, r1, asr #4
     fec:	4d5f5753 	ldclmi	7, cr5, [pc, #-332]	; ea8 <_start-0x800ff158>
     ff0:	435f5855 	cmpmi	pc, #5570560	; 0x550000
     ff4:	505f4c54 	subspl	r4, pc, r4, asr ip	; <UNPREDICTABLE>
     ff8:	4c5f4441 	cfldrdmi	mvd4, [pc], {65}	; 0x41
     ffc:	445f4443 	ldrbmi	r4, [pc], #-1091	; 1004 <_start-0x800feffc>
    1000:	32415441 	subcc	r5, r1, #1090519040	; 0x41000000
    1004:	57530032 	smmlarpl	r3, r2, r0, r0
    1008:	58554d5f 	ldmdapl	r5, {r0, r1, r2, r3, r4, r6, r8, sl, fp, lr}^
    100c:	4c54435f 	mrrcmi	3, 5, r4, r4, cr15	; <UNPREDICTABLE>
    1010:	4441505f 	strbmi	r5, [r1], #-95	; 0xffffffa1
    1014:	44434c5f 	strbmi	r4, [r3], #-3167	; 0xfffff3a1
    1018:	5441445f 	strbpl	r4, [r1], #-1119	; 0xfffffba1
    101c:	00333241 	eorseq	r3, r3, r1, asr #4
    1020:	45534552 	ldrbmi	r4, [r3, #-1362]	; 0xfffffaae
    1024:	44455652 	strbmi	r5, [r5], #-1618	; 0xfffff9ae
    1028:	0037325f 	eorseq	r3, r7, pc, asr r2
    102c:	49484443 	stmdbmi	r8, {r0, r1, r6, sl, lr}^
    1030:	41005250 	tstmi	r0, r0, asr r2
    1034:	4c435f53 	mcrrmi	15, 5, r5, r3, cr3
    1038:	59454b52 	stmdbpl	r5, {r1, r4, r6, r8, r9, fp, lr}^
    103c:	48474948 	stmdami	r7, {r3, r6, r8, fp, lr}^
    1040:	4c4c5000 	marmi	acc0, r5, ip
    1044:	454e455f 	strbmi	r4, [lr, #-1375]	; 0xfffffaa1
    1048:	46500054 			; <UNDEFINED> instruction: 0x46500054
    104c:	32355f44 	eorscc	r5, r5, #68, 30	; 0x110
    1050:	4f545f38 	svcmi	0x00545f38
    1054:	50470047 	subpl	r0, r7, r7, asr #32
    1058:	5f314f49 	svcpl	0x00314f49
    105c:	38304f49 	ldmdacc	r0!, {r0, r3, r6, r8, r9, sl, fp, lr}
    1060:	4441505f 	strbmi	r5, [r1], #-95	; 0xffffffa1
    1064:	4c4c5000 	marmi	acc0, r5, ip
    1068:	4253555f 	subsmi	r5, r3, #398458880	; 0x17c00000
    106c:	54430032 	strbpl	r0, [r3], #-50	; 0xffffffce
    1070:	5f324c52 	svcpl	0x00324c52
    1074:	00544553 	subseq	r4, r4, r3, asr r5
    1078:	52504743 	subspl	r4, r0, #17563648	; 0x10c0000
    107c:	786d4900 	stmdavc	sp!, {r8, fp, lr}^
    1080:	6c6c7536 	cfstr64vs	mvdx7, [ip], #-216	; 0xffffff28
    1084:	64636c5f 	strbtvs	r6, [r3], #-3167	; 0xfffff3a1
    1088:	6e6f635f 	mcrvs	3, 3, r6, cr15, cr15, {2}
    108c:	6c6f7274 	sfmvs	f7, 2, [pc], #-464	; ec4 <_start-0x800ff13c>
    1090:	5f72656c 	svcpl	0x0072656c
    1094:	74696e69 	strbtvc	r6, [r9], #-3689	; 0xfffff197
    1098:	44465000 	strbmi	r5, [r6], #-0
    109c:	3832355f 	ldmdacc	r2!, {r0, r1, r2, r3, r4, r6, r8, sl, ip, sp}
    10a0:	5445535f 	strbpl	r5, [r5], #-863	; 0xfffffca1
    10a4:	4d4f4900 	vstrmi.16	s9, [pc, #-0]	; 10ac <_start-0x800fef54>	; <UNPREDICTABLE>
    10a8:	5f435855 	svcpl	0x00435855
    10ac:	505f5753 	subspl	r5, pc, r3, asr r7	; <UNPREDICTABLE>
    10b0:	435f4441 	cmpmi	pc, #1090519040	; 0x41000000
    10b4:	505f4c54 	subspl	r4, pc, r4, asr ip	; <UNPREDICTABLE>
    10b8:	4c5f4441 	cfldrdmi	mvd4, [pc], {65}	; 0x41
    10bc:	485f4443 	ldmdami	pc, {r0, r1, r6, sl, lr}^	; <UNPREDICTABLE>
    10c0:	434e5953 	movtmi	r5, #59731	; 0xe953
    10c4:	53494d00 	movtpl	r4, #40192	; 0x9d00
    10c8:	535f3243 	cmppl	pc, #805306372	; 0x30000004
    10cc:	43005445 	movwmi	r5, #1093	; 0x445
    10d0:	52534f43 	subspl	r4, r3, #268	; 0x10c
    10d4:	53494300 	movtpl	r4, #37632	; 0x9300
    10d8:	53430052 	movtpl	r0, #12370	; 0x3052
    10dc:	31524443 	cmpcc	r2, r3, asr #8
    10e0:	43534300 	cmpmi	r3, #0, 6
    10e4:	00325244 	eorseq	r5, r2, r4, asr #4
    10e8:	554d4f49 	strbpl	r4, [sp, #-3913]	; 0xfffff0b7
    10ec:	535f4358 	cmppl	pc, #88, 6	; 0x60000001
    10f0:	41505f57 	cmpmi	r0, r7, asr pc
    10f4:	54435f44 	strbpl	r5, [r3], #-3908	; 0xfffff0bc
    10f8:	41505f4c 	cmpmi	r0, ip, asr #30
    10fc:	434c5f44 	movtmi	r5, #53060	; 0xcf44
    1100:	41445f44 	cmpmi	r4, r4, asr #30
    1104:	30304154 	eorscc	r4, r0, r4, asr r1
    1108:	4d4f4900 	vstrmi.16	s9, [pc, #-0]	; 1110 <_start-0x800feef0>	; <UNPREDICTABLE>
    110c:	5f435855 	svcpl	0x00435855
    1110:	505f5753 	subspl	r5, pc, r3, asr r7	; <UNPREDICTABLE>
    1114:	435f4441 	cmpmi	pc, #1090519040	; 0x41000000
    1118:	505f4c54 	subspl	r4, pc, r4, asr ip	; <UNPREDICTABLE>
    111c:	4c5f4441 	cfldrdmi	mvd4, [pc], {65}	; 0x41
    1120:	445f4443 	ldrbmi	r4, [pc], #-1091	; 1128 <_start-0x800feed8>
    1124:	30415441 	subcc	r5, r1, r1, asr #8
    1128:	4f490031 	svcmi	0x00490031
    112c:	4358554d 	cmpmi	r8, #322961408	; 0x13400000
    1130:	5f57535f 	svcpl	0x0057535f
    1134:	5f444150 	svcpl	0x00444150
    1138:	5f4c5443 	svcpl	0x004c5443
    113c:	5f444150 	svcpl	0x00444150
    1140:	5f44434c 	svcpl	0x0044434c
    1144:	41544144 	cmpmi	r4, r4, asr #2
    1148:	49003230 	stmdbmi	r0, {r4, r5, r9, ip, sp}
    114c:	58554d4f 	ldmdapl	r5, {r0, r1, r2, r3, r6, r8, sl, fp, lr}^
    1150:	57535f43 	ldrbpl	r5, [r3, -r3, asr #30]
    1154:	4441505f 	strbmi	r5, [r1], #-95	; 0xffffffa1
    1158:	4c54435f 	mrrcmi	3, 5, r4, r4, cr15	; <UNPREDICTABLE>
    115c:	4441505f 	strbmi	r5, [r1], #-95	; 0xffffffa1
    1160:	44434c5f 	strbmi	r4, [r3], #-3167	; 0xfffff3a1
    1164:	5441445f 	strbpl	r4, [r1], #-1119	; 0xfffffba1
    1168:	00333041 	eorseq	r3, r3, r1, asr #32
    116c:	554d4f49 	strbpl	r4, [sp, #-3913]	; 0xfffff0b7
    1170:	535f4358 	cmppl	pc, #88, 6	; 0x60000001
    1174:	41505f57 	cmpmi	r0, r7, asr pc
    1178:	54435f44 	strbpl	r5, [r3], #-3908	; 0xfffff0bc
    117c:	41505f4c 	cmpmi	r0, ip, asr #30
    1180:	434c5f44 	movtmi	r5, #53060	; 0xcf44
    1184:	41445f44 	cmpmi	r4, r4, asr #30
    1188:	34304154 	ldrtcc	r4, [r0], #-340	; 0xfffffeac
	...

Disassembly of section .debug_frame:

00000000 <.debug_frame>:
   0:	0000000c 	andeq	r0, r0, ip
   4:	ffffffff 			; <UNDEFINED> instruction: 0xffffffff
   8:	7c020001 	stcvc	0, cr0, [r2], {1}
   c:	000d0c0e 	andeq	r0, sp, lr, lsl #24
  10:	00000024 	andeq	r0, r0, r4, lsr #32
  14:	00000000 	andeq	r0, r0, r0
  18:	8010003c 	andshi	r0, r0, ip, lsr r0
  1c:	000002b6 			; <UNDEFINED> instruction: 0x000002b6
  20:	87080e41 	strhi	r0, [r8, -r1, asr #28]
  24:	41018e02 	tstmi	r1, r2, lsl #28
  28:	0c41300e 	mcrreq	0, 0, r3, r1, cr14
  2c:	56032807 	strpl	r2, [r3], -r7, lsl #16
  30:	41080e01 	tstmi	r8, r1, lsl #28
  34:	00000d0d 	andeq	r0, r0, sp, lsl #26
  38:	00000018 	andeq	r0, r0, r8, lsl r0
  3c:	00000000 	andeq	r0, r0, r0
  40:	801002f2 			; <UNDEFINED> instruction: 0x801002f2
  44:	00000012 	andeq	r0, r0, r2, lsl r0
  48:	87080e41 	strhi	r0, [r8, -r1, asr #28]
  4c:	41018e02 	tstmi	r1, r2, lsl #28
  50:	0000070d 	andeq	r0, r0, sp, lsl #14
  54:	0000000c 	andeq	r0, r0, ip
  58:	ffffffff 			; <UNDEFINED> instruction: 0xffffffff
  5c:	7c020001 	stcvc	0, cr0, [r2], {1}
  60:	000d0c0e 	andeq	r0, sp, lr, lsl #24
  64:	00000018 	andeq	r0, r0, r8, lsl r0
  68:	00000054 	andeq	r0, r0, r4, asr r0
  6c:	80100304 	andshi	r0, r0, r4, lsl #6
  70:	0000002c 	andeq	r0, r0, ip, lsr #32
  74:	87080e41 	strhi	r0, [r8, -r1, asr #28]
  78:	41018e02 	tstmi	r1, r2, lsl #28
  7c:	0000070d 	andeq	r0, r0, sp, lsl #14
  80:	00000020 	andeq	r0, r0, r0, lsr #32
  84:	00000054 	andeq	r0, r0, r4, asr r0
  88:	80100330 	andshi	r0, r0, r0, lsr r3
  8c:	00000086 	andeq	r0, r0, r6, lsl #1
  90:	87080e41 	strhi	r0, [r8, -r1, asr #28]
  94:	41018e02 	tstmi	r1, r2, lsl #28
  98:	0d41300e 	stcleq	0, cr3, [r1, #-56]	; 0xffffffc8
  9c:	080e7e07 	stmdaeq	lr, {r0, r1, r2, r9, sl, fp, ip, sp, lr}
  a0:	000d0d41 	andeq	r0, sp, r1, asr #26
  a4:	00000020 	andeq	r0, r0, r0, lsr #32
  a8:	00000054 	andeq	r0, r0, r4, asr r0
  ac:	801003b6 			; <UNDEFINED> instruction: 0x801003b6
  b0:	00000086 	andeq	r0, r0, r6, lsl #1
  b4:	87080e41 	strhi	r0, [r8, -r1, asr #28]
  b8:	41018e02 	tstmi	r1, r2, lsl #28
  bc:	0d41200e 	stcleq	0, cr2, [r1, #-56]	; 0xffffffc8
  c0:	080e7e07 	stmdaeq	lr, {r0, r1, r2, r9, sl, fp, ip, sp, lr}
  c4:	000d0d41 	andeq	r0, sp, r1, asr #26
  c8:	0000000c 	andeq	r0, r0, ip
  cc:	ffffffff 			; <UNDEFINED> instruction: 0xffffffff
  d0:	7c020001 	stcvc	0, cr0, [r2], {1}
  d4:	000d0c0e 	andeq	r0, sp, lr, lsl #24
  d8:	00000020 	andeq	r0, r0, r0, lsr #32
  dc:	000000c8 	andeq	r0, r0, r8, asr #1
  e0:	8010043c 	andshi	r0, r0, ip, lsr r4
  e4:	00000110 	andeq	r0, r0, r0, lsl r1
  e8:	87080e41 	strhi	r0, [r8, -r1, asr #28]
  ec:	41018e02 	tstmi	r1, r2, lsl #28
  f0:	0d41280e 	stcleq	8, cr2, [r1, #-56]	; 0xffffffc8
  f4:	0e830207 	cdpeq	2, 8, cr0, cr3, cr7, {0}
  f8:	0d0d4108 	stfeqs	f4, [sp, #-32]	; 0xffffffe0
  fc:	00000024 	andeq	r0, r0, r4, lsr #32
 100:	000000c8 	andeq	r0, r0, r8, asr #1
 104:	8010054c 	andshi	r0, r0, ip, asr #10
 108:	000002ca 	andeq	r0, r0, sl, asr #5
 10c:	87080e41 	strhi	r0, [r8, -r1, asr #28]
 110:	41018e02 	tstmi	r1, r2, lsl #28
 114:	0d41280e 	stcleq	8, cr2, [r1, #-56]	; 0xffffffc8
 118:	01600307 	cmneq	r0, r7, lsl #6
 11c:	0d41080e 	stcleq	8, cr0, [r1, #-56]	; 0xffffffc8
 120:	0000000d 	andeq	r0, r0, sp
 124:	0000000c 	andeq	r0, r0, ip
 128:	ffffffff 			; <UNDEFINED> instruction: 0xffffffff
 12c:	7c020001 	stcvc	0, cr0, [r2], {1}
 130:	000d0c0e 	andeq	r0, sp, lr, lsl #24
 134:	00000018 	andeq	r0, r0, r8, lsl r0
 138:	00000124 	andeq	r0, r0, r4, lsr #2
 13c:	80100816 	andshi	r0, r0, r6, lsl r8
 140:	0000002c 	andeq	r0, r0, ip, lsr #32
 144:	87080e41 	strhi	r0, [r8, -r1, asr #28]
 148:	41018e02 	tstmi	r1, r2, lsl #28
 14c:	0000070d 	andeq	r0, r0, sp, lsl #14
 150:	00000024 	andeq	r0, r0, r4, lsr #32
 154:	00000124 	andeq	r0, r0, r4, lsr #2
 158:	80100842 	andshi	r0, r0, r2, asr #16
 15c:	00000056 	andeq	r0, r0, r6, asr r0
 160:	87040e41 	strhi	r0, [r4, -r1, asr #28]
 164:	200e4101 	andcs	r4, lr, r1, lsl #2
 168:	64070d41 	strvs	r0, [r7], #-3393	; 0xfffff2bf
 16c:	0d41040e 	cfstrdeq	mvd0, [r1, #-56]	; 0xffffffc8
 170:	0ec7420d 	cdpeq	2, 12, cr4, cr7, cr13, {0}
 174:	00000000 	andeq	r0, r0, r0
 178:	00000020 	andeq	r0, r0, r0, lsr #32
 17c:	00000124 	andeq	r0, r0, r4, lsr #2
 180:	80100898 	mulshi	r0, r8, r8
 184:	000000a2 	andeq	r0, r0, r2, lsr #1
 188:	87080e41 	strhi	r0, [r8, -r1, asr #28]
 18c:	41018e02 	tstmi	r1, r2, lsl #28
 190:	0d41280e 	stcleq	8, cr2, [r1, #-56]	; 0xffffffc8
 194:	0e4c0207 	cdpeq	2, 4, cr0, cr12, cr7, {0}
 198:	0d0d4108 	stfeqs	f4, [sp, #-32]	; 0xffffffe0
 19c:	0000000c 	andeq	r0, r0, ip
 1a0:	ffffffff 			; <UNDEFINED> instruction: 0xffffffff
 1a4:	7c020001 	stcvc	0, cr0, [r2], {1}
 1a8:	000d0c0e 	andeq	r0, sp, lr, lsl #24
 1ac:	00000024 	andeq	r0, r0, r4, lsr #32
 1b0:	0000019c 	muleq	r0, ip, r1
 1b4:	8010093a 	andshi	r0, r0, sl, lsr r9
 1b8:	0000003a 	andeq	r0, r0, sl, lsr r0
 1bc:	84080e41 	strhi	r0, [r8], #-3649	; 0xfffff1bf
 1c0:	41018702 	tstmi	r1, r2, lsl #14
 1c4:	0d41100e 	stcleq	0, cr1, [r1, #-56]	; 0xffffffc8
 1c8:	080e5707 	stmdaeq	lr, {r0, r1, r2, r8, r9, sl, ip, lr}
 1cc:	410d0d41 	tstmi	sp, r1, asr #26
 1d0:	000ec4c7 	andeq	ip, lr, r7, asr #9
 1d4:	00000024 	andeq	r0, r0, r4, lsr #32
 1d8:	0000019c 	muleq	r0, ip, r1
 1dc:	80100974 	andshi	r0, r0, r4, ror r9
 1e0:	00000050 	andeq	r0, r0, r0, asr r0
 1e4:	87040e41 	strhi	r0, [r4, -r1, asr #28]
 1e8:	180e4101 	stmdane	lr, {r0, r8, lr}
 1ec:	61070d41 	tstvs	r7, r1, asr #26
 1f0:	0d41040e 	cfstrdeq	mvd0, [r1, #-56]	; 0xffffffc8
 1f4:	0ec7420d 	cdpeq	2, 12, cr4, cr7, cr13, {0}
 1f8:	00000000 	andeq	r0, r0, r0
 1fc:	00000020 	andeq	r0, r0, r0, lsr #32
 200:	0000019c 	muleq	r0, ip, r1
 204:	801009c4 	andshi	r0, r0, r4, asr #19
 208:	00000072 	andeq	r0, r0, r2, ror r0
 20c:	87080e41 	strhi	r0, [r8, -r1, asr #28]
 210:	41018e02 	tstmi	r1, r2, lsl #28
 214:	0d41180e 	stcleq	8, cr1, [r1, #-56]	; 0xffffffc8
 218:	080e7407 	stmdaeq	lr, {r0, r1, r2, sl, ip, sp, lr}
 21c:	000d0d41 	andeq	r0, sp, r1, asr #26
 220:	00000020 	andeq	r0, r0, r0, lsr #32
 224:	0000019c 	muleq	r0, ip, r1
 228:	80100a36 	andshi	r0, r0, r6, lsr sl
 22c:	00000036 	andeq	r0, r0, r6, lsr r0
 230:	87080e41 	strhi	r0, [r8, -r1, asr #28]
 234:	41018e02 	tstmi	r1, r2, lsl #28
 238:	0d41100e 	stcleq	0, cr1, [r1, #-56]	; 0xffffffc8
 23c:	080e5607 	stmdaeq	lr, {r0, r1, r2, r9, sl, ip, lr}
 240:	000d0d41 	andeq	r0, sp, r1, asr #26
 244:	00000018 	andeq	r0, r0, r8, lsl r0
 248:	0000019c 	muleq	r0, ip, r1
 24c:	80100a6c 	andshi	r0, r0, ip, ror #20
 250:	00000024 	andeq	r0, r0, r4, lsr #32
 254:	87080e41 	strhi	r0, [r8, -r1, asr #28]
 258:	41018e02 	tstmi	r1, r2, lsl #28
 25c:	0000070d 	andeq	r0, r0, sp, lsl #14
 260:	00000018 	andeq	r0, r0, r8, lsl r0
 264:	0000019c 	muleq	r0, ip, r1
 268:	80100a90 	mulshi	r0, r0, sl
 26c:	00000024 	andeq	r0, r0, r4, lsr #32
 270:	87080e41 	strhi	r0, [r8, -r1, asr #28]
 274:	41018e02 	tstmi	r1, r2, lsl #28
 278:	0000070d 	andeq	r0, r0, sp, lsl #14
 27c:	00000018 	andeq	r0, r0, r8, lsl r0
 280:	0000019c 	muleq	r0, ip, r1
 284:	80100ab4 			; <UNDEFINED> instruction: 0x80100ab4
 288:	0000000c 	andeq	r0, r0, ip
 28c:	87080e41 	strhi	r0, [r8, -r1, asr #28]
 290:	41018e02 	tstmi	r1, r2, lsl #28
 294:	0000070d 	andeq	r0, r0, sp, lsl #14
 298:	0000000c 	andeq	r0, r0, ip
 29c:	ffffffff 			; <UNDEFINED> instruction: 0xffffffff
 2a0:	7c020001 	stcvc	0, cr0, [r2], {1}
 2a4:	000d0c0e 	andeq	r0, sp, lr, lsl #24
 2a8:	00000024 	andeq	r0, r0, r4, lsr #32
 2ac:	00000298 	muleq	r0, r8, r2
 2b0:	80100ac0 	andshi	r0, r0, r0, asr #21
 2b4:	00000020 	andeq	r0, r0, r0, lsr #32
 2b8:	87040e41 	strhi	r0, [r4, -r1, asr #28]
 2bc:	100e4101 	andne	r4, lr, r1, lsl #2
 2c0:	49070d41 	stmdbmi	r7, {r0, r6, r8, sl, fp}
 2c4:	0d41040e 	cfstrdeq	mvd0, [r1, #-56]	; 0xffffffc8
 2c8:	0ec7420d 	cdpeq	2, 12, cr4, cr7, cr13, {0}
 2cc:	00000000 	andeq	r0, r0, r0
 2d0:	00000024 	andeq	r0, r0, r4, lsr #32
 2d4:	00000298 	muleq	r0, r8, r2
 2d8:	80100ae0 	andshi	r0, r0, r0, ror #21
 2dc:	00000050 	andeq	r0, r0, r0, asr r0
 2e0:	87040e41 	strhi	r0, [r4, -r1, asr #28]
 2e4:	180e4101 	stmdane	lr, {r0, r8, lr}
 2e8:	61070d41 	tstvs	r7, r1, asr #26
 2ec:	0d41040e 	cfstrdeq	mvd0, [r1, #-56]	; 0xffffffc8
 2f0:	0ec7420d 	cdpeq	2, 12, cr4, cr7, cr13, {0}
 2f4:	00000000 	andeq	r0, r0, r0
 2f8:	00000020 	andeq	r0, r0, r0, lsr #32
 2fc:	00000298 	muleq	r0, r8, r2
 300:	80100b30 	andshi	r0, r0, r0, lsr fp
 304:	00000072 	andeq	r0, r0, r2, ror r0
 308:	87080e41 	strhi	r0, [r8, -r1, asr #28]
 30c:	41018e02 	tstmi	r1, r2, lsl #28
 310:	0d41180e 	stcleq	8, cr1, [r1, #-56]	; 0xffffffc8
 314:	080e7407 	stmdaeq	lr, {r0, r1, r2, sl, ip, sp, lr}
 318:	000d0d41 	andeq	r0, sp, r1, asr #26
 31c:	00000024 	andeq	r0, r0, r4, lsr #32
 320:	00000298 	muleq	r0, r8, r2
 324:	80100ba2 	andshi	r0, r0, r2, lsr #23
 328:	0000005a 	andeq	r0, r0, sl, asr r0
 32c:	87040e41 	strhi	r0, [r4, -r1, asr #28]
 330:	180e4101 	stmdane	lr, {r0, r8, lr}
 334:	66070d41 	strvs	r0, [r7], -r1, asr #26
 338:	0d41040e 	cfstrdeq	mvd0, [r1, #-56]	; 0xffffffc8
 33c:	0ec7420d 	cdpeq	2, 12, cr4, cr7, cr13, {0}
 340:	00000000 	andeq	r0, r0, r0
 344:	00000018 	andeq	r0, r0, r8, lsl r0
 348:	00000298 	muleq	r0, r8, r2
 34c:	80100bfc 			; <UNDEFINED> instruction: 0x80100bfc
 350:	0000000c 	andeq	r0, r0, ip
 354:	87080e41 	strhi	r0, [r8, -r1, asr #28]
 358:	41018e02 	tstmi	r1, r2, lsl #28
 35c:	0000070d 	andeq	r0, r0, sp, lsl #14
 360:	00000018 	andeq	r0, r0, r8, lsl r0
 364:	00000298 	muleq	r0, r8, r2
 368:	80100c08 	andshi	r0, r0, r8, lsl #24
 36c:	0000000c 	andeq	r0, r0, ip
 370:	87080e41 	strhi	r0, [r8, -r1, asr #28]
 374:	41018e02 	tstmi	r1, r2, lsl #28
 378:	0000070d 	andeq	r0, r0, sp, lsl #14
 37c:	00000018 	andeq	r0, r0, r8, lsl r0
 380:	00000298 	muleq	r0, r8, r2
 384:	80100c14 	andshi	r0, r0, r4, lsl ip
 388:	00000038 	andeq	r0, r0, r8, lsr r0
 38c:	87080e41 	strhi	r0, [r8, -r1, asr #28]
 390:	41018e02 	tstmi	r1, r2, lsl #28
 394:	0000070d 	andeq	r0, r0, sp, lsl #14
 398:	0000000c 	andeq	r0, r0, ip
 39c:	ffffffff 			; <UNDEFINED> instruction: 0xffffffff
 3a0:	7c020001 	stcvc	0, cr0, [r2], {1}
 3a4:	000d0c0e 	andeq	r0, sp, lr, lsl #24
 3a8:	00000018 	andeq	r0, r0, r8, lsl r0
 3ac:	00000398 	muleq	r0, r8, r3
 3b0:	80100c4c 	andshi	r0, r0, ip, asr #24
 3b4:	00000014 	andeq	r0, r0, r4, lsl r0
 3b8:	87080e41 	strhi	r0, [r8, -r1, asr #28]
 3bc:	41018e02 	tstmi	r1, r2, lsl #28
 3c0:	0000070d 	andeq	r0, r0, sp, lsl #14
 3c4:	0000000c 	andeq	r0, r0, ip
 3c8:	ffffffff 			; <UNDEFINED> instruction: 0xffffffff
 3cc:	7c020001 	stcvc	0, cr0, [r2], {1}
 3d0:	000d0c0e 	andeq	r0, sp, lr, lsl #24
 3d4:	00000024 	andeq	r0, r0, r4, lsr #32
 3d8:	000003c4 	andeq	r0, r0, r4, asr #7
 3dc:	80100c60 	andshi	r0, r0, r0, ror #24
 3e0:	000000b8 	strheq	r0, [r0], -r8
 3e4:	87040e41 	strhi	r0, [r4, -r1, asr #28]
 3e8:	100e4101 	andne	r4, lr, r1, lsl #2
 3ec:	02070d41 	andeq	r0, r7, #4160	; 0x1040
 3f0:	41040e55 	tstmi	r4, r5, asr lr
 3f4:	c7420d0d 	strbgt	r0, [r2, -sp, lsl #26]
 3f8:	0000000e 	andeq	r0, r0, lr
 3fc:	00000024 	andeq	r0, r0, r4, lsr #32
 400:	000003c4 	andeq	r0, r0, r4, asr #7
 404:	80100d18 	andshi	r0, r0, r8, lsl sp
 408:	00000296 	muleq	r0, r6, r2
 40c:	87080e41 	strhi	r0, [r8, -r1, asr #28]
 410:	41018e02 	tstmi	r1, r2, lsl #28
 414:	0d41180e 	stcleq	8, cr1, [r1, #-56]	; 0xffffffc8
 418:	01460307 	cmpeq	r6, r7, lsl #6
 41c:	0d41080e 	stcleq	8, cr0, [r1, #-56]	; 0xffffffc8
 420:	0000000d 	andeq	r0, r0, sp
 424:	0000001c 	andeq	r0, r0, ip, lsl r0
 428:	000003c4 	andeq	r0, r0, r4, asr #7
 42c:	80100fae 	andshi	r0, r0, lr, lsr #31
 430:	00000026 	andeq	r0, r0, r6, lsr #32
 434:	87040e41 	strhi	r0, [r4, -r1, asr #28]
 438:	070d4101 	streq	r4, [sp, -r1, lsl #2]
 43c:	420d0d4e 	andmi	r0, sp, #4992	; 0x1380
 440:	00000ec7 	andeq	r0, r0, r7, asr #29
 444:	0000001c 	andeq	r0, r0, ip, lsl r0
 448:	000003c4 	andeq	r0, r0, r4, asr #7
 44c:	80100fd4 			; <UNDEFINED> instruction: 0x80100fd4
 450:	00000026 	andeq	r0, r0, r6, lsr #32
 454:	87040e41 	strhi	r0, [r4, -r1, asr #28]
 458:	070d4101 	streq	r4, [sp, -r1, lsl #2]
 45c:	420d0d4e 	andmi	r0, sp, #4992	; 0x1380
 460:	00000ec7 	andeq	r0, r0, r7, asr #29
 464:	00000018 	andeq	r0, r0, r8, lsl r0
 468:	000003c4 	andeq	r0, r0, r4, asr #7
 46c:	80100ffa 			; <UNDEFINED> instruction: 0x80100ffa
 470:	00000014 	andeq	r0, r0, r4, lsl r0
 474:	87080e41 	strhi	r0, [r8, -r1, asr #28]
 478:	41018e02 	tstmi	r1, r2, lsl #28
 47c:	0000070d 	andeq	r0, r0, sp, lsl #14
