
simple_test.elf:     file format elf32-littlearm


Disassembly of section .text:

80100000 <_start>:
80100000:	e59fd028 	ldr	sp, [pc, #40]	; 80100030 <clean+0x14>
80100004:	eb000001 	bl	80100010 <clean_bss>
80100008:	fa00006a 	blx	801001b8 <main>

8010000c <halt>:
8010000c:	eafffffe 	b	8010000c <halt>

80100010 <clean_bss>:
80100010:	e59f101c 	ldr	r1, [pc, #28]	; 80100034 <clean+0x18>
80100014:	e59f201c 	ldr	r2, [pc, #28]	; 80100038 <clean+0x1c>
80100018:	e3a03000 	mov	r3, #0

8010001c <clean>:
8010001c:	e5813000 	str	r3, [r1]
80100020:	e2811004 	add	r1, r1, #4
80100024:	e1510002 	cmp	r1, r2
80100028:	1afffffb 	bne	8010001c <clean>
8010002c:	e1a0f00e 	mov	pc, lr
80100030:	80200000 	eorhi	r0, r0, r0
80100034:	8010091c 	andshi	r0, r0, ip, lsl r9
80100038:	80100960 	andshi	r0, r0, r0, ror #18

8010003c <lcd_test>:
8010003c:	b580      	push	{r7, lr}
8010003e:	b088      	sub	sp, #32
80100040:	af00      	add	r7, sp, #0
80100042:	f000 fa23 	bl	8010048c <lcd_enable>
80100046:	463b      	mov	r3, r7
80100048:	1d3a      	adds	r2, r7, #4
8010004a:	f107 0108 	add.w	r1, r7, #8
8010004e:	f107 000c 	add.w	r0, r7, #12
80100052:	f000 f9ee 	bl	80100432 <get_lcd_params>
80100056:	683b      	ldr	r3, [r7, #0]
80100058:	2b10      	cmp	r3, #16
8010005a:	d153      	bne.n	80100104 <lcd_test+0xc8>
8010005c:	68fb      	ldr	r3, [r7, #12]
8010005e:	617b      	str	r3, [r7, #20]
80100060:	2300      	movs	r3, #0
80100062:	61fb      	str	r3, [r7, #28]
80100064:	e012      	b.n	8010008c <lcd_test+0x50>
80100066:	2300      	movs	r3, #0
80100068:	61bb      	str	r3, [r7, #24]
8010006a:	e008      	b.n	8010007e <lcd_test+0x42>
8010006c:	697b      	ldr	r3, [r7, #20]
8010006e:	1c9a      	adds	r2, r3, #2
80100070:	617a      	str	r2, [r7, #20]
80100072:	f44f 42f8 	mov.w	r2, #31744	; 0x7c00
80100076:	801a      	strh	r2, [r3, #0]
80100078:	69bb      	ldr	r3, [r7, #24]
8010007a:	3301      	adds	r3, #1
8010007c:	61bb      	str	r3, [r7, #24]
8010007e:	687b      	ldr	r3, [r7, #4]
80100080:	69ba      	ldr	r2, [r7, #24]
80100082:	429a      	cmp	r2, r3
80100084:	dbf2      	blt.n	8010006c <lcd_test+0x30>
80100086:	69fb      	ldr	r3, [r7, #28]
80100088:	3301      	adds	r3, #1
8010008a:	61fb      	str	r3, [r7, #28]
8010008c:	68bb      	ldr	r3, [r7, #8]
8010008e:	69fa      	ldr	r2, [r7, #28]
80100090:	429a      	cmp	r2, r3
80100092:	dbe8      	blt.n	80100066 <lcd_test+0x2a>
80100094:	68fb      	ldr	r3, [r7, #12]
80100096:	617b      	str	r3, [r7, #20]
80100098:	2300      	movs	r3, #0
8010009a:	61fb      	str	r3, [r7, #28]
8010009c:	e012      	b.n	801000c4 <lcd_test+0x88>
8010009e:	2300      	movs	r3, #0
801000a0:	61bb      	str	r3, [r7, #24]
801000a2:	e008      	b.n	801000b6 <lcd_test+0x7a>
801000a4:	697b      	ldr	r3, [r7, #20]
801000a6:	1c9a      	adds	r2, r3, #2
801000a8:	617a      	str	r2, [r7, #20]
801000aa:	f44f 7278 	mov.w	r2, #992	; 0x3e0
801000ae:	801a      	strh	r2, [r3, #0]
801000b0:	69bb      	ldr	r3, [r7, #24]
801000b2:	3301      	adds	r3, #1
801000b4:	61bb      	str	r3, [r7, #24]
801000b6:	687b      	ldr	r3, [r7, #4]
801000b8:	69ba      	ldr	r2, [r7, #24]
801000ba:	429a      	cmp	r2, r3
801000bc:	dbf2      	blt.n	801000a4 <lcd_test+0x68>
801000be:	69fb      	ldr	r3, [r7, #28]
801000c0:	3301      	adds	r3, #1
801000c2:	61fb      	str	r3, [r7, #28]
801000c4:	68bb      	ldr	r3, [r7, #8]
801000c6:	69fa      	ldr	r2, [r7, #28]
801000c8:	429a      	cmp	r2, r3
801000ca:	dbe8      	blt.n	8010009e <lcd_test+0x62>
801000cc:	68fb      	ldr	r3, [r7, #12]
801000ce:	617b      	str	r3, [r7, #20]
801000d0:	2300      	movs	r3, #0
801000d2:	61fb      	str	r3, [r7, #28]
801000d4:	e011      	b.n	801000fa <lcd_test+0xbe>
801000d6:	2300      	movs	r3, #0
801000d8:	61bb      	str	r3, [r7, #24]
801000da:	e007      	b.n	801000ec <lcd_test+0xb0>
801000dc:	697b      	ldr	r3, [r7, #20]
801000de:	1c9a      	adds	r2, r3, #2
801000e0:	617a      	str	r2, [r7, #20]
801000e2:	221f      	movs	r2, #31
801000e4:	801a      	strh	r2, [r3, #0]
801000e6:	69bb      	ldr	r3, [r7, #24]
801000e8:	3301      	adds	r3, #1
801000ea:	61bb      	str	r3, [r7, #24]
801000ec:	687b      	ldr	r3, [r7, #4]
801000ee:	69ba      	ldr	r2, [r7, #24]
801000f0:	429a      	cmp	r2, r3
801000f2:	dbf3      	blt.n	801000dc <lcd_test+0xa0>
801000f4:	69fb      	ldr	r3, [r7, #28]
801000f6:	3301      	adds	r3, #1
801000f8:	61fb      	str	r3, [r7, #28]
801000fa:	68bb      	ldr	r3, [r7, #8]
801000fc:	69fa      	ldr	r2, [r7, #28]
801000fe:	429a      	cmp	r2, r3
80100100:	dbe9      	blt.n	801000d6 <lcd_test+0x9a>
80100102:	e055      	b.n	801001b0 <lcd_test+0x174>
80100104:	683b      	ldr	r3, [r7, #0]
80100106:	2b20      	cmp	r3, #32
80100108:	d152      	bne.n	801001b0 <lcd_test+0x174>
8010010a:	68fb      	ldr	r3, [r7, #12]
8010010c:	613b      	str	r3, [r7, #16]
8010010e:	2300      	movs	r3, #0
80100110:	61fb      	str	r3, [r7, #28]
80100112:	e012      	b.n	8010013a <lcd_test+0xfe>
80100114:	2300      	movs	r3, #0
80100116:	61bb      	str	r3, [r7, #24]
80100118:	e008      	b.n	8010012c <lcd_test+0xf0>
8010011a:	693b      	ldr	r3, [r7, #16]
8010011c:	1d1a      	adds	r2, r3, #4
8010011e:	613a      	str	r2, [r7, #16]
80100120:	f44f 027f 	mov.w	r2, #16711680	; 0xff0000
80100124:	601a      	str	r2, [r3, #0]
80100126:	69bb      	ldr	r3, [r7, #24]
80100128:	3301      	adds	r3, #1
8010012a:	61bb      	str	r3, [r7, #24]
8010012c:	687b      	ldr	r3, [r7, #4]
8010012e:	69ba      	ldr	r2, [r7, #24]
80100130:	429a      	cmp	r2, r3
80100132:	dbf2      	blt.n	8010011a <lcd_test+0xde>
80100134:	69fb      	ldr	r3, [r7, #28]
80100136:	3301      	adds	r3, #1
80100138:	61fb      	str	r3, [r7, #28]
8010013a:	68bb      	ldr	r3, [r7, #8]
8010013c:	69fa      	ldr	r2, [r7, #28]
8010013e:	429a      	cmp	r2, r3
80100140:	dbe8      	blt.n	80100114 <lcd_test+0xd8>
80100142:	68fb      	ldr	r3, [r7, #12]
80100144:	613b      	str	r3, [r7, #16]
80100146:	2300      	movs	r3, #0
80100148:	61fb      	str	r3, [r7, #28]
8010014a:	e012      	b.n	80100172 <lcd_test+0x136>
8010014c:	2300      	movs	r3, #0
8010014e:	61bb      	str	r3, [r7, #24]
80100150:	e008      	b.n	80100164 <lcd_test+0x128>
80100152:	693b      	ldr	r3, [r7, #16]
80100154:	1d1a      	adds	r2, r3, #4
80100156:	613a      	str	r2, [r7, #16]
80100158:	f44f 427f 	mov.w	r2, #65280	; 0xff00
8010015c:	601a      	str	r2, [r3, #0]
8010015e:	69bb      	ldr	r3, [r7, #24]
80100160:	3301      	adds	r3, #1
80100162:	61bb      	str	r3, [r7, #24]
80100164:	687b      	ldr	r3, [r7, #4]
80100166:	69ba      	ldr	r2, [r7, #24]
80100168:	429a      	cmp	r2, r3
8010016a:	dbf2      	blt.n	80100152 <lcd_test+0x116>
8010016c:	69fb      	ldr	r3, [r7, #28]
8010016e:	3301      	adds	r3, #1
80100170:	61fb      	str	r3, [r7, #28]
80100172:	68bb      	ldr	r3, [r7, #8]
80100174:	69fa      	ldr	r2, [r7, #28]
80100176:	429a      	cmp	r2, r3
80100178:	dbe8      	blt.n	8010014c <lcd_test+0x110>
8010017a:	68fb      	ldr	r3, [r7, #12]
8010017c:	613b      	str	r3, [r7, #16]
8010017e:	2300      	movs	r3, #0
80100180:	61fb      	str	r3, [r7, #28]
80100182:	e011      	b.n	801001a8 <lcd_test+0x16c>
80100184:	2300      	movs	r3, #0
80100186:	61bb      	str	r3, [r7, #24]
80100188:	e007      	b.n	8010019a <lcd_test+0x15e>
8010018a:	693b      	ldr	r3, [r7, #16]
8010018c:	1d1a      	adds	r2, r3, #4
8010018e:	613a      	str	r2, [r7, #16]
80100190:	22ff      	movs	r2, #255	; 0xff
80100192:	601a      	str	r2, [r3, #0]
80100194:	69bb      	ldr	r3, [r7, #24]
80100196:	3301      	adds	r3, #1
80100198:	61bb      	str	r3, [r7, #24]
8010019a:	687b      	ldr	r3, [r7, #4]
8010019c:	69ba      	ldr	r2, [r7, #24]
8010019e:	429a      	cmp	r2, r3
801001a0:	dbf3      	blt.n	8010018a <lcd_test+0x14e>
801001a2:	69fb      	ldr	r3, [r7, #28]
801001a4:	3301      	adds	r3, #1
801001a6:	61fb      	str	r3, [r7, #28]
801001a8:	68bb      	ldr	r3, [r7, #8]
801001aa:	69fa      	ldr	r2, [r7, #28]
801001ac:	429a      	cmp	r2, r3
801001ae:	dbe9      	blt.n	80100184 <lcd_test+0x148>
801001b0:	bf00      	nop
801001b2:	3720      	adds	r7, #32
801001b4:	46bd      	mov	sp, r7
801001b6:	bd80      	pop	{r7, pc}

801001b8 <main>:
801001b8:	b580      	push	{r7, lr}
801001ba:	af00      	add	r7, sp, #0
801001bc:	f000 f972 	bl	801004a4 <lcd_init>
801001c0:	f7ff ff3c 	bl	8010003c <lcd_test>
801001c4:	2300      	movs	r3, #0
801001c6:	4618      	mov	r0, r3
801001c8:	bd80      	pop	{r7, pc}

801001ca <strcmp>:
801001ca:	b490      	push	{r4, r7}
801001cc:	b082      	sub	sp, #8
801001ce:	af00      	add	r7, sp, #0
801001d0:	6078      	str	r0, [r7, #4]
801001d2:	6039      	str	r1, [r7, #0]
801001d4:	687b      	ldr	r3, [r7, #4]
801001d6:	781a      	ldrb	r2, [r3, #0]
801001d8:	683b      	ldr	r3, [r7, #0]
801001da:	1c59      	adds	r1, r3, #1
801001dc:	6039      	str	r1, [r7, #0]
801001de:	781b      	ldrb	r3, [r3, #0]
801001e0:	1ad3      	subs	r3, r2, r3
801001e2:	b2db      	uxtb	r3, r3
801001e4:	b25c      	sxtb	r4, r3
801001e6:	2c00      	cmp	r4, #0
801001e8:	d106      	bne.n	801001f8 <strcmp+0x2e>
801001ea:	687b      	ldr	r3, [r7, #4]
801001ec:	1c5a      	adds	r2, r3, #1
801001ee:	607a      	str	r2, [r7, #4]
801001f0:	781b      	ldrb	r3, [r3, #0]
801001f2:	2b00      	cmp	r3, #0
801001f4:	d000      	beq.n	801001f8 <strcmp+0x2e>
801001f6:	e7ed      	b.n	801001d4 <strcmp+0xa>
801001f8:	4623      	mov	r3, r4
801001fa:	4618      	mov	r0, r3
801001fc:	3708      	adds	r7, #8
801001fe:	46bd      	mov	sp, r7
80100200:	bc90      	pop	{r4, r7}
80100202:	4770      	bx	lr

80100204 <register_lcd_controller>:
80100204:	b480      	push	{r7}
80100206:	b085      	sub	sp, #20
80100208:	af00      	add	r7, sp, #0
8010020a:	6078      	str	r0, [r7, #4]
8010020c:	2300      	movs	r3, #0
8010020e:	60fb      	str	r3, [r7, #12]
80100210:	e015      	b.n	8010023e <register_lcd_controller+0x3a>
80100212:	f640 131c 	movw	r3, #2332	; 0x91c
80100216:	f2c8 0310 	movt	r3, #32784	; 0x8010
8010021a:	68fa      	ldr	r2, [r7, #12]
8010021c:	f853 3022 	ldr.w	r3, [r3, r2, lsl #2]
80100220:	2b00      	cmp	r3, #0
80100222:	d109      	bne.n	80100238 <register_lcd_controller+0x34>
80100224:	f640 131c 	movw	r3, #2332	; 0x91c
80100228:	f2c8 0310 	movt	r3, #32784	; 0x8010
8010022c:	68fa      	ldr	r2, [r7, #12]
8010022e:	6879      	ldr	r1, [r7, #4]
80100230:	f843 1022 	str.w	r1, [r3, r2, lsl #2]
80100234:	68fb      	ldr	r3, [r7, #12]
80100236:	e007      	b.n	80100248 <register_lcd_controller+0x44>
80100238:	68fb      	ldr	r3, [r7, #12]
8010023a:	3301      	adds	r3, #1
8010023c:	60fb      	str	r3, [r7, #12]
8010023e:	68fb      	ldr	r3, [r7, #12]
80100240:	2b09      	cmp	r3, #9
80100242:	dde6      	ble.n	80100212 <register_lcd_controller+0xe>
80100244:	f04f 33ff 	mov.w	r3, #4294967295	; 0xffffffff
80100248:	4618      	mov	r0, r3
8010024a:	3714      	adds	r7, #20
8010024c:	46bd      	mov	sp, r7
8010024e:	f85d 7b04 	ldr.w	r7, [sp], #4
80100252:	4770      	bx	lr

80100254 <select_lcd_controller>:
80100254:	b580      	push	{r7, lr}
80100256:	b084      	sub	sp, #16
80100258:	af00      	add	r7, sp, #0
8010025a:	6078      	str	r0, [r7, #4]
8010025c:	2300      	movs	r3, #0
8010025e:	60fb      	str	r3, [r7, #12]
80100260:	e028      	b.n	801002b4 <select_lcd_controller+0x60>
80100262:	f640 131c 	movw	r3, #2332	; 0x91c
80100266:	f2c8 0310 	movt	r3, #32784	; 0x8010
8010026a:	68fa      	ldr	r2, [r7, #12]
8010026c:	f853 3022 	ldr.w	r3, [r3, r2, lsl #2]
80100270:	2b00      	cmp	r3, #0
80100272:	d01c      	beq.n	801002ae <select_lcd_controller+0x5a>
80100274:	f640 131c 	movw	r3, #2332	; 0x91c
80100278:	f2c8 0310 	movt	r3, #32784	; 0x8010
8010027c:	68fa      	ldr	r2, [r7, #12]
8010027e:	f853 3022 	ldr.w	r3, [r3, r2, lsl #2]
80100282:	681b      	ldr	r3, [r3, #0]
80100284:	6879      	ldr	r1, [r7, #4]
80100286:	4618      	mov	r0, r3
80100288:	f7ff ff9f 	bl	801001ca <strcmp>
8010028c:	4603      	mov	r3, r0
8010028e:	2b00      	cmp	r3, #0
80100290:	d10d      	bne.n	801002ae <select_lcd_controller+0x5a>
80100292:	f640 131c 	movw	r3, #2332	; 0x91c
80100296:	f2c8 0310 	movt	r3, #32784	; 0x8010
8010029a:	68fa      	ldr	r2, [r7, #12]
8010029c:	f853 2022 	ldr.w	r2, [r3, r2, lsl #2]
801002a0:	f640 1344 	movw	r3, #2372	; 0x944
801002a4:	f2c8 0310 	movt	r3, #32784	; 0x8010
801002a8:	601a      	str	r2, [r3, #0]
801002aa:	68fb      	ldr	r3, [r7, #12]
801002ac:	e007      	b.n	801002be <select_lcd_controller+0x6a>
801002ae:	68fb      	ldr	r3, [r7, #12]
801002b0:	3301      	adds	r3, #1
801002b2:	60fb      	str	r3, [r7, #12]
801002b4:	68fb      	ldr	r3, [r7, #12]
801002b6:	2b09      	cmp	r3, #9
801002b8:	ddd3      	ble.n	80100262 <select_lcd_controller+0xe>
801002ba:	f04f 33ff 	mov.w	r3, #4294967295	; 0xffffffff
801002be:	4618      	mov	r0, r3
801002c0:	3710      	adds	r7, #16
801002c2:	46bd      	mov	sp, r7
801002c4:	bd80      	pop	{r7, pc}

801002c6 <lcd_controller_init>:
801002c6:	b580      	push	{r7, lr}
801002c8:	b082      	sub	sp, #8
801002ca:	af00      	add	r7, sp, #0
801002cc:	6078      	str	r0, [r7, #4]
801002ce:	f640 1344 	movw	r3, #2372	; 0x944
801002d2:	f2c8 0310 	movt	r3, #32784	; 0x8010
801002d6:	681b      	ldr	r3, [r3, #0]
801002d8:	2b00      	cmp	r3, #0
801002da:	d009      	beq.n	801002f0 <lcd_controller_init+0x2a>
801002dc:	f640 1344 	movw	r3, #2372	; 0x944
801002e0:	f2c8 0310 	movt	r3, #32784	; 0x8010
801002e4:	681b      	ldr	r3, [r3, #0]
801002e6:	685b      	ldr	r3, [r3, #4]
801002e8:	6878      	ldr	r0, [r7, #4]
801002ea:	4798      	blx	r3
801002ec:	2300      	movs	r3, #0
801002ee:	e001      	b.n	801002f4 <lcd_controller_init+0x2e>
801002f0:	f04f 33ff 	mov.w	r3, #4294967295	; 0xffffffff
801002f4:	4618      	mov	r0, r3
801002f6:	3708      	adds	r7, #8
801002f8:	46bd      	mov	sp, r7
801002fa:	bd80      	pop	{r7, pc}

801002fc <lcd_controller_enable>:
801002fc:	b580      	push	{r7, lr}
801002fe:	af00      	add	r7, sp, #0
80100300:	f640 1344 	movw	r3, #2372	; 0x944
80100304:	f2c8 0310 	movt	r3, #32784	; 0x8010
80100308:	681b      	ldr	r3, [r3, #0]
8010030a:	2b00      	cmp	r3, #0
8010030c:	d006      	beq.n	8010031c <lcd_controller_enable+0x20>
8010030e:	f640 1344 	movw	r3, #2372	; 0x944
80100312:	f2c8 0310 	movt	r3, #32784	; 0x8010
80100316:	681b      	ldr	r3, [r3, #0]
80100318:	689b      	ldr	r3, [r3, #8]
8010031a:	4798      	blx	r3
8010031c:	bf00      	nop
8010031e:	bd80      	pop	{r7, pc}

80100320 <lcd_controller_disable>:
80100320:	b580      	push	{r7, lr}
80100322:	af00      	add	r7, sp, #0
80100324:	f640 1344 	movw	r3, #2372	; 0x944
80100328:	f2c8 0310 	movt	r3, #32784	; 0x8010
8010032c:	681b      	ldr	r3, [r3, #0]
8010032e:	2b00      	cmp	r3, #0
80100330:	d006      	beq.n	80100340 <lcd_controller_disable+0x20>
80100332:	f640 1344 	movw	r3, #2372	; 0x944
80100336:	f2c8 0310 	movt	r3, #32784	; 0x8010
8010033a:	681b      	ldr	r3, [r3, #0]
8010033c:	68db      	ldr	r3, [r3, #12]
8010033e:	4798      	blx	r3
80100340:	bf00      	nop
80100342:	bd80      	pop	{r7, pc}

80100344 <lcd_contoller_add>:
80100344:	b580      	push	{r7, lr}
80100346:	af00      	add	r7, sp, #0
80100348:	f000 fa9f 	bl	8010088a <Imx6ull_lcd_controller_add>
8010034c:	bf00      	nop
8010034e:	bd80      	pop	{r7, pc}

80100350 <delay>:
80100350:	b480      	push	{r7}
80100352:	b083      	sub	sp, #12
80100354:	af00      	add	r7, sp, #0
80100356:	6078      	str	r0, [r7, #4]
80100358:	bf00      	nop
8010035a:	687b      	ldr	r3, [r7, #4]
8010035c:	1e5a      	subs	r2, r3, #1
8010035e:	607a      	str	r2, [r7, #4]
80100360:	2b00      	cmp	r3, #0
80100362:	d1fa      	bne.n	8010035a <delay+0xa>
80100364:	bf00      	nop
80100366:	370c      	adds	r7, #12
80100368:	46bd      	mov	sp, r7
8010036a:	f85d 7b04 	ldr.w	r7, [sp], #4
8010036e:	4770      	bx	lr

80100370 <register_lcd>:
80100370:	b480      	push	{r7}
80100372:	b085      	sub	sp, #20
80100374:	af00      	add	r7, sp, #0
80100376:	6078      	str	r0, [r7, #4]
80100378:	2300      	movs	r3, #0
8010037a:	60fb      	str	r3, [r7, #12]
8010037c:	e015      	b.n	801003aa <register_lcd+0x3a>
8010037e:	f640 1348 	movw	r3, #2376	; 0x948
80100382:	f2c8 0310 	movt	r3, #32784	; 0x8010
80100386:	68fa      	ldr	r2, [r7, #12]
80100388:	f853 3022 	ldr.w	r3, [r3, r2, lsl #2]
8010038c:	2b00      	cmp	r3, #0
8010038e:	d109      	bne.n	801003a4 <register_lcd+0x34>
80100390:	f640 1348 	movw	r3, #2376	; 0x948
80100394:	f2c8 0310 	movt	r3, #32784	; 0x8010
80100398:	68fa      	ldr	r2, [r7, #12]
8010039a:	6879      	ldr	r1, [r7, #4]
8010039c:	f843 1022 	str.w	r1, [r3, r2, lsl #2]
801003a0:	68fb      	ldr	r3, [r7, #12]
801003a2:	e007      	b.n	801003b4 <register_lcd+0x44>
801003a4:	68fb      	ldr	r3, [r7, #12]
801003a6:	3301      	adds	r3, #1
801003a8:	60fb      	str	r3, [r7, #12]
801003aa:	68fb      	ldr	r3, [r7, #12]
801003ac:	2b04      	cmp	r3, #4
801003ae:	dde6      	ble.n	8010037e <register_lcd+0xe>
801003b0:	f04f 33ff 	mov.w	r3, #4294967295	; 0xffffffff
801003b4:	4618      	mov	r0, r3
801003b6:	3714      	adds	r7, #20
801003b8:	46bd      	mov	sp, r7
801003ba:	f85d 7b04 	ldr.w	r7, [sp], #4
801003be:	4770      	bx	lr

801003c0 <select_lcd>:
801003c0:	b580      	push	{r7, lr}
801003c2:	b084      	sub	sp, #16
801003c4:	af00      	add	r7, sp, #0
801003c6:	6078      	str	r0, [r7, #4]
801003c8:	2300      	movs	r3, #0
801003ca:	60fb      	str	r3, [r7, #12]
801003cc:	e028      	b.n	80100420 <select_lcd+0x60>
801003ce:	f640 1348 	movw	r3, #2376	; 0x948
801003d2:	f2c8 0310 	movt	r3, #32784	; 0x8010
801003d6:	68fa      	ldr	r2, [r7, #12]
801003d8:	f853 3022 	ldr.w	r3, [r3, r2, lsl #2]
801003dc:	2b00      	cmp	r3, #0
801003de:	d01c      	beq.n	8010041a <select_lcd+0x5a>
801003e0:	f640 1348 	movw	r3, #2376	; 0x948
801003e4:	f2c8 0310 	movt	r3, #32784	; 0x8010
801003e8:	68fa      	ldr	r2, [r7, #12]
801003ea:	f853 3022 	ldr.w	r3, [r3, r2, lsl #2]
801003ee:	681b      	ldr	r3, [r3, #0]
801003f0:	6879      	ldr	r1, [r7, #4]
801003f2:	4618      	mov	r0, r3
801003f4:	f7ff fee9 	bl	801001ca <strcmp>
801003f8:	4603      	mov	r3, r0
801003fa:	2b00      	cmp	r3, #0
801003fc:	d10d      	bne.n	8010041a <select_lcd+0x5a>
801003fe:	f640 1348 	movw	r3, #2376	; 0x948
80100402:	f2c8 0310 	movt	r3, #32784	; 0x8010
80100406:	68fa      	ldr	r2, [r7, #12]
80100408:	f853 2022 	ldr.w	r2, [r3, r2, lsl #2]
8010040c:	f640 135c 	movw	r3, #2396	; 0x95c
80100410:	f2c8 0310 	movt	r3, #32784	; 0x8010
80100414:	601a      	str	r2, [r3, #0]
80100416:	68fb      	ldr	r3, [r7, #12]
80100418:	e007      	b.n	8010042a <select_lcd+0x6a>
8010041a:	68fb      	ldr	r3, [r7, #12]
8010041c:	3301      	adds	r3, #1
8010041e:	60fb      	str	r3, [r7, #12]
80100420:	68fb      	ldr	r3, [r7, #12]
80100422:	2b04      	cmp	r3, #4
80100424:	ddd3      	ble.n	801003ce <select_lcd+0xe>
80100426:	f04f 33ff 	mov.w	r3, #4294967295	; 0xffffffff
8010042a:	4618      	mov	r0, r3
8010042c:	3710      	adds	r7, #16
8010042e:	46bd      	mov	sp, r7
80100430:	bd80      	pop	{r7, pc}

80100432 <get_lcd_params>:
80100432:	b480      	push	{r7}
80100434:	b085      	sub	sp, #20
80100436:	af00      	add	r7, sp, #0
80100438:	60f8      	str	r0, [r7, #12]
8010043a:	60b9      	str	r1, [r7, #8]
8010043c:	607a      	str	r2, [r7, #4]
8010043e:	603b      	str	r3, [r7, #0]
80100440:	f640 135c 	movw	r3, #2396	; 0x95c
80100444:	f2c8 0310 	movt	r3, #32784	; 0x8010
80100448:	681b      	ldr	r3, [r3, #0]
8010044a:	6bda      	ldr	r2, [r3, #60]	; 0x3c
8010044c:	68fb      	ldr	r3, [r7, #12]
8010044e:	601a      	str	r2, [r3, #0]
80100450:	f640 135c 	movw	r3, #2396	; 0x95c
80100454:	f2c8 0310 	movt	r3, #32784	; 0x8010
80100458:	681b      	ldr	r3, [r3, #0]
8010045a:	6b1a      	ldr	r2, [r3, #48]	; 0x30
8010045c:	68bb      	ldr	r3, [r7, #8]
8010045e:	601a      	str	r2, [r3, #0]
80100460:	f640 135c 	movw	r3, #2396	; 0x95c
80100464:	f2c8 0310 	movt	r3, #32784	; 0x8010
80100468:	681b      	ldr	r3, [r3, #0]
8010046a:	6b5a      	ldr	r2, [r3, #52]	; 0x34
8010046c:	687b      	ldr	r3, [r7, #4]
8010046e:	601a      	str	r2, [r3, #0]
80100470:	f640 135c 	movw	r3, #2396	; 0x95c
80100474:	f2c8 0310 	movt	r3, #32784	; 0x8010
80100478:	681b      	ldr	r3, [r3, #0]
8010047a:	6b9a      	ldr	r2, [r3, #56]	; 0x38
8010047c:	683b      	ldr	r3, [r7, #0]
8010047e:	601a      	str	r2, [r3, #0]
80100480:	bf00      	nop
80100482:	3714      	adds	r7, #20
80100484:	46bd      	mov	sp, r7
80100486:	f85d 7b04 	ldr.w	r7, [sp], #4
8010048a:	4770      	bx	lr

8010048c <lcd_enable>:
8010048c:	b580      	push	{r7, lr}
8010048e:	af00      	add	r7, sp, #0
80100490:	f7ff ff34 	bl	801002fc <lcd_controller_enable>
80100494:	bf00      	nop
80100496:	bd80      	pop	{r7, pc}

80100498 <lcd_disable>:
80100498:	b580      	push	{r7, lr}
8010049a:	af00      	add	r7, sp, #0
8010049c:	f7ff ff40 	bl	80100320 <lcd_controller_disable>
801004a0:	bf00      	nop
801004a2:	bd80      	pop	{r7, pc}

801004a4 <lcd_init>:
801004a4:	b580      	push	{r7, lr}
801004a6:	af00      	add	r7, sp, #0
801004a8:	f000 f818 	bl	801004dc <lcd_7_0_add>
801004ac:	f7ff ff4a 	bl	80100344 <lcd_contoller_add>
801004b0:	f640 00a0 	movw	r0, #2208	; 0x8a0
801004b4:	f2c8 0010 	movt	r0, #32784	; 0x8010
801004b8:	f7ff fecc 	bl	80100254 <select_lcd_controller>
801004bc:	f640 00a8 	movw	r0, #2216	; 0x8a8
801004c0:	f2c8 0010 	movt	r0, #32784	; 0x8010
801004c4:	f7ff ff7c 	bl	801003c0 <select_lcd>
801004c8:	f640 135c 	movw	r3, #2396	; 0x95c
801004cc:	f2c8 0310 	movt	r3, #32784	; 0x8010
801004d0:	681b      	ldr	r3, [r3, #0]
801004d2:	4618      	mov	r0, r3
801004d4:	f7ff fef7 	bl	801002c6 <lcd_controller_init>
801004d8:	bf00      	nop
801004da:	bd80      	pop	{r7, pc}

801004dc <lcd_7_0_add>:
801004dc:	b580      	push	{r7, lr}
801004de:	af00      	add	r7, sp, #0
801004e0:	f640 00c0 	movw	r0, #2240	; 0x8c0
801004e4:	f2c8 0010 	movt	r0, #32784	; 0x8010
801004e8:	f7ff ff42 	bl	80100370 <register_lcd>
801004ec:	bf00      	nop
801004ee:	bd80      	pop	{r7, pc}

801004f0 <Imx6ull_lcd_io_init>:
801004f0:	b480      	push	{r7}
801004f2:	b083      	sub	sp, #12
801004f4:	af00      	add	r7, sp, #0
801004f6:	2300      	movs	r3, #0
801004f8:	603b      	str	r3, [r7, #0]
801004fa:	f44f 7382 	mov.w	r3, #260	; 0x104
801004fe:	f2c0 230e 	movt	r3, #526	; 0x20e
80100502:	607b      	str	r3, [r7, #4]
80100504:	2300      	movs	r3, #0
80100506:	603b      	str	r3, [r7, #0]
80100508:	e008      	b.n	8010051c <Imx6ull_lcd_io_init+0x2c>
8010050a:	687b      	ldr	r3, [r7, #4]
8010050c:	2200      	movs	r2, #0
8010050e:	601a      	str	r2, [r3, #0]
80100510:	687b      	ldr	r3, [r7, #4]
80100512:	3304      	adds	r3, #4
80100514:	607b      	str	r3, [r7, #4]
80100516:	683b      	ldr	r3, [r7, #0]
80100518:	3301      	adds	r3, #1
8010051a:	603b      	str	r3, [r7, #0]
8010051c:	683b      	ldr	r3, [r7, #0]
8010051e:	2b1c      	cmp	r3, #28
80100520:	d9f3      	bls.n	8010050a <Imx6ull_lcd_io_init+0x1a>
80100522:	f44f 7364 	mov.w	r3, #912	; 0x390
80100526:	f2c0 230e 	movt	r3, #526	; 0x20e
8010052a:	607b      	str	r3, [r7, #4]
8010052c:	2300      	movs	r3, #0
8010052e:	603b      	str	r3, [r7, #0]
80100530:	e00e      	b.n	80100550 <Imx6ull_lcd_io_init+0x60>
80100532:	687b      	ldr	r3, [r7, #4]
80100534:	2200      	movs	r2, #0
80100536:	601a      	str	r2, [r3, #0]
80100538:	687b      	ldr	r3, [r7, #4]
8010053a:	681b      	ldr	r3, [r3, #0]
8010053c:	f043 02b9 	orr.w	r2, r3, #185	; 0xb9
80100540:	687b      	ldr	r3, [r7, #4]
80100542:	601a      	str	r2, [r3, #0]
80100544:	687b      	ldr	r3, [r7, #4]
80100546:	3304      	adds	r3, #4
80100548:	607b      	str	r3, [r7, #4]
8010054a:	683b      	ldr	r3, [r7, #0]
8010054c:	3301      	adds	r3, #1
8010054e:	603b      	str	r3, [r7, #0]
80100550:	683b      	ldr	r3, [r7, #0]
80100552:	2b1c      	cmp	r3, #28
80100554:	d9ed      	bls.n	80100532 <Imx6ull_lcd_io_init+0x42>
80100556:	f640 1300 	movw	r3, #2304	; 0x900
8010055a:	f2c8 0310 	movt	r3, #32784	; 0x8010
8010055e:	681b      	ldr	r3, [r3, #0]
80100560:	22b9      	movs	r2, #185	; 0xb9
80100562:	601a      	str	r2, [r3, #0]
80100564:	f640 1304 	movw	r3, #2308	; 0x904
80100568:	f2c8 0310 	movt	r3, #32784	; 0x8010
8010056c:	681a      	ldr	r2, [r3, #0]
8010056e:	f640 1304 	movw	r3, #2308	; 0x904
80100572:	f2c8 0310 	movt	r3, #32784	; 0x8010
80100576:	681b      	ldr	r3, [r3, #0]
80100578:	681b      	ldr	r3, [r3, #0]
8010057a:	f443 7380 	orr.w	r3, r3, #256	; 0x100
8010057e:	6013      	str	r3, [r2, #0]
80100580:	f640 1308 	movw	r3, #2312	; 0x908
80100584:	f2c8 0310 	movt	r3, #32784	; 0x8010
80100588:	681a      	ldr	r2, [r3, #0]
8010058a:	f640 1308 	movw	r3, #2312	; 0x908
8010058e:	f2c8 0310 	movt	r3, #32784	; 0x8010
80100592:	681b      	ldr	r3, [r3, #0]
80100594:	681b      	ldr	r3, [r3, #0]
80100596:	f443 7380 	orr.w	r3, r3, #256	; 0x100
8010059a:	6013      	str	r3, [r2, #0]
8010059c:	bf00      	nop
8010059e:	370c      	adds	r7, #12
801005a0:	46bd      	mov	sp, r7
801005a2:	f85d 7b04 	ldr.w	r7, [sp], #4
801005a6:	4770      	bx	lr

801005a8 <Imx6ull_lcd_controller_init>:
801005a8:	b580      	push	{r7, lr}
801005aa:	b084      	sub	sp, #16
801005ac:	af00      	add	r7, sp, #0
801005ae:	6078      	str	r0, [r7, #4]
801005b0:	f7ff ff9e 	bl	801004f0 <Imx6ull_lcd_io_init>
801005b4:	f44f 4300 	mov.w	r3, #32768	; 0x8000
801005b8:	f2c0 230c 	movt	r3, #524	; 0x20c
801005bc:	2200      	movs	r2, #0
801005be:	f8c3 20b0 	str.w	r2, [r3, #176]	; 0xb0
801005c2:	f44f 4300 	mov.w	r3, #32768	; 0x8000
801005c6:	f2c0 230c 	movt	r3, #524	; 0x20c
801005ca:	2200      	movs	r2, #0
801005cc:	f8c3 20c0 	str.w	r2, [r3, #192]	; 0xc0
801005d0:	f44f 4300 	mov.w	r3, #32768	; 0x8000
801005d4:	f2c0 230c 	movt	r3, #524	; 0x20c
801005d8:	f242 0220 	movw	r2, #8224	; 0x2020
801005dc:	f2c0 0210 	movt	r2, #16
801005e0:	f8c3 20a0 	str.w	r2, [r3, #160]	; 0xa0
801005e4:	f44f 4380 	mov.w	r3, #16384	; 0x4000
801005e8:	f2c0 230c 	movt	r3, #524	; 0x20c
801005ec:	f44f 4280 	mov.w	r2, #16384	; 0x4000
801005f0:	f2c0 220c 	movt	r2, #524	; 0x20c
801005f4:	6b92      	ldr	r2, [r2, #56]	; 0x38
801005f6:	f422 3260 	bic.w	r2, r2, #229376	; 0x38000
801005fa:	639a      	str	r2, [r3, #56]	; 0x38
801005fc:	f44f 4380 	mov.w	r3, #16384	; 0x4000
80100600:	f2c0 230c 	movt	r3, #524	; 0x20c
80100604:	f44f 4280 	mov.w	r2, #16384	; 0x4000
80100608:	f2c0 220c 	movt	r2, #524	; 0x20c
8010060c:	6b92      	ldr	r2, [r2, #56]	; 0x38
8010060e:	f442 3280 	orr.w	r2, r2, #65536	; 0x10000
80100612:	639a      	str	r2, [r3, #56]	; 0x38
80100614:	f44f 4380 	mov.w	r3, #16384	; 0x4000
80100618:	f2c0 230c 	movt	r3, #524	; 0x20c
8010061c:	f44f 4280 	mov.w	r2, #16384	; 0x4000
80100620:	f2c0 220c 	movt	r2, #524	; 0x20c
80100624:	6b92      	ldr	r2, [r2, #56]	; 0x38
80100626:	f422 42e0 	bic.w	r2, r2, #28672	; 0x7000
8010062a:	639a      	str	r2, [r3, #56]	; 0x38
8010062c:	f44f 4380 	mov.w	r3, #16384	; 0x4000
80100630:	f2c0 230c 	movt	r3, #524	; 0x20c
80100634:	f44f 4280 	mov.w	r2, #16384	; 0x4000
80100638:	f2c0 220c 	movt	r2, #524	; 0x20c
8010063c:	6b92      	ldr	r2, [r2, #56]	; 0x38
8010063e:	f442 5200 	orr.w	r2, r2, #8192	; 0x2000
80100642:	639a      	str	r2, [r3, #56]	; 0x38
80100644:	f44f 4380 	mov.w	r3, #16384	; 0x4000
80100648:	f2c0 230c 	movt	r3, #524	; 0x20c
8010064c:	f44f 4280 	mov.w	r2, #16384	; 0x4000
80100650:	f2c0 220c 	movt	r2, #524	; 0x20c
80100654:	6b92      	ldr	r2, [r2, #56]	; 0x38
80100656:	f422 6260 	bic.w	r2, r2, #3584	; 0xe00
8010065a:	639a      	str	r2, [r3, #56]	; 0x38
8010065c:	f44f 4380 	mov.w	r3, #16384	; 0x4000
80100660:	f2c0 230c 	movt	r3, #524	; 0x20c
80100664:	f44f 4280 	mov.w	r2, #16384	; 0x4000
80100668:	f2c0 220c 	movt	r2, #524	; 0x20c
8010066c:	6992      	ldr	r2, [r2, #24]
8010066e:	f022 7260 	bic.w	r2, r2, #58720256	; 0x3800000
80100672:	619a      	str	r2, [r3, #24]
80100674:	f44f 4380 	mov.w	r3, #16384	; 0x4000
80100678:	f2c0 230c 	movt	r3, #524	; 0x20c
8010067c:	f44f 4280 	mov.w	r2, #16384	; 0x4000
80100680:	f2c0 220c 	movt	r2, #524	; 0x20c
80100684:	6992      	ldr	r2, [r2, #24]
80100686:	f042 7200 	orr.w	r2, r2, #33554432	; 0x2000000
8010068a:	619a      	str	r2, [r3, #24]
8010068c:	f44f 4300 	mov.w	r3, #32768	; 0x8000
80100690:	f2c0 231c 	movt	r3, #540	; 0x21c
80100694:	f04f 4200 	mov.w	r2, #2147483648	; 0x80000000
80100698:	601a      	str	r2, [r3, #0]
8010069a:	2064      	movs	r0, #100	; 0x64
8010069c:	f7ff fe58 	bl	80100350 <delay>
801006a0:	f44f 4300 	mov.w	r3, #32768	; 0x8000
801006a4:	f2c0 231c 	movt	r3, #540	; 0x21c
801006a8:	2200      	movs	r2, #0
801006aa:	601a      	str	r2, [r3, #0]
801006ac:	687b      	ldr	r3, [r7, #4]
801006ae:	6b9b      	ldr	r3, [r3, #56]	; 0x38
801006b0:	2b08      	cmp	r3, #8
801006b2:	d007      	beq.n	801006c4 <Imx6ull_lcd_controller_init+0x11c>
801006b4:	687b      	ldr	r3, [r7, #4]
801006b6:	6b9b      	ldr	r3, [r3, #56]	; 0x38
801006b8:	2b10      	cmp	r3, #16
801006ba:	d101      	bne.n	801006c0 <Imx6ull_lcd_controller_init+0x118>
801006bc:	2300      	movs	r3, #0
801006be:	e002      	b.n	801006c6 <Imx6ull_lcd_controller_init+0x11e>
801006c0:	2303      	movs	r3, #3
801006c2:	e000      	b.n	801006c6 <Imx6ull_lcd_controller_init+0x11e>
801006c4:	2301      	movs	r3, #1
801006c6:	60fb      	str	r3, [r7, #12]
801006c8:	f44f 4200 	mov.w	r2, #32768	; 0x8000
801006cc:	f2c0 221c 	movt	r2, #540	; 0x21c
801006d0:	f44f 4300 	mov.w	r3, #32768	; 0x8000
801006d4:	f2c0 231c 	movt	r3, #540	; 0x21c
801006d8:	681b      	ldr	r3, [r3, #0]
801006da:	68f9      	ldr	r1, [r7, #12]
801006dc:	0209      	lsls	r1, r1, #8
801006de:	430b      	orrs	r3, r1
801006e0:	f443 2320 	orr.w	r3, r3, #655360	; 0xa0000
801006e4:	f443 6342 	orr.w	r3, r3, #3104	; 0xc20
801006e8:	6013      	str	r3, [r2, #0]
801006ea:	687b      	ldr	r3, [r7, #4]
801006ec:	6b9b      	ldr	r3, [r3, #56]	; 0x38
801006ee:	2b10      	cmp	r3, #16
801006f0:	d10b      	bne.n	8010070a <Imx6ull_lcd_controller_init+0x162>
801006f2:	f44f 4300 	mov.w	r3, #32768	; 0x8000
801006f6:	f2c0 231c 	movt	r3, #540	; 0x21c
801006fa:	f44f 4200 	mov.w	r2, #32768	; 0x8000
801006fe:	f2c0 221c 	movt	r2, #540	; 0x21c
80100702:	6812      	ldr	r2, [r2, #0]
80100704:	f042 0208 	orr.w	r2, r2, #8
80100708:	601a      	str	r2, [r3, #0]
8010070a:	687b      	ldr	r3, [r7, #4]
8010070c:	6b9b      	ldr	r3, [r3, #56]	; 0x38
8010070e:	2b18      	cmp	r3, #24
80100710:	d003      	beq.n	8010071a <Imx6ull_lcd_controller_init+0x172>
80100712:	687b      	ldr	r3, [r7, #4]
80100714:	6b9b      	ldr	r3, [r3, #56]	; 0x38
80100716:	2b20      	cmp	r3, #32
80100718:	d117      	bne.n	8010074a <Imx6ull_lcd_controller_init+0x1a2>
8010071a:	f44f 4300 	mov.w	r3, #32768	; 0x8000
8010071e:	f2c0 231c 	movt	r3, #540	; 0x21c
80100722:	f44f 4200 	mov.w	r2, #32768	; 0x8000
80100726:	f2c0 221c 	movt	r2, #540	; 0x21c
8010072a:	6912      	ldr	r2, [r2, #16]
8010072c:	f422 2270 	bic.w	r2, r2, #983040	; 0xf0000
80100730:	611a      	str	r2, [r3, #16]
80100732:	f44f 4300 	mov.w	r3, #32768	; 0x8000
80100736:	f2c0 231c 	movt	r3, #540	; 0x21c
8010073a:	f44f 4200 	mov.w	r2, #32768	; 0x8000
8010073e:	f2c0 221c 	movt	r2, #540	; 0x21c
80100742:	6912      	ldr	r2, [r2, #16]
80100744:	f442 22e0 	orr.w	r2, r2, #458752	; 0x70000
80100748:	611a      	str	r2, [r3, #16]
8010074a:	f44f 4300 	mov.w	r3, #32768	; 0x8000
8010074e:	f2c0 231c 	movt	r3, #540	; 0x21c
80100752:	687a      	ldr	r2, [r7, #4]
80100754:	6b52      	ldr	r2, [r2, #52]	; 0x34
80100756:	0411      	lsls	r1, r2, #16
80100758:	687a      	ldr	r2, [r7, #4]
8010075a:	6b12      	ldr	r2, [r2, #48]	; 0x30
8010075c:	430a      	orrs	r2, r1
8010075e:	631a      	str	r2, [r3, #48]	; 0x30
80100760:	f44f 4300 	mov.w	r3, #32768	; 0x8000
80100764:	f2c0 231c 	movt	r3, #540	; 0x21c
80100768:	687a      	ldr	r2, [r7, #4]
8010076a:	6912      	ldr	r2, [r2, #16]
8010076c:	06d2      	lsls	r2, r2, #27
8010076e:	f042 5180 	orr.w	r1, r2, #268435456	; 0x10000000
80100772:	687a      	ldr	r2, [r7, #4]
80100774:	68d2      	ldr	r2, [r2, #12]
80100776:	0692      	lsls	r2, r2, #26
80100778:	4311      	orrs	r1, r2
8010077a:	687a      	ldr	r2, [r7, #4]
8010077c:	6892      	ldr	r2, [r2, #8]
8010077e:	0652      	lsls	r2, r2, #25
80100780:	4311      	orrs	r1, r2
80100782:	687a      	ldr	r2, [r7, #4]
80100784:	6852      	ldr	r2, [r2, #4]
80100786:	0612      	lsls	r2, r2, #24
80100788:	430a      	orrs	r2, r1
8010078a:	f442 1140 	orr.w	r1, r2, #3145728	; 0x300000
8010078e:	687a      	ldr	r2, [r7, #4]
80100790:	6952      	ldr	r2, [r2, #20]
80100792:	430a      	orrs	r2, r1
80100794:	671a      	str	r2, [r3, #112]	; 0x70
80100796:	f44f 4300 	mov.w	r3, #32768	; 0x8000
8010079a:	f2c0 231c 	movt	r3, #540	; 0x21c
8010079e:	687a      	ldr	r2, [r7, #4]
801007a0:	6991      	ldr	r1, [r2, #24]
801007a2:	687a      	ldr	r2, [r7, #4]
801007a4:	6952      	ldr	r2, [r2, #20]
801007a6:	4411      	add	r1, r2
801007a8:	687a      	ldr	r2, [r7, #4]
801007aa:	6b52      	ldr	r2, [r2, #52]	; 0x34
801007ac:	4411      	add	r1, r2
801007ae:	687a      	ldr	r2, [r7, #4]
801007b0:	69d2      	ldr	r2, [r2, #28]
801007b2:	440a      	add	r2, r1
801007b4:	f8c3 2080 	str.w	r2, [r3, #128]	; 0x80
801007b8:	f44f 4300 	mov.w	r3, #32768	; 0x8000
801007bc:	f2c0 231c 	movt	r3, #540	; 0x21c
801007c0:	687a      	ldr	r2, [r7, #4]
801007c2:	6a12      	ldr	r2, [r2, #32]
801007c4:	0491      	lsls	r1, r2, #18
801007c6:	687a      	ldr	r2, [r7, #4]
801007c8:	6a50      	ldr	r0, [r2, #36]	; 0x24
801007ca:	687a      	ldr	r2, [r7, #4]
801007cc:	6a12      	ldr	r2, [r2, #32]
801007ce:	4410      	add	r0, r2
801007d0:	687a      	ldr	r2, [r7, #4]
801007d2:	6b12      	ldr	r2, [r2, #48]	; 0x30
801007d4:	4410      	add	r0, r2
801007d6:	687a      	ldr	r2, [r7, #4]
801007d8:	6a92      	ldr	r2, [r2, #40]	; 0x28
801007da:	4402      	add	r2, r0
801007dc:	430a      	orrs	r2, r1
801007de:	f8c3 2090 	str.w	r2, [r3, #144]	; 0x90
801007e2:	f44f 4300 	mov.w	r3, #32768	; 0x8000
801007e6:	f2c0 231c 	movt	r3, #540	; 0x21c
801007ea:	687a      	ldr	r2, [r7, #4]
801007ec:	6a51      	ldr	r1, [r2, #36]	; 0x24
801007ee:	687a      	ldr	r2, [r7, #4]
801007f0:	6a12      	ldr	r2, [r2, #32]
801007f2:	440a      	add	r2, r1
801007f4:	0411      	lsls	r1, r2, #16
801007f6:	687a      	ldr	r2, [r7, #4]
801007f8:	6990      	ldr	r0, [r2, #24]
801007fa:	687a      	ldr	r2, [r7, #4]
801007fc:	6952      	ldr	r2, [r2, #20]
801007fe:	4402      	add	r2, r0
80100800:	430a      	orrs	r2, r1
80100802:	f8c3 20a0 	str.w	r2, [r3, #160]	; 0xa0
80100806:	f44f 4300 	mov.w	r3, #32768	; 0x8000
8010080a:	f2c0 231c 	movt	r3, #540	; 0x21c
8010080e:	687a      	ldr	r2, [r7, #4]
80100810:	6b12      	ldr	r2, [r2, #48]	; 0x30
80100812:	f442 2280 	orr.w	r2, r2, #262144	; 0x40000
80100816:	f8c3 20b0 	str.w	r2, [r3, #176]	; 0xb0
8010081a:	f44f 4300 	mov.w	r3, #32768	; 0x8000
8010081e:	f2c0 231c 	movt	r3, #540	; 0x21c
80100822:	687a      	ldr	r2, [r7, #4]
80100824:	6bd2      	ldr	r2, [r2, #60]	; 0x3c
80100826:	641a      	str	r2, [r3, #64]	; 0x40
80100828:	f44f 4300 	mov.w	r3, #32768	; 0x8000
8010082c:	f2c0 231c 	movt	r3, #540	; 0x21c
80100830:	687a      	ldr	r2, [r7, #4]
80100832:	6bd2      	ldr	r2, [r2, #60]	; 0x3c
80100834:	651a      	str	r2, [r3, #80]	; 0x50
80100836:	bf00      	nop
80100838:	3710      	adds	r7, #16
8010083a:	46bd      	mov	sp, r7
8010083c:	bd80      	pop	{r7, pc}

8010083e <Imx6ull_lcd_controller_enable>:
8010083e:	b480      	push	{r7}
80100840:	af00      	add	r7, sp, #0
80100842:	f44f 4300 	mov.w	r3, #32768	; 0x8000
80100846:	f2c0 231c 	movt	r3, #540	; 0x21c
8010084a:	f44f 4200 	mov.w	r2, #32768	; 0x8000
8010084e:	f2c0 221c 	movt	r2, #540	; 0x21c
80100852:	6812      	ldr	r2, [r2, #0]
80100854:	f042 0201 	orr.w	r2, r2, #1
80100858:	601a      	str	r2, [r3, #0]
8010085a:	bf00      	nop
8010085c:	46bd      	mov	sp, r7
8010085e:	f85d 7b04 	ldr.w	r7, [sp], #4
80100862:	4770      	bx	lr

80100864 <Imx6ull_lcd_controller_disable>:
80100864:	b480      	push	{r7}
80100866:	af00      	add	r7, sp, #0
80100868:	f44f 4300 	mov.w	r3, #32768	; 0x8000
8010086c:	f2c0 231c 	movt	r3, #540	; 0x21c
80100870:	f44f 4200 	mov.w	r2, #32768	; 0x8000
80100874:	f2c0 221c 	movt	r2, #540	; 0x21c
80100878:	6812      	ldr	r2, [r2, #0]
8010087a:	f022 0201 	bic.w	r2, r2, #1
8010087e:	601a      	str	r2, [r3, #0]
80100880:	bf00      	nop
80100882:	46bd      	mov	sp, r7
80100884:	f85d 7b04 	ldr.w	r7, [sp], #4
80100888:	4770      	bx	lr

8010088a <Imx6ull_lcd_controller_add>:
8010088a:	b580      	push	{r7, lr}
8010088c:	af00      	add	r7, sp, #0
8010088e:	f640 100c 	movw	r0, #2316	; 0x90c
80100892:	f2c8 0010 	movt	r0, #32784	; 0x8010
80100896:	f7ff fcb5 	bl	80100204 <register_lcd_controller>
8010089a:	bf00      	nop
8010089c:	bd80      	pop	{r7, pc}

Disassembly of section .rodata:

801008a0 <.LC0>:
801008a0:	36786d49 	ldrbtcc	r6, [r8], -r9, asr #26
801008a4:	006c6c75 	rsbeq	r6, ip, r5, ror ip

801008a8 <.LC1>:
801008a8:	5f64636c 	svcpl	0x0064636c
801008ac:	00302e37 	eorseq	r2, r0, r7, lsr lr
801008b0:	5f64636c 	svcpl	0x0064636c
801008b4:	00302e37 	eorseq	r2, r0, r7, lsr lr
801008b8:	36786d49 	ldrbtcc	r6, [r8], -r9, asr #26
801008bc:	006c6c75 	rsbeq	r6, ip, r5, ror ip

Disassembly of section .data:

801008c0 <lcd_7_0_params>:
801008c0:	801008b0 			; <UNDEFINED> instruction: 0x801008b0
801008c4:	00000001 	andeq	r0, r0, r1
801008c8:	00000001 	andeq	r0, r0, r1
	...
801008d4:	00000003 	andeq	r0, r0, r3
801008d8:	00000014 	andeq	r0, r0, r4, lsl r0
801008dc:	0000000c 	andeq	r0, r0, ip
801008e0:	00000014 	andeq	r0, r0, r4, lsl r0
801008e4:	0000008c 	andeq	r0, r0, ip, lsl #1
801008e8:	000000a0 	andeq	r0, r0, r0, lsr #1
801008ec:	00000033 	andeq	r0, r0, r3, lsr r0
801008f0:	00000400 	andeq	r0, r0, r0, lsl #8
801008f4:	00000258 	andeq	r0, r0, r8, asr r2
801008f8:	00000010 	andeq	r0, r0, r0, lsl r0
801008fc:	99000000 	stmdbls	r0, {}	; <UNPREDICTABLE>

80100900 <GPIO1_IO08_PAD>:
80100900:	020e0308 	andeq	r0, lr, #8, 6	; 0x20000000

80100904 <GPIO1_GDIR>:
80100904:	0209c000 	andeq	ip, r9, #0

80100908 <GPIO1_DR>:
80100908:	0209c004 	andeq	ip, r9, #4

8010090c <Imx6ull_lcd_controller>:
8010090c:	801008b8 			; <UNDEFINED> instruction: 0x801008b8
80100910:	801005a9 	andshi	r0, r0, r9, lsr #11
80100914:	8010083f 	andshi	r0, r0, pc, lsr r8
80100918:	80100865 	andshi	r0, r0, r5, ror #16

Disassembly of section .bss:

8010091c <__bss_start>:
	...

80100944 <g_p_lcd_controller_selected>:
80100944:	00000000 	andeq	r0, r0, r0

80100948 <p_array_lcd>:
	...

8010095c <g_p_lcd_selected>:
8010095c:	00000000 	andeq	r0, r0, r0

Disassembly of section .ARM.attributes:

00000000 <.ARM.attributes>:
   0:	00002e41 	andeq	r2, r0, r1, asr #28
   4:	61656100 	cmnvs	r5, r0, lsl #2
   8:	01006962 	tsteq	r0, r2, ror #18
   c:	00000024 	andeq	r0, r0, r4, lsr #32
  10:	412d3705 			; <UNDEFINED> instruction: 0x412d3705
  14:	070a0600 	streq	r0, [sl, -r0, lsl #12]
  18:	09010841 	stmdbeq	r1, {r0, r6, fp}
  1c:	12040a02 	andne	r0, r4, #8192	; 0x2000
  20:	15011404 	strne	r1, [r1, #-1028]	; 0xfffffbfc
  24:	18031701 	stmdane	r3, {r0, r8, r9, sl, ip}
  28:	1c021a01 			; <UNDEFINED> instruction: 0x1c021a01
  2c:	Address 0x000000000000002c is out of bounds.


Disassembly of section .comment:

00000000 <.comment>:
   0:	3a434347 	bcc	10d0d24 <_start-0x7f02f2dc>
   4:	694c2820 	stmdbvs	ip, {r5, fp, sp}^
   8:	6f72616e 	svcvs	0x0072616e
   c:	43434720 	movtmi	r4, #14112	; 0x3720
  10:	322e3620 	eorcc	r3, lr, #32, 12	; 0x2000000
  14:	3130322d 	teqcc	r0, sp, lsr #4
  18:	31312e36 	teqcc	r1, r6, lsr lr
  1c:	2e362029 	cdpcs	0, 3, cr2, cr6, cr9, {1}
  20:	20312e32 	eorscs	r2, r1, r2, lsr lr
  24:	36313032 			; <UNDEFINED> instruction: 0x36313032
  28:	36313031 			; <UNDEFINED> instruction: 0x36313031
	...

Disassembly of section .debug_line:

00000000 <.debug_line>:
   0:	00000043 	andeq	r0, r0, r3, asr #32
   4:	001e0002 	andseq	r0, lr, r2
   8:	01020000 	mrseq	r0, (UNDEF: 2)
   c:	000d0efb 	strdeq	r0, [sp], -fp
  10:	01010101 	tsteq	r1, r1, lsl #2
  14:	01000000 	mrseq	r0, (UNDEF: 0)
  18:	00010000 	andeq	r0, r1, r0
  1c:	72617473 	rsbvc	r7, r1, #1929379840	; 0x73000000
  20:	00532e74 	subseq	r2, r3, r4, ror lr
  24:	00000000 	andeq	r0, r0, r0
  28:	00020500 	andeq	r0, r2, r0, lsl #10
  2c:	18801000 	stmne	r0, {ip}
  30:	32313030 	eorscc	r3, r1, #48	; 0x30
  34:	2f302f2f 	svccs	0x00302f2f
  38:	03302f2f 	teqeq	r0, #47, 30	; 0xbc
  3c:	0b032e6c 	bleq	cb9f4 <_start-0x8003460c>
  40:	02022f2e 	andeq	r2, r2, #46, 30	; 0xb8
  44:	fe010100 	cdp2	1, 0, cr0, cr1, cr0, {0}
  48:	02000000 	andeq	r0, r0, #0
  4c:	00001d00 	andeq	r1, r0, r0, lsl #26
  50:	fb010200 	blx	4085a <_start-0x800bf7a6>
  54:	01000d0e 	tsteq	r0, lr, lsl #26
  58:	00010101 	andeq	r0, r1, r1, lsl #2
  5c:	00010000 	andeq	r0, r1, r0
  60:	6d000100 	stfvss	f0, [r0, #-0]
  64:	2e6e6961 	vnmulcs.f16	s13, s28, s3	; <UNPREDICTABLE>
  68:	00000063 	andeq	r0, r0, r3, rrx
  6c:	05000000 	streq	r0, [r0, #-0]
  70:	10003c02 	andne	r3, r0, r2, lsl #24
  74:	31441580 	smlalbbcc	r1, r4, r0, r5
  78:	3d2f4285 	sfmcc	f4, 4, [pc, #-532]!	; fffffe6c <__bss_end+0x7feff50c>
  7c:	03040200 	movweq	r0, #16896	; 0x4200
  80:	0402003d 	streq	r0, [r2], #-61	; 0xffffffc3
  84:	02006503 	andeq	r6, r0, #12582912	; 0xc00000
  88:	3c060104 	stfccs	f0, [r6], {4}
  8c:	02040200 	andeq	r0, r4, #0, 4
  90:	02004906 	andeq	r4, r0, #98304	; 0x18000
  94:	3c060104 	stfccs	f0, [r6], {4}
  98:	3d2f4f06 	stccc	15, cr4, [pc, #-24]!	; 88 <_start-0x800fff78>
  9c:	03040200 	movweq	r0, #16896	; 0x4200
  a0:	0402003d 	streq	r0, [r2], #-61	; 0xffffffc3
  a4:	02006503 	andeq	r6, r0, #12582912	; 0xc00000
  a8:	3c060104 	stfccs	f0, [r6], {4}
  ac:	02040200 	andeq	r0, r4, #0, 4
  b0:	02004906 	andeq	r4, r0, #98304	; 0x18000
  b4:	3c060104 	stfccs	f0, [r6], {4}
  b8:	3d2f4f06 	stccc	15, cr4, [pc, #-24]!	; a8 <_start-0x800fff58>
  bc:	03040200 	movweq	r0, #16896	; 0x4200
  c0:	0402003d 	streq	r0, [r2], #-61	; 0xffffffc3
  c4:	02005703 	andeq	r5, r0, #786432	; 0xc0000
  c8:	3c060104 	stfccs	f0, [r6], {4}
  cc:	02040200 	andeq	r0, r4, #0, 4
  d0:	02004906 	andeq	r4, r0, #98304	; 0x18000
  d4:	3c060104 	stfccs	f0, [r6], {4}
  d8:	4a1d0306 	bmi	740cf8 <_start-0x7f9bf308>
  dc:	42206803 	eormi	r6, r0, #196608	; 0x30000
  e0:	02003d2f 	andeq	r3, r0, #3008	; 0xbc0
  e4:	003d0304 	eorseq	r0, sp, r4, lsl #6
  e8:	65030402 	strvs	r0, [r3, #-1026]	; 0xfffffbfe
  ec:	01040200 	mrseq	r0, R12_usr
  f0:	02003c06 	andeq	r3, r0, #1536	; 0x600
  f4:	49060204 	stmdbmi	r6, {r2, r9}
  f8:	01040200 	mrseq	r0, R12_usr
  fc:	4f063c06 	svcmi	0x00063c06
 100:	02003d2f 	andeq	r3, r0, #3008	; 0xbc0
 104:	003d0304 	eorseq	r0, sp, r4, lsl #6
 108:	65030402 	strvs	r0, [r3, #-1026]	; 0xfffffbfe
 10c:	01040200 	mrseq	r0, R12_usr
 110:	02003c06 	andeq	r3, r0, #1536	; 0x600
 114:	49060204 	stmdbmi	r6, {r2, r9}
 118:	01040200 	mrseq	r0, R12_usr
 11c:	4f063c06 	svcmi	0x00063c06
 120:	02003d2f 	andeq	r3, r0, #3008	; 0xbc0
 124:	003d0304 	eorseq	r0, sp, r4, lsl #6
 128:	57030402 	strpl	r0, [r3, -r2, lsl #8]
 12c:	01040200 	mrseq	r0, R12_usr
 130:	02003c06 	andeq	r3, r0, #1536	; 0x600
 134:	49060204 	stmdbmi	r6, {r2, r9}
 138:	01040200 	mrseq	r0, R12_usr
 13c:	4f063c06 	svcmi	0x00063c06
 140:	3e31304f 	cdpcc	0, 3, cr3, cr1, cr15, {2}
 144:	01000202 	tsteq	r0, r2, lsl #4
 148:	0000c601 	andeq	ip, r0, r1, lsl #12
 14c:	5c000200 	sfmpl	f0, 4, [r0], {-0}
 150:	02000000 	andeq	r0, r0, #0
 154:	0d0efb01 	vstreq	d15, [lr, #-4]
 158:	01010100 	mrseq	r0, (UNDEF: 17)
 15c:	00000001 	andeq	r0, r0, r1
 160:	01000001 	tsteq	r0, r1
 164:	64636c00 	strbtvs	r6, [r3], #-3072	; 0xfffff400
 168:	6e6f635f 	mcrvs	3, 3, r6, cr15, cr15, {2}
 16c:	6c6f7274 	sfmvs	f7, 2, [pc], #-464	; ffffffa4 <__bss_end+0x7feff644>
 170:	5f72656c 	svcpl	0x0072656c
 174:	616e616d 	cmnvs	lr, sp, ror #2
 178:	2e726567 	cdpcs	5, 7, cr6, cr2, cr7, {3}
 17c:	00000063 	andeq	r0, r0, r3, rrx
 180:	64636c00 	strbtvs	r6, [r3], #-3072	; 0xfffff400
 184:	6e616d5f 	mcrvs	13, 3, r6, cr1, cr15, {2}
 188:	72656761 	rsbvc	r6, r5, #25427968	; 0x1840000
 18c:	0000682e 	andeq	r6, r0, lr, lsr #16
 190:	636c0000 	cmnvs	ip, #0
 194:	6f635f64 	svcvs	0x00635f64
 198:	6f72746e 	svcvs	0x0072746e
 19c:	72656c6c 	rsbvc	r6, r5, #108, 24	; 0x6c00
 1a0:	6e616d5f 	mcrvs	13, 3, r6, cr1, cr15, {2}
 1a4:	72656761 	rsbvc	r6, r5, #25427968	; 0x1840000
 1a8:	0000682e 	andeq	r6, r0, lr, lsr #16
 1ac:	00000000 	andeq	r0, r0, r0
 1b0:	01ca0205 	biceq	r0, sl, r5, lsl #4
 1b4:	14038010 	strne	r8, [r3], #-16
 1b8:	02005c01 	andeq	r5, r0, #256	; 0x100
 1bc:	ac060104 	stfges	f0, [r6], {4}
 1c0:	21240666 			; <UNDEFINED> instruction: 0x21240666
 1c4:	4c580d03 	mrrcmi	13, 0, r0, r8, cr3
 1c8:	0083923e 	addeq	r9, r3, lr, lsr r2
 1cc:	29020402 	stmdbcs	r2, {r1, sl}
 1d0:	01040200 	mrseq	r0, R12_usr
 1d4:	44063c06 	strmi	r3, [r6], #-3078	; 0xfffff3fa
 1d8:	660d032f 	strvs	r0, [sp], -pc, lsr #6
 1dc:	02003e4c 	andeq	r3, r0, #76, 28	; 0x4c0
 1e0:	90060104 	andls	r0, r6, r4, lsl #2
 1e4:	00bbe606 	adcseq	lr, fp, r6, lsl #12
 1e8:	29020402 	stmdbcs	r2, {r1, sl}
 1ec:	01040200 	mrseq	r0, R12_usr
 1f0:	44063c06 	strmi	r3, [r6], #-3078	; 0xfffff3fa
 1f4:	4a0d032f 	bmi	340eb8 <_start-0x7fdbf148>
 1f8:	3083764b 	addcc	r7, r3, fp, asr #12
 1fc:	4a0d032f 	bmi	340ec0 <_start-0x7fdbf140>
 200:	0376762f 	cmneq	r6, #49283072	; 0x2f00000
 204:	762f2e0d 	strtvc	r2, [pc], -sp, lsl #28
 208:	2e0d0376 	mcrcs	3, 0, r0, cr13, cr6, {3}
 20c:	02022f2f 	andeq	r2, r2, #47, 30	; 0xbc
 210:	9d010100 	stflss	f0, [r1, #-0]
 214:	02000000 	andeq	r0, r0, #0
 218:	00003500 	andeq	r3, r0, r0, lsl #10
 21c:	fb010200 	blx	40a26 <_start-0x800bf5da>
 220:	01000d0e 	tsteq	r0, lr, lsl #26
 224:	00010101 	andeq	r0, r1, r1, lsl #2
 228:	00010000 	andeq	r0, r1, r0
 22c:	6c000100 	stfvss	f0, [r0], {-0}
 230:	6d5f6463 	cfldrdvs	mvd6, [pc, #-396]	; ac <_start-0x800fff54>
 234:	67616e61 	strbvs	r6, [r1, -r1, ror #28]!
 238:	632e7265 			; <UNDEFINED> instruction: 0x632e7265
 23c:	00000000 	andeq	r0, r0, r0
 240:	5f64636c 	svcpl	0x0064636c
 244:	616e616d 	cmnvs	lr, sp, ror #2
 248:	2e726567 	cdpcs	5, 7, cr6, cr2, cr7, {3}
 24c:	00000068 	andeq	r0, r0, r8, rrx
 250:	05000000 	streq	r0, [r0, #-0]
 254:	10035002 	andne	r5, r3, r2
 258:	01140380 	tsteq	r4, r0, lsl #7
 25c:	0402004b 	streq	r0, [r2], #-75	; 0xffffffb5
 260:	06200601 	strteq	r0, [r0], -r1, lsl #12
 264:	660e0359 			; <UNDEFINED> instruction: 0x660e0359
 268:	83923e4c 	orrshi	r3, r2, #76, 28	; 0x4c0
 26c:	02040200 	andeq	r0, r4, #0, 4
 270:	04020029 	streq	r0, [r2], #-41	; 0xffffffd7
 274:	063c0601 	ldrteq	r0, [ip], -r1, lsl #12
 278:	4c692f44 	stclmi	15, cr2, [r9], #-272	; 0xfffffef0
 27c:	0402003e 	streq	r0, [r2], #-62	; 0xffffffc2
 280:	06900601 	ldreq	r0, [r0], r1, lsl #12
 284:	0200bbe6 	andeq	fp, r0, #235520	; 0x39800
 288:	00290204 	eoreq	r0, r9, r4, lsl #4
 28c:	06010402 	streq	r0, [r1], -r2, lsl #8
 290:	2f44063c 	svccs	0x0044063c
 294:	754a0d03 	strbvc	r0, [sl, #-3331]	; 0xfffff2fd
 298:	83838383 	orrhi	r8, r3, #201326594	; 0xc000002
 29c:	2f660e03 	svccs	0x00660e03
 2a0:	2e0d032f 	cdpcs	3, 0, cr0, cr13, cr15, {1}
 2a4:	0d032f2f 	stceq	15, cr2, [r3, #-188]	; 0xffffff44
 2a8:	3131302e 	teqcc	r1, lr, lsr #32
 2ac:	02836869 	addeq	r6, r3, #6881280	; 0x690000
 2b0:	01010002 	tsteq	r1, r2
 2b4:	00000048 	andeq	r0, r0, r8, asr #32
 2b8:	00310002 	eorseq	r0, r1, r2
 2bc:	01020000 	mrseq	r0, (UNDEF: 2)
 2c0:	000d0efb 	strdeq	r0, [sp], -fp
 2c4:	01010101 	tsteq	r1, r1, lsl #2
 2c8:	01000000 	mrseq	r0, (UNDEF: 0)
 2cc:	00010000 	andeq	r0, r1, r0
 2d0:	5f64636c 	svcpl	0x0064636c
 2d4:	2e305f37 	mrccs	15, 1, r5, cr0, cr7, {1}
 2d8:	00000063 	andeq	r0, r0, r3, rrx
 2dc:	64636c00 	strbtvs	r6, [r3], #-3072	; 0xfffff400
 2e0:	6e616d5f 	mcrvs	13, 3, r6, cr1, cr15, {2}
 2e4:	72656761 	rsbvc	r6, r5, #25427968	; 0x1840000
 2e8:	0000682e 	andeq	r6, r0, lr, lsr #16
 2ec:	00000000 	andeq	r0, r0, r0
 2f0:	04dc0205 	ldrbeq	r0, [ip], #517	; 0x205
 2f4:	2b038010 	blcs	e033c <_start-0x8001fcc4>
 2f8:	02672f01 	rsbeq	r2, r7, #1, 30
 2fc:	01010002 	tsteq	r1, r2
 300:	00000124 	andeq	r0, r0, r4, lsr #2
 304:	00620002 	rsbeq	r0, r2, r2
 308:	01020000 	mrseq	r0, (UNDEF: 2)
 30c:	000d0efb 	strdeq	r0, [sp], -fp
 310:	01010101 	tsteq	r1, r1, lsl #2
 314:	01000000 	mrseq	r0, (UNDEF: 0)
 318:	00010000 	andeq	r0, r1, r0
 31c:	36786d69 	ldrbtcc	r6, [r8], -r9, ror #26
 320:	5f6c6c75 	svcpl	0x006c6c75
 324:	2e6e6f63 	cdpcs	15, 6, cr6, cr14, cr3, {3}
 328:	00000063 	andeq	r0, r0, r3, rrx
 32c:	786d6900 	stmdavc	sp!, {r8, fp, sp, lr}^
 330:	6c6c7536 	cfstr64vs	mvdx7, [ip], #-216	; 0xffffff28
 334:	636f735f 	cmnvs	pc, #2080374785	; 0x7c000001
 338:	0000682e 	andeq	r6, r0, lr, lsr #16
 33c:	636c0000 	cmnvs	ip, #0
 340:	616d5f64 	cmnvs	sp, r4, ror #30
 344:	6567616e 	strbvs	r6, [r7, #-366]!	; 0xfffffe92
 348:	00682e72 	rsbeq	r2, r8, r2, ror lr
 34c:	6c000000 	stcvs	0, cr0, [r0], {-0}
 350:	635f6463 	cmpvs	pc, #1660944384	; 0x63000000
 354:	72746e6f 	rsbsvc	r6, r4, #1776	; 0x6f0
 358:	656c6c6f 	strbvs	r6, [ip, #-3183]!	; 0xfffff391
 35c:	616d5f72 	smcvs	54770	; 0xd5f2
 360:	6567616e 	strbvs	r6, [r7, #-366]!	; 0xfffffe92
 364:	00682e72 	rsbeq	r2, r8, r2, ror lr
 368:	00000000 	andeq	r0, r0, r0
 36c:	f0020500 			; <UNDEFINED> instruction: 0xf0020500
 370:	03801004 	orreq	r1, r0, #4
 374:	303e0109 	eorscc	r0, lr, r9, lsl #2
 378:	04020059 	streq	r0, [r2], #-89	; 0xffffffa7
 37c:	02003e03 	andeq	r3, r0, #3, 28	; 0x30
 380:	003d0304 	eorseq	r0, sp, r4, lsl #6
 384:	39030402 	stmdbcc	r3, {r1, sl}
 388:	01040200 	mrseq	r0, R12_usr
 38c:	03063c06 	movweq	r3, #27654	; 0x6c06
 390:	00593c10 	subseq	r3, r9, r0, lsl ip
 394:	3e030402 	cdpcc	4, 0, cr0, cr3, cr2, {0}
 398:	03040200 	movweq	r0, #16896	; 0x4200
 39c:	0402003d 	streq	r0, [r2], #-61	; 0xffffffc3
 3a0:	02006703 	andeq	r6, r0, #786432	; 0xc0000
 3a4:	00380304 	eorseq	r0, r8, r4, lsl #6
 3a8:	06010402 	streq	r0, [r1], -r2, lsl #8
 3ac:	0a03063c 	beq	c1ca4 <_start-0x8003e35c>
 3b0:	d9d8763c 	ldmible	r8, {r2, r3, r4, r5, r9, sl, ip, sp, lr}^
 3b4:	1b034c68 	blne	d355c <_start-0x8002caa4>
 3b8:	0d03752e 	cfstr32eq	mvfx7, [r3, #-184]	; 0xffffff48
 3bc:	9e160374 	mrcls	3, 0, r0, cr6, cr4, {3}
 3c0:	bcbbbcbb 	ldclt	12, cr11, [fp], #748	; 0x2ec
 3c4:	bbba0d03 	bllt	fee837d8 <__bss_end+0x7ed82e78>
 3c8:	033f77bd 	teqeq	pc, #49545216	; 0x2f40000
 3cc:	02006610 	andeq	r6, r0, #16, 12	; 0x1000000
 3d0:	4a060104 	bmi	1807e8 <_start-0x7ff7f818>
 3d4:	03040200 	movweq	r0, #16896	; 0x4200
 3d8:	0402004a 	streq	r0, [r2], #-74	; 0xffffffb6
 3dc:	02002e04 	andeq	r2, r0, #4, 28	; 0x40
 3e0:	002e0204 	eoreq	r0, lr, r4, lsl #4
 3e4:	20080402 	andcs	r0, r8, r2, lsl #8
 3e8:	08040200 	stmdaeq	r4, {r9}
 3ec:	02002206 	andeq	r2, r0, #1610612736	; 0x60000000
 3f0:	15080804 	strne	r0, [r8, #-2052]	; 0xfffff7fc
 3f4:	0200c14c 	andeq	ip, r0, #76, 2
 3f8:	4a060104 	bmi	180810 <_start-0x7ff7f7f0>
 3fc:	c2bb4c06 	adcsgt	r4, fp, #1536	; 0x600
 400:	91ac0e03 			; <UNDEFINED> instruction: 0x91ac0e03
 404:	544b4b4b 	strbpl	r4, [fp], #-2891	; 0xfffff4b5
 408:	03200a03 			; <UNDEFINED> instruction: 0x03200a03
 40c:	08120809 	ldmdaeq	r2, {r0, r3, fp}
 410:	03280852 			; <UNDEFINED> instruction: 0x03280852
 414:	76759e09 	ldrbtvc	r9, [r5], -r9, lsl #28
 418:	5abb2f4c 	bpl	feecc150 <__bss_end+0x7edcb7f0>
 41c:	1403bb2f 	strne	fp, [r3], #-2863	; 0xfffff4d1
 420:	02672f58 	rsbeq	r2, r7, #88, 30	; 0x160
 424:	01010002 	tsteq	r1, r2

Disassembly of section .debug_info:

00000000 <.debug_info>:
       0:	0000007f 	andeq	r0, r0, pc, ror r0
       4:	00000002 	andeq	r0, r0, r2
       8:	01040000 	mrseq	r0, (UNDEF: 4)
       c:	00000000 	andeq	r0, r0, r0
      10:	80100000 	andshi	r0, r0, r0
      14:	8010003c 	andshi	r0, r0, ip, lsr r0
      18:	72617473 	rsbvc	r7, r1, #1929379840	; 0x73000000
      1c:	00532e74 	subseq	r2, r3, r4, ror lr
      20:	6d6f682f 	stclvs	8, cr6, [pc, #-188]!	; ffffff6c <__bss_end+0x7feff60c>
      24:	6f622f65 	svcvs	0x00622f65
      28:	442f6b6f 	strtmi	r6, [pc], #-2927	; 30 <_start-0x800fffd0>
      2c:	6c6e776f 	stclvs	7, cr7, [lr], #-444	; 0xfffffe44
      30:	7364616f 	cmnvc	r4, #-1073741797	; 0xc000001b
      34:	3030312f 	eorscc	r3, r0, pc, lsr #2
      38:	5f6b7361 	svcpl	0x006b7361
      3c:	36786d69 	ldrbtcc	r6, [r8], -r9, ror #26
      40:	5f6c6c75 	svcpl	0x006c6c75
      44:	736f6f4e 	cmnvc	pc, #312	; 0x138
      48:	676f7250 			; <UNDEFINED> instruction: 0x676f7250
      4c:	506d6172 	rsbpl	r6, sp, r2, ror r1
      50:	656a6f72 	strbvs	r6, [sl, #-3954]!	; 0xfffff08e
      54:	312f7463 			; <UNDEFINED> instruction: 0x312f7463
      58:	434c5f35 	movtmi	r5, #53045	; 0xcf35
      5c:	96bce744 	ldrtls	lr, [ip], r4, asr #14
      60:	2f8ba8e7 	svccs	0x008ba8e7
      64:	735f3130 	cmpvc	pc, #48, 2
      68:	6c706d69 	ldclvs	13, cr6, [r0], #-420	; 0xfffffe5c
      6c:	65745f65 	ldrbvs	r5, [r4, #-3941]!	; 0xfffff09b
      70:	47007473 	smlsdxmi	r0, r3, r4, r7
      74:	4120554e 			; <UNDEFINED> instruction: 0x4120554e
      78:	2e322053 	mrccs	0, 1, r2, cr2, cr3, {2}
      7c:	302e3732 	eorcc	r3, lr, r2, lsr r7
      80:	de800100 	rmfles	f0, f0, f0
      84:	04000000 	streq	r0, [r0], #-0
      88:	00001400 	andeq	r1, r0, r0, lsl #8
      8c:	00010400 	andeq	r0, r1, r0, lsl #8
      90:	0c000000 	stceq	0, cr0, [r0], {-0}
      94:	00000075 	andeq	r0, r0, r5, ror r0
      98:	0000007c 	andeq	r0, r0, ip, ror r0
      9c:	8010003c 	andshi	r0, r0, ip, lsr r0
      a0:	0000018e 	andeq	r0, r0, lr, lsl #3
      a4:	00000047 	andeq	r0, r0, r7, asr #32
      a8:	eb070402 	bl	1c10b8 <_start-0x7ff3ef48>
      ac:	03000000 	movweq	r0, #0
      b0:	6e690504 	cdpvs	5, 6, cr0, cr9, cr4, {0}
      b4:	01020074 	tsteq	r2, r4, ror r0
      b8:	000e3708 	andeq	r3, lr, r8, lsl #14
      bc:	00fd0400 	rscseq	r0, sp, r0, lsl #8
      c0:	46010000 	strmi	r0, [r1], -r0
      c4:	0000002c 	andeq	r0, r0, ip, lsr #32
      c8:	801001b8 			; <UNDEFINED> instruction: 0x801001b8
      cc:	00000012 	andeq	r0, r0, r2, lsl r0
      d0:	d4059c01 	strle	r9, [r5], #-3073	; 0xfffff3ff
      d4:	01000000 	mrseq	r0, (UNDEF: 0)
      d8:	10003c03 	andne	r3, r0, r3, lsl #24
      dc:	00017c80 	andeq	r7, r1, r0, lsl #25
      e0:	ce9c0100 	fmlgte	f0, f4, f0
      e4:	06000000 	streq	r0, [r0], -r0
      e8:	000000dd 	ldrdeq	r0, [r0], -sp
      ec:	00250501 	eoreq	r0, r5, r1, lsl #10
      f0:	91020000 	mrsls	r0, (UNDEF: 2)
      f4:	00cf0664 	sbceq	r0, pc, r4, ror #12
      f8:	06010000 	streq	r0, [r1], -r0
      fc:	0000002c 	andeq	r0, r0, ip, lsr #32
     100:	06609102 	strbteq	r9, [r0], -r2, lsl #2
     104:	000000f8 	strdeq	r0, [r0], -r8
     108:	002c0601 	eoreq	r0, ip, r1, lsl #12
     10c:	91020000 	mrsls	r0, (UNDEF: 2)
     110:	7062075c 	rsbvc	r0, r2, ip, asr r7
     114:	06010070 			; <UNDEFINED> instruction: 0x06010070
     118:	0000002c 	andeq	r0, r0, ip, lsr #32
     11c:	07589102 	ldrbeq	r9, [r8, -r2, lsl #2]
     120:	07010078 	smlsdxeq	r1, r8, r0, r0
     124:	0000002c 	andeq	r0, r0, ip, lsr #32
     128:	07749102 	ldrbeq	r9, [r4, -r2, lsl #2]!
     12c:	07010079 	smlsdxeq	r1, r9, r0, r0
     130:	0000002c 	andeq	r0, r0, ip, lsr #32
     134:	07709102 	ldrbeq	r9, [r0, -r2, lsl #2]!
     138:	08010070 	stmdaeq	r1, {r4, r5, r6}
     13c:	000000ce 	andeq	r0, r0, lr, asr #1
     140:	076c9102 	strbeq	r9, [ip, -r2, lsl #2]!
     144:	01003270 	tsteq	r0, r0, ror r2
     148:	0000db09 	andeq	sp, r0, r9, lsl #22
     14c:	68910200 	ldmvs	r1, {r9}
     150:	d4040800 	strle	r0, [r4], #-2048	; 0xfffff800
     154:	02000000 	andeq	r0, r0, #0
     158:	00e50702 	rsceq	r0, r5, r2, lsl #14
     15c:	04080000 	streq	r0, [r8], #-0
     160:	00000025 	andeq	r0, r0, r5, lsr #32
     164:	00031700 	andeq	r1, r3, r0, lsl #14
     168:	99000400 	stmdbls	r0, {sl}
     16c:	04000000 	streq	r0, [r0], #-0
     170:	00000001 	andeq	r0, r0, r1
     174:	014f0c00 	cmpeq	pc, r0, lsl #24
     178:	007c0000 	rsbseq	r0, ip, r0
     17c:	01ca0000 	biceq	r0, sl, r0
     180:	01868010 	orreq	r8, r6, r0, lsl r0
     184:	01490000 	mrseq	r0, (UNDEF: 73)
     188:	04020000 	streq	r0, [r2], #-0
     18c:	0000eb07 	andeq	lr, r0, r7, lsl #22
     190:	01300300 	teqeq	r0, r0, lsl #6
     194:	02100000 	andseq	r0, r0, #0
     198:	0000680c 	andeq	r6, r0, ip, lsl #16
     19c:	65640400 	strbvs	r0, [r4, #-1024]!	; 0xfffffc00
     1a0:	680d0200 	stmdavs	sp, {r9}
     1a4:	00000000 	andeq	r0, r0, r0
     1a8:	0001a205 	andeq	sl, r1, r5, lsl #4
     1ac:	680e0200 	stmdavs	lr, {r9}
     1b0:	04000000 	streq	r0, [r0], #-0
     1b4:	00018405 	andeq	r8, r1, r5, lsl #8
     1b8:	680f0200 	stmdavs	pc, {r9}	; <UNPREDICTABLE>
     1bc:	08000000 	stmdaeq	r0, {}	; <UNPREDICTABLE>
     1c0:	0001f105 	andeq	pc, r1, r5, lsl #2
     1c4:	68100200 	ldmdavs	r0, {r9}
     1c8:	0c000000 	stceq	0, cr0, [r0], {-0}
     1cc:	05040600 	streq	r0, [r4, #-1536]	; 0xfffffa00
     1d0:	00746e69 	rsbseq	r6, r4, r9, ror #28
     1d4:	00013007 	andeq	r3, r1, r7
     1d8:	2c110200 	lfmcs	f0, 4, [r1], {-0}
     1dc:	03000000 	movweq	r0, #0
     1e0:	00000205 	andeq	r0, r0, r5, lsl #4
     1e4:	db13021c 	blle	4c0a5c <_start-0x7fc3f5a4>
     1e8:	04000000 	streq	r0, [r0], #-0
     1ec:	00707674 	rsbseq	r7, r0, r4, ror r6
     1f0:	00681502 	rsbeq	r1, r8, r2, lsl #10
     1f4:	04000000 	streq	r0, [r0], #-0
     1f8:	00627674 	rsbeq	r7, r2, r4, ror r6
     1fc:	00681602 	rsbeq	r1, r8, r2, lsl #12
     200:	04040000 	streq	r0, [r4], #-0
     204:	00667674 	rsbeq	r7, r6, r4, ror r6
     208:	00681702 	rsbeq	r1, r8, r2, lsl #14
     20c:	04080000 	streq	r0, [r8], #-0
     210:	00706874 	rsbseq	r6, r0, r4, ror r8
     214:	00681a02 	rsbeq	r1, r8, r2, lsl #20
     218:	040c0000 	streq	r0, [ip], #-0
     21c:	00626874 	rsbeq	r6, r2, r4, ror r8
     220:	00681b02 	rsbeq	r1, r8, r2, lsl #22
     224:	04100000 	ldreq	r0, [r0], #-0
     228:	00666874 	rsbeq	r6, r6, r4, ror r8
     22c:	00681c02 	rsbeq	r1, r8, r2, lsl #24
     230:	05140000 	ldreq	r0, [r4, #-0]
     234:	000001a2 	andeq	r0, r0, r2, lsr #3
     238:	00681e02 	rsbeq	r1, r8, r2, lsl #28
     23c:	00180000 	andseq	r0, r8, r0
     240:	00020507 	andeq	r0, r2, r7, lsl #10
     244:	7a1f0200 	bvc	7c0a4c <_start-0x7f93f5b4>
     248:	03000000 	movweq	r0, #0
     24c:	000001a9 	andeq	r0, r0, r9, lsr #3
     250:	47220240 	strmi	r0, [r2, -r0, asr #4]!
     254:	05000001 	streq	r0, [r0, #-1]
     258:	000001f7 	strdeq	r0, [r0], -r7
     25c:	01472402 	cmpeq	r7, r2, lsl #8
     260:	05000000 	streq	r0, [r0, #-0]
     264:	000001fc 	strdeq	r0, [r0], -ip
     268:	006f2702 	rsbeq	r2, pc, r2, lsl #14
     26c:	05040000 	streq	r0, [r4, #-0]
     270:	0000013e 	andeq	r0, r0, lr, lsr r1
     274:	00db2a02 	sbcseq	r2, fp, r2, lsl #20
     278:	05140000 	ldreq	r0, [r4, #-0]
     27c:	000000cf 	andeq	r0, r0, pc, asr #1
     280:	00682d02 	rsbeq	r2, r8, r2, lsl #26
     284:	05300000 	ldreq	r0, [r0, #-0]!
     288:	000000f8 	strdeq	r0, [r0], -r8
     28c:	00682e02 	rsbeq	r2, r8, r2, lsl #28
     290:	04340000 	ldrteq	r0, [r4], #-0
     294:	00707062 	rsbseq	r7, r0, r2, rrx
     298:	00682f02 	rsbeq	r2, r8, r2, lsl #30
     29c:	05380000 	ldreq	r0, [r8, #-0]!
     2a0:	000000dd 	ldrdeq	r0, [r0], -sp
     2a4:	00253202 	eoreq	r3, r5, r2, lsl #4
     2a8:	003c0000 	eorseq	r0, ip, r0
     2ac:	014d0408 	cmpeq	sp, r8, lsl #8
     2b0:	01020000 	mrseq	r0, (UNDEF: 2)
     2b4:	000e3708 	andeq	r3, lr, r8, lsl #14
     2b8:	014d0900 	cmpeq	sp, r0, lsl #18
     2bc:	a7070000 	strge	r0, [r7, -r0]
     2c0:	02000001 	andeq	r0, r0, #1
     2c4:	00016434 	andeq	r6, r1, r4, lsr r4
     2c8:	e6040800 	str	r0, [r4], -r0, lsl #16
     2cc:	03000000 	movweq	r0, #0
     2d0:	000003ca 	andeq	r0, r0, sl, asr #7
     2d4:	a7070310 	smladge	r7, r0, r3, r0
     2d8:	05000001 	streq	r0, [r0, #-1]
     2dc:	000001f7 	strdeq	r0, [r0], -r7
     2e0:	01470803 	cmpeq	r7, r3, lsl #16
     2e4:	05000000 	streq	r0, [r0, #-0]
     2e8:	00000231 	andeq	r0, r0, r1, lsr r2
     2ec:	01b20903 			; <UNDEFINED> instruction: 0x01b20903
     2f0:	05040000 	streq	r0, [r4, #-0]
     2f4:	00000252 	andeq	r0, r0, r2, asr r2
     2f8:	01b90a03 			; <UNDEFINED> instruction: 0x01b90a03
     2fc:	05080000 	streq	r0, [r8, #-0]
     300:	0000023a 	andeq	r0, r0, sl, lsr r2
     304:	01b90b03 			; <UNDEFINED> instruction: 0x01b90b03
     308:	000c0000 	andeq	r0, ip, r0
     30c:	0001b20a 	andeq	fp, r1, sl, lsl #4
     310:	01590b00 	cmpeq	r9, r0, lsl #22
     314:	08000000 	stmdaeq	r0, {}	; <UNPREDICTABLE>
     318:	0001a704 	andeq	sl, r1, r4, lsl #14
     31c:	04080c00 	streq	r0, [r8], #-3072	; 0xfffff400
     320:	000001b8 			; <UNDEFINED> instruction: 0x000001b8
     324:	00010207 	andeq	r0, r1, r7, lsl #4
     328:	ca0c0300 	bgt	300f30 <_start-0x7fdff0d0>
     32c:	08000001 	stmdaeq	r0, {r0}
     330:	00016a04 	andeq	r6, r1, r4, lsl #20
     334:	01bf0d00 			; <UNDEFINED> instruction: 0x01bf0d00
     338:	01e00000 	mvneq	r0, r0
     33c:	e00e0000 	and	r0, lr, r0
     340:	09000001 	stmdbeq	r0, {r0}
     344:	07040200 	streq	r0, [r4, -r0, lsl #4]
     348:	000001d2 	ldrdeq	r0, [r0], -r2
     34c:	0001b40f 	andeq	fp, r1, pc, lsl #8
     350:	d0070100 	andle	r0, r7, r0, lsl #2
     354:	05000001 	streq	r0, [r0, #-1]
     358:	10091c03 	andne	r1, r9, r3, lsl #24
     35c:	01680f80 	smulbbeq	r8, r0, pc	; <UNPREDICTABLE>
     360:	08010000 	stmdaeq	r1, {}	; <UNPREDICTABLE>
     364:	000001bf 			; <UNDEFINED> instruction: 0x000001bf
     368:	09440305 	stmdbeq	r4, {r0, r2, r8, r9}^
     36c:	13108010 	tstne	r0, #16
     370:	01000001 	tsteq	r0, r1
     374:	10034492 	mulne	r3, r2, r4
     378:	00000c80 	andeq	r0, r0, r0, lsl #25
     37c:	109c0100 	addsne	r0, ip, r0, lsl #2
     380:	000009c4 	andeq	r0, r0, r4, asr #19
     384:	03208001 			; <UNDEFINED> instruction: 0x03208001
     388:	00248010 	eoreq	r8, r4, r0, lsl r0
     38c:	9c010000 	stcls	0, cr0, [r1], {-0}
     390:	000a0610 	andeq	r0, sl, r0, lsl r6
     394:	fc6e0100 	stc2l	1, cr0, [lr], #-0
     398:	24801002 	strcs	r1, [r0], #2
     39c:	01000000 	mrseq	r0, (UNDEF: 0)
     3a0:	0fd0119c 	svceq	0x00d0119c
     3a4:	5a010000 	bpl	403ac <_start-0x800bfc54>
     3a8:	00000068 	andeq	r0, r0, r8, rrx
     3ac:	801002c6 	andshi	r0, r0, r6, asr #5
     3b0:	00000036 	andeq	r0, r0, r6, lsr r0
     3b4:	02649c01 	rsbeq	r9, r4, #256	; 0x100
     3b8:	25120000 	ldrcs	r0, [r2, #-0]
     3bc:	01000001 	tsteq	r0, r1
     3c0:	0001595a 	andeq	r5, r1, sl, asr r9
     3c4:	74910200 	ldrvc	r0, [r1], #512	; 0x200
     3c8:	01db1100 	bicseq	r1, fp, r0, lsl #2
     3cc:	42010000 	andmi	r0, r1, #0
     3d0:	00000068 	andeq	r0, r0, r8, rrx
     3d4:	80100254 	andshi	r0, r0, r4, asr r2
     3d8:	00000072 	andeq	r0, r0, r2, ror r0
     3dc:	02989c01 	addseq	r9, r8, #256	; 0x100
     3e0:	f7120000 			; <UNDEFINED> instruction: 0xf7120000
     3e4:	01000001 	tsteq	r0, r1
     3e8:	00014742 	andeq	r4, r1, r2, asr #14
     3ec:	6c910200 	lfmvs	f0, 4, [r1], {0}
     3f0:	01006913 	tsteq	r0, r3, lsl r9
     3f4:	00006844 	andeq	r6, r0, r4, asr #16
     3f8:	74910200 	ldrvc	r0, [r1], #512	; 0x200
     3fc:	018a1400 	orreq	r1, sl, r0, lsl #8
     400:	2a010000 	bcs	40408 <_start-0x800bfbf8>
     404:	00000068 	andeq	r0, r0, r8, rrx
     408:	80100204 	andshi	r0, r0, r4, lsl #4
     40c:	00000050 	andeq	r0, r0, r0, asr r0
     410:	02cc9c01 	sbceq	r9, ip, #256	; 0x100
     414:	47120000 	ldrmi	r0, [r2, -r0]
     418:	01000001 	tsteq	r0, r1
     41c:	0001bf2a 	andeq	fp, r1, sl, lsr #30
     420:	6c910200 	lfmvs	f0, 4, [r1], {0}
     424:	01006913 	tsteq	r0, r3, lsl r9
     428:	0000682c 	andeq	r6, r0, ip, lsr #16
     42c:	74910200 	ldrvc	r0, [r1], #512	; 0x200
     430:	01cb1400 	biceq	r1, fp, r0, lsl #8
     434:	14010000 	strne	r0, [r1], #-0
     438:	00000068 	andeq	r0, r0, r8, rrx
     43c:	801001ca 	andshi	r0, r0, sl, asr #3
     440:	0000003a 	andeq	r0, r0, sl, lsr r0
     444:	030d9c01 	movweq	r9, #56321	; 0xdc01
     448:	63150000 	tstvs	r5, #0
     44c:	14010073 	strne	r0, [r1], #-115	; 0xffffff8d
     450:	0000030d 	andeq	r0, r0, sp, lsl #6
     454:	15749102 	ldrbne	r9, [r4, #-258]!	; 0xfffffefe
     458:	01007463 	tsteq	r0, r3, ror #8
     45c:	00030d14 	andeq	r0, r3, r4, lsl sp
     460:	70910200 	addsvc	r0, r1, r0, lsl #4
     464:	0002130f 	andeq	r1, r2, pc, lsl #6
     468:	13160100 	tstne	r6, #0, 2
     46c:	01000003 	tsteq	r0, r3
     470:	04080054 	streq	r0, [r8], #-84	; 0xffffffac
     474:	00000154 	andeq	r0, r0, r4, asr r1
     478:	30060102 	andcc	r0, r6, r2, lsl #2
     47c:	0000000e 	andeq	r0, r0, lr
     480:	000002b3 			; <UNDEFINED> instruction: 0x000002b3
     484:	01c20004 	biceq	r0, r2, r4
     488:	01040000 	mrseq	r0, (UNDEF: 4)
     48c:	00000000 	andeq	r0, r0, r0
     490:	0002190c 	andeq	r1, r2, ip, lsl #18
     494:	00007c00 	andeq	r7, r0, r0, lsl #24
     498:	10035000 	andne	r5, r3, r0
     49c:	00018c80 	andeq	r8, r1, r0, lsl #25
     4a0:	00021300 	andeq	r1, r2, r0, lsl #6
     4a4:	07040200 	streq	r0, [r4, -r0, lsl #4]
     4a8:	000000eb 	andeq	r0, r0, fp, ror #1
     4ac:	00013003 	andeq	r3, r1, r3
     4b0:	0c021000 	stceq	0, cr1, [r2], {-0}
     4b4:	00000068 	andeq	r0, r0, r8, rrx
     4b8:	00656404 	rsbeq	r6, r5, r4, lsl #8
     4bc:	00680d02 	rsbeq	r0, r8, r2, lsl #26
     4c0:	05000000 	streq	r0, [r0, #-0]
     4c4:	000001a2 	andeq	r0, r0, r2, lsr #3
     4c8:	00680e02 	rsbeq	r0, r8, r2, lsl #28
     4cc:	05040000 	streq	r0, [r4, #-0]
     4d0:	00000184 	andeq	r0, r0, r4, lsl #3
     4d4:	00680f02 	rsbeq	r0, r8, r2, lsl #30
     4d8:	05080000 	streq	r0, [r8, #-0]
     4dc:	000001f1 	strdeq	r0, [r0], -r1
     4e0:	00681002 	rsbeq	r1, r8, r2
     4e4:	000c0000 	andeq	r0, ip, r0
     4e8:	69050406 	stmdbvs	r5, {r1, r2, sl}
     4ec:	0700746e 	streq	r7, [r0, -lr, ror #8]
     4f0:	00000068 	andeq	r0, r0, r8, rrx
     4f4:	00013008 	andeq	r3, r1, r8
     4f8:	2c110200 	lfmcs	f0, 4, [r1], {-0}
     4fc:	03000000 	movweq	r0, #0
     500:	00000205 	andeq	r0, r0, r5, lsl #4
     504:	e013021c 	ands	r0, r3, ip, lsl r2
     508:	04000000 	streq	r0, [r0], #-0
     50c:	00707674 	rsbseq	r7, r0, r4, ror r6
     510:	00681502 	rsbeq	r1, r8, r2, lsl #10
     514:	04000000 	streq	r0, [r0], #-0
     518:	00627674 	rsbeq	r7, r2, r4, ror r6
     51c:	00681602 	rsbeq	r1, r8, r2, lsl #12
     520:	04040000 	streq	r0, [r4], #-0
     524:	00667674 	rsbeq	r7, r6, r4, ror r6
     528:	00681702 	rsbeq	r1, r8, r2, lsl #14
     52c:	04080000 	streq	r0, [r8], #-0
     530:	00706874 	rsbseq	r6, r0, r4, ror r8
     534:	00681a02 	rsbeq	r1, r8, r2, lsl #20
     538:	040c0000 	streq	r0, [ip], #-0
     53c:	00626874 	rsbeq	r6, r2, r4, ror r8
     540:	00681b02 	rsbeq	r1, r8, r2, lsl #22
     544:	04100000 	ldreq	r0, [r0], #-0
     548:	00666874 	rsbeq	r6, r6, r4, ror r8
     54c:	00681c02 	rsbeq	r1, r8, r2, lsl #24
     550:	05140000 	ldreq	r0, [r4, #-0]
     554:	000001a2 	andeq	r0, r0, r2, lsr #3
     558:	00681e02 	rsbeq	r1, r8, r2, lsl #28
     55c:	00180000 	andseq	r0, r8, r0
     560:	00020508 	andeq	r0, r2, r8, lsl #10
     564:	7f1f0200 	svcvc	0x001f0200
     568:	03000000 	movweq	r0, #0
     56c:	000001a9 	andeq	r0, r0, r9, lsr #3
     570:	4c220240 	sfmmi	f0, 4, [r2], #-256	; 0xffffff00
     574:	05000001 	streq	r0, [r0, #-1]
     578:	000001f7 	strdeq	r0, [r0], -r7
     57c:	014c2402 	cmpeq	ip, r2, lsl #8
     580:	05000000 	streq	r0, [r0, #-0]
     584:	000001fc 	strdeq	r0, [r0], -ip
     588:	00742702 	rsbseq	r2, r4, r2, lsl #14
     58c:	05040000 	streq	r0, [r4, #-0]
     590:	0000013e 	andeq	r0, r0, lr, lsr r1
     594:	00e02a02 	rsceq	r2, r0, r2, lsl #20
     598:	05140000 	ldreq	r0, [r4, #-0]
     59c:	000000cf 	andeq	r0, r0, pc, asr #1
     5a0:	00682d02 	rsbeq	r2, r8, r2, lsl #26
     5a4:	05300000 	ldreq	r0, [r0, #-0]!
     5a8:	000000f8 	strdeq	r0, [r0], -r8
     5ac:	00682e02 	rsbeq	r2, r8, r2, lsl #28
     5b0:	04340000 	ldrteq	r0, [r4], #-0
     5b4:	00707062 	rsbseq	r7, r0, r2, rrx
     5b8:	00682f02 	rsbeq	r2, r8, r2, lsl #30
     5bc:	05380000 	ldreq	r0, [r8, #-0]!
     5c0:	000000dd 	ldrdeq	r0, [r0], -sp
     5c4:	00253202 	eoreq	r3, r5, r2, lsl #4
     5c8:	003c0000 	eorseq	r0, ip, r0
     5cc:	01520409 	cmpeq	r2, r9, lsl #8
     5d0:	01020000 	mrseq	r0, (UNDEF: 2)
     5d4:	000e3708 	andeq	r3, lr, r8, lsl #14
     5d8:	01a70800 			; <UNDEFINED> instruction: 0x01a70800
     5dc:	34020000 	strcc	r0, [r2], #-0
     5e0:	00000164 	andeq	r0, r0, r4, ror #2
     5e4:	00eb0409 	rsceq	r0, fp, r9, lsl #8
     5e8:	590a0000 	stmdbpl	sl, {}	; <UNPREDICTABLE>
     5ec:	7a000001 	bvc	5f8 <_start-0x800ffa08>
     5f0:	0b000001 	bleq	5fc <_start-0x800ffa04>
     5f4:	0000017a 	andeq	r0, r0, sl, ror r1
     5f8:	04020004 	streq	r0, [r2], #-4
     5fc:	0001d207 	andeq	sp, r1, r7, lsl #4
     600:	02420c00 	subeq	r0, r2, #0, 24
     604:	07010000 	streq	r0, [r1, -r0]
     608:	0000016a 	andeq	r0, r0, sl, ror #2
     60c:	09480305 	stmdbeq	r8, {r0, r2, r8, r9}^
     610:	640c8010 	strvs	r8, [ip], #-16
     614:	01000002 	tsteq	r0, r2
     618:	00015908 	andeq	r5, r1, r8, lsl #18
     61c:	5c030500 	cfstr32pl	mvfx0, [r3], {-0}
     620:	0d801009 	stceq	0, cr1, [r0, #36]	; 0x24
     624:	0000022d 	andeq	r0, r0, sp, lsr #4
     628:	04a47b01 	strteq	r7, [r4], #2817	; 0xb01
     62c:	00388010 	eorseq	r8, r8, r0, lsl r0
     630:	9c010000 	stcls	0, cr0, [r1], {-0}
     634:	0002360d 	andeq	r3, r2, sp, lsl #12
     638:	986c0100 	stmdals	ip!, {r8}^
     63c:	0c801004 	stceq	0, cr1, [r0], {4}
     640:	01000000 	mrseq	r0, (UNDEF: 0)
     644:	024e0d9c 	subeq	r0, lr, #156, 26	; 0x2700
     648:	5d010000 	stcpl	0, cr0, [r1, #-0]
     64c:	8010048c 	andshi	r0, r0, ip, lsl #9
     650:	0000000c 	andeq	r0, r0, ip
     654:	870e9c01 	strhi	r9, [lr, -r1, lsl #24]
     658:	01000002 	tsteq	r0, r2
     65c:	1004324a 	andne	r3, r4, sl, asr #4
     660:	00005a80 	andeq	r5, r0, r0, lsl #21
     664:	249c0100 	ldrcs	r0, [ip], #256	; 0x100
     668:	0f000002 	svceq	0x00000002
     66c:	000000dd 	ldrdeq	r0, [r0], -sp
     670:	02244a01 	eoreq	r4, r4, #4096	; 0x1000
     674:	91020000 	mrsls	r0, (UNDEF: 2)
     678:	00cf0f74 	sbceq	r0, pc, r4, ror pc	; <UNPREDICTABLE>
     67c:	4a010000 	bmi	40684 <_start-0x800bf97c>
     680:	0000022a 	andeq	r0, r0, sl, lsr #4
     684:	0f709102 	svceq	0x00709102
     688:	000000f8 	strdeq	r0, [r0], -r8
     68c:	022a4a01 	eoreq	r4, sl, #4096	; 0x1000
     690:	91020000 	mrsls	r0, (UNDEF: 2)
     694:	7062106c 	rsbvc	r1, r2, ip, rrx
     698:	4a010070 	bmi	40860 <_start-0x800bf7a0>
     69c:	0000022a 	andeq	r0, r0, sl, lsr #4
     6a0:	00689102 	rsbeq	r9, r8, r2, lsl #2
     6a4:	00250409 	eoreq	r0, r5, r9, lsl #8
     6a8:	04090000 	streq	r0, [r9], #-0
     6ac:	00000068 	andeq	r0, r0, r8, rrx
     6b0:	00025911 	andeq	r5, r2, r1, lsl r9
     6b4:	68320100 	ldmdavs	r2!, {r8}
     6b8:	c0000000 	andgt	r0, r0, r0
     6bc:	72801003 	addvc	r1, r0, #3
     6c0:	01000000 	mrseq	r0, (UNDEF: 0)
     6c4:	0002649c 	muleq	r2, ip, r4
     6c8:	01f70f00 	mvnseq	r0, r0, lsl #30
     6cc:	32010000 	andcc	r0, r1, #0
     6d0:	0000014c 	andeq	r0, r0, ip, asr #2
     6d4:	126c9102 	rsbne	r9, ip, #-2147483648	; 0x80000000
     6d8:	34010069 	strcc	r0, [r1], #-105	; 0xffffff97
     6dc:	00000068 	andeq	r0, r0, r8, rrx
     6e0:	00749102 	rsbseq	r9, r4, r2, lsl #2
     6e4:	00027513 	andeq	r7, r2, r3, lsl r5
     6e8:	68240100 	stmdavs	r4!, {r8}
     6ec:	70000000 	andvc	r0, r0, r0
     6f0:	50801003 	addpl	r1, r0, r3
     6f4:	01000000 	mrseq	r0, (UNDEF: 0)
     6f8:	0002989c 	muleq	r2, ip, r8
     6fc:	02820f00 	addeq	r0, r2, #0, 30
     700:	24010000 	strcs	r0, [r1], #-0
     704:	00000159 	andeq	r0, r0, r9, asr r1
     708:	126c9102 	rsbne	r9, ip, #-2147483648	; 0x80000000
     70c:	26010069 	strcs	r0, [r1], -r9, rrx
     710:	00000068 	andeq	r0, r0, r8, rrx
     714:	00749102 	rsbseq	r9, r4, r2, lsl #2
     718:	00022714 	andeq	r2, r2, r4, lsl r7
     71c:	50140100 	andspl	r0, r4, r0, lsl #2
     720:	20801003 	addcs	r1, r0, r3
     724:	01000000 	mrseq	r0, (UNDEF: 0)
     728:	0064109c 	mlseq	r4, ip, r0, r1
     72c:	006f1401 	rsbeq	r1, pc, r1, lsl #8
     730:	91020000 	mrsls	r0, (UNDEF: 2)
     734:	97000074 	smlsdxls	r0, r4, r0, r0
     738:	04000001 	streq	r0, [r0], #-1
     73c:	00030600 	andeq	r0, r3, r0, lsl #12
     740:	00010400 	andeq	r0, r1, r0, lsl #8
     744:	0c000000 	stceq	0, cr0, [r0], {-0}
     748:	000002bf 			; <UNDEFINED> instruction: 0x000002bf
     74c:	0000007c 	andeq	r0, r0, ip, ror r0
     750:	801004dc 			; <UNDEFINED> instruction: 0x801004dc
     754:	00000014 	andeq	r0, r0, r4, lsl r0
     758:	000002b4 			; <UNDEFINED> instruction: 0x000002b4
     75c:	003e0402 	eorseq	r0, lr, r2, lsl #8
     760:	04020000 	streq	r0, [r2], #-0
     764:	0000003e 	andeq	r0, r0, lr, lsr r0
     768:	0002b803 	andeq	fp, r2, r3, lsl #16
     76c:	a2030000 	andge	r0, r3, #0
     770:	01000002 	tsteq	r0, r2
     774:	07040400 	streq	r0, [r4, -r0, lsl #8]
     778:	000000eb 	andeq	r0, r0, fp, ror #1
     77c:	00013005 	andeq	r3, r1, r5
     780:	0c021000 	stceq	0, cr1, [r2], {-0}
     784:	00000081 	andeq	r0, r0, r1, lsl #1
     788:	00656406 	rsbeq	r6, r5, r6, lsl #8
     78c:	00810d02 	addeq	r0, r1, r2, lsl #26
     790:	07000000 	streq	r0, [r0, -r0]
     794:	000001a2 	andeq	r0, r0, r2, lsr #3
     798:	00810e02 	addeq	r0, r1, r2, lsl #28
     79c:	07040000 	streq	r0, [r4, -r0]
     7a0:	00000184 	andeq	r0, r0, r4, lsl #3
     7a4:	00810f02 	addeq	r0, r1, r2, lsl #30
     7a8:	07080000 	streq	r0, [r8, -r0]
     7ac:	000001f1 	strdeq	r0, [r0], -r1
     7b0:	00811002 	addeq	r1, r1, r2
     7b4:	000c0000 	andeq	r0, ip, r0
     7b8:	69050408 	stmdbvs	r5, {r3, sl}
     7bc:	0900746e 	stmdbeq	r0, {r1, r2, r3, r5, r6, sl, ip, sp, lr}
     7c0:	00000130 	andeq	r0, r0, r0, lsr r1
     7c4:	00451102 	subeq	r1, r5, r2, lsl #2
     7c8:	05050000 	streq	r0, [r5, #-0]
     7cc:	1c000002 	stcne	0, cr0, [r0], {2}
     7d0:	00f41302 	rscseq	r1, r4, r2, lsl #6
     7d4:	74060000 	strvc	r0, [r6], #-0
     7d8:	02007076 	andeq	r7, r0, #118	; 0x76
     7dc:	00008115 	andeq	r8, r0, r5, lsl r1
     7e0:	74060000 	strvc	r0, [r6], #-0
     7e4:	02006276 	andeq	r6, r0, #1610612743	; 0x60000007
     7e8:	00008116 	andeq	r8, r0, r6, lsl r1
     7ec:	74060400 	strvc	r0, [r6], #-1024	; 0xfffffc00
     7f0:	02006676 	andeq	r6, r0, #123731968	; 0x7600000
     7f4:	00008117 	andeq	r8, r0, r7, lsl r1
     7f8:	74060800 	strvc	r0, [r6], #-2048	; 0xfffff800
     7fc:	02007068 	andeq	r7, r0, #104	; 0x68
     800:	0000811a 	andeq	r8, r0, sl, lsl r1
     804:	74060c00 	strvc	r0, [r6], #-3072	; 0xfffff400
     808:	02006268 	andeq	r6, r0, #104, 4	; 0x80000006
     80c:	0000811b 	andeq	r8, r0, fp, lsl r1
     810:	74061000 	strvc	r1, [r6], #-0
     814:	02006668 	andeq	r6, r0, #104, 12	; 0x6800000
     818:	0000811c 	andeq	r8, r0, ip, lsl r1
     81c:	a2071400 	andge	r1, r7, #0, 8
     820:	02000001 	andeq	r0, r0, #1
     824:	0000811e 	andeq	r8, r0, lr, lsl r1
     828:	09001800 	stmdbeq	r0, {fp, ip}
     82c:	00000205 	andeq	r0, r0, r5, lsl #4
     830:	00931f02 	addseq	r1, r3, r2, lsl #30
     834:	a9050000 	stmdbge	r5, {}	; <UNPREDICTABLE>
     838:	40000001 	andmi	r0, r0, r1
     83c:	01602202 	cmneq	r0, r2, lsl #4
     840:	f7070000 			; <UNDEFINED> instruction: 0xf7070000
     844:	02000001 	andeq	r0, r0, #1
     848:	00016024 	andeq	r6, r1, r4, lsr #32
     84c:	fc070000 	stc2	0, cr0, [r7], {-0}
     850:	02000001 	andeq	r0, r0, #1
     854:	00008827 	andeq	r8, r0, r7, lsr #16
     858:	3e070400 	cfcpyscc	mvf0, mvf7
     85c:	02000001 	andeq	r0, r0, #1
     860:	0000f42a 	andeq	pc, r0, sl, lsr #8
     864:	cf071400 	svcgt	0x00071400
     868:	02000000 	andeq	r0, r0, #0
     86c:	0000812d 	andeq	r8, r0, sp, lsr #2
     870:	f8073000 			; <UNDEFINED> instruction: 0xf8073000
     874:	02000000 	andeq	r0, r0, #0
     878:	0000812e 	andeq	r8, r0, lr, lsr #2
     87c:	62063400 	andvs	r3, r6, #0, 8
     880:	02007070 	andeq	r7, r0, #112	; 0x70
     884:	0000812f 	andeq	r8, r0, pc, lsr #2
     888:	dd073800 	stcle	8, cr3, [r7, #-0]
     88c:	02000000 	andeq	r0, r0, #0
     890:	00003e32 	andeq	r3, r0, r2, lsr lr
     894:	0a003c00 	beq	f89c <_start-0x800f0764>
     898:	00016604 	andeq	r6, r1, r4, lsl #12
     89c:	08010400 	stmdaeq	r1, {sl}
     8a0:	00000e37 	andeq	r0, r0, r7, lsr lr
     8a4:	0001a909 	andeq	sl, r1, r9, lsl #18
     8a8:	ff340200 			; <UNDEFINED> instruction: 0xff340200
     8ac:	0b000000 	bleq	8b4 <_start-0x800ff74c>
     8b0:	000002a9 	andeq	r0, r0, r9, lsr #5
     8b4:	016d0601 	cmneq	sp, r1, lsl #12
     8b8:	03050000 	movweq	r0, #20480	; 0x5000
     8bc:	801008c0 	andshi	r0, r0, r0, asr #17
     8c0:	0002960c 	andeq	r9, r2, ip, lsl #12
     8c4:	dc2b0100 	stfles	f0, [fp], #-0
     8c8:	14801004 	strne	r1, [r0], #4
     8cc:	01000000 	mrseq	r0, (UNDEF: 0)
     8d0:	0e91009c 	mrceq	0, 4, r0, cr1, cr12, {4}
     8d4:	00040000 	andeq	r0, r4, r0
     8d8:	000003b4 			; <UNDEFINED> instruction: 0x000003b4
     8dc:	00000104 	andeq	r0, r0, r4, lsl #2
     8e0:	d50c0000 	strle	r0, [ip, #-0]
     8e4:	7c000007 	stcvc	0, cr0, [r0], {7}
     8e8:	f0000000 			; <UNDEFINED> instruction: 0xf0000000
     8ec:	ae801004 	cdpge	0, 8, cr1, cr0, cr4, {0}
     8f0:	00000003 	andeq	r0, r0, r3
     8f4:	02000003 	andeq	r0, r0, #3
     8f8:	8a170274 	bhi	5c12d0 <_start-0x7fb3ed30>
     8fc:	03000001 	movweq	r0, #1
     900:	00000779 	andeq	r0, r0, r9, ror r7
     904:	01911802 	orrseq	r1, r1, r2, lsl #16
     908:	03000000 	movweq	r0, #0
     90c:	00000449 	andeq	r0, r0, r9, asr #8
     910:	01911902 	orrseq	r1, r1, r2, lsl #18
     914:	03040000 	movweq	r0, #16384	; 0x4000
     918:	000008d6 	ldrdeq	r0, [r0], -r6
     91c:	01911a02 	orrseq	r1, r1, r2, lsl #20
     920:	03080000 	movweq	r0, #32768	; 0x8000
     924:	00000759 	andeq	r0, r0, r9, asr r7
     928:	01911b02 	orrseq	r1, r1, r2, lsl #22
     92c:	030c0000 	movweq	r0, #49152	; 0xc000
     930:	00000626 	andeq	r0, r0, r6, lsr #12
     934:	01911c02 	orrseq	r1, r1, r2, lsl #24
     938:	03100000 	tsteq	r0, #0
     93c:	00000a86 	andeq	r0, r0, r6, lsl #21
     940:	01911d02 	orrseq	r1, r1, r2, lsl #26
     944:	03140000 	tsteq	r4, #0
     948:	00000aa0 	andeq	r0, r0, r0, lsr #21
     94c:	01911e02 	orrseq	r1, r1, r2, lsl #28
     950:	03180000 	tsteq	r8, #0
     954:	00000aba 			; <UNDEFINED> instruction: 0x00000aba
     958:	01911f02 	orrseq	r1, r1, r2, lsl #30
     95c:	031c0000 	tsteq	ip, #0
     960:	00000ad4 	ldrdeq	r0, [r0], -r4
     964:	01912002 	orrseq	r2, r1, r2
     968:	03200000 	nopeq	{0}	; <UNPREDICTABLE>
     96c:	00000aee 	andeq	r0, r0, lr, ror #21
     970:	01912102 	orrseq	r2, r1, r2, lsl #2
     974:	03240000 			; <UNDEFINED> instruction: 0x03240000
     978:	00000b08 	andeq	r0, r0, r8, lsl #22
     97c:	01912202 	orrseq	r2, r1, r2, lsl #4
     980:	03280000 			; <UNDEFINED> instruction: 0x03280000
     984:	00000b22 	andeq	r0, r0, r2, lsr #22
     988:	01912302 	orrseq	r2, r1, r2, lsl #6
     98c:	032c0000 			; <UNDEFINED> instruction: 0x032c0000
     990:	00000b3c 	andeq	r0, r0, ip, lsr fp
     994:	01912402 	orrseq	r2, r1, r2, lsl #8
     998:	03300000 	teqeq	r0, #0
     99c:	00000b56 	andeq	r0, r0, r6, asr fp
     9a0:	01912502 	orrseq	r2, r1, r2, lsl #10
     9a4:	03340000 	teqeq	r4, #0
     9a8:	00000b70 	andeq	r0, r0, r0, ror fp
     9ac:	01912602 	orrseq	r2, r1, r2, lsl #12
     9b0:	03380000 	teqeq	r8, #0
     9b4:	00000cd9 	ldrdeq	r0, [r0], -r9
     9b8:	01912702 	orrseq	r2, r1, r2, lsl #14
     9bc:	033c0000 	teqeq	ip, #0
     9c0:	00000cf3 	strdeq	r0, [r0], -r3
     9c4:	01912802 	orrseq	r2, r1, r2, lsl #16
     9c8:	03400000 	movteq	r0, #0
     9cc:	00000d0d 	andeq	r0, r0, sp, lsl #26
     9d0:	01912902 	orrseq	r2, r1, r2, lsl #18
     9d4:	03440000 	movteq	r0, #16384	; 0x4000
     9d8:	00000d27 	andeq	r0, r0, r7, lsr #26
     9dc:	01912a02 	orrseq	r2, r1, r2, lsl #20
     9e0:	03480000 	movteq	r0, #32768	; 0x8000
     9e4:	00000d41 	andeq	r0, r0, r1, asr #26
     9e8:	01912b02 	orrseq	r2, r1, r2, lsl #22
     9ec:	034c0000 	movteq	r0, #49152	; 0xc000
     9f0:	00000d5b 	andeq	r0, r0, fp, asr sp
     9f4:	01912c02 	orrseq	r2, r1, r2, lsl #24
     9f8:	03500000 	cmpeq	r0, #0
     9fc:	00000d75 	andeq	r0, r0, r5, ror sp
     a00:	01912d02 	orrseq	r2, r1, r2, lsl #26
     a04:	03540000 	cmpeq	r4, #0
     a08:	00000d8f 	andeq	r0, r0, pc, lsl #27
     a0c:	01912e02 	orrseq	r2, r1, r2, lsl #28
     a10:	03580000 	cmpeq	r8, #0
     a14:	00000da9 	andeq	r0, r0, r9, lsr #27
     a18:	01912f02 	orrseq	r2, r1, r2, lsl #30
     a1c:	035c0000 	cmpeq	ip, #0
     a20:	00000dc3 	andeq	r0, r0, r3, asr #27
     a24:	01913002 	orrseq	r3, r1, r2
     a28:	03600000 	cmneq	r0, #0
     a2c:	00000f03 	andeq	r0, r0, r3, lsl #30
     a30:	01913102 	orrseq	r3, r1, r2, lsl #2
     a34:	03640000 	cmneq	r4, #0
     a38:	00000f1d 	andeq	r0, r0, sp, lsl pc
     a3c:	01913202 	orrseq	r3, r1, r2, lsl #4
     a40:	03680000 	cmneq	r8, #0
     a44:	00000f37 	andeq	r0, r0, r7, lsr pc
     a48:	01913302 	orrseq	r3, r1, r2, lsl #6
     a4c:	036c0000 	cmneq	ip, #0
     a50:	00000f51 	andeq	r0, r0, r1, asr pc
     a54:	01913402 	orrseq	r3, r1, r2, lsl #8
     a58:	00700000 	rsbseq	r0, r0, r0
     a5c:	eb070404 	bl	1c1a74 <_start-0x7ff3e58c>
     a60:	05000000 	streq	r0, [r0, #-0]
     a64:	0000018a 	andeq	r0, r0, sl, lsl #3
     a68:	00060806 	andeq	r0, r6, r6, lsl #16
     a6c:	25350200 	ldrcs	r0, [r5, #-512]!	; 0xfffffe00
     a70:	02000000 	andeq	r0, r0, #0
     a74:	06370274 			; <UNDEFINED> instruction: 0x06370274
     a78:	03000003 	movweq	r0, #3
     a7c:	0000095c 	andeq	r0, r0, ip, asr r9
     a80:	01913802 	orrseq	r3, r1, r2, lsl #16
     a84:	03000000 	movweq	r0, #0
     a88:	0000065c 	andeq	r0, r0, ip, asr r6
     a8c:	01913902 	orrseq	r3, r1, r2, lsl #18
     a90:	03040000 	movweq	r0, #16384	; 0x4000
     a94:	00000ff0 	strdeq	r0, [r0], -r0	; <UNPREDICTABLE>
     a98:	01913a02 	orrseq	r3, r1, r2, lsl #20
     a9c:	03080000 	movweq	r0, #32768	; 0x8000
     aa0:	00000a4c 	andeq	r0, r0, ip, asr #20
     aa4:	01913b02 	orrseq	r3, r1, r2, lsl #22
     aa8:	030c0000 	movweq	r0, #49152	; 0xc000
     aac:	00000c2d 	andeq	r0, r0, sp, lsr #24
     ab0:	01913c02 	orrseq	r3, r1, r2, lsl #24
     ab4:	03100000 	tsteq	r0, #0
     ab8:	00001033 	andeq	r1, r0, r3, lsr r0
     abc:	01913d02 	orrseq	r3, r1, r2, lsl #26
     ac0:	03140000 	tsteq	r4, #0
     ac4:	00001054 	andeq	r1, r0, r4, asr r0
     ac8:	01913e02 	orrseq	r3, r1, r2, lsl #28
     acc:	03180000 	tsteq	r8, #0
     ad0:	00001075 	andeq	r1, r0, r5, ror r0
     ad4:	01913f02 	orrseq	r3, r1, r2, lsl #30
     ad8:	031c0000 	tsteq	ip, #0
     adc:	00001096 	muleq	r0, r6, r0
     ae0:	01914002 	orrseq	r4, r1, r2
     ae4:	03200000 	nopeq	{0}	; <UNPREDICTABLE>
     ae8:	000010b7 	strheq	r1, [r0], -r7
     aec:	01914102 	orrseq	r4, r1, r2, lsl #2
     af0:	03240000 			; <UNDEFINED> instruction: 0x03240000
     af4:	000002c9 	andeq	r0, r0, r9, asr #5
     af8:	01914202 	orrseq	r4, r1, r2, lsl #4
     afc:	03280000 			; <UNDEFINED> instruction: 0x03280000
     b00:	000002ea 	andeq	r0, r0, sl, ror #5
     b04:	01914302 	orrseq	r4, r1, r2, lsl #6
     b08:	032c0000 			; <UNDEFINED> instruction: 0x032c0000
     b0c:	0000030b 	andeq	r0, r0, fp, lsl #6
     b10:	01914402 	orrseq	r4, r1, r2, lsl #8
     b14:	03300000 	teqeq	r0, #0
     b18:	0000032c 	andeq	r0, r0, ip, lsr #6
     b1c:	01914502 	orrseq	r4, r1, r2, lsl #10
     b20:	03340000 	teqeq	r4, #0
     b24:	0000034d 	andeq	r0, r0, sp, asr #6
     b28:	01914602 	orrseq	r4, r1, r2, lsl #12
     b2c:	03380000 	teqeq	r8, #0
     b30:	0000046a 	andeq	r0, r0, sl, ror #8
     b34:	01914702 	orrseq	r4, r1, r2, lsl #14
     b38:	033c0000 	teqeq	ip, #0
     b3c:	0000048b 	andeq	r0, r0, fp, lsl #9
     b40:	01914802 	orrseq	r4, r1, r2, lsl #16
     b44:	03400000 	movteq	r0, #0
     b48:	000004ac 	andeq	r0, r0, ip, lsr #9
     b4c:	01914902 	orrseq	r4, r1, r2, lsl #18
     b50:	03440000 	movteq	r0, #16384	; 0x4000
     b54:	000004cd 	andeq	r0, r0, sp, asr #9
     b58:	01914a02 	orrseq	r4, r1, r2, lsl #20
     b5c:	03480000 	movteq	r0, #32768	; 0x8000
     b60:	000004ee 	andeq	r0, r0, lr, ror #9
     b64:	01914b02 	orrseq	r4, r1, r2, lsl #22
     b68:	034c0000 	movteq	r0, #49152	; 0xc000
     b6c:	0000050f 	andeq	r0, r0, pc, lsl #10
     b70:	01914c02 	orrseq	r4, r1, r2, lsl #24
     b74:	03500000 	cmpeq	r0, #0
     b78:	00000530 	andeq	r0, r0, r0, lsr r5
     b7c:	01914d02 	orrseq	r4, r1, r2, lsl #26
     b80:	03540000 	cmpeq	r4, #0
     b84:	00000551 	andeq	r0, r0, r1, asr r5
     b88:	01914e02 	orrseq	r4, r1, r2, lsl #28
     b8c:	03580000 	cmpeq	r8, #0
     b90:	00000572 	andeq	r0, r0, r2, ror r5
     b94:	01914f02 	orrseq	r4, r1, r2, lsl #30
     b98:	035c0000 	cmpeq	ip, #0
     b9c:	00000593 	muleq	r0, r3, r5
     ba0:	01915002 	orrseq	r5, r1, r2
     ba4:	03600000 	cmneq	r0, #0
     ba8:	000006f6 	strdeq	r0, [r0], -r6
     bac:	01915102 	orrseq	r5, r1, r2, lsl #2
     bb0:	03640000 	cmneq	r4, #0
     bb4:	00000717 	andeq	r0, r0, r7, lsl r7
     bb8:	01915202 	orrseq	r5, r1, r2, lsl #4
     bbc:	03680000 	cmneq	r8, #0
     bc0:	00000738 	andeq	r0, r0, r8, lsr r7
     bc4:	01915302 	orrseq	r5, r1, r2, lsl #6
     bc8:	036c0000 	cmneq	ip, #0
     bcc:	0000082f 	andeq	r0, r0, pc, lsr #16
     bd0:	01915402 	orrseq	r5, r1, r2, lsl #8
     bd4:	00700000 	rsbseq	r0, r0, r0
     bd8:	000cbe06 	andeq	fp, ip, r6, lsl #28
     bdc:	a1550200 	cmpge	r5, r0, lsl #4
     be0:	02000001 	andeq	r0, r0, #1
     be4:	a659028c 	ldrbge	r0, [r9], -ip, lsl #5
     be8:	07000004 	streq	r0, [r0, -r4]
     bec:	00524343 	subseq	r4, r2, r3, asr #6
     bf0:	01915a02 	orrseq	r5, r1, r2, lsl #20
     bf4:	03000000 	movweq	r0, #0
     bf8:	0000039d 	muleq	r0, sp, r3
     bfc:	01915b02 	orrseq	r5, r1, r2, lsl #22
     c00:	07040000 	streq	r0, [r4, -r0]
     c04:	00525343 	subseq	r5, r2, r3, asr #6
     c08:	01915c02 	orrseq	r5, r1, r2, lsl #24
     c0c:	03080000 	movweq	r0, #32768	; 0x8000
     c10:	000003f2 	strdeq	r0, [r0], -r2
     c14:	01915d02 	orrseq	r5, r1, r2, lsl #26
     c18:	030c0000 	movweq	r0, #49152	; 0xc000
     c1c:	00000699 	muleq	r0, r9, r6
     c20:	01915e02 	orrseq	r5, r1, r2, lsl #28
     c24:	03100000 	tsteq	r0, #0
     c28:	000007ab 	andeq	r0, r0, fp, lsr #15
     c2c:	01915f02 	orrseq	r5, r1, r2, lsl #30
     c30:	03140000 	tsteq	r4, #0
     c34:	000008f6 	strdeq	r0, [r0], -r6
     c38:	01916002 	orrseq	r6, r1, r2
     c3c:	03180000 	tsteq	r8, #0
     c40:	00000bdf 	ldrdeq	r0, [r0], -pc	; <UNPREDICTABLE>
     c44:	01916102 	orrseq	r6, r1, r2, lsl #2
     c48:	031c0000 	tsteq	ip, #0
     c4c:	00000828 	andeq	r0, r0, r8, lsr #16
     c50:	01916202 	orrseq	r6, r1, r2, lsl #4
     c54:	03200000 	nopeq	{0}	; <UNPREDICTABLE>
     c58:	00001025 	andeq	r1, r0, r5, lsr #32
     c5c:	01916302 	orrseq	r6, r1, r2, lsl #6
     c60:	03240000 			; <UNDEFINED> instruction: 0x03240000
     c64:	00000850 	andeq	r0, r0, r0, asr r8
     c68:	01916402 	orrseq	r6, r1, r2, lsl #8
     c6c:	03280000 			; <UNDEFINED> instruction: 0x03280000
     c70:	000007f1 	strdeq	r0, [r0], -r1
     c74:	01916502 	orrseq	r6, r1, r2, lsl #10
     c78:	032c0000 			; <UNDEFINED> instruction: 0x032c0000
     c7c:	000003e3 	andeq	r0, r0, r3, ror #7
     c80:	01916602 	orrseq	r6, r1, r2, lsl #12
     c84:	03300000 	teqeq	r0, #0
     c88:	0000039a 	muleq	r0, sl, r3
     c8c:	01916702 	orrseq	r6, r1, r2, lsl #14
     c90:	03340000 	teqeq	r4, #0
     c94:	0000102c 	andeq	r1, r0, ip, lsr #32
     c98:	01916802 	orrseq	r6, r1, r2, lsl #16
     c9c:	03380000 	teqeq	r8, #0
     ca0:	000008fc 	strdeq	r0, [r0], -ip
     ca4:	01916902 	orrseq	r6, r1, r2, lsl #18
     ca8:	033c0000 	teqeq	ip, #0
     cac:	00000683 	andeq	r0, r0, r3, lsl #13
     cb0:	04a66a02 	strteq	r6, [r6], #2562	; 0xa02
     cb4:	03400000 	movteq	r0, #0
     cb8:	00000f77 	andeq	r0, r0, r7, ror pc
     cbc:	01916b02 	orrseq	r6, r1, r2, lsl #22
     cc0:	03480000 	movteq	r0, #32768	; 0x8000
     cc4:	0000068e 	andeq	r0, r0, lr, lsl #13
     cc8:	04a66c02 	strteq	r6, [r6], #3074	; 0xc02
     ccc:	034c0000 	movteq	r0, #49152	; 0xc000
     cd0:	00000c0b 	andeq	r0, r0, fp, lsl #24
     cd4:	01916d02 	orrseq	r6, r1, r2, lsl #26
     cd8:	03540000 	cmpeq	r4, #0
     cdc:	00001020 	andeq	r1, r0, r0, lsr #32
     ce0:	01916e02 	orrseq	r6, r1, r2, lsl #28
     ce4:	03580000 	cmpeq	r8, #0
     ce8:	000005ed 	andeq	r0, r0, sp, ror #11
     cec:	01916f02 	orrseq	r6, r1, r2, lsl #30
     cf0:	035c0000 	cmpeq	ip, #0
     cf4:	0000101a 	andeq	r1, r0, sl, lsl r0
     cf8:	01917002 	orrseq	r7, r1, r2
     cfc:	03600000 	cmneq	r0, #0
     d00:	00000fc3 	andeq	r0, r0, r3, asr #31
     d04:	01917102 	orrseq	r7, r1, r2, lsl #2
     d08:	03640000 	cmneq	r4, #0
     d0c:	00000656 	andeq	r0, r0, r6, asr r6
     d10:	01917202 	orrseq	r7, r1, r2, lsl #4
     d14:	03680000 	cmneq	r8, #0
     d18:	000003aa 	andeq	r0, r0, sl, lsr #7
     d1c:	01917302 	orrseq	r7, r1, r2, lsl #6
     d20:	036c0000 	cmneq	ip, #0
     d24:	0000067d 	andeq	r0, r0, sp, ror r6
     d28:	01917402 	orrseq	r7, r1, r2, lsl #8
     d2c:	03700000 	cmneq	r0, #0
     d30:	000003b0 			; <UNDEFINED> instruction: 0x000003b0
     d34:	01917502 	orrseq	r7, r1, r2, lsl #10
     d38:	03740000 	cmneq	r4, #0
     d3c:	000003b6 			; <UNDEFINED> instruction: 0x000003b6
     d40:	01917602 	orrseq	r7, r1, r2, lsl #12
     d44:	03780000 	cmneq	r8, #0
     d48:	000003bc 			; <UNDEFINED> instruction: 0x000003bc
     d4c:	01917702 	orrseq	r7, r1, r2, lsl #14
     d50:	037c0000 	cmneq	ip, #0
     d54:	0000069f 	muleq	r0, pc, r6	; <UNPREDICTABLE>
     d58:	01917802 	orrseq	r7, r1, r2, lsl #16
     d5c:	03800000 	orreq	r0, r0, #0
     d60:	00000cce 	andeq	r0, r0, lr, asr #25
     d64:	04c47902 	strbeq	r7, [r4], #2306	; 0x902
     d68:	03840000 	orreq	r0, r4, #0
     d6c:	000005d7 	ldrdeq	r0, [r0], -r7
     d70:	01917a02 	orrseq	r7, r1, r2, lsl #20
     d74:	00880000 	addeq	r0, r8, r0
     d78:	0004bd08 	andeq	fp, r4, r8, lsl #26
     d7c:	0004b600 	andeq	fp, r4, r0, lsl #12
     d80:	04b60900 	ldrteq	r0, [r6], #2304	; 0x900
     d84:	00070000 	andeq	r0, r7, r0
     d88:	d2070404 	andle	r0, r7, #4, 8	; 0x4000000
     d8c:	04000001 	streq	r0, [r0], #-1
     d90:	0e2e0801 	cdpeq	8, 2, cr0, cr14, cr1, {0}
     d94:	bd080000 	stclt	0, cr0, [r8, #-0]
     d98:	d4000004 	strle	r0, [r0], #-4
     d9c:	09000004 	stmdbeq	r0, {r2}
     da0:	000004b6 			; <UNDEFINED> instruction: 0x000004b6
     da4:	0d060003 	stceq	0, cr0, [r6, #-12]
     da8:	02000004 	andeq	r0, r0, #4
     dac:	0003117b 	andeq	r1, r3, fp, ror r1
     db0:	02640a00 	rsbeq	r0, r4, #0, 20
     db4:	08aa7e02 	stmiaeq	sl!, {r1, r9, sl, fp, ip, sp, lr}
     db8:	a2030000 	andge	r0, r3, #0
     dbc:	02000009 	andeq	r0, r0, #9
     dc0:	0001917f 	andeq	r9, r1, pc, ror r1
     dc4:	e9030000 	stmdb	r3, {}	; <UNPREDICTABLE>
     dc8:	02000003 	andeq	r0, r0, #3
     dcc:	00019180 	andeq	r9, r1, r0, lsl #3
     dd0:	9b030400 	blls	c1dd8 <_start-0x8003e228>
     dd4:	0200000e 	andeq	r0, r0, #14
     dd8:	00019181 	andeq	r9, r1, r1, lsl #3
     ddc:	e4030800 	str	r0, [r3], #-2048	; 0xfffff800
     de0:	02000005 	andeq	r0, r0, #5
     de4:	00019182 	andeq	r9, r1, r2, lsl #3
     de8:	1a030c00 	bne	c3df0 <_start-0x8003c210>
     dec:	02000008 	andeq	r0, r0, #8
     df0:	00019183 	andeq	r9, r1, r3, lsl #3
     df4:	f2031000 	vhadd.s8	d1, d3, d0
     df8:	02000005 	andeq	r0, r0, #5
     dfc:	00019184 	andeq	r9, r1, r4, lsl #3
     e00:	1a031400 	bne	c5e08 <_start-0x8003a1f8>
     e04:	0200000e 	andeq	r0, r0, #14
     e08:	00019185 	andeq	r9, r1, r5, lsl #3
     e0c:	b4031800 	strlt	r1, [r3], #-2048	; 0xfffff800
     e10:	02000008 	andeq	r0, r0, #8
     e14:	00019186 	andeq	r9, r1, r6, lsl #3
     e18:	22031c00 	andcs	r1, r3, #0, 24
     e1c:	02000008 	andeq	r0, r0, #8
     e20:	00019187 	andeq	r9, r1, r7, lsl #3
     e24:	b9032000 	stmdblt	r3, {sp}
     e28:	0200000f 	andeq	r0, r0, #15
     e2c:	00019188 	andeq	r9, r1, r8, lsl #3
     e30:	b4032400 	strlt	r2, [r3], #-1024	; 0xfffffc00
     e34:	0200000c 	andeq	r0, r0, #12
     e38:	00019189 	andeq	r9, r1, r9, lsl #3
     e3c:	d9032800 	stmdble	r3, {fp, sp}
     e40:	02000003 	andeq	r0, r0, #3
     e44:	0001918a 	andeq	r9, r1, sl, lsl #3
     e48:	e7032c00 	str	r2, [r3, -r0, lsl #24]
     e4c:	02000006 	andeq	r0, r0, #6
     e50:	0001918b 	andeq	r9, r1, fp, lsl #3
     e54:	83033000 	movwhi	r3, #12288	; 0x3000
     e58:	02000006 	andeq	r0, r0, #6
     e5c:	0008aa8c 	andeq	sl, r8, ip, lsl #21
     e60:	2d033400 	cfstrscs	mvf3, [r3, #-0]
     e64:	02000009 	andeq	r0, r0, #9
     e68:	0001918d 	andeq	r9, r1, sp, lsl #3
     e6c:	8e034000 	cdphi	0, 0, cr4, cr3, cr0, {0}
     e70:	02000006 	andeq	r0, r0, #6
     e74:	0008aa8e 	andeq	sl, r8, lr, lsl #21
     e78:	43034400 	movwmi	r4, #13312	; 0x3400
     e7c:	0200000a 	andeq	r0, r0, #10
     e80:	0001918f 	andeq	r9, r1, pc, lsl #3
     e84:	ce035000 	cdpgt	0, 0, cr5, cr3, cr0, {0}
     e88:	0200000c 	andeq	r0, r0, #12
     e8c:	0008aa90 	muleq	r8, r0, sl
     e90:	ff035400 			; <UNDEFINED> instruction: 0xff035400
     e94:	0200000d 	andeq	r0, r0, #13
     e98:	00019191 	muleq	r1, r1, r1
     e9c:	84036000 	strhi	r6, [r3], #-0
     ea0:	02000009 	andeq	r0, r0, #9
     ea4:	0008aa92 	muleq	r8, r2, sl
     ea8:	10036400 	andne	r6, r3, r0, lsl #8
     eac:	02000008 	andeq	r0, r0, #8
     eb0:	00019193 	muleq	r1, r3, r1
     eb4:	fc037000 	stc2	0, cr7, [r3], {-0}
     eb8:	02000005 	andeq	r0, r0, #5
     ebc:	00019194 	muleq	r1, r4, r1
     ec0:	86037400 	strhi	r7, [r3], -r0, lsl #8
     ec4:	02000003 	andeq	r0, r0, #3
     ec8:	00019195 	muleq	r1, r5, r1
     ecc:	ca037800 	bgt	deed4 <_start-0x8002112c>
     ed0:	0200000b 	andeq	r0, r0, #11
     ed4:	00019196 	muleq	r1, r6, r1
     ed8:	18037c00 	stmdane	r3, {sl, fp, ip, sp, lr}
     edc:	02000008 	andeq	r0, r0, #8
     ee0:	00019197 	muleq	r1, r7, r1
     ee4:	a5038000 	strge	r8, [r3, #-0]
     ee8:	02000006 	andeq	r0, r0, #6
     eec:	0008aa98 	muleq	r8, r8, sl
     ef0:	20038400 	andcs	r8, r3, r0, lsl #8
     ef4:	02000008 	andeq	r0, r0, #8
     ef8:	00019199 	muleq	r1, r9, r1
     efc:	b0039000 	andlt	r9, r3, r0
     f00:	02000006 	andeq	r0, r0, #6
     f04:	0008aa9a 	muleq	r8, sl, sl
     f08:	4d039400 	cfstrsmi	mvf9, [r3, #-0]
     f0c:	0200000c 	andeq	r0, r0, #12
     f10:	0001919b 	muleq	r1, fp, r1
     f14:	bb03a000 	bllt	e8f1c <_start-0x800170e4>
     f18:	02000006 	andeq	r0, r0, #6
     f1c:	0008aa9c 	muleq	r8, ip, sl
     f20:	5503a400 	strpl	sl, [r3, #-1024]	; 0xfffffc00
     f24:	0200000c 	andeq	r0, r0, #12
     f28:	0001919d 	muleq	r1, sp, r1
     f2c:	c603b000 	strgt	fp, [r3], -r0
     f30:	02000006 	andeq	r0, r0, #6
     f34:	0008aa9e 	muleq	r8, lr, sl
     f38:	b803b400 	stmdalt	r3, {sl, ip, sp, pc}
     f3c:	0200000b 	andeq	r0, r0, #11
     f40:	0001919f 	muleq	r1, pc, r1	; <UNPREDICTABLE>
     f44:	d103c000 	mrsle	ip, (UNDEF: 3)
     f48:	02000006 	andeq	r0, r0, #6
     f4c:	0008aaa0 	andeq	sl, r8, r0, lsr #21
     f50:	c103c400 	tstgt	r3, r0, lsl #8
     f54:	0200000b 	andeq	r0, r0, #11
     f58:	000191a1 	andeq	r9, r1, r1, lsr #3
     f5c:	dc03d000 	stcle	0, cr13, [r3], {-0}
     f60:	02000006 	andeq	r0, r0, #6
     f64:	0008aaa2 	andeq	sl, r8, r2, lsr #21
     f68:	7d03d400 	cfstrsvc	mvf13, [r3, #-0]
     f6c:	0200000c 	andeq	r0, r0, #12
     f70:	000191a3 	andeq	r9, r1, r3, lsr #3
     f74:	6b03e000 	blvs	f8f7c <_start-0x80007084>
     f78:	0200000e 	andeq	r0, r0, #14
     f7c:	0008aaa4 	andeq	sl, r8, r4, lsr #21
     f80:	d603e400 	strle	lr, [r3], -r0, lsl #8
     f84:	0200000b 	andeq	r0, r0, #11
     f88:	000191a5 	andeq	r9, r1, r5, lsr #3
     f8c:	7703f000 	strvc	pc, [r3, -r0]
     f90:	0200000e 	andeq	r0, r0, #14
     f94:	0008aaa6 	andeq	sl, r8, r6, lsr #21
     f98:	9f0bf400 	svcls	0x000bf400
     f9c:	0200000c 	andeq	r0, r0, #12
     fa0:	000191a7 	andeq	r9, r1, r7, lsr #3
     fa4:	0b010000 	bleq	40fac <_start-0x800bf054>
     fa8:	00000e83 	andeq	r0, r0, r3, lsl #29
     fac:	08aaa802 	stmiaeq	sl!, {r1, fp, sp, pc}
     fb0:	01040000 	mrseq	r0, (UNDEF: 4)
     fb4:	0008630b 	andeq	r6, r8, fp, lsl #6
     fb8:	91a90200 			; <UNDEFINED> instruction: 0x91a90200
     fbc:	10000001 	andne	r0, r0, r1
     fc0:	0e8f0b01 	vdiveq.f64	d0, d15, d1
     fc4:	aa020000 	bge	80fcc <_start-0x8007f034>
     fc8:	000008aa 	andeq	r0, r0, sl, lsr #17
     fcc:	6e0b0114 	mcrvs	1, 0, r0, cr11, cr4, {0}
     fd0:	02000008 	andeq	r0, r0, #8
     fd4:	000191ab 	andeq	r9, r1, fp, lsr #3
     fd8:	0b012000 	bleq	48fe0 <_start-0x800b7020>
     fdc:	00000a7a 	andeq	r0, r0, sl, ror sl
     fe0:	08aaac02 	stmiaeq	sl!, {r1, sl, fp, sp, pc}
     fe4:	01240000 			; <UNDEFINED> instruction: 0x01240000
     fe8:	0008790b 	andeq	r7, r8, fp, lsl #18
     fec:	91ad0200 			; <UNDEFINED> instruction: 0x91ad0200
     ff0:	30000001 	andcc	r0, r0, r1
     ff4:	0ea40b01 	vfmaeq.f64	d0, d4, d1
     ff8:	ae020000 	cdpge	0, 0, cr0, cr2, cr0, {0}
     ffc:	000008aa 	andeq	r0, r0, sl, lsr #17
    1000:	840b0134 	strhi	r0, [fp], #-308	; 0xfffffecc
    1004:	02000008 	andeq	r0, r0, #8
    1008:	000191af 	andeq	r9, r1, pc, lsr #3
    100c:	0b014000 	bleq	51014 <_start-0x800aefec>
    1010:	00000eb0 			; <UNDEFINED> instruction: 0x00000eb0
    1014:	08aab002 	stmiaeq	sl!, {r1, ip, sp, pc}
    1018:	01440000 	mrseq	r0, (UNDEF: 68)
    101c:	00088f0b 	andeq	r8, r8, fp, lsl #30
    1020:	91b10200 			; <UNDEFINED> instruction: 0x91b10200
    1024:	50000001 	andpl	r0, r0, r1
    1028:	0ebc0b01 	vmoveq.f64	d0, #193	; 0xbe080000 -0.1328125
    102c:	b2020000 	andlt	r0, r2, #0
    1030:	000008aa 	andeq	r0, r0, sl, lsr #17
    1034:	ec0b0154 	stfs	f0, [fp], {84}	; 0x54
    1038:	0200000e 	andeq	r0, r0, #14
    103c:	000191b3 			; <UNDEFINED> instruction: 0x000191b3
    1040:	0b016000 	bleq	59048 <_start-0x800a6fb8>
    1044:	00000ec8 	andeq	r0, r0, r8, asr #29
    1048:	08aab402 	stmiaeq	sl!, {r1, sl, ip, sp, pc}
    104c:	01640000 	cmneq	r4, r0
    1050:	000c5d0b 	andeq	r5, ip, fp, lsl #26
    1054:	91b50200 			; <UNDEFINED> instruction: 0x91b50200
    1058:	70000001 	andvc	r0, r0, r1
    105c:	0ed40b01 	vfnmseq.f64	d16, d4, d1
    1060:	b6020000 	strlt	r0, [r2], -r0
    1064:	000008aa 	andeq	r0, r0, sl, lsr #17
    1068:	af0b0174 	svcge	0x000b0174
    106c:	02000008 	andeq	r0, r0, #8
    1070:	000191b7 			; <UNDEFINED> instruction: 0x000191b7
    1074:	0b018000 	bleq	6107c <_start-0x8009ef84>
    1078:	00000ca8 	andeq	r0, r0, r8, lsr #25
    107c:	08aab802 	stmiaeq	sl!, {r1, fp, ip, sp, pc}
    1080:	01840000 	orreq	r0, r4, r0
    1084:	0005bf0b 	andeq	fp, r5, fp, lsl #30
    1088:	91b90200 			; <UNDEFINED> instruction: 0x91b90200
    108c:	90000001 	andls	r0, r0, r1
    1090:	09500b01 	ldmdbeq	r0, {r0, r8, r9, fp}^
    1094:	ba020000 	blt	8109c <_start-0x8007ef64>
    1098:	000008aa 	andeq	r0, r0, sl, lsr #17
    109c:	a70b0194 			; <UNDEFINED> instruction: 0xa70b0194
    10a0:	02000009 	andeq	r0, r0, #9
    10a4:	000191bb 			; <UNDEFINED> instruction: 0x000191bb
    10a8:	0b01a000 	bleq	690b0 <_start-0x80096f50>
    10ac:	000008a3 	andeq	r0, r0, r3, lsr #17
    10b0:	08aabc02 	stmiaeq	sl!, {r1, sl, fp, ip, sp, pc}
    10b4:	01a40000 			; <UNDEFINED> instruction: 0x01a40000
    10b8:	0009ab0b 	andeq	sl, r9, fp, lsl #22
    10bc:	91bd0200 			; <UNDEFINED> instruction: 0x91bd0200
    10c0:	b0000001 	andlt	r0, r0, r1
    10c4:	0ee00b01 	vfmaeq.f64	d16, d0, d1
    10c8:	be020000 	cdplt	0, 0, cr0, cr2, cr0, {0}
    10cc:	000008ba 			; <UNDEFINED> instruction: 0x000008ba
    10d0:	420b01b4 	andmi	r0, fp, #180, 2	; 0x2d
    10d4:	02000009 	andeq	r0, r0, #9
    10d8:	000191bf 			; <UNDEFINED> instruction: 0x000191bf
    10dc:	0b020000 	bleq	810e4 <_start-0x8007ef1c>
    10e0:	00000ef7 	strdeq	r0, [r0], -r7
    10e4:	08aac002 	stmiaeq	sl!, {r1, lr, pc}
    10e8:	02040000 	andeq	r0, r4, #0
    10ec:	00099f0b 	andeq	r9, r9, fp, lsl #30
    10f0:	91c10200 	bicls	r0, r1, r0, lsl #4
    10f4:	10000001 	andne	r0, r0, r1
    10f8:	0ddd0b02 	vldreq	d16, [sp, #8]
    10fc:	c2020000 	andgt	r0, r2, #0
    1100:	000008aa 	andeq	r0, r0, sl, lsr #17
    1104:	dd0b0214 	sfmle	f0, 4, [fp, #-80]	; 0xffffffb0
    1108:	02000005 	andeq	r0, r0, #5
    110c:	000191c3 	andeq	r9, r1, r3, asr #3
    1110:	0b022000 	bleq	89118 <_start-0x80076ee8>
    1114:	00000df3 	strdeq	r0, [r0], -r3
    1118:	08aac402 	stmiaeq	sl!, {r1, sl, lr, pc}
    111c:	02240000 	eoreq	r0, r4, #0
    1120:	000a400b 	andeq	r4, sl, fp
    1124:	91c50200 	bicls	r0, r5, r0, lsl #4
    1128:	30000001 	andcc	r0, r0, r1
    112c:	0f6b0b02 	svceq	0x006b0b02
    1130:	c6020000 	strgt	r0, [r2], -r0
    1134:	000008aa 	andeq	r0, r0, sl, lsr #17
    1138:	f20b0234 	vqsub.s8	d0, d11, d20
    113c:	0200000b 	andeq	r0, r0, #11
    1140:	000191c7 	andeq	r9, r1, r7, asr #3
    1144:	0b024000 	bleq	9114c <_start-0x8006eeb4>
    1148:	0000036e 	andeq	r0, r0, lr, ror #6
    114c:	08aac802 	stmiaeq	sl!, {r1, fp, lr, pc}
    1150:	02440000 	subeq	r0, r4, #0
    1154:	000f7e0b 	andeq	r7, pc, fp, lsl #28
    1158:	91c90200 	bicls	r0, r9, r0, lsl #4
    115c:	50000001 	andpl	r0, r0, r1
    1160:	037a0b02 	cmneq	sl, #2048	; 0x800
    1164:	ca020000 	bgt	8116c <_start-0x8007ee94>
    1168:	000008aa 	andeq	r0, r0, sl, lsr #17
    116c:	e80b0254 	stmda	fp, {r2, r4, r6, r9}
    1170:	02000009 	andeq	r0, r0, #9
    1174:	000191cb 	andeq	r9, r1, fp, asr #3
    1178:	00026000 	andeq	r6, r2, r0
    117c:	0004bd08 	andeq	fp, r4, r8, lsl #26
    1180:	0008ba00 	andeq	fp, r8, r0, lsl #20
    1184:	04b60900 	ldrteq	r0, [r6], #2304	; 0x900
    1188:	000b0000 	andeq	r0, fp, r0
    118c:	0004bd08 	andeq	fp, r4, r8, lsl #26
    1190:	0008ca00 	andeq	ip, r8, r0, lsl #20
    1194:	04b60900 	ldrteq	r0, [r6], #2304	; 0x900
    1198:	004b0000 	subeq	r0, fp, r0
    119c:	0007bd06 	andeq	fp, r7, r6, lsl #26
    11a0:	dfcc0200 	svcle	0x00cc0200
    11a4:	0a000004 	beq	11bc <_start-0x800fee44>
    11a8:	cf020180 	svcgt	0x00020180
    11ac:	00000bf3 	strdeq	r0, [r0], -r3
    11b0:	00094803 	andeq	r4, r9, r3, lsl #16
    11b4:	91d00200 	bicsls	r0, r0, r0, lsl #4
    11b8:	00000001 	andeq	r0, r0, r1
    11bc:	00091103 	andeq	r1, r9, r3, lsl #2
    11c0:	91d10200 	bicsls	r0, r1, r0, lsl #4
    11c4:	04000001 	streq	r0, [r0], #-1
    11c8:	0007b103 	andeq	fp, r7, r3, lsl #2
    11cc:	91d20200 	bicsls	r0, r2, r0, lsl #4
    11d0:	08000001 	stmdaeq	r0, {r0}
    11d4:	000a3403 	andeq	r3, sl, r3, lsl #8
    11d8:	91d30200 	bicsls	r0, r3, r0, lsl #4
    11dc:	0c000001 	stceq	0, cr0, [r0], {1}
    11e0:	000e6203 	andeq	r6, lr, r3, lsl #4
    11e4:	91d40200 	bicsls	r0, r4, r0, lsl #4
    11e8:	10000001 	andne	r0, r0, r1
    11ec:	00093503 	andeq	r3, r9, r3, lsl #10
    11f0:	91d50200 	bicsls	r0, r5, r0, lsl #4
    11f4:	14000001 	strne	r0, [r0], #-1
    11f8:	0007c803 	andeq	ip, r7, r3, lsl #16
    11fc:	91d60200 	bicsls	r0, r6, r0, lsl #4
    1200:	18000001 	stmdane	r0, {r0}
    1204:	0009db03 	andeq	sp, r9, r3, lsl #22
    1208:	91d70200 	bicsls	r0, r7, r0, lsl #4
    120c:	1c000001 	stcne	0, cr0, [r0], {1}
    1210:	000fb003 	andeq	fp, pc, r3
    1214:	91d80200 	bicsls	r0, r8, r0, lsl #4
    1218:	20000001 	andcs	r0, r0, r1
    121c:	000c6703 	andeq	r6, ip, r3, lsl #14
    1220:	91d90200 	bicsls	r0, r9, r0, lsl #4
    1224:	24000001 	strcs	r0, [r0], #-1
    1228:	000b8a03 	andeq	r8, fp, r3, lsl #20
    122c:	91da0200 	bicsls	r0, sl, r0, lsl #4
    1230:	28000001 	stmdacs	r0, {r0}
    1234:	000c8603 	andeq	r8, ip, r3, lsl #12
    1238:	91db0200 	bicsls	r0, fp, r0, lsl #4
    123c:	2c000001 	stccs	0, cr0, [r0], {1}
    1240:	00039203 	andeq	r9, r3, r3, lsl #4
    1244:	91dc0200 	bicsls	r0, ip, r0, lsl #4
    1248:	30000001 	andcc	r0, r0, r1
    124c:	000a2803 	andeq	r2, sl, r3, lsl #16
    1250:	91dd0200 	bicsls	r0, sp, r0, lsl #4
    1254:	34000001 	strcc	r0, [r0], #-1
    1258:	00085703 	andeq	r5, r8, r3, lsl #14
    125c:	91de0200 	bicsls	r0, lr, r0, lsl #4
    1260:	38000001 	stmdacc	r0, {r0}
    1264:	000be603 	andeq	lr, fp, r3, lsl #12
    1268:	91df0200 	bicsls	r0, pc, r0, lsl #4
    126c:	3c000001 	stccc	0, cr0, [r0], {1}
    1270:	0005b403 	andeq	fp, r5, r3, lsl #8
    1274:	91e00200 	mvnls	r0, r0, lsl #4
    1278:	40000001 	andmi	r0, r0, r1
    127c:	00068303 	andeq	r8, r6, r3, lsl #6
    1280:	aae10200 	bge	ff841a88 <__bss_end+0x7f741128>
    1284:	44000008 	strmi	r0, [r0], #-8
    1288:	000a1c03 	andeq	r1, sl, r3, lsl #24
    128c:	91e20200 	mvnls	r0, r0, lsl #4
    1290:	50000001 	andpl	r0, r0, r1
    1294:	00068e03 	andeq	r8, r6, r3, lsl #28
    1298:	aae30200 	bge	ff8c1aa0 <__bss_end+0x7f7c1140>
    129c:	54000008 	strpl	r0, [r0], #-8
    12a0:	000a6c03 	andeq	r6, sl, r3, lsl #24
    12a4:	91e40200 	mvnls	r0, r0, lsl #4
    12a8:	60000001 	andvs	r0, r0, r1
    12ac:	000cce03 	andeq	ip, ip, r3, lsl #28
    12b0:	aae50200 	bge	ff941ab8 <__bss_end+0x7f841158>
    12b4:	64000008 	strvs	r0, [r0], #-8
    12b8:	000e1003 	andeq	r1, lr, r3
    12bc:	91e60200 	mvnls	r0, r0, lsl #4
    12c0:	70000001 	andvc	r0, r0, r1
    12c4:	0003ff03 	andeq	pc, r3, r3, lsl #30
    12c8:	91e70200 	mvnls	r0, r0, lsl #4
    12cc:	74000001 	strvc	r0, [r0], #-1
    12d0:	0007f803 	andeq	pc, r7, r3, lsl #16
    12d4:	91e80200 	mvnls	r0, r0, lsl #4
    12d8:	78000001 	stmdavc	r0, {r0}
    12dc:	0007e303 	andeq	lr, r7, r3, lsl #6
    12e0:	91e90200 	mvnls	r0, r0, lsl #4
    12e4:	7c000001 	stcvc	0, cr0, [r0], {1}
    12e8:	0008be03 	andeq	fp, r8, r3, lsl #28
    12ec:	91ea0200 	mvnls	r0, r0, lsl #4
    12f0:	80000001 	andhi	r0, r0, r1
    12f4:	00098403 	andeq	r8, r9, r3, lsl #8
    12f8:	aaeb0200 	bge	ffac1b00 <__bss_end+0x7f9c11a0>
    12fc:	84000008 	strhi	r0, [r0], #-8
    1300:	00098f03 	andeq	r8, r9, r3, lsl #30
    1304:	91ec0200 	mvnls	r0, r0, lsl #4
    1308:	90000001 	andls	r0, r0, r1
    130c:	0006a503 	andeq	sl, r6, r3, lsl #10
    1310:	aaed0200 	bge	ffb41b18 <__bss_end+0x7fa411b8>
    1314:	94000008 	strls	r0, [r0], #-8
    1318:	000e0603 	andeq	r0, lr, r3, lsl #12
    131c:	91ee0200 	mvnls	r0, r0, lsl #4
    1320:	a0000001 	andge	r0, r0, r1
    1324:	00061803 	andeq	r1, r6, r3, lsl #16
    1328:	91ef0200 	mvnls	r0, r0, lsl #4
    132c:	a4000001 	strge	r0, [r0], #-1
    1330:	00079d03 	andeq	r9, r7, r3, lsl #26
    1334:	91f00200 	mvnsls	r0, r0, lsl #4
    1338:	a8000001 	stmdage	r0, {r0}
    133c:	00090303 	andeq	r0, r9, r3, lsl #6
    1340:	91f10200 	mvnsls	r0, r0, lsl #4
    1344:	ac000001 	stcge	0, cr0, [r0], {1}
    1348:	00043b03 	andeq	r3, r4, r3, lsl #22
    134c:	91f20200 	mvnsls	r0, r0, lsl #4
    1350:	b0000001 	andlt	r0, r0, r1
    1354:	0006b003 	andeq	fp, r6, r3
    1358:	aaf30200 	bge	ffcc1b60 <__bss_end+0x7fbc1200>
    135c:	b4000008 	strlt	r0, [r0], #-8
    1360:	00091d03 	andeq	r1, r9, r3, lsl #26
    1364:	91f40200 	mvnsls	r0, r0, lsl #4
    1368:	c0000001 	andgt	r0, r0, r1
    136c:	0006bb03 	andeq	fp, r6, r3, lsl #22
    1370:	f3f50200 	vclt.s16	d16, d0, #0
    1374:	c400000b 	strgt	r0, [r0], #-11
    1378:	000f8c03 	andeq	r8, pc, r3, lsl #24
    137c:	91f60200 	mvnsls	r0, r0, lsl #4
    1380:	e0000001 	and	r0, r0, r1
    1384:	000e3c03 	andeq	r3, lr, r3, lsl #24
    1388:	91f70200 	mvnsls	r0, r0, lsl #4
    138c:	e4000001 	str	r0, [r0], #-1
    1390:	000bab03 	andeq	sl, fp, r3, lsl #22
    1394:	91f80200 	mvnsls	r0, r0, lsl #4
    1398:	e8000001 	stmda	r0, {r0}
    139c:	000e4903 	andeq	r4, lr, r3, lsl #18
    13a0:	91f90200 	mvnsls	r0, r0, lsl #4
    13a4:	ec000001 	stc	0, cr0, [r0], {1}
    13a8:	0003a203 	andeq	sl, r3, r3, lsl #4
    13ac:	91fa0200 	mvnsls	r0, r0, lsl #4
    13b0:	f0000001 			; <UNDEFINED> instruction: 0xf0000001
    13b4:	000c9303 	andeq	r9, ip, r3, lsl #6
    13b8:	91fb0200 	mvnsls	r0, r0, lsl #4
    13bc:	f4000001 	vst4.8	{d0-d3}, [r0], r1
    13c0:	0009b003 	andeq	fp, r9, r3
    13c4:	91fc0200 	mvnsls	r0, r0, lsl #4
    13c8:	f8000001 			; <UNDEFINED> instruction: 0xf8000001
    13cc:	000e5603 	andeq	r5, lr, r3, lsl #12
    13d0:	91fd0200 	mvnsls	r0, r0, lsl #4
    13d4:	fc000001 	stc2	0, cr0, [r0], {1}
    13d8:	0003f70b 	andeq	pc, r3, fp, lsl #14
    13dc:	91fe0200 	mvnsls	r0, r0, lsl #4
    13e0:	00000001 	andeq	r0, r0, r1
    13e4:	0fe40b01 	svceq	0x00e40b01
    13e8:	ff020000 			; <UNDEFINED> instruction: 0xff020000
    13ec:	00000191 	muleq	r0, r1, r1
    13f0:	ff0c0104 			; <UNDEFINED> instruction: 0xff0c0104
    13f4:	0200000b 	andeq	r0, r0, #11
    13f8:	01910100 	orrseq	r0, r1, r0, lsl #2
    13fc:	01080000 	mrseq	r0, (UNDEF: 8)
    1400:	000f950c 	andeq	r9, pc, ip, lsl #10
    1404:	01010200 	mrseq	r0, R9_usr
    1408:	00000191 	muleq	r0, r1, r1
    140c:	c60c010c 	strgt	r0, [ip], -ip, lsl #2
    1410:	02000006 	andeq	r0, r0, #6
    1414:	0c030102 	stfeqs	f0, [r3], {2}
    1418:	01100000 	tsteq	r0, r0
    141c:	000c110c 	andeq	r1, ip, ip, lsl #2
    1420:	01030200 	mrseq	r0, R11_usr
    1424:	00000191 	muleq	r0, r1, r1
    1428:	230c0150 	movwcs	r0, #49488	; 0xc150
    142c:	0200000c 	andeq	r0, r0, #12
    1430:	01910104 	orrseq	r0, r1, r4, lsl #2
    1434:	01540000 	cmpeq	r4, r0
    1438:	00097a0c 	andeq	r7, r9, ip, lsl #20
    143c:	01050200 	mrseq	r0, SP_usr
    1440:	00000191 	muleq	r0, r1, r1
    1444:	240c0158 	strcs	r0, [ip], #-344	; 0xfffffea8
    1448:	0200000e 	andeq	r0, r0, #14
    144c:	01910106 	orrseq	r0, r1, r6, lsl #2
    1450:	015c0000 	cmpeq	ip, r0
    1454:	000c170c 	andeq	r1, ip, ip, lsl #14
    1458:	01070200 	mrseq	r0, (UNDEF: 39)
    145c:	00000191 	muleq	r0, r1, r1
    1460:	060c0160 	streq	r0, [ip], -r0, ror #2
    1464:	02000008 	andeq	r0, r0, #8
    1468:	01910108 	orrseq	r0, r1, r8, lsl #2
    146c:	01640000 	cmneq	r4, r0
    1470:	0005cd0c 	andeq	ip, r5, ip, lsl #26
    1474:	01090200 	mrseq	r0, R9_fiq
    1478:	00000191 	muleq	r0, r1, r1
    147c:	cc0c0168 	stfgts	f0, [ip], {104}	; 0x68
    1480:	02000008 	andeq	r0, r0, #8
    1484:	0191010a 	orrseq	r0, r1, sl, lsl #2
    1488:	016c0000 	cmneq	ip, r0
    148c:	000c1d0c 	andeq	r1, ip, ip, lsl #26
    1490:	010b0200 	mrseq	r0, R11_fiq
    1494:	00000191 	muleq	r0, r1, r1
    1498:	100c0170 	andne	r0, ip, r0, ror r1
    149c:	02000010 	andeq	r0, r0, #16
    14a0:	0191010c 	orrseq	r0, r1, ip, lsl #2
    14a4:	01740000 	cmneq	r4, r0
    14a8:	000de90c 	andeq	lr, sp, ip, lsl #18
    14ac:	010d0200 	mrseq	r0, SP_fiq
    14b0:	00000191 	muleq	r0, r1, r1
    14b4:	160c0178 			; <UNDEFINED> instruction: 0x160c0178
    14b8:	02000004 	andeq	r0, r0, #4
    14bc:	0191010e 	orrseq	r0, r1, lr, lsl #2
    14c0:	017c0000 	cmneq	ip, r0
    14c4:	04bd0800 	ldrteq	r0, [sp], #2048	; 0x800
    14c8:	0c030000 	stceq	0, cr0, [r3], {-0}
    14cc:	b6090000 	strlt	r0, [r9], -r0
    14d0:	1b000004 	blne	14e8 <_start-0x800feb18>
    14d4:	04bd0800 	ldrteq	r0, [sp], #2048	; 0x800
    14d8:	0c130000 	ldceq	0, cr0, [r3], {-0}
    14dc:	b6090000 	strlt	r0, [r9], -r0
    14e0:	3f000004 	svccc	0x00000004
    14e4:	06460d00 	strbeq	r0, [r6], -r0, lsl #26
    14e8:	0f020000 	svceq	0x00020000
    14ec:	0008d501 	andeq	sp, r8, r1, lsl #10
    14f0:	01300e00 	teqeq	r0, r0, lsl #28
    14f4:	03100000 	tsteq	r0, #0
    14f8:	000c5b0c 	andeq	r5, ip, ip, lsl #22
    14fc:	65640700 	strbvs	r0, [r4, #-1792]!	; 0xfffff900
    1500:	5b0d0300 	blpl	342108 <_start-0x7fdbdef8>
    1504:	0000000c 	andeq	r0, r0, ip
    1508:	0001a203 	andeq	sl, r1, r3, lsl #4
    150c:	5b0e0300 	blpl	382114 <_start-0x7fd7deec>
    1510:	0400000c 	streq	r0, [r0], #-12
    1514:	00018403 	andeq	r8, r1, r3, lsl #8
    1518:	5b0f0300 	blpl	3c2120 <_start-0x7fd3dee0>
    151c:	0800000c 	stmdaeq	r0, {r2, r3}
    1520:	0001f103 	andeq	pc, r1, r3, lsl #2
    1524:	5b100300 	blpl	40212c <_start-0x7fcfded4>
    1528:	0c00000c 	stceq	0, cr0, [r0], {12}
    152c:	05040f00 	streq	r0, [r4, #-3840]	; 0xfffff100
    1530:	00746e69 	rsbseq	r6, r4, r9, ror #28
    1534:	00013006 	andeq	r3, r1, r6
    1538:	1f110300 	svcne	0x00110300
    153c:	0e00000c 	cdpeq	0, 0, cr0, cr0, cr12, {0}
    1540:	00000205 	andeq	r0, r0, r5, lsl #4
    1544:	ce13031c 	mrcgt	3, 0, r0, cr3, cr12, {0}
    1548:	0700000c 	streq	r0, [r0, -ip]
    154c:	00707674 	rsbseq	r7, r0, r4, ror r6
    1550:	0c5b1503 	cfldr64eq	mvdx1, [fp], {3}
    1554:	07000000 	streq	r0, [r0, -r0]
    1558:	00627674 	rsbeq	r7, r2, r4, ror r6
    155c:	0c5b1603 	mrrceq	6, 0, r1, fp, cr3
    1560:	07040000 	streq	r0, [r4, -r0]
    1564:	00667674 	rsbeq	r7, r6, r4, ror r6
    1568:	0c5b1703 	mrrceq	7, 0, r1, fp, cr3
    156c:	07080000 	streq	r0, [r8, -r0]
    1570:	00706874 	rsbseq	r6, r0, r4, ror r8
    1574:	0c5b1a03 	mrrceq	10, 0, r1, fp, cr3
    1578:	070c0000 	streq	r0, [ip, -r0]
    157c:	00626874 	rsbeq	r6, r2, r4, ror r8
    1580:	0c5b1b03 	mrrceq	11, 0, r1, fp, cr3
    1584:	07100000 	ldreq	r0, [r0, -r0]
    1588:	00666874 	rsbeq	r6, r6, r4, ror r8
    158c:	0c5b1c03 	mrrceq	12, 0, r1, fp, cr3
    1590:	03140000 	tsteq	r4, #0
    1594:	000001a2 	andeq	r0, r0, r2, lsr #3
    1598:	0c5b1e03 	mrrceq	14, 0, r1, fp, cr3
    159c:	00180000 	andseq	r0, r8, r0
    15a0:	00020506 	andeq	r0, r2, r6, lsl #10
    15a4:	6d1f0300 	ldcvs	3, cr0, [pc, #-0]	; 15ac <_start-0x800fea54>
    15a8:	0e00000c 	cdpeq	0, 0, cr0, cr0, cr12, {0}
    15ac:	000001a9 	andeq	r0, r0, r9, lsr #3
    15b0:	3a220340 	bcc	8822b8 <_start-0x7f87dd48>
    15b4:	0300000d 	movweq	r0, #13
    15b8:	000001f7 	strdeq	r0, [r0], -r7
    15bc:	0d3a2403 	cfldrseq	mvf2, [sl, #-12]!
    15c0:	03000000 	movweq	r0, #0
    15c4:	000001fc 	strdeq	r0, [r0], -ip
    15c8:	0c622703 	stcleq	7, cr2, [r2], #-12
    15cc:	03040000 	movweq	r0, #16384	; 0x4000
    15d0:	0000013e 	andeq	r0, r0, lr, lsr r1
    15d4:	0cce2a03 	vstmiaeq	lr, {s5-s7}
    15d8:	03140000 	tsteq	r4, #0
    15dc:	000000cf 	andeq	r0, r0, pc, asr #1
    15e0:	0c5b2d03 	mrrceq	13, 0, r2, fp, cr3
    15e4:	03300000 	teqeq	r0, #0
    15e8:	000000f8 	strdeq	r0, [r0], -r8
    15ec:	0c5b2e03 	mrrceq	14, 0, r2, fp, cr3
    15f0:	07340000 	ldreq	r0, [r4, -r0]!
    15f4:	00707062 	rsbseq	r7, r0, r2, rrx
    15f8:	0c5b2f03 	mrrceq	15, 0, r2, fp, cr3
    15fc:	03380000 	teqeq	r8, #0
    1600:	000000dd 	ldrdeq	r0, [r0], -sp
    1604:	018a3203 	orreq	r3, sl, r3, lsl #4
    1608:	003c0000 	eorseq	r0, ip, r0
    160c:	0d400410 	cfstrdeq	mvd0, [r0, #-64]	; 0xffffffc0
    1610:	01040000 	mrseq	r0, (UNDEF: 4)
    1614:	000e3708 	andeq	r3, lr, r8, lsl #14
    1618:	01a70600 			; <UNDEFINED> instruction: 0x01a70600
    161c:	34030000 	strcc	r0, [r3], #-0
    1620:	00000d52 	andeq	r0, r0, r2, asr sp
    1624:	0cd90410 	cfldrdeq	mvd0, [r9], {16}
    1628:	ca0e0000 	bgt	381630 <_start-0x7fd7e9d0>
    162c:	10000003 	andne	r0, r0, r3
    1630:	0d950704 	ldceq	7, cr0, [r5, #16]
    1634:	f7030000 			; <UNDEFINED> instruction: 0xf7030000
    1638:	04000001 	streq	r0, [r0], #-1
    163c:	000d3a08 	andeq	r3, sp, r8, lsl #20
    1640:	31030000 	mrscc	r0, (UNDEF: 3)
    1644:	04000002 	streq	r0, [r0], #-2
    1648:	000da009 	andeq	sl, sp, r9
    164c:	52030400 	andpl	r0, r3, #0, 8
    1650:	04000002 	streq	r0, [r0], #-2
    1654:	000da70a 	andeq	sl, sp, sl, lsl #14
    1658:	3a030800 	bcc	c3660 <_start-0x8003c9a0>
    165c:	04000002 	streq	r0, [r0], #-2
    1660:	000da70b 	andeq	sl, sp, fp, lsl #14
    1664:	11000c00 	tstne	r0, r0, lsl #24
    1668:	00000da0 	andeq	r0, r0, r0, lsr #27
    166c:	000d4712 	andeq	r4, sp, r2, lsl r7
    1670:	04100000 	ldreq	r0, [r0], #-0
    1674:	00000d95 	muleq	r0, r5, sp
    1678:	a6041013 			; <UNDEFINED> instruction: 0xa6041013
    167c:	1400000d 	strne	r0, [r0], #-13
    1680:	00000fa1 	andeq	r0, r0, r1, lsr #31
    1684:	0dbe0501 	cfldr32eq	mvfx0, [lr, #4]!
    1688:	03050000 	movweq	r0, #20480	; 0x5000
    168c:	80100900 	andshi	r0, r0, r0, lsl #18
    1690:	01910410 	orrseq	r0, r1, r0, lsl r4
    1694:	f3140000 	vhadd.u16	d0, d4, d0
    1698:	01000009 	tsteq	r0, r9
    169c:	000dbe06 	andeq	fp, sp, r6, lsl #28
    16a0:	04030500 	streq	r0, [r3], #-1280	; 0xfffffb00
    16a4:	14801009 	strne	r1, [r0], #9
    16a8:	00000c74 	andeq	r0, r0, r4, ror ip
    16ac:	0dbe0701 	ldceq	7, cr0, [lr, #4]!
    16b0:	03050000 	movweq	r0, #20480	; 0x5000
    16b4:	80100908 	andshi	r0, r0, r8, lsl #18
    16b8:	0003c215 	andeq	ip, r3, r5, lsl r2
    16bc:	01010100 	mrseq	r0, (UNDEF: 17)
    16c0:	00000d58 	andeq	r0, r0, r8, asr sp
    16c4:	090c0305 	stmdbeq	ip, {r0, r2, r8, r9}
    16c8:	20168010 	andscs	r8, r6, r0, lsl r0
    16cc:	01000004 	tsteq	r0, r4
    16d0:	088a0112 	stmeq	sl, {r1, r4, r8}
    16d4:	00148010 	andseq	r8, r4, r0, lsl r0
    16d8:	9c010000 	stcls	0, cr0, [r1], {-0}
    16dc:	0009bc17 	andeq	fp, r9, r7, lsl ip
    16e0:	64fc0100 	ldrbtvs	r0, [ip], #256	; 0x100
    16e4:	26801008 	strcs	r1, [r0], r8
    16e8:	01000000 	mrseq	r0, (UNDEF: 0)
    16ec:	09fe179c 	ldmibeq	lr!, {r2, r3, r4, r7, r8, r9, sl, ip}^
    16f0:	f8010000 			; <UNDEFINED> instruction: 0xf8010000
    16f4:	8010083e 	andshi	r0, r0, lr, lsr r8
    16f8:	00000026 	andeq	r0, r0, r6, lsr #32
    16fc:	c8189c01 	ldmdagt	r8, {r0, sl, fp, ip, pc}
    1700:	0100000f 	tsteq	r0, pc
    1704:	1005a832 	andne	sl, r5, r2, lsr r8
    1708:	00029680 	andeq	r9, r2, r0, lsl #13
    170c:	5e9c0100 	fmlple	f0, f4, f0
    1710:	1900000e 	stmdbne	r0, {r1, r2, r3}
    1714:	00000125 	andeq	r0, r0, r5, lsr #2
    1718:	0d473201 	sfmeq	f3, 2, [r7, #-4]
    171c:	91020000 	mrsls	r0, (UNDEF: 2)
    1720:	089a146c 	ldmeq	sl, {r2, r3, r5, r6, sl, ip}
    1724:	34010000 	strcc	r0, [r1], #-0
    1728:	00000c5b 	andeq	r0, r0, fp, asr ip
    172c:	00749102 	rsbseq	r9, r4, r2, lsl #2
    1730:	000b971a 	andeq	r9, fp, sl, lsl r7
    1734:	f0090100 			; <UNDEFINED> instruction: 0xf0090100
    1738:	b8801004 	stmlt	r0, {r2, ip}
    173c:	01000000 	mrseq	r0, (UNDEF: 0)
    1740:	000e8e9c 	muleq	lr, ip, lr
    1744:	07971400 	ldreq	r1, [r7, r0, lsl #8]
    1748:	0b010000 	bleq	41750 <_start-0x800be8b0>
    174c:	00000e8e 	andeq	r0, r0, lr, lsl #29
    1750:	1b749102 	blne	1d25b60 <_start-0x7e3da4a0>
    1754:	0c010069 	stceq	0, cr0, [r1], {105}	; 0x69
    1758:	0000018a 	andeq	r0, r0, sl, lsl #3
    175c:	00709102 	rsbseq	r9, r0, r2, lsl #2
    1760:	018a0410 	orreq	r0, sl, r0, lsl r4
    1764:	Address 0x0000000000001764 is out of bounds.


Disassembly of section .debug_abbrev:

00000000 <.debug_abbrev>:
   0:	10001101 	andne	r1, r0, r1, lsl #2
   4:	12011106 	andne	r1, r1, #-2147483647	; 0x80000001
   8:	1b080301 	blne	200c14 <_start-0x7feff3ec>
   c:	13082508 	movwne	r2, #34056	; 0x8508
  10:	00000005 	andeq	r0, r0, r5
  14:	25011101 	strcs	r1, [r1, #-257]	; 0xfffffeff
  18:	030b130e 	movweq	r1, #45838	; 0xb30e
  1c:	110e1b0e 	tstne	lr, lr, lsl #22
  20:	10061201 	andne	r1, r6, r1, lsl #4
  24:	02000017 	andeq	r0, r0, #23
  28:	0b0b0024 	bleq	2c00c0 <_start-0x7fe3ff40>
  2c:	0e030b3e 	vmoveq.16	d3[0], r0
  30:	24030000 	strcs	r0, [r3], #-0
  34:	3e0b0b00 	vmlacc.f64	d0, d11, d0
  38:	0008030b 	andeq	r0, r8, fp, lsl #6
  3c:	002e0400 	eoreq	r0, lr, r0, lsl #8
  40:	0e03193f 			; <UNDEFINED> instruction: 0x0e03193f
  44:	0b3b0b3a 	bleq	ec2d34 <_start-0x7f23d2cc>
  48:	13491927 	movtne	r1, #39207	; 0x9927
  4c:	06120111 			; <UNDEFINED> instruction: 0x06120111
  50:	42961840 	addsmi	r1, r6, #64, 16	; 0x400000
  54:	05000019 	streq	r0, [r0, #-25]	; 0xffffffe7
  58:	193f012e 	ldmdbne	pc!, {r1, r2, r3, r5, r8}	; <UNPREDICTABLE>
  5c:	0b3a0e03 	bleq	e83870 <_start-0x7f27c790>
  60:	19270b3b 	stmdbne	r7!, {r0, r1, r3, r4, r5, r8, r9, fp}
  64:	06120111 			; <UNDEFINED> instruction: 0x06120111
  68:	42961840 	addsmi	r1, r6, #64, 16	; 0x400000
  6c:	00130119 	andseq	r0, r3, r9, lsl r1
  70:	00340600 	eorseq	r0, r4, r0, lsl #12
  74:	0b3a0e03 	bleq	e83888 <_start-0x7f27c778>
  78:	13490b3b 	movtne	r0, #39739	; 0x9b3b
  7c:	00001802 	andeq	r1, r0, r2, lsl #16
  80:	03003407 	movweq	r3, #1031	; 0x407
  84:	3b0b3a08 	blcc	2ce8ac <_start-0x7fe31754>
  88:	0213490b 	andseq	r4, r3, #180224	; 0x2c000
  8c:	08000018 	stmdaeq	r0, {r3, r4}
  90:	0b0b000f 	bleq	2c00d4 <_start-0x7fe3ff2c>
  94:	00001349 	andeq	r1, r0, r9, asr #6
  98:	01110100 	tsteq	r1, r0, lsl #2
  9c:	0b130e25 	bleq	4c3938 <_start-0x7fc3c6c8>
  a0:	0e1b0e03 	cdpeq	14, 1, cr0, cr11, cr3, {0}
  a4:	06120111 			; <UNDEFINED> instruction: 0x06120111
  a8:	00001710 	andeq	r1, r0, r0, lsl r7
  ac:	0b002402 	bleq	90bc <_start-0x800f6f44>
  b0:	030b3e0b 	movweq	r3, #48651	; 0xbe0b
  b4:	0300000e 	movweq	r0, #14
  b8:	0e030113 	mcreq	1, 0, r0, cr3, cr3, {0}
  bc:	0b3a0b0b 	bleq	e82cf0 <_start-0x7f27d310>
  c0:	13010b3b 	movwne	r0, #6971	; 0x1b3b
  c4:	0d040000 	stceq	0, cr0, [r4, #-0]
  c8:	3a080300 	bcc	200cd0 <_start-0x7feff330>
  cc:	490b3b0b 	stmdbmi	fp, {r0, r1, r3, r8, r9, fp, ip, sp}
  d0:	000b3813 	andeq	r3, fp, r3, lsl r8
  d4:	000d0500 	andeq	r0, sp, r0, lsl #10
  d8:	0b3a0e03 	bleq	e838ec <_start-0x7f27c714>
  dc:	13490b3b 	movtne	r0, #39739	; 0x9b3b
  e0:	00000b38 	andeq	r0, r0, r8, lsr fp
  e4:	0b002406 	bleq	9104 <_start-0x800f6efc>
  e8:	030b3e0b 	movweq	r3, #48651	; 0xbe0b
  ec:	07000008 	streq	r0, [r0, -r8]
  f0:	0e030016 	mcreq	0, 0, r0, cr3, cr6, {0}
  f4:	0b3b0b3a 	bleq	ec2de4 <_start-0x7f23d21c>
  f8:	00001349 	andeq	r1, r0, r9, asr #6
  fc:	0b000f08 	bleq	3d24 <_start-0x800fc2dc>
 100:	0013490b 	andseq	r4, r3, fp, lsl #18
 104:	00260900 	eoreq	r0, r6, r0, lsl #18
 108:	00001349 	andeq	r1, r0, r9, asr #6
 10c:	2701150a 	strcs	r1, [r1, -sl, lsl #10]
 110:	00130119 	andseq	r0, r3, r9, lsl r1
 114:	00050b00 	andeq	r0, r5, r0, lsl #22
 118:	00001349 	andeq	r1, r0, r9, asr #6
 11c:	2700150c 	strcs	r1, [r0, -ip, lsl #10]
 120:	0d000019 	stceq	0, cr0, [r0, #-100]	; 0xffffff9c
 124:	13490101 	movtne	r0, #37121	; 0x9101
 128:	00001301 	andeq	r1, r0, r1, lsl #6
 12c:	4900210e 	stmdbmi	r0, {r1, r2, r3, r8, sp}
 130:	000b2f13 	andeq	r2, fp, r3, lsl pc
 134:	00340f00 	eorseq	r0, r4, r0, lsl #30
 138:	0b3a0e03 	bleq	e8394c <_start-0x7f27c6b4>
 13c:	13490b3b 	movtne	r0, #39739	; 0x9b3b
 140:	00001802 	andeq	r1, r0, r2, lsl #16
 144:	3f002e10 	svccc	0x00002e10
 148:	3a0e0319 	bcc	380db4 <_start-0x7fd7f24c>
 14c:	270b3b0b 	strcs	r3, [fp, -fp, lsl #22]
 150:	12011119 	andne	r1, r1, #1073741830	; 0x40000006
 154:	96184006 	ldrls	r4, [r8], -r6
 158:	00001942 	andeq	r1, r0, r2, asr #18
 15c:	3f012e11 	svccc	0x00012e11
 160:	3a0e0319 	bcc	380dcc <_start-0x7fd7f234>
 164:	270b3b0b 	strcs	r3, [fp, -fp, lsl #22]
 168:	11134919 	tstne	r3, r9, lsl r9
 16c:	40061201 	andmi	r1, r6, r1, lsl #4
 170:	19429618 	stmdbne	r2, {r3, r4, r9, sl, ip, pc}^
 174:	00001301 	andeq	r1, r0, r1, lsl #6
 178:	03000512 	movweq	r0, #1298	; 0x512
 17c:	3b0b3a0e 	blcc	2ce9bc <_start-0x7fe31644>
 180:	0213490b 	andseq	r4, r3, #180224	; 0x2c000
 184:	13000018 	movwne	r0, #24
 188:	08030034 	stmdaeq	r3, {r2, r4, r5}
 18c:	0b3b0b3a 	bleq	ec2e7c <_start-0x7f23d184>
 190:	18021349 	stmdane	r2, {r0, r3, r6, r8, r9, ip}
 194:	2e140000 	cdpcs	0, 1, cr0, cr4, cr0, {0}
 198:	03193f01 	tsteq	r9, #1, 30
 19c:	3b0b3a0e 	blcc	2ce9dc <_start-0x7fe31624>
 1a0:	4919270b 	ldmdbmi	r9, {r0, r1, r3, r8, r9, sl, sp}
 1a4:	12011113 	andne	r1, r1, #-1073741820	; 0xc0000004
 1a8:	97184006 	ldrls	r4, [r8, -r6]
 1ac:	13011942 	movwne	r1, #6466	; 0x1942
 1b0:	05150000 	ldreq	r0, [r5, #-0]
 1b4:	3a080300 	bcc	200dbc <_start-0x7feff244>
 1b8:	490b3b0b 	stmdbmi	fp, {r0, r1, r3, r8, r9, fp, ip, sp}
 1bc:	00180213 	andseq	r0, r8, r3, lsl r2
 1c0:	11010000 	mrsne	r0, (UNDEF: 1)
 1c4:	130e2501 	movwne	r2, #58625	; 0xe501
 1c8:	1b0e030b 	blne	380dfc <_start-0x7fd7f204>
 1cc:	1201110e 	andne	r1, r1, #-2147483645	; 0x80000003
 1d0:	00171006 	andseq	r1, r7, r6
 1d4:	00240200 	eoreq	r0, r4, r0, lsl #4
 1d8:	0b3e0b0b 	bleq	f82e0c <_start-0x7f17d1f4>
 1dc:	00000e03 	andeq	r0, r0, r3, lsl #28
 1e0:	03011303 	movweq	r1, #4867	; 0x1303
 1e4:	3a0b0b0e 	bcc	2c2e24 <_start-0x7fe3d1dc>
 1e8:	010b3b0b 	tsteq	fp, fp, lsl #22
 1ec:	04000013 	streq	r0, [r0], #-19	; 0xffffffed
 1f0:	0803000d 	stmdaeq	r3, {r0, r2, r3}
 1f4:	0b3b0b3a 	bleq	ec2ee4 <_start-0x7f23d11c>
 1f8:	0b381349 	bleq	e04f24 <_start-0x7f2fb0dc>
 1fc:	0d050000 	stceq	0, cr0, [r5, #-0]
 200:	3a0e0300 	bcc	380e08 <_start-0x7fd7f1f8>
 204:	490b3b0b 	stmdbmi	fp, {r0, r1, r3, r8, r9, fp, ip, sp}
 208:	000b3813 	andeq	r3, fp, r3, lsl r8
 20c:	00240600 	eoreq	r0, r4, r0, lsl #12
 210:	0b3e0b0b 	bleq	f82e44 <_start-0x7f17d1bc>
 214:	00000803 	andeq	r0, r0, r3, lsl #16
 218:	49003507 	stmdbmi	r0, {r0, r1, r2, r8, sl, ip, sp}
 21c:	08000013 	stmdaeq	r0, {r0, r1, r4}
 220:	0e030016 	mcreq	0, 0, r0, cr3, cr6, {0}
 224:	0b3b0b3a 	bleq	ec2f14 <_start-0x7f23d0ec>
 228:	00001349 	andeq	r1, r0, r9, asr #6
 22c:	0b000f09 	bleq	3e58 <_start-0x800fc1a8>
 230:	0013490b 	andseq	r4, r3, fp, lsl #18
 234:	01010a00 	tsteq	r1, r0, lsl #20
 238:	13011349 	movwne	r1, #4937	; 0x1349
 23c:	210b0000 	mrscs	r0, (UNDEF: 11)
 240:	2f134900 	svccs	0x00134900
 244:	0c00000b 	stceq	0, cr0, [r0], {11}
 248:	0e030034 	mcreq	0, 0, r0, cr3, cr4, {1}
 24c:	0b3b0b3a 	bleq	ec2f3c <_start-0x7f23d0c4>
 250:	18021349 	stmdane	r2, {r0, r3, r6, r8, r9, ip}
 254:	2e0d0000 	cdpcs	0, 0, cr0, cr13, cr0, {0}
 258:	03193f00 	tsteq	r9, #0, 30
 25c:	3b0b3a0e 	blcc	2cea9c <_start-0x7fe31564>
 260:	1119270b 	tstne	r9, fp, lsl #14
 264:	40061201 	andmi	r1, r6, r1, lsl #4
 268:	19429618 	stmdbne	r2, {r3, r4, r9, sl, ip, pc}^
 26c:	2e0e0000 	cdpcs	0, 0, cr0, cr14, cr0, {0}
 270:	03193f01 	tsteq	r9, #1, 30
 274:	3b0b3a0e 	blcc	2ceab4 <_start-0x7fe3154c>
 278:	1119270b 	tstne	r9, fp, lsl #14
 27c:	40061201 	andmi	r1, r6, r1, lsl #4
 280:	19429718 	stmdbne	r2, {r3, r4, r8, r9, sl, ip, pc}^
 284:	00001301 	andeq	r1, r0, r1, lsl #6
 288:	0300050f 	movweq	r0, #1295	; 0x50f
 28c:	3b0b3a0e 	blcc	2ceacc <_start-0x7fe31534>
 290:	0213490b 	andseq	r4, r3, #180224	; 0x2c000
 294:	10000018 	andne	r0, r0, r8, lsl r0
 298:	08030005 	stmdaeq	r3, {r0, r2}
 29c:	0b3b0b3a 	bleq	ec2f8c <_start-0x7f23d074>
 2a0:	18021349 	stmdane	r2, {r0, r3, r6, r8, r9, ip}
 2a4:	2e110000 	cdpcs	0, 1, cr0, cr1, cr0, {0}
 2a8:	03193f01 	tsteq	r9, #1, 30
 2ac:	3b0b3a0e 	blcc	2ceaec <_start-0x7fe31514>
 2b0:	4919270b 	ldmdbmi	r9, {r0, r1, r3, r8, r9, sl, sp}
 2b4:	12011113 	andne	r1, r1, #-1073741820	; 0xc0000004
 2b8:	96184006 	ldrls	r4, [r8], -r6
 2bc:	13011942 	movwne	r1, #6466	; 0x1942
 2c0:	34120000 	ldrcc	r0, [r2], #-0
 2c4:	3a080300 	bcc	200ecc <_start-0x7feff134>
 2c8:	490b3b0b 	stmdbmi	fp, {r0, r1, r3, r8, r9, fp, ip, sp}
 2cc:	00180213 	andseq	r0, r8, r3, lsl r2
 2d0:	012e1300 			; <UNDEFINED> instruction: 0x012e1300
 2d4:	0e03193f 			; <UNDEFINED> instruction: 0x0e03193f
 2d8:	0b3b0b3a 	bleq	ec2fc8 <_start-0x7f23d038>
 2dc:	13491927 	movtne	r1, #39207	; 0x9927
 2e0:	06120111 			; <UNDEFINED> instruction: 0x06120111
 2e4:	42971840 	addsmi	r1, r7, #64, 16	; 0x400000
 2e8:	00130119 	andseq	r0, r3, r9, lsl r1
 2ec:	012e1400 			; <UNDEFINED> instruction: 0x012e1400
 2f0:	0e03193f 			; <UNDEFINED> instruction: 0x0e03193f
 2f4:	0b3b0b3a 	bleq	ec2fe4 <_start-0x7f23d01c>
 2f8:	01111927 	tsteq	r1, r7, lsr #18
 2fc:	18400612 	stmdane	r0, {r1, r4, r9, sl}^
 300:	00194297 	mulseq	r9, r7, r2
 304:	11010000 	mrsne	r0, (UNDEF: 1)
 308:	130e2501 	movwne	r2, #58625	; 0xe501
 30c:	1b0e030b 	blne	380f40 <_start-0x7fd7f0c0>
 310:	1201110e 	andne	r1, r1, #-2147483645	; 0x80000003
 314:	00171006 	andseq	r1, r7, r6
 318:	01040200 	mrseq	r0, R12_usr
 31c:	13490b0b 	movtne	r0, #39691	; 0x9b0b
 320:	0b3b0b3a 	bleq	ec3010 <_start-0x7f23cff0>
 324:	00001301 	andeq	r1, r0, r1, lsl #6
 328:	03002803 	movweq	r2, #2051	; 0x803
 32c:	000b1c0e 	andeq	r1, fp, lr, lsl #24
 330:	00240400 	eoreq	r0, r4, r0, lsl #8
 334:	0b3e0b0b 	bleq	f82f68 <_start-0x7f17d098>
 338:	00000e03 	andeq	r0, r0, r3, lsl #28
 33c:	03011305 	movweq	r1, #4869	; 0x1305
 340:	3a0b0b0e 	bcc	2c2f80 <_start-0x7fe3d080>
 344:	010b3b0b 	tsteq	fp, fp, lsl #22
 348:	06000013 			; <UNDEFINED> instruction: 0x06000013
 34c:	0803000d 	stmdaeq	r3, {r0, r2, r3}
 350:	0b3b0b3a 	bleq	ec3040 <_start-0x7f23cfc0>
 354:	0b381349 	bleq	e05080 <_start-0x7f2faf80>
 358:	0d070000 	stceq	0, cr0, [r7, #-0]
 35c:	3a0e0300 	bcc	380f64 <_start-0x7fd7f09c>
 360:	490b3b0b 	stmdbmi	fp, {r0, r1, r3, r8, r9, fp, ip, sp}
 364:	000b3813 	andeq	r3, fp, r3, lsl r8
 368:	00240800 	eoreq	r0, r4, r0, lsl #16
 36c:	0b3e0b0b 	bleq	f82fa0 <_start-0x7f17d060>
 370:	00000803 	andeq	r0, r0, r3, lsl #16
 374:	03001609 	movweq	r1, #1545	; 0x609
 378:	3b0b3a0e 	blcc	2cebb8 <_start-0x7fe31448>
 37c:	0013490b 	andseq	r4, r3, fp, lsl #18
 380:	000f0a00 	andeq	r0, pc, r0, lsl #20
 384:	13490b0b 	movtne	r0, #39691	; 0x9b0b
 388:	340b0000 	strcc	r0, [fp], #-0
 38c:	3a0e0300 	bcc	380f94 <_start-0x7fd7f06c>
 390:	490b3b0b 	stmdbmi	fp, {r0, r1, r3, r8, r9, fp, ip, sp}
 394:	02193f13 	andseq	r3, r9, #19, 30	; 0x4c
 398:	0c000018 	stceq	0, cr0, [r0], {24}
 39c:	193f002e 	ldmdbne	pc!, {r1, r2, r3, r5}	; <UNPREDICTABLE>
 3a0:	0b3a0e03 	bleq	e83bb4 <_start-0x7f27c44c>
 3a4:	19270b3b 	stmdbne	r7!, {r0, r1, r3, r4, r5, r8, r9, fp}
 3a8:	06120111 			; <UNDEFINED> instruction: 0x06120111
 3ac:	42961840 	addsmi	r1, r6, #64, 16	; 0x400000
 3b0:	00000019 	andeq	r0, r0, r9, lsl r0
 3b4:	25011101 	strcs	r1, [r1, #-257]	; 0xfffffeff
 3b8:	030b130e 	movweq	r1, #45838	; 0xb30e
 3bc:	110e1b0e 	tstne	lr, lr, lsl #22
 3c0:	10061201 	andne	r1, r6, r1, lsl #4
 3c4:	02000017 	andeq	r0, r0, #23
 3c8:	0b0b0113 	bleq	2c081c <_start-0x7fe3f7e4>
 3cc:	0b3b0b3a 	bleq	ec30bc <_start-0x7f23cf44>
 3d0:	00001301 	andeq	r1, r0, r1, lsl #6
 3d4:	03000d03 	movweq	r0, #3331	; 0xd03
 3d8:	3b0b3a0e 	blcc	2cec18 <_start-0x7fe313e8>
 3dc:	3813490b 	ldmdacc	r3, {r0, r1, r3, r8, fp, lr}
 3e0:	0400000b 	streq	r0, [r0], #-11
 3e4:	0b0b0024 	bleq	2c047c <_start-0x7fe3fb84>
 3e8:	0e030b3e 	vmoveq.16	d3[0], r0
 3ec:	35050000 	strcc	r0, [r5, #-0]
 3f0:	00134900 	andseq	r4, r3, r0, lsl #18
 3f4:	00160600 	andseq	r0, r6, r0, lsl #12
 3f8:	0b3a0e03 	bleq	e83c0c <_start-0x7f27c3f4>
 3fc:	13490b3b 	movtne	r0, #39739	; 0x9b3b
 400:	0d070000 	stceq	0, cr0, [r7, #-0]
 404:	3a080300 	bcc	20100c <_start-0x7fefeff4>
 408:	490b3b0b 	stmdbmi	fp, {r0, r1, r3, r8, r9, fp, ip, sp}
 40c:	000b3813 	andeq	r3, fp, r3, lsl r8
 410:	01010800 	tsteq	r1, r0, lsl #16
 414:	13011349 	movwne	r1, #4937	; 0x1349
 418:	21090000 	mrscs	r0, (UNDEF: 9)
 41c:	2f134900 	svccs	0x00134900
 420:	0a00000b 	beq	454 <_start-0x800ffbac>
 424:	050b0113 	streq	r0, [fp, #-275]	; 0xfffffeed
 428:	0b3b0b3a 	bleq	ec3118 <_start-0x7f23cee8>
 42c:	00001301 	andeq	r1, r0, r1, lsl #6
 430:	03000d0b 	movweq	r0, #3339	; 0xd0b
 434:	3b0b3a0e 	blcc	2cec74 <_start-0x7fe3138c>
 438:	3813490b 	ldmdacc	r3, {r0, r1, r3, r8, fp, lr}
 43c:	0c000005 	stceq	0, cr0, [r0], {5}
 440:	0e03000d 	cdpeq	0, 0, cr0, cr3, cr13, {0}
 444:	053b0b3a 	ldreq	r0, [fp, #-2874]!	; 0xfffff4c6
 448:	05381349 	ldreq	r1, [r8, #-841]!	; 0xfffffcb7
 44c:	160d0000 	strne	r0, [sp], -r0
 450:	3a0e0300 	bcc	381058 <_start-0x7fd7efa8>
 454:	49053b0b 	stmdbmi	r5, {r0, r1, r3, r8, r9, fp, ip, sp}
 458:	0e000013 	mcreq	0, 0, r0, cr0, cr3, {0}
 45c:	0e030113 	mcreq	1, 0, r0, cr3, cr3, {0}
 460:	0b3a0b0b 	bleq	e83094 <_start-0x7f27cf6c>
 464:	13010b3b 	movwne	r0, #6971	; 0x1b3b
 468:	240f0000 	strcs	r0, [pc], #-0	; 470 <_start-0x800ffb90>
 46c:	3e0b0b00 	vmlacc.f64	d0, d11, d0
 470:	0008030b 	andeq	r0, r8, fp, lsl #6
 474:	000f1000 	andeq	r1, pc, r0
 478:	13490b0b 	movtne	r0, #39691	; 0x9b0b
 47c:	15110000 	ldrne	r0, [r1, #-0]
 480:	01192701 	tsteq	r9, r1, lsl #14
 484:	12000013 	andne	r0, r0, #19
 488:	13490005 	movtne	r0, #36869	; 0x9005
 48c:	15130000 	ldrne	r0, [r3, #-0]
 490:	00192700 	andseq	r2, r9, r0, lsl #14
 494:	00341400 	eorseq	r1, r4, r0, lsl #8
 498:	0b3a0e03 	bleq	e83cac <_start-0x7f27c354>
 49c:	13490b3b 	movtne	r0, #39739	; 0x9b3b
 4a0:	00001802 	andeq	r1, r0, r2, lsl #16
 4a4:	03003415 	movweq	r3, #1045	; 0x415
 4a8:	3b0b3a0e 	blcc	2cece8 <_start-0x7fe31318>
 4ac:	3f134905 	svccc	0x00134905
 4b0:	00180219 	andseq	r0, r8, r9, lsl r2
 4b4:	002e1600 	eoreq	r1, lr, r0, lsl #12
 4b8:	0e03193f 			; <UNDEFINED> instruction: 0x0e03193f
 4bc:	053b0b3a 	ldreq	r0, [fp, #-2874]!	; 0xfffff4c6
 4c0:	01111927 	tsteq	r1, r7, lsr #18
 4c4:	18400612 	stmdane	r0, {r1, r4, r9, sl}^
 4c8:	00194296 	mulseq	r9, r6, r2
 4cc:	002e1700 	eoreq	r1, lr, r0, lsl #14
 4d0:	0b3a0e03 	bleq	e83ce4 <_start-0x7f27c31c>
 4d4:	19270b3b 	stmdbne	r7!, {r0, r1, r3, r4, r5, r8, r9, fp}
 4d8:	06120111 			; <UNDEFINED> instruction: 0x06120111
 4dc:	42971840 	addsmi	r1, r7, #64, 16	; 0x400000
 4e0:	18000019 	stmdane	r0, {r0, r3, r4}
 4e4:	0e03012e 	adfeqsp	f0, f3, #0.5
 4e8:	0b3b0b3a 	bleq	ec31d8 <_start-0x7f23ce28>
 4ec:	01111927 	tsteq	r1, r7, lsr #18
 4f0:	18400612 	stmdane	r0, {r1, r4, r9, sl}^
 4f4:	01194296 			; <UNDEFINED> instruction: 0x01194296
 4f8:	19000013 	stmdbne	r0, {r0, r1, r4}
 4fc:	0e030005 	cdpeq	0, 0, cr0, cr3, cr5, {0}
 500:	0b3b0b3a 	bleq	ec31f0 <_start-0x7f23ce10>
 504:	18021349 	stmdane	r2, {r0, r3, r6, r8, r9, ip}
 508:	2e1a0000 	cdpcs	0, 1, cr0, cr10, cr0, {0}
 50c:	3a0e0301 	bcc	381118 <_start-0x7fd7eee8>
 510:	270b3b0b 	strcs	r3, [fp, -fp, lsl #22]
 514:	12011119 	andne	r1, r1, #1073741830	; 0x40000006
 518:	97184006 	ldrls	r4, [r8, -r6]
 51c:	13011942 	movwne	r1, #6466	; 0x1942
 520:	341b0000 	ldrcc	r0, [fp], #-0
 524:	3a080300 	bcc	20112c <_start-0x7fefeed4>
 528:	490b3b0b 	stmdbmi	fp, {r0, r1, r3, r8, r9, fp, ip, sp}
 52c:	00180213 	andseq	r0, r8, r3, lsl r2
	...

Disassembly of section .debug_aranges:

00000000 <.debug_aranges>:
   0:	0000001c 	andeq	r0, r0, ip, lsl r0
   4:	00000002 	andeq	r0, r0, r2
   8:	00040000 	andeq	r0, r4, r0
   c:	00000000 	andeq	r0, r0, r0
  10:	80100000 	andshi	r0, r0, r0
  14:	0000003c 	andeq	r0, r0, ip, lsr r0
	...
  20:	0000001c 	andeq	r0, r0, ip, lsl r0
  24:	00830002 	addeq	r0, r3, r2
  28:	00040000 	andeq	r0, r4, r0
  2c:	00000000 	andeq	r0, r0, r0
  30:	8010003c 	andshi	r0, r0, ip, lsr r0
  34:	0000018e 	andeq	r0, r0, lr, lsl #3
	...
  40:	0000001c 	andeq	r0, r0, ip, lsl r0
  44:	01650002 	cmneq	r5, r2
  48:	00040000 	andeq	r0, r4, r0
  4c:	00000000 	andeq	r0, r0, r0
  50:	801001ca 	andshi	r0, r0, sl, asr #3
  54:	00000186 	andeq	r0, r0, r6, lsl #3
	...
  60:	0000001c 	andeq	r0, r0, ip, lsl r0
  64:	04800002 	streq	r0, [r0], #2
  68:	00040000 	andeq	r0, r4, r0
  6c:	00000000 	andeq	r0, r0, r0
  70:	80100350 	andshi	r0, r0, r0, asr r3
  74:	0000018c 	andeq	r0, r0, ip, lsl #3
	...
  80:	0000001c 	andeq	r0, r0, ip, lsl r0
  84:	07370002 	ldreq	r0, [r7, -r2]!
  88:	00040000 	andeq	r0, r4, r0
  8c:	00000000 	andeq	r0, r0, r0
  90:	801004dc 			; <UNDEFINED> instruction: 0x801004dc
  94:	00000014 	andeq	r0, r0, r4, lsl r0
	...
  a0:	0000001c 	andeq	r0, r0, ip, lsl r0
  a4:	08d20002 	ldmeq	r2, {r1}^
  a8:	00040000 	andeq	r0, r4, r0
  ac:	00000000 	andeq	r0, r0, r0
  b0:	801004f0 			; <UNDEFINED> instruction: 0x801004f0
  b4:	000003ae 	andeq	r0, r0, lr, lsr #7
	...

Disassembly of section .debug_str:

00000000 <.debug_str>:
       0:	20554e47 	subscs	r4, r5, r7, asr #28
       4:	20313143 	eorscs	r3, r1, r3, asr #2
       8:	2e322e36 	mrccs	14, 1, r2, cr2, cr6, {1}
       c:	30322031 	eorscc	r2, r2, r1, lsr r0
      10:	30313631 	eorscc	r3, r1, r1, lsr r6
      14:	2d203631 	stccs	6, cr3, [r0, #-196]!	; 0xffffff3c
      18:	6372616d 	cmnvs	r2, #1073741851	; 0x4000001b
      1c:	72613d68 	rsbvc	r3, r1, #104, 26	; 0x1a00
      20:	2d37766d 	ldccs	6, cr7, [r7, #-436]!	; 0xfffffe4c
      24:	6d2d2061 	stcvs	0, cr2, [sp, #-388]!	; 0xfffffe7c
      28:	656e7574 	strbvs	r7, [lr, #-1396]!	; 0xfffffa8c
      2c:	726f633d 	rsbvc	r6, pc, #-201326592	; 0xf4000000
      30:	2d786574 	cfldr64cs	mvdx6, [r8, #-464]!	; 0xfffffe30
      34:	2d203961 			; <UNDEFINED> instruction: 0x2d203961
      38:	6f6c666d 	svcvs	0x006c666d
      3c:	612d7461 			; <UNDEFINED> instruction: 0x612d7461
      40:	683d6962 	ldmdavs	sp!, {r1, r5, r6, r8, fp, sp, lr}
      44:	20647261 	rsbcs	r7, r4, r1, ror #4
      48:	70666d2d 	rsbvc	r6, r6, sp, lsr #26
      4c:	66763d75 			; <UNDEFINED> instruction: 0x66763d75
      50:	2d337670 	ldccs	6, cr7, [r3, #-448]!	; 0xfffffe40
      54:	20363164 	eorscs	r3, r6, r4, ror #2
      58:	68746d2d 	ldmdavs	r4!, {r0, r2, r3, r5, r8, sl, fp, sp, lr}^
      5c:	20626d75 	rsbcs	r6, r2, r5, ror sp
      60:	6c746d2d 	ldclvs	13, cr6, [r4], #-180	; 0xffffff4c
      64:	69642d73 	stmdbvs	r4!, {r0, r1, r4, r5, r6, r8, sl, fp, sp}^
      68:	63656c61 	cmnvs	r5, #24832	; 0x6100
      6c:	6e673d74 	mcrvs	13, 3, r3, cr7, cr4, {3}
      70:	672d2075 			; <UNDEFINED> instruction: 0x672d2075
      74:	69616d00 	stmdbvs	r1!, {r8, sl, fp, sp, lr}^
      78:	00632e6e 	rsbeq	r2, r3, lr, ror #28
      7c:	6d6f682f 	stclvs	8, cr6, [pc, #-188]!	; ffffffc8 <__bss_end+0x7feff668>
      80:	6f622f65 	svcvs	0x00622f65
      84:	442f6b6f 	strtmi	r6, [pc], #-2927	; 8c <_start-0x800fff74>
      88:	6c6e776f 	stclvs	7, cr7, [lr], #-444	; 0xfffffe44
      8c:	7364616f 	cmnvc	r4, #-1073741797	; 0xc000001b
      90:	3030312f 	eorscc	r3, r0, pc, lsr #2
      94:	5f6b7361 	svcpl	0x006b7361
      98:	36786d69 	ldrbtcc	r6, [r8], -r9, ror #26
      9c:	5f6c6c75 	svcpl	0x006c6c75
      a0:	736f6f4e 	cmnvc	pc, #312	; 0x138
      a4:	676f7250 			; <UNDEFINED> instruction: 0x676f7250
      a8:	506d6172 	rsbpl	r6, sp, r2, ror r1
      ac:	656a6f72 	strbvs	r6, [sl, #-3954]!	; 0xfffff08e
      b0:	312f7463 			; <UNDEFINED> instruction: 0x312f7463
      b4:	434c5f35 	movtmi	r5, #53045	; 0xcf35
      b8:	96bce744 	ldrtls	lr, [ip], r4, asr #14
      bc:	2f8ba8e7 	svccs	0x008ba8e7
      c0:	735f3130 	cmpvc	pc, #48, 2
      c4:	6c706d69 	ldclvs	13, cr6, [r0], #-420	; 0xfffffe5c
      c8:	65745f65 	ldrbvs	r5, [r4, #-3941]!	; 0xfffff09b
      cc:	78007473 	stmdavc	r0, {r0, r1, r4, r5, r6, sl, ip, sp, lr}
      d0:	00736572 	rsbseq	r6, r3, r2, ror r5
      d4:	5f64636c 	svcpl	0x0064636c
      d8:	74736574 	ldrbtvc	r6, [r3], #-1396	; 0xfffffa8c
      dc:	5f626600 	svcpl	0x00626600
      e0:	65736162 	ldrbvs	r6, [r3, #-354]!	; 0xfffffe9e
      e4:	6f687300 	svcvs	0x00687300
      e8:	75207472 	strvc	r7, [r0, #-1138]!	; 0xfffffb8e
      ec:	6769736e 	strbvs	r7, [r9, -lr, ror #6]!
      f0:	2064656e 	rsbcs	r6, r4, lr, ror #10
      f4:	00746e69 	rsbseq	r6, r4, r9, ror #28
      f8:	73657279 	cmnvc	r5, #-1879048185	; 0x90000007
      fc:	69616d00 	stmdbvs	r1!, {r8, sl, fp, sp, lr}^
     100:	5f70006e 	svcpl	0x0070006e
     104:	5f64636c 	svcpl	0x0064636c
     108:	746e6f63 	strbtvc	r6, [lr], #-3939	; 0xfffff09d
     10c:	6c6c6f72 	stclvs	15, cr6, [ip], #-456	; 0xfffffe38
     110:	6c007265 	sfmvs	f7, 4, [r0], {101}	; 0x65
     114:	635f6463 	cmpvs	pc, #1660944384	; 0x63000000
     118:	6f746e6f 	svcvs	0x00746e6f
     11c:	72656c6c 	rsbvc	r6, r5, #108, 24	; 0x6c00
     120:	6464615f 	strbtvs	r6, [r4], #-351	; 0xfffffea1
     124:	636c7000 	cmnvs	ip, #0
     128:	72617064 	rsbvc	r7, r1, #100	; 0x64
     12c:	00736d61 	rsbseq	r6, r3, r1, ror #26
     130:	736e6970 	cmnvc	lr, #112, 18	; 0x1c0000
     134:	6c6f705f 	stclvs	0, cr7, [pc], #-380	; ffffffc0 <__bss_end+0x7feff660>
     138:	74697261 	strbtvc	r7, [r9], #-609	; 0xfffffd9f
     13c:	69740079 	ldmdbvs	r4!, {r0, r3, r4, r5, r6}^
     140:	735f656d 	cmpvc	pc, #457179136	; 0x1b400000
     144:	70007165 	andvc	r7, r0, r5, ror #2
     148:	6364636c 	cmnvs	r4, #108, 6	; 0xb0000001
     14c:	6c006e6f 	stcvs	14, cr6, [r0], {111}	; 0x6f
     150:	635f6463 	cmpvs	pc, #1660944384	; 0x63000000
     154:	72746e6f 	rsbsvc	r6, r4, #1776	; 0x6f0
     158:	656c6c6f 	strbvs	r6, [ip, #-3183]!	; 0xfffff391
     15c:	616d5f72 	smcvs	54770	; 0xd5f2
     160:	6567616e 	strbvs	r6, [r7, #-366]!	; 0xfffffe92
     164:	00632e72 	rsbeq	r2, r3, r2, ror lr
     168:	5f705f67 	svcpl	0x00705f67
     16c:	5f64636c 	svcpl	0x0064636c
     170:	746e6f63 	strbtvc	r6, [lr], #-3939	; 0xfffff09d
     174:	6c6c6f72 	stclvs	15, cr6, [ip], #-456	; 0xfffffe38
     178:	735f7265 	cmpvc	pc, #1342177286	; 0x50000006
     17c:	63656c65 	cmnvs	r5, #25856	; 0x6500
     180:	00646574 	rsbeq	r6, r4, r4, ror r5
     184:	6e797368 	cdpvs	3, 7, cr7, cr9, cr8, {3}
     188:	65720063 	ldrbvs	r0, [r2, #-99]!	; 0xffffff9d
     18c:	74736967 	ldrbtvc	r6, [r3], #-2407	; 0xfffff699
     190:	6c5f7265 	lfmvs	f7, 2, [pc], {101}	; 0x65
     194:	635f6463 	cmpvs	pc, #1660944384	; 0x63000000
     198:	72746e6f 	rsbsvc	r6, r4, #1776	; 0x6f0
     19c:	656c6c6f 	strbvs	r6, [ip, #-3183]!	; 0xfffff391
     1a0:	63760072 	cmnvs	r6, #114	; 0x72
     1a4:	70006b6c 	andvc	r6, r0, ip, ror #22
     1a8:	64636c5f 	strbtvs	r6, [r3], #-3167	; 0xfffff3a1
     1ac:	7261705f 	rsbvc	r7, r1, #95	; 0x5f
     1b0:	00736d61 	rsbseq	r6, r3, r1, ror #26
     1b4:	72615f70 	rsbvc	r5, r1, #112, 30	; 0x1c0
     1b8:	5f796172 	svcpl	0x00796172
     1bc:	5f64636c 	svcpl	0x0064636c
     1c0:	746e6f63 	strbtvc	r6, [lr], #-3939	; 0xfffff09d
     1c4:	6c6c6f72 	stclvs	15, cr6, [ip], #-456	; 0xfffffe38
     1c8:	73007265 	movwvc	r7, #613	; 0x265
     1cc:	6d637274 	sfmvs	f7, 2, [r3, #-464]!	; 0xfffffe30
     1d0:	69730070 	ldmdbvs	r3!, {r4, r5, r6}^
     1d4:	7974657a 	ldmdbvc	r4!, {r1, r3, r4, r5, r6, r8, sl, sp, lr}^
     1d8:	73006570 	movwvc	r6, #1392	; 0x570
     1dc:	63656c65 	cmnvs	r5, #25856	; 0x6500
     1e0:	636c5f74 	cmnvs	ip, #116, 30	; 0x1d0
     1e4:	6f635f64 	svcvs	0x00635f64
     1e8:	6f72746e 	svcvs	0x0072746e
     1ec:	72656c6c 	rsbvc	r6, r5, #108, 24	; 0x6c00
     1f0:	79737600 	ldmdbvc	r3!, {r9, sl, ip, sp, lr}^
     1f4:	6e00636e 	cdpvs	3, 0, cr6, cr0, cr14, {3}
     1f8:	00656d61 	rsbeq	r6, r5, r1, ror #26
     1fc:	736e6970 	cmnvc	lr, #112, 18	; 0x1c0000
     200:	6c6f705f 	stclvs	0, cr7, [pc], #-380	; 8c <_start-0x800fff74>
     204:	6d697400 	cfstrdvs	mvd7, [r9, #-0]
     208:	65735f65 	ldrbvs	r5, [r3, #-3941]!	; 0xfffff09b
     20c:	6e657571 	mcrvs	5, 3, r7, cr5, cr1, {3}
     210:	5f006563 	svcpl	0x00006563
     214:	7365725f 	cmnvc	r5, #-268435451	; 0xf0000005
     218:	64636c00 	strbtvs	r6, [r3], #-3072	; 0xfffff400
     21c:	6e616d5f 	mcrvs	13, 3, r6, cr1, cr15, {2}
     220:	72656761 	rsbvc	r6, r5, #25427968	; 0x1840000
     224:	6400632e 	strvs	r6, [r0], #-814	; 0xfffffcd2
     228:	79616c65 	stmdbvc	r1!, {r0, r2, r5, r6, sl, fp, sp, lr}^
     22c:	64636c00 	strbtvs	r6, [r3], #-3072	; 0xfffff400
     230:	696e695f 	stmdbvs	lr!, {r0, r1, r2, r3, r4, r6, r8, fp, sp, lr}^
     234:	636c0074 	cmnvs	ip, #116	; 0x74
     238:	69645f64 	stmdbvs	r4!, {r2, r5, r6, r8, r9, sl, fp, ip, lr}^
     23c:	6c626173 	stfvse	f6, [r2], #-460	; 0xfffffe34
     240:	5f700065 	svcpl	0x00700065
     244:	61727261 	cmnvs	r2, r1, ror #4
     248:	636c5f79 	cmnvs	ip, #484	; 0x1e4
     24c:	636c0064 	cmnvs	ip, #100	; 0x64
     250:	6e655f64 	cdpvs	15, 6, cr5, cr5, cr4, {3}
     254:	656c6261 	strbvs	r6, [ip, #-609]!	; 0xfffffd9f
     258:	6c657300 	stclvs	3, cr7, [r5], #-0
     25c:	5f746365 	svcpl	0x00746365
     260:	0064636c 	rsbeq	r6, r4, ip, ror #6
     264:	5f705f67 	svcpl	0x00705f67
     268:	5f64636c 	svcpl	0x0064636c
     26c:	656c6573 	strbvs	r6, [ip, #-1395]!	; 0xfffffa8d
     270:	64657463 	strbtvs	r7, [r5], #-1123	; 0xfffffb9d
     274:	67657200 	strbvs	r7, [r5, -r0, lsl #4]!
     278:	65747369 	ldrbvs	r7, [r4, #-873]!	; 0xfffffc97
     27c:	636c5f72 	cmnvs	ip, #456	; 0x1c8
     280:	6c700064 	ldclvs	0, cr0, [r0], #-400	; 0xfffffe70
     284:	67006463 	strvs	r6, [r0, -r3, ror #8]
     288:	6c5f7465 	cfldrdvs	mvd7, [pc], {101}	; 0x65
     28c:	705f6463 	subsvc	r6, pc, r3, ror #8
     290:	6d617261 	sfmvs	f7, 2, [r1, #-388]!	; 0xfffffe7c
     294:	636c0073 	cmnvs	ip, #115	; 0x73
     298:	5f375f64 	svcpl	0x00375f64
     29c:	64615f30 	strbtvs	r5, [r1], #-3888	; 0xfffff0d0
     2a0:	4e490064 	cdpmi	0, 4, cr0, cr9, cr4, {3}
     2a4:	54524556 	ldrbpl	r4, [r2], #-1366	; 0xfffffaaa
     2a8:	64636c00 	strbtvs	r6, [r3], #-3072	; 0xfffff400
     2ac:	305f375f 	subscc	r3, pc, pc, asr r7	; <UNPREDICTABLE>
     2b0:	7261705f 	rsbvc	r7, r1, #95	; 0x5f
     2b4:	00736d61 	rsbseq	r6, r3, r1, ror #26
     2b8:	4d524f4e 	ldclmi	15, cr4, [r2, #-312]	; 0xfffffec8
     2bc:	6c004c41 	stcvs	12, cr4, [r0], {65}	; 0x41
     2c0:	375f6463 	ldrbcc	r6, [pc, -r3, ror #8]
     2c4:	632e305f 			; <UNDEFINED> instruction: 0x632e305f
     2c8:	4d4f4900 	vstrmi.16	s9, [pc, #-0]	; 2d0 <_start-0x800ffd30>	; <UNPREDICTABLE>
     2cc:	5f435855 	svcpl	0x00435855
     2d0:	505f5753 	subspl	r5, pc, r3, asr r7	; <UNPREDICTABLE>
     2d4:	435f4441 	cmpmi	pc, #1090519040	; 0x41000000
     2d8:	505f4c54 	subspl	r4, pc, r4, asr ip	; <UNPREDICTABLE>
     2dc:	4c5f4441 	cfldrdmi	mvd4, [pc], {65}	; 0x41
     2e0:	445f4443 	ldrbmi	r4, [pc], #-1091	; 2e8 <_start-0x800ffd18>
     2e4:	30415441 	subcc	r5, r1, r1, asr #8
     2e8:	4f490035 	svcmi	0x00490035
     2ec:	4358554d 	cmpmi	r8, #322961408	; 0x13400000
     2f0:	5f57535f 	svcpl	0x0057535f
     2f4:	5f444150 	svcpl	0x00444150
     2f8:	5f4c5443 	svcpl	0x004c5443
     2fc:	5f444150 	svcpl	0x00444150
     300:	5f44434c 	svcpl	0x0044434c
     304:	41544144 	cmpmi	r4, r4, asr #2
     308:	49003630 	stmdbmi	r0, {r4, r5, r9, sl, ip, sp}
     30c:	58554d4f 	ldmdapl	r5, {r0, r1, r2, r3, r6, r8, sl, fp, lr}^
     310:	57535f43 	ldrbpl	r5, [r3, -r3, asr #30]
     314:	4441505f 	strbmi	r5, [r1], #-95	; 0xffffffa1
     318:	4c54435f 	mrrcmi	3, 5, r4, r4, cr15	; <UNPREDICTABLE>
     31c:	4441505f 	strbmi	r5, [r1], #-95	; 0xffffffa1
     320:	44434c5f 	strbmi	r4, [r3], #-3167	; 0xfffff3a1
     324:	5441445f 	strbpl	r4, [r1], #-1119	; 0xfffffba1
     328:	00373041 	eorseq	r3, r7, r1, asr #32
     32c:	554d4f49 	strbpl	r4, [sp, #-3913]	; 0xfffff0b7
     330:	535f4358 	cmppl	pc, #88, 6	; 0x60000001
     334:	41505f57 	cmpmi	r0, r7, asr pc
     338:	54435f44 	strbpl	r5, [r3], #-3908	; 0xfffff0bc
     33c:	41505f4c 	cmpmi	r0, ip, asr #30
     340:	434c5f44 	movtmi	r5, #53060	; 0xcf44
     344:	41445f44 	cmpmi	r4, r4, asr #30
     348:	38304154 	ldmdacc	r0!, {r2, r4, r6, r8, lr}
     34c:	4d4f4900 	vstrmi.16	s9, [pc, #-0]	; 354 <_start-0x800ffcac>	; <UNPREDICTABLE>
     350:	5f435855 	svcpl	0x00435855
     354:	505f5753 	subspl	r5, pc, r3, asr r7	; <UNPREDICTABLE>
     358:	435f4441 	cmpmi	pc, #1090519040	; 0x41000000
     35c:	505f4c54 	subspl	r4, pc, r4, asr ip	; <UNPREDICTABLE>
     360:	4c5f4441 	cfldrdmi	mvd4, [pc], {65}	; 0x41
     364:	445f4443 	ldrbmi	r4, [pc], #-1091	; 36c <_start-0x800ffc94>
     368:	30415441 	subcc	r5, r1, r1, asr #8
     36c:	45520039 	ldrbmi	r0, [r2, #-57]	; 0xffffffc7
     370:	56524553 			; <UNDEFINED> instruction: 0x56524553
     374:	325f4445 	subscc	r4, pc, #1157627904	; 0x45000000
     378:	45520038 	ldrbmi	r0, [r2, #-56]	; 0xffffffc8
     37c:	56524553 			; <UNDEFINED> instruction: 0x56524553
     380:	325f4445 	subscc	r4, pc, #1157627904	; 0x45000000
     384:	44560039 	ldrbmi	r0, [r6], #-57	; 0xffffffc7
     388:	4c525443 	cfldrdmi	mvd5, [r2], {67}	; 0x43
     38c:	4c435f30 	mcrrmi	15, 3, r5, r3, cr0
     390:	4c500052 	mrrcmi	0, 5, r0, r0, cr2	; <UNPREDICTABLE>
     394:	59535f4c 	ldmdbpl	r3, {r2, r3, r6, r8, r9, sl, fp, ip, lr}^
     398:	48430053 	stmdami	r3, {r0, r1, r4, r6}^
     39c:	44434353 	strbmi	r4, [r3], #-851	; 0xfffffcad
     3a0:	46500052 			; <UNDEFINED> instruction: 0x46500052
     3a4:	38345f44 	ldmdacc	r4!, {r2, r6, r8, r9, sl, fp, ip, lr}
     3a8:	43430030 	movtmi	r0, #12336	; 0x3030
     3ac:	00315247 	eorseq	r5, r1, r7, asr #4
     3b0:	52474343 	subpl	r4, r7, #201326593	; 0xc000001
     3b4:	43430033 	movtmi	r0, #12339	; 0x3033
     3b8:	00345247 	eorseq	r5, r4, r7, asr #4
     3bc:	52474343 	subpl	r4, r7, #201326593	; 0xc000001
     3c0:	6d490035 	stclvs	0, cr0, [r9, #-212]	; 0xffffff2c
     3c4:	6c753678 	ldclvs	6, cr3, [r5], #-480	; 0xfffffe20
     3c8:	636c5f6c 	cmnvs	ip, #108, 30	; 0x1b0
     3cc:	6f635f64 	svcvs	0x00635f64
     3d0:	6f72746e 	svcvs	0x0072746e
     3d4:	72656c6c 	rsbvc	r6, r5, #108, 24	; 0x6c00
     3d8:	52544300 	subspl	r4, r4, #0, 6
     3dc:	545f324c 	ldrbpl	r3, [pc], #-588	; 3e4 <_start-0x800ffc1c>
     3e0:	4300474f 	movwmi	r4, #1871	; 0x74f
     3e4:	52444344 	subpl	r4, r4, #68, 6	; 0x10000001
     3e8:	52544300 	subspl	r4, r4, #0, 6
     3ec:	45535f4c 	ldrbmi	r5, [r3, #-3916]	; 0xfffff0b4
     3f0:	43430054 	movtmi	r0, #12372	; 0x3054
     3f4:	50005253 	andpl	r5, r0, r3, asr r2
     3f8:	355f4446 	ldrbcc	r4, [pc, #-1094]	; ffffffba <__bss_end+0x7feff65a>
     3fc:	50003832 	andpl	r3, r0, r2, lsr r8
     400:	415f4c4c 	cmpmi	pc, ip, asr #24
     404:	4f494455 	svcmi	0x00494455
     408:	5445535f 	strbpl	r5, [r5], #-863	; 0xfffffca1
     40c:	4d434300 	stclmi	3, cr4, [r3, #-0]
     410:	7079545f 	rsbsvc	r5, r9, pc, asr r4
     414:	494d0065 	stmdbmi	sp, {r0, r2, r5, r6}^
     418:	5f324353 	svcpl	0x00324353
     41c:	00474f54 	subeq	r4, r7, r4, asr pc
     420:	36786d49 	ldrbtcc	r6, [r8], -r9, asr #26
     424:	5f6c6c75 	svcpl	0x006c6c75
     428:	5f64636c 	svcpl	0x0064636c
     42c:	746e6f63 	strbtvc	r6, [lr], #-3939	; 0xfffff09d
     430:	6c6c6f72 	stclvs	15, cr6, [ip], #-456	; 0xfffffe38
     434:	615f7265 	cmpvs	pc, r5, ror #4
     438:	50006464 	andpl	r6, r0, r4, ror #8
     43c:	565f4c4c 	ldrbpl	r4, [pc], -ip, asr #24
     440:	4f454449 	svcmi	0x00454449
     444:	4d554e5f 	ldclmi	14, cr4, [r5, #-380]	; 0xfffffe84
     448:	4d4f4900 	vstrmi.16	s9, [pc, #-0]	; 450 <_start-0x800ffbb0>	; <UNPREDICTABLE>
     44c:	5f435855 	svcpl	0x00435855
     450:	4d5f5753 	ldclmi	7, cr5, [pc, #-332]	; 30c <_start-0x800ffcf4>
     454:	435f5855 	cmpmi	pc, #5570560	; 0x550000
     458:	505f4c54 	subspl	r4, pc, r4, asr ip	; <UNPREDICTABLE>
     45c:	4c5f4441 	cfldrdmi	mvd4, [pc], {65}	; 0x41
     460:	455f4443 	ldrbmi	r4, [pc, #-1091]	; 25 <_start-0x800fffdb>
     464:	4c42414e 	stfmie	f4, [r2], {78}	; 0x4e
     468:	4f490045 	svcmi	0x00490045
     46c:	4358554d 	cmpmi	r8, #322961408	; 0x13400000
     470:	5f57535f 	svcpl	0x0057535f
     474:	5f444150 	svcpl	0x00444150
     478:	5f4c5443 	svcpl	0x004c5443
     47c:	5f444150 	svcpl	0x00444150
     480:	5f44434c 	svcpl	0x0044434c
     484:	41544144 	cmpmi	r4, r4, asr #2
     488:	49003031 	stmdbmi	r0, {r0, r4, r5, ip, sp}
     48c:	58554d4f 	ldmdapl	r5, {r0, r1, r2, r3, r6, r8, sl, fp, lr}^
     490:	57535f43 	ldrbpl	r5, [r3, -r3, asr #30]
     494:	4441505f 	strbmi	r5, [r1], #-95	; 0xffffffa1
     498:	4c54435f 	mrrcmi	3, 5, r4, r4, cr15	; <UNPREDICTABLE>
     49c:	4441505f 	strbmi	r5, [r1], #-95	; 0xffffffa1
     4a0:	44434c5f 	strbmi	r4, [r3], #-3167	; 0xfffff3a1
     4a4:	5441445f 	strbpl	r4, [r1], #-1119	; 0xfffffba1
     4a8:	00313141 	eorseq	r3, r1, r1, asr #2
     4ac:	554d4f49 	strbpl	r4, [sp, #-3913]	; 0xfffff0b7
     4b0:	535f4358 	cmppl	pc, #88, 6	; 0x60000001
     4b4:	41505f57 	cmpmi	r0, r7, asr pc
     4b8:	54435f44 	strbpl	r5, [r3], #-3908	; 0xfffff0bc
     4bc:	41505f4c 	cmpmi	r0, ip, asr #30
     4c0:	434c5f44 	movtmi	r5, #53060	; 0xcf44
     4c4:	41445f44 	cmpmi	r4, r4, asr #30
     4c8:	32314154 	eorscc	r4, r1, #84, 2
     4cc:	4d4f4900 	vstrmi.16	s9, [pc, #-0]	; 4d4 <_start-0x800ffb2c>	; <UNPREDICTABLE>
     4d0:	5f435855 	svcpl	0x00435855
     4d4:	505f5753 	subspl	r5, pc, r3, asr r7	; <UNPREDICTABLE>
     4d8:	435f4441 	cmpmi	pc, #1090519040	; 0x41000000
     4dc:	505f4c54 	subspl	r4, pc, r4, asr ip	; <UNPREDICTABLE>
     4e0:	4c5f4441 	cfldrdmi	mvd4, [pc], {65}	; 0x41
     4e4:	445f4443 	ldrbmi	r4, [pc], #-1091	; 4ec <_start-0x800ffb14>
     4e8:	31415441 	cmpcc	r1, r1, asr #8
     4ec:	4f490033 	svcmi	0x00490033
     4f0:	4358554d 	cmpmi	r8, #322961408	; 0x13400000
     4f4:	5f57535f 	svcpl	0x0057535f
     4f8:	5f444150 	svcpl	0x00444150
     4fc:	5f4c5443 	svcpl	0x004c5443
     500:	5f444150 	svcpl	0x00444150
     504:	5f44434c 	svcpl	0x0044434c
     508:	41544144 	cmpmi	r4, r4, asr #2
     50c:	49003431 	stmdbmi	r0, {r0, r4, r5, sl, ip, sp}
     510:	58554d4f 	ldmdapl	r5, {r0, r1, r2, r3, r6, r8, sl, fp, lr}^
     514:	57535f43 	ldrbpl	r5, [r3, -r3, asr #30]
     518:	4441505f 	strbmi	r5, [r1], #-95	; 0xffffffa1
     51c:	4c54435f 	mrrcmi	3, 5, r4, r4, cr15	; <UNPREDICTABLE>
     520:	4441505f 	strbmi	r5, [r1], #-95	; 0xffffffa1
     524:	44434c5f 	strbmi	r4, [r3], #-3167	; 0xfffff3a1
     528:	5441445f 	strbpl	r4, [r1], #-1119	; 0xfffffba1
     52c:	00353141 	eorseq	r3, r5, r1, asr #2
     530:	554d4f49 	strbpl	r4, [sp, #-3913]	; 0xfffff0b7
     534:	535f4358 	cmppl	pc, #88, 6	; 0x60000001
     538:	41505f57 	cmpmi	r0, r7, asr pc
     53c:	54435f44 	strbpl	r5, [r3], #-3908	; 0xfffff0bc
     540:	41505f4c 	cmpmi	r0, ip, asr #30
     544:	434c5f44 	movtmi	r5, #53060	; 0xcf44
     548:	41445f44 	cmpmi	r4, r4, asr #30
     54c:	36314154 			; <UNDEFINED> instruction: 0x36314154
     550:	4d4f4900 	vstrmi.16	s9, [pc, #-0]	; 558 <_start-0x800ffaa8>	; <UNPREDICTABLE>
     554:	5f435855 	svcpl	0x00435855
     558:	505f5753 	subspl	r5, pc, r3, asr r7	; <UNPREDICTABLE>
     55c:	435f4441 	cmpmi	pc, #1090519040	; 0x41000000
     560:	505f4c54 	subspl	r4, pc, r4, asr ip	; <UNPREDICTABLE>
     564:	4c5f4441 	cfldrdmi	mvd4, [pc], {65}	; 0x41
     568:	445f4443 	ldrbmi	r4, [pc], #-1091	; 570 <_start-0x800ffa90>
     56c:	31415441 	cmpcc	r1, r1, asr #8
     570:	4f490037 	svcmi	0x00490037
     574:	4358554d 	cmpmi	r8, #322961408	; 0x13400000
     578:	5f57535f 	svcpl	0x0057535f
     57c:	5f444150 	svcpl	0x00444150
     580:	5f4c5443 	svcpl	0x004c5443
     584:	5f444150 	svcpl	0x00444150
     588:	5f44434c 	svcpl	0x0044434c
     58c:	41544144 	cmpmi	r4, r4, asr #2
     590:	49003831 	stmdbmi	r0, {r0, r4, r5, fp, ip, sp}
     594:	58554d4f 	ldmdapl	r5, {r0, r1, r2, r3, r6, r8, sl, fp, lr}^
     598:	57535f43 	ldrbpl	r5, [r3, -r3, asr #30]
     59c:	4441505f 	strbmi	r5, [r1], #-95	; 0xffffffa1
     5a0:	4c54435f 	mrrcmi	3, 5, r4, r4, cr15	; <UNPREDICTABLE>
     5a4:	4441505f 	strbmi	r5, [r1], #-95	; 0xffffffa1
     5a8:	44434c5f 	strbmi	r4, [r3], #-3167	; 0xfffff3a1
     5ac:	5441445f 	strbpl	r4, [r1], #-1119	; 0xfffffba1
     5b0:	00393141 	eorseq	r3, r9, r1, asr #2
     5b4:	5f4c4c50 	svcpl	0x004c4c50
     5b8:	5f535953 	svcpl	0x00535953
     5bc:	42005353 	andmi	r5, r0, #1275068417	; 0x4c000001
     5c0:	52455f4d 	subpl	r5, r5, #308	; 0x134
     5c4:	5f524f52 	svcpl	0x00524f52
     5c8:	54415453 	strbpl	r5, [r1], #-1107	; 0xfffffbad
     5cc:	53494d00 	movtpl	r4, #40192	; 0x9d00
     5d0:	435f3143 	cmpmi	pc, #-1073741808	; 0xc0000010
     5d4:	4300524c 	movwmi	r5, #588	; 0x24c
     5d8:	524f454d 	subpl	r4, pc, #322961408	; 0x13400000
     5dc:	5f534100 	svcpl	0x00534100
     5e0:	00465542 	subeq	r5, r6, r2, asr #10
     5e4:	4c525443 	cfldrdmi	mvd5, [r2], {67}	; 0x43
     5e8:	474f545f 	smlsldmi	r5, pc, pc, r4	; <UNPREDICTABLE>
     5ec:	4d494300 	stclmi	3, cr4, [r9, #-0]
     5f0:	54430052 	strbpl	r0, [r3], #-82	; 0xffffffae
     5f4:	5f314c52 	svcpl	0x00314c52
     5f8:	00544553 	subseq	r4, r4, r3, asr r5
     5fc:	54434456 	strbpl	r4, [r3], #-1110	; 0xfffffbaa
     600:	5f304c52 	svcpl	0x00304c52
     604:	00544553 	subseq	r4, r4, r3, asr r5
     608:	4d5f5753 	ldclmi	7, cr5, [pc, #-332]	; 4c4 <_start-0x800ffb3c>
     60c:	435f5855 	cmpmi	pc, #5570560	; 0x550000
     610:	545f4c54 	ldrbpl	r4, [pc], #-3156	; 618 <_start-0x800ff9e8>
     614:	00657079 	rsbeq	r7, r5, r9, ror r0
     618:	5f4c4c50 	svcpl	0x004c4c50
     61c:	45444956 	strbmi	r4, [r4, #-2390]	; 0xfffff6aa
     620:	45535f4f 	ldrbmi	r5, [r3, #-3919]	; 0xfffff0b1
     624:	4f490054 	svcmi	0x00490054
     628:	4358554d 	cmpmi	r8, #322961408	; 0x13400000
     62c:	5f57535f 	svcpl	0x0057535f
     630:	5f58554d 	svcpl	0x0058554d
     634:	5f4c5443 	svcpl	0x004c5443
     638:	5f444150 	svcpl	0x00444150
     63c:	5f44434c 	svcpl	0x0044434c
     640:	45534552 	ldrbmi	r4, [r3, #-1362]	; 0xfffffaae
     644:	43430054 	movtmi	r0, #12372	; 0x3054
     648:	4e415f4d 	cdpmi	15, 4, cr5, cr1, cr13, {2}
     64c:	474f4c41 	strbmi	r4, [pc, -r1, asr #24]
     650:	7079545f 	rsbsvc	r5, r9, pc, asr r4
     654:	43430065 	movtmi	r0, #12389	; 0x3065
     658:	00305247 	eorseq	r5, r0, r7, asr #4
     65c:	554d4f49 	strbpl	r4, [sp, #-3913]	; 0xfffff0b7
     660:	535f4358 	cmppl	pc, #88, 6	; 0x60000001
     664:	41505f57 	cmpmi	r0, r7, asr pc
     668:	54435f44 	strbpl	r5, [r3], #-3908	; 0xfffff0bc
     66c:	41505f4c 	cmpmi	r0, ip, asr #30
     670:	434c5f44 	movtmi	r5, #53060	; 0xcf44
     674:	4e455f44 	cdpmi	15, 4, cr5, cr5, cr4, {2}
     678:	454c4241 	strbmi	r4, [ip, #-577]	; 0xfffffdbf
     67c:	47434300 	strbmi	r4, [r3, -r0, lsl #6]
     680:	52003252 	andpl	r3, r0, #536870917	; 0x20000005
     684:	52455345 	subpl	r5, r5, #335544321	; 0x14000001
     688:	5f444556 	svcpl	0x00444556
     68c:	45520030 	ldrbmi	r0, [r2, #-48]	; 0xffffffd0
     690:	56524553 			; <UNDEFINED> instruction: 0x56524553
     694:	315f4445 	cmpcc	pc, r5, asr #8
     698:	43414300 	movtmi	r4, #4864	; 0x1300
     69c:	43005252 	movwmi	r5, #594	; 0x252
     6a0:	36524743 	ldrbcc	r4, [r2], -r3, asr #14
     6a4:	53455200 	movtpl	r5, #20992	; 0x5200
     6a8:	45565245 	ldrbmi	r5, [r6, #-581]	; 0xfffffdbb
     6ac:	00345f44 	eorseq	r5, r4, r4, asr #30
     6b0:	45534552 	ldrbmi	r4, [r3, #-1362]	; 0xfffffaae
     6b4:	44455652 	strbmi	r5, [r5], #-1618	; 0xfffff9ae
     6b8:	5200355f 	andpl	r3, r0, #398458880	; 0x17c00000
     6bc:	52455345 	subpl	r5, r5, #335544321	; 0x14000001
     6c0:	5f444556 	svcpl	0x00444556
     6c4:	45520036 	ldrbmi	r0, [r2, #-54]	; 0xffffffca
     6c8:	56524553 			; <UNDEFINED> instruction: 0x56524553
     6cc:	375f4445 	ldrbcc	r4, [pc, -r5, asr #8]
     6d0:	53455200 	movtpl	r5, #20992	; 0x5200
     6d4:	45565245 	ldrbmi	r5, [r6, #-581]	; 0xfffffdbb
     6d8:	00385f44 	eorseq	r5, r8, r4, asr #30
     6dc:	45534552 	ldrbmi	r4, [r3, #-1362]	; 0xfffffaae
     6e0:	44455652 	strbmi	r5, [r5], #-1618	; 0xfffff9ae
     6e4:	5400395f 	strpl	r3, [r0], #-2399	; 0xfffff6a1
     6e8:	534e4152 	movtpl	r4, #57682	; 0xe152
     6ec:	5f524546 	svcpl	0x00524546
     6f0:	4e554f43 	cdpmi	15, 5, cr4, cr5, cr3, {2}
     6f4:	4f490054 	svcmi	0x00490054
     6f8:	4358554d 	cmpmi	r8, #322961408	; 0x13400000
     6fc:	5f57535f 	svcpl	0x0057535f
     700:	5f444150 	svcpl	0x00444150
     704:	5f4c5443 	svcpl	0x004c5443
     708:	5f444150 	svcpl	0x00444150
     70c:	5f44434c 	svcpl	0x0044434c
     710:	41544144 	cmpmi	r4, r4, asr #2
     714:	49003032 	stmdbmi	r0, {r1, r4, r5, ip, sp}
     718:	58554d4f 	ldmdapl	r5, {r0, r1, r2, r3, r6, r8, sl, fp, lr}^
     71c:	57535f43 	ldrbpl	r5, [r3, -r3, asr #30]
     720:	4441505f 	strbmi	r5, [r1], #-95	; 0xffffffa1
     724:	4c54435f 	mrrcmi	3, 5, r4, r4, cr15	; <UNPREDICTABLE>
     728:	4441505f 	strbmi	r5, [r1], #-95	; 0xffffffa1
     72c:	44434c5f 	strbmi	r4, [r3], #-3167	; 0xfffff3a1
     730:	5441445f 	strbpl	r4, [r1], #-1119	; 0xfffffba1
     734:	00313241 	eorseq	r3, r1, r1, asr #4
     738:	554d4f49 	strbpl	r4, [sp, #-3913]	; 0xfffff0b7
     73c:	535f4358 	cmppl	pc, #88, 6	; 0x60000001
     740:	41505f57 	cmpmi	r0, r7, asr pc
     744:	54435f44 	strbpl	r5, [r3], #-3908	; 0xfffff0bc
     748:	41505f4c 	cmpmi	r0, ip, asr #30
     74c:	434c5f44 	movtmi	r5, #53060	; 0xcf44
     750:	41445f44 	cmpmi	r4, r4, asr #30
     754:	32324154 	eorscc	r4, r2, #84, 2
     758:	4d4f4900 	vstrmi.16	s9, [pc, #-0]	; 760 <_start-0x800ff8a0>	; <UNPREDICTABLE>
     75c:	5f435855 	svcpl	0x00435855
     760:	4d5f5753 	ldclmi	7, cr5, [pc, #-332]	; 61c <_start-0x800ff9e4>
     764:	435f5855 	cmpmi	pc, #5570560	; 0x550000
     768:	505f4c54 	subspl	r4, pc, r4, asr ip	; <UNPREDICTABLE>
     76c:	4c5f4441 	cfldrdmi	mvd4, [pc], {65}	; 0x41
     770:	565f4443 	ldrbpl	r4, [pc], -r3, asr #8
     774:	434e5953 	movtmi	r5, #59731	; 0xe953
     778:	4d4f4900 	vstrmi.16	s9, [pc, #-0]	; 780 <_start-0x800ff880>	; <UNPREDICTABLE>
     77c:	5f435855 	svcpl	0x00435855
     780:	4d5f5753 	ldclmi	7, cr5, [pc, #-332]	; 63c <_start-0x800ff9c4>
     784:	435f5855 	cmpmi	pc, #5570560	; 0x550000
     788:	505f4c54 	subspl	r4, pc, r4, asr ip	; <UNPREDICTABLE>
     78c:	4c5f4441 	cfldrdmi	mvd4, [pc], {65}	; 0x41
     790:	435f4443 	cmpmi	pc, #1124073472	; 0x43000000
     794:	70004b4c 	andvc	r4, r0, ip, asr #22
     798:	706d745f 	rsbvc	r7, sp, pc, asr r4
     79c:	4c4c5000 	marmi	acc0, r5, ip
     7a0:	4449565f 	strbmi	r5, [r9], #-1631	; 0xfffff9a1
     7a4:	435f4f45 	cmpmi	pc, #276	; 0x114
     7a8:	4300524c 	movwmi	r5, #588	; 0x24c
     7ac:	52444342 	subpl	r4, r4, #134217729	; 0x8000001
     7b0:	4c4c5000 	marmi	acc0, r5, ip
     7b4:	4d52415f 	ldfmie	f4, [r2, #-380]	; 0xfffffe84
     7b8:	524c435f 	subpl	r4, ip, #2080374785	; 0x7c000001
     7bc:	44434c00 	strbmi	r4, [r3], #-3072	; 0xfffff400
     7c0:	545f4649 	ldrbpl	r4, [pc], #-1609	; 7c8 <_start-0x800ff838>
     7c4:	00657079 	rsbeq	r7, r5, r9, ror r0
     7c8:	5f4c4c50 	svcpl	0x004c4c50
     7cc:	31425355 	cmpcc	r2, r5, asr r3
     7d0:	524c435f 	subpl	r4, ip, #2080374785	; 0x7c000001
     7d4:	786d6900 	stmdavc	sp!, {r8, fp, sp, lr}^
     7d8:	6c6c7536 	cfstr64vs	mvdx7, [ip], #-216	; 0xffffff28
     7dc:	6e6f635f 	mcrvs	3, 3, r6, cr15, cr15, {2}
     7e0:	5000632e 	andpl	r6, r0, lr, lsr #6
     7e4:	415f4c4c 	cmpmi	pc, ip, asr #24
     7e8:	4f494455 	svcmi	0x00494455
     7ec:	474f545f 	smlsldmi	r5, pc, pc, r4	; <UNPREDICTABLE>
     7f0:	32534300 	subscc	r4, r3, #0, 6
     7f4:	00524443 	subseq	r4, r2, r3, asr #8
     7f8:	5f4c4c50 	svcpl	0x004c4c50
     7fc:	49445541 	stmdbmi	r4, {r0, r6, r8, sl, ip, lr}^
     800:	4c435f4f 	mcrrmi	15, 4, r5, r3, cr15
     804:	494d0052 	stmdbmi	sp, {r1, r4, r6}^
     808:	5f314353 	svcpl	0x00314353
     80c:	00544553 	subseq	r4, r4, r3, asr r5
     810:	54434456 	strbpl	r4, [r3], #-1110	; 0xfffffbaa
     814:	00304c52 	eorseq	r4, r0, r2, asr ip
     818:	54434456 	strbpl	r4, [r3], #-1110	; 0xfffffbaa
     81c:	00314c52 	eorseq	r4, r1, r2, asr ip
     820:	54434456 	strbpl	r4, [r3], #-1110	; 0xfffffbaa
     824:	00324c52 	eorseq	r4, r2, r2, asr ip
     828:	4d435343 	stclmi	3, cr5, [r3, #-268]	; 0xfffffef4
     82c:	49003252 	stmdbmi	r0, {r1, r4, r6, r9, ip, sp}
     830:	58554d4f 	ldmdapl	r5, {r0, r1, r2, r3, r6, r8, sl, fp, lr}^
     834:	57535f43 	ldrbpl	r5, [r3, -r3, asr #30]
     838:	4441505f 	strbmi	r5, [r1], #-95	; 0xffffffa1
     83c:	4c54435f 	mrrcmi	3, 5, r4, r4, cr15	; <UNPREDICTABLE>
     840:	4441505f 	strbmi	r5, [r1], #-95	; 0xffffffa1
     844:	44434c5f 	strbmi	r4, [r3], #-3167	; 0xfffff3a1
     848:	5441445f 	strbpl	r4, [r1], #-1119	; 0xfffffba1
     84c:	00333241 	eorseq	r3, r3, r1, asr #4
     850:	43315343 	teqmi	r1, #201326593	; 0xc000001
     854:	50005244 	andpl	r5, r0, r4, asr #4
     858:	535f4c4c 	cmppl	pc, #76, 24	; 0x4c00
     85c:	435f5359 	cmpmi	pc, #1677721601	; 0x64000001
     860:	4300524c 	movwmi	r5, #588	; 0x24c
     864:	435f4353 	cmpmi	pc, #1275068417	; 0x4c000001
     868:	4646454f 	strbmi	r4, [r6], -pc, asr #10
     86c:	53430030 	movtpl	r0, #12336	; 0x3030
     870:	4f435f43 	svcmi	0x00435f43
     874:	31464645 	cmpcc	r6, r5, asr #12
     878:	43534300 	cmpmi	r3, #0, 6
     87c:	454f435f 	strbmi	r4, [pc, #-863]	; 525 <_start-0x800ffadb>
     880:	00324646 	eorseq	r4, r2, r6, asr #12
     884:	5f435343 	svcpl	0x00435343
     888:	46454f43 	strbmi	r4, [r5], -r3, asr #30
     88c:	43003346 	movwmi	r3, #838	; 0x346
     890:	435f4353 	cmpmi	pc, #1275068417	; 0x4c000001
     894:	4646454f 	strbmi	r4, [r6], -pc, asr #10
     898:	70620034 	rsbvc	r0, r2, r4, lsr r0
     89c:	6f6d5f70 	svcvs	0x006d5f70
     8a0:	52006564 	andpl	r6, r0, #100, 10	; 0x19000000
     8a4:	52455345 	subpl	r5, r5, #335544321	; 0x14000001
     8a8:	5f444556 	svcpl	0x00444556
     8ac:	44003232 	strmi	r3, [r0], #-562	; 0xfffffdce
     8b0:	00415441 	subeq	r5, r1, r1, asr #8
     8b4:	4c525443 	cfldrdmi	mvd5, [r2], {67}	; 0x43
     8b8:	4f545f31 	svcmi	0x00545f31
     8bc:	4c500047 	mrrcmi	0, 4, r0, r0, cr7	; <UNPREDICTABLE>
     8c0:	55415f4c 	strbpl	r5, [r1, #-3916]	; 0xfffff0b4
     8c4:	5f4f4944 	svcpl	0x004f4944
     8c8:	004d554e 	subeq	r5, sp, lr, asr #10
     8cc:	4353494d 	cmpmi	r3, #1261568	; 0x134000
     8d0:	4f545f31 	svcmi	0x00545f31
     8d4:	4f490047 	svcmi	0x00490047
     8d8:	4358554d 	cmpmi	r8, #322961408	; 0x13400000
     8dc:	5f57535f 	svcpl	0x0057535f
     8e0:	5f58554d 	svcpl	0x0058554d
     8e4:	5f4c5443 	svcpl	0x004c5443
     8e8:	5f444150 	svcpl	0x00444150
     8ec:	5f44434c 	svcpl	0x0044434c
     8f0:	4e595348 	cdpmi	3, 5, cr5, cr9, cr8, {2}
     8f4:	42430043 	submi	r0, r3, #67	; 0x43
     8f8:	00524d43 	subseq	r4, r2, r3, asr #26
     8fc:	44435343 	strbmi	r5, [r3], #-835	; 0xfffffcbd
     900:	50003352 	andpl	r3, r0, r2, asr r3
     904:	565f4c4c 	ldrbpl	r4, [pc], -ip, asr #24
     908:	4f454449 	svcmi	0x00454449
     90c:	474f545f 	smlsldmi	r5, pc, pc, r4	; <UNPREDICTABLE>
     910:	4c4c5000 	marmi	acc0, r5, ip
     914:	4d52415f 	ldfmie	f4, [r2, #-380]	; 0xfffffe84
     918:	5445535f 	strbpl	r5, [r5], #-863	; 0xfffffca1
     91c:	4c4c5000 	marmi	acc0, r5, ip
     920:	4449565f 	strbmi	r5, [r9], #-1631	; 0xfffff9a1
     924:	445f4f45 	ldrbmi	r4, [pc], #-3909	; 92c <_start-0x800ff6d4>
     928:	4d4f4e45 	stclmi	14, cr4, [pc, #-276]	; 81c <_start-0x800ff7e4>
     92c:	52554300 	subspl	r4, r5, #0, 6
     930:	4655425f 			; <UNDEFINED> instruction: 0x4655425f
     934:	4c4c5000 	marmi	acc0, r5, ip
     938:	4253555f 	subsmi	r5, r3, #398458880	; 0x17c00000
     93c:	45535f31 	ldrbmi	r5, [r3, #-3889]	; 0xfffff0cf
     940:	48540054 	ldmdami	r4, {r2, r4, r6}^
     944:	00534552 	subseq	r4, r3, r2, asr r5
     948:	5f4c4c50 	svcpl	0x004c4c50
     94c:	004d5241 	subeq	r5, sp, r1, asr #4
     950:	45534552 	ldrbmi	r4, [r3, #-1362]	; 0xfffffaae
     954:	44455652 	strbmi	r5, [r5], #-1618	; 0xfffff9ae
     958:	0031325f 	eorseq	r3, r1, pc, asr r2
     95c:	554d4f49 	strbpl	r4, [sp, #-3913]	; 0xfffff0b7
     960:	535f4358 	cmppl	pc, #88, 6	; 0x60000001
     964:	41505f57 	cmpmi	r0, r7, asr pc
     968:	54435f44 	strbpl	r5, [r3], #-3908	; 0xfffff0bc
     96c:	41505f4c 	cmpmi	r0, ip, asr #30
     970:	434c5f44 	movtmi	r5, #53060	; 0xcf44
     974:	4c435f44 	mcrrmi	15, 4, r5, r3, cr4
     978:	494d004b 	stmdbmi	sp, {r0, r1, r3, r6}^
     97c:	5f304353 	svcpl	0x00304353
     980:	00524c43 	subseq	r4, r2, r3, asr #24
     984:	45534552 	ldrbmi	r4, [r3, #-1362]	; 0xfffffaae
     988:	44455652 	strbmi	r5, [r5], #-1618	; 0xfffff9ae
     98c:	5000335f 	andpl	r3, r0, pc, asr r3
     990:	415f4c4c 	cmpmi	pc, ip, asr #24
     994:	4f494455 	svcmi	0x00494455
     998:	4e45445f 	mcrmi	4, 2, r4, cr5, cr15, {2}
     99c:	41004d4f 	tstmi	r0, pc, asr #26
     9a0:	54435f53 	strbpl	r5, [r3], #-3923	; 0xfffff0ad
     9a4:	43004c52 	movwmi	r4, #3154	; 0xc52
     9a8:	535f4352 	cmppl	pc, #1207959553	; 0x48000001
     9ac:	00544154 	subseq	r4, r4, r4, asr r1
     9b0:	5f444650 	svcpl	0x00444650
     9b4:	5f303834 	svcpl	0x00303834
     9b8:	00524c43 	subseq	r4, r2, r3, asr #24
     9bc:	36786d49 	ldrbtcc	r6, [r8], -r9, asr #26
     9c0:	5f6c6c75 	svcpl	0x006c6c75
     9c4:	5f64636c 	svcpl	0x0064636c
     9c8:	746e6f63 	strbtvc	r6, [lr], #-3939	; 0xfffff09d
     9cc:	6c6c6f72 	stclvs	15, cr6, [ip], #-456	; 0xfffffe38
     9d0:	645f7265 	ldrbvs	r7, [pc], #-613	; 9d8 <_start-0x800ff628>
     9d4:	62617369 	rsbvs	r7, r1, #-1543503871	; 0xa4000001
     9d8:	5000656c 	andpl	r6, r0, ip, ror #10
     9dc:	555f4c4c 	ldrbpl	r4, [pc, #-3148]	; fffffd98 <__bss_end+0x7feff438>
     9e0:	5f314253 	svcpl	0x00314253
     9e4:	00474f54 	subeq	r4, r7, r4, asr pc
     9e8:	434e5953 	movtmi	r5, #59731	; 0xe953
     9ec:	4c45445f 	cfstrdmi	mvd4, [r5], {95}	; 0x5f
     9f0:	47005941 	strmi	r5, [r0, -r1, asr #18]
     9f4:	314f4950 	cmpcc	pc, r0, asr r9	; <UNPREDICTABLE>
     9f8:	4944475f 	stmdbmi	r4, {r0, r1, r2, r3, r4, r6, r8, r9, sl, lr}^
     9fc:	6d490052 	stclvs	0, cr0, [r9, #-328]	; 0xfffffeb8
     a00:	6c753678 	ldclvs	6, cr3, [r5], #-480	; 0xfffffe20
     a04:	636c5f6c 	cmnvs	ip, #108, 30	; 0x1b0
     a08:	6f635f64 	svcvs	0x00635f64
     a0c:	6f72746e 	svcvs	0x0072746e
     a10:	72656c6c 	rsbvc	r6, r5, #108, 24	; 0x6c00
     a14:	616e655f 	cmnvs	lr, pc, asr r5
     a18:	00656c62 	rsbeq	r6, r5, r2, ror #24
     a1c:	5f4c4c50 	svcpl	0x004c4c50
     a20:	5f535953 	svcpl	0x00535953
     a24:	004d554e 	subeq	r5, sp, lr, asr #10
     a28:	5f4c4c50 	svcpl	0x004c4c50
     a2c:	5f535953 	svcpl	0x00535953
     a30:	00544553 	subseq	r4, r4, r3, asr r5
     a34:	5f4c4c50 	svcpl	0x004c4c50
     a38:	5f4d5241 	svcpl	0x004d5241
     a3c:	00474f54 	subeq	r4, r7, r4, asr pc
     a40:	4e5f5341 	cdpmi	3, 5, cr5, cr15, cr1, {2}
     a44:	5f545845 	svcpl	0x00545845
     a48:	00465542 	subeq	r5, r6, r2, asr #10
     a4c:	554d4f49 	strbpl	r4, [sp, #-3913]	; 0xfffff0b7
     a50:	535f4358 	cmppl	pc, #88, 6	; 0x60000001
     a54:	41505f57 	cmpmi	r0, r7, asr pc
     a58:	54435f44 	strbpl	r5, [r3], #-3908	; 0xfffff0bc
     a5c:	41505f4c 	cmpmi	r0, ip, asr #30
     a60:	434c5f44 	movtmi	r5, #53060	; 0xcf44
     a64:	53565f44 	cmppl	r6, #68, 30	; 0x110
     a68:	00434e59 	subeq	r4, r3, r9, asr lr
     a6c:	5f4c4c50 	svcpl	0x004c4c50
     a70:	5f535953 	svcpl	0x00535953
     a74:	4f4e4544 	svcmi	0x004e4544
     a78:	4552004d 	ldrbmi	r0, [r2, #-77]	; 0xffffffb3
     a7c:	56524553 			; <UNDEFINED> instruction: 0x56524553
     a80:	315f4445 	cmpcc	pc, r5, asr #8
     a84:	57530034 	smmlarpl	r3, r4, r0, r0
     a88:	58554d5f 	ldmdapl	r5, {r0, r1, r2, r3, r4, r6, r8, sl, fp, lr}^
     a8c:	4c54435f 	mrrcmi	3, 5, r4, r4, cr15	; <UNPREDICTABLE>
     a90:	4441505f 	strbmi	r5, [r1], #-95	; 0xffffffa1
     a94:	44434c5f 	strbmi	r4, [r3], #-3167	; 0xfffff3a1
     a98:	5441445f 	strbpl	r4, [r1], #-1119	; 0xfffffba1
     a9c:	00303041 	eorseq	r3, r0, r1, asr #32
     aa0:	4d5f5753 	ldclmi	7, cr5, [pc, #-332]	; 95c <_start-0x800ff6a4>
     aa4:	435f5855 	cmpmi	pc, #5570560	; 0x550000
     aa8:	505f4c54 	subspl	r4, pc, r4, asr ip	; <UNPREDICTABLE>
     aac:	4c5f4441 	cfldrdmi	mvd4, [pc], {65}	; 0x41
     ab0:	445f4443 	ldrbmi	r4, [pc], #-1091	; ab8 <_start-0x800ff548>
     ab4:	30415441 	subcc	r5, r1, r1, asr #8
     ab8:	57530031 	smmlarpl	r3, r1, r0, r0
     abc:	58554d5f 	ldmdapl	r5, {r0, r1, r2, r3, r4, r6, r8, sl, fp, lr}^
     ac0:	4c54435f 	mrrcmi	3, 5, r4, r4, cr15	; <UNPREDICTABLE>
     ac4:	4441505f 	strbmi	r5, [r1], #-95	; 0xffffffa1
     ac8:	44434c5f 	strbmi	r4, [r3], #-3167	; 0xfffff3a1
     acc:	5441445f 	strbpl	r4, [r1], #-1119	; 0xfffffba1
     ad0:	00323041 	eorseq	r3, r2, r1, asr #32
     ad4:	4d5f5753 	ldclmi	7, cr5, [pc, #-332]	; 990 <_start-0x800ff670>
     ad8:	435f5855 	cmpmi	pc, #5570560	; 0x550000
     adc:	505f4c54 	subspl	r4, pc, r4, asr ip	; <UNPREDICTABLE>
     ae0:	4c5f4441 	cfldrdmi	mvd4, [pc], {65}	; 0x41
     ae4:	445f4443 	ldrbmi	r4, [pc], #-1091	; aec <_start-0x800ff514>
     ae8:	30415441 	subcc	r5, r1, r1, asr #8
     aec:	57530033 	smmlarpl	r3, r3, r0, r0
     af0:	58554d5f 	ldmdapl	r5, {r0, r1, r2, r3, r4, r6, r8, sl, fp, lr}^
     af4:	4c54435f 	mrrcmi	3, 5, r4, r4, cr15	; <UNPREDICTABLE>
     af8:	4441505f 	strbmi	r5, [r1], #-95	; 0xffffffa1
     afc:	44434c5f 	strbmi	r4, [r3], #-3167	; 0xfffff3a1
     b00:	5441445f 	strbpl	r4, [r1], #-1119	; 0xfffffba1
     b04:	00343041 	eorseq	r3, r4, r1, asr #32
     b08:	4d5f5753 	ldclmi	7, cr5, [pc, #-332]	; 9c4 <_start-0x800ff63c>
     b0c:	435f5855 	cmpmi	pc, #5570560	; 0x550000
     b10:	505f4c54 	subspl	r4, pc, r4, asr ip	; <UNPREDICTABLE>
     b14:	4c5f4441 	cfldrdmi	mvd4, [pc], {65}	; 0x41
     b18:	445f4443 	ldrbmi	r4, [pc], #-1091	; b20 <_start-0x800ff4e0>
     b1c:	30415441 	subcc	r5, r1, r1, asr #8
     b20:	57530035 	smmlarpl	r3, r5, r0, r0
     b24:	58554d5f 	ldmdapl	r5, {r0, r1, r2, r3, r4, r6, r8, sl, fp, lr}^
     b28:	4c54435f 	mrrcmi	3, 5, r4, r4, cr15	; <UNPREDICTABLE>
     b2c:	4441505f 	strbmi	r5, [r1], #-95	; 0xffffffa1
     b30:	44434c5f 	strbmi	r4, [r3], #-3167	; 0xfffff3a1
     b34:	5441445f 	strbpl	r4, [r1], #-1119	; 0xfffffba1
     b38:	00363041 	eorseq	r3, r6, r1, asr #32
     b3c:	4d5f5753 	ldclmi	7, cr5, [pc, #-332]	; 9f8 <_start-0x800ff608>
     b40:	435f5855 	cmpmi	pc, #5570560	; 0x550000
     b44:	505f4c54 	subspl	r4, pc, r4, asr ip	; <UNPREDICTABLE>
     b48:	4c5f4441 	cfldrdmi	mvd4, [pc], {65}	; 0x41
     b4c:	445f4443 	ldrbmi	r4, [pc], #-1091	; b54 <_start-0x800ff4ac>
     b50:	30415441 	subcc	r5, r1, r1, asr #8
     b54:	57530037 	smmlarpl	r3, r7, r0, r0
     b58:	58554d5f 	ldmdapl	r5, {r0, r1, r2, r3, r4, r6, r8, sl, fp, lr}^
     b5c:	4c54435f 	mrrcmi	3, 5, r4, r4, cr15	; <UNPREDICTABLE>
     b60:	4441505f 	strbmi	r5, [r1], #-95	; 0xffffffa1
     b64:	44434c5f 	strbmi	r4, [r3], #-3167	; 0xfffff3a1
     b68:	5441445f 	strbpl	r4, [r1], #-1119	; 0xfffffba1
     b6c:	00383041 	eorseq	r3, r8, r1, asr #32
     b70:	4d5f5753 	ldclmi	7, cr5, [pc, #-332]	; a2c <_start-0x800ff5d4>
     b74:	435f5855 	cmpmi	pc, #5570560	; 0x550000
     b78:	505f4c54 	subspl	r4, pc, r4, asr ip	; <UNPREDICTABLE>
     b7c:	4c5f4441 	cfldrdmi	mvd4, [pc], {65}	; 0x41
     b80:	445f4443 	ldrbmi	r4, [pc], #-1091	; b88 <_start-0x800ff478>
     b84:	30415441 	subcc	r5, r1, r1, asr #8
     b88:	4c500039 	mrrcmi	0, 3, r0, r0, cr9	; <UNPREDICTABLE>
     b8c:	53555f4c 	cmppl	r5, #76, 30	; 0x130
     b90:	435f3242 	cmpmi	pc, #536870916	; 0x20000004
     b94:	4900524c 	stmdbmi	r0, {r2, r3, r6, r9, ip, lr}
     b98:	7536786d 	ldrvc	r7, [r6, #-2157]!	; 0xfffff793
     b9c:	6c5f6c6c 	mrrcvs	12, 6, r6, pc, cr12	; <UNPREDICTABLE>
     ba0:	695f6463 	ldmdbvs	pc, {r0, r1, r5, r6, sl, sp, lr}^	; <UNPREDICTABLE>
     ba4:	6e695f6f 	cdpvs	15, 6, cr5, cr9, cr15, {3}
     ba8:	50007469 	andpl	r7, r0, r9, ror #8
     bac:	455f4c4c 	ldrbmi	r4, [pc, #-3148]	; ffffff68 <__bss_end+0x7feff608>
     bb0:	5f54454e 	svcpl	0x0054454e
     bb4:	00524c43 	subseq	r4, r2, r3, asr #24
     bb8:	43495644 	movtmi	r5, #38468	; 0x9644
     bbc:	304c5254 	subcc	r5, ip, r4, asr r2
     bc0:	49564400 	ldmdbmi	r6, {sl, lr}^
     bc4:	4c525443 	cfldrdmi	mvd5, [r2], {67}	; 0x43
     bc8:	44560031 	ldrbmi	r0, [r6], #-49	; 0xffffffcf
     bcc:	4c525443 	cfldrdmi	mvd5, [r2], {67}	; 0x43
     bd0:	4f545f30 	svcmi	0x00545f30
     bd4:	56440047 	strbpl	r0, [r4], -r7, asr #32
     bd8:	52544349 	subspl	r4, r4, #603979777	; 0x24000001
     bdc:	4300334c 	movwmi	r3, #844	; 0x34c
     be0:	524d4353 	subpl	r4, sp, #1275068417	; 0x4c000001
     be4:	4c500031 	mrrcmi	0, 3, r0, r0, cr1	; <UNPREDICTABLE>
     be8:	59535f4c 	ldmdbpl	r3, {r2, r3, r6, r8, r9, sl, fp, ip, lr}^
     bec:	4f545f53 	svcmi	0x00545f53
     bf0:	53410047 	movtpl	r0, #4167	; 0x1047
     bf4:	524c435f 	subpl	r4, ip, #2080374785	; 0x7c000001
     bf8:	4c59454b 	cfldr64mi	mvdx4, [r9], {75}	; 0x4b
     bfc:	5000574f 	andpl	r5, r0, pc, asr #14
     c00:	355f4446 	ldrbcc	r4, [pc, #-1094]	; 7c2 <_start-0x800ff83e>
     c04:	435f3832 	cmpmi	pc, #3276800	; 0x320000
     c08:	4300524c 	movwmi	r5, #588	; 0x24c
     c0c:	5243504c 	subpl	r5, r3, #76	; 0x4c
     c10:	53494d00 	movtpl	r4, #40192	; 0x9d00
     c14:	4d003043 	stcmi	0, cr3, [r0, #-268]	; 0xfffffef4
     c18:	31435349 	cmpcc	r3, r9, asr #6
     c1c:	53494d00 	movtpl	r4, #40192	; 0x9d00
     c20:	4d003243 	sfmmi	f3, 4, [r0, #-268]	; 0xfffffef4
     c24:	30435349 	subcc	r5, r3, r9, asr #6
     c28:	5445535f 	strbpl	r5, [r5], #-863	; 0xfffffca1
     c2c:	4d4f4900 	vstrmi.16	s9, [pc, #-0]	; c34 <_start-0x800ff3cc>	; <UNPREDICTABLE>
     c30:	5f435855 	svcpl	0x00435855
     c34:	505f5753 	subspl	r5, pc, r3, asr r7	; <UNPREDICTABLE>
     c38:	435f4441 	cmpmi	pc, #1090519040	; 0x41000000
     c3c:	505f4c54 	subspl	r4, pc, r4, asr ip	; <UNPREDICTABLE>
     c40:	4c5f4441 	cfldrdmi	mvd4, [pc], {65}	; 0x41
     c44:	525f4443 	subspl	r4, pc, #1124073472	; 0x43000000
     c48:	54455345 	strbpl	r5, [r5], #-837	; 0xfffffcbb
     c4c:	43445600 	movtmi	r5, #17920	; 0x4600
     c50:	334c5254 	movtcc	r5, #49748	; 0xc254
     c54:	43445600 	movtmi	r5, #17920	; 0x4600
     c58:	344c5254 	strbcc	r5, [ip], #-596	; 0xfffffdac
     c5c:	43534300 	cmpmi	r3, #0, 6
     c60:	4d494c5f 	stclmi	12, cr4, [r9, #-380]	; 0xfffffe84
     c64:	50005449 	andpl	r5, r0, r9, asr #8
     c68:	555f4c4c 	ldrbpl	r4, [pc, #-3148]	; 24 <_start-0x800fffdc>
     c6c:	5f324253 	svcpl	0x00324253
     c70:	00544553 	subseq	r4, r4, r3, asr r5
     c74:	4f495047 	svcmi	0x00495047
     c78:	52445f31 	subpl	r5, r4, #49, 30	; 0xc4
     c7c:	49564400 	ldmdbmi	r6, {sl, lr}^
     c80:	4c525443 	cfldrdmi	mvd5, [r2], {67}	; 0x43
     c84:	4c500032 	mrrcmi	0, 3, r0, r0, cr2	; <UNPREDICTABLE>
     c88:	53555f4c 	cmppl	r5, #76, 30	; 0x130
     c8c:	545f3242 	ldrbpl	r3, [pc], #-578	; c94 <_start-0x800ff36c>
     c90:	5000474f 	andpl	r4, r0, pc, asr #14
     c94:	345f4446 	ldrbcc	r4, [pc], #-1094	; c9c <_start-0x800ff364>
     c98:	535f3038 	cmppl	pc, #56	; 0x38
     c9c:	44005445 	strmi	r5, [r0], #-1093	; 0xfffffbbb
     ca0:	54434956 	strbpl	r4, [r3], #-2390	; 0xfffff6aa
     ca4:	00344c52 	eorseq	r4, r4, r2, asr ip
     ca8:	45534552 	ldrbmi	r4, [r3, #-1362]	; 0xfffffaae
     cac:	44455652 	strbmi	r5, [r5], #-1618	; 0xfffff9ae
     cb0:	0030325f 	eorseq	r3, r0, pc, asr r2
     cb4:	4c525443 	cfldrdmi	mvd5, [r2], {67}	; 0x43
     cb8:	4c435f32 	mcrrmi	15, 3, r5, r3, cr2
     cbc:	57530052 			; <UNDEFINED> instruction: 0x57530052
     cc0:	4441505f 	strbmi	r5, [r1], #-95	; 0xffffffa1
     cc4:	4c54435f 	mrrcmi	3, 5, r4, r4, cr15	; <UNPREDICTABLE>
     cc8:	7079545f 	rsbsvc	r5, r9, pc, asr r4
     ccc:	45520065 	ldrbmi	r0, [r2, #-101]	; 0xffffff9b
     cd0:	56524553 			; <UNDEFINED> instruction: 0x56524553
     cd4:	325f4445 	subscc	r4, pc, #1157627904	; 0x45000000
     cd8:	5f575300 	svcpl	0x00575300
     cdc:	5f58554d 	svcpl	0x0058554d
     ce0:	5f4c5443 	svcpl	0x004c5443
     ce4:	5f444150 	svcpl	0x00444150
     ce8:	5f44434c 	svcpl	0x0044434c
     cec:	41544144 	cmpmi	r4, r4, asr #2
     cf0:	53003031 	movwpl	r3, #49	; 0x31
     cf4:	554d5f57 	strbpl	r5, [sp, #-3927]	; 0xfffff0a9
     cf8:	54435f58 	strbpl	r5, [r3], #-3928	; 0xfffff0a8
     cfc:	41505f4c 	cmpmi	r0, ip, asr #30
     d00:	434c5f44 	movtmi	r5, #53060	; 0xcf44
     d04:	41445f44 	cmpmi	r4, r4, asr #30
     d08:	31314154 	teqcc	r1, r4, asr r1
     d0c:	5f575300 	svcpl	0x00575300
     d10:	5f58554d 	svcpl	0x0058554d
     d14:	5f4c5443 	svcpl	0x004c5443
     d18:	5f444150 	svcpl	0x00444150
     d1c:	5f44434c 	svcpl	0x0044434c
     d20:	41544144 	cmpmi	r4, r4, asr #2
     d24:	53003231 	movwpl	r3, #561	; 0x231
     d28:	554d5f57 	strbpl	r5, [sp, #-3927]	; 0xfffff0a9
     d2c:	54435f58 	strbpl	r5, [r3], #-3928	; 0xfffff0a8
     d30:	41505f4c 	cmpmi	r0, ip, asr #30
     d34:	434c5f44 	movtmi	r5, #53060	; 0xcf44
     d38:	41445f44 	cmpmi	r4, r4, asr #30
     d3c:	33314154 	teqcc	r1, #84, 2
     d40:	5f575300 	svcpl	0x00575300
     d44:	5f58554d 	svcpl	0x0058554d
     d48:	5f4c5443 	svcpl	0x004c5443
     d4c:	5f444150 	svcpl	0x00444150
     d50:	5f44434c 	svcpl	0x0044434c
     d54:	41544144 	cmpmi	r4, r4, asr #2
     d58:	53003431 	movwpl	r3, #1073	; 0x431
     d5c:	554d5f57 	strbpl	r5, [sp, #-3927]	; 0xfffff0a9
     d60:	54435f58 	strbpl	r5, [r3], #-3928	; 0xfffff0a8
     d64:	41505f4c 	cmpmi	r0, ip, asr #30
     d68:	434c5f44 	movtmi	r5, #53060	; 0xcf44
     d6c:	41445f44 	cmpmi	r4, r4, asr #30
     d70:	35314154 	ldrcc	r4, [r1, #-340]!	; 0xfffffeac
     d74:	5f575300 	svcpl	0x00575300
     d78:	5f58554d 	svcpl	0x0058554d
     d7c:	5f4c5443 	svcpl	0x004c5443
     d80:	5f444150 	svcpl	0x00444150
     d84:	5f44434c 	svcpl	0x0044434c
     d88:	41544144 	cmpmi	r4, r4, asr #2
     d8c:	53003631 	movwpl	r3, #1585	; 0x631
     d90:	554d5f57 	strbpl	r5, [sp, #-3927]	; 0xfffff0a9
     d94:	54435f58 	strbpl	r5, [r3], #-3928	; 0xfffff0a8
     d98:	41505f4c 	cmpmi	r0, ip, asr #30
     d9c:	434c5f44 	movtmi	r5, #53060	; 0xcf44
     da0:	41445f44 	cmpmi	r4, r4, asr #30
     da4:	37314154 			; <UNDEFINED> instruction: 0x37314154
     da8:	5f575300 	svcpl	0x00575300
     dac:	5f58554d 	svcpl	0x0058554d
     db0:	5f4c5443 	svcpl	0x004c5443
     db4:	5f444150 	svcpl	0x00444150
     db8:	5f44434c 	svcpl	0x0044434c
     dbc:	41544144 	cmpmi	r4, r4, asr #2
     dc0:	53003831 	movwpl	r3, #2097	; 0x831
     dc4:	554d5f57 	strbpl	r5, [sp, #-3927]	; 0xfffff0a9
     dc8:	54435f58 	strbpl	r5, [r3], #-3928	; 0xfffff0a8
     dcc:	41505f4c 	cmpmi	r0, ip, asr #30
     dd0:	434c5f44 	movtmi	r5, #53060	; 0xcf44
     dd4:	41445f44 	cmpmi	r4, r4, asr #30
     dd8:	39314154 	ldmdbcc	r1!, {r2, r4, r6, r8, lr}
     ddc:	53455200 	movtpl	r5, #20992	; 0x5200
     de0:	45565245 	ldrbmi	r5, [r6, #-581]	; 0xfffffdbb
     de4:	35325f44 	ldrcc	r5, [r2, #-3908]!	; 0xfffff0bc
     de8:	53494d00 	movtpl	r4, #40192	; 0x9d00
     dec:	435f3243 	cmpmi	pc, #805306372	; 0x30000004
     df0:	5200524c 	andpl	r5, r0, #76, 4	; 0xc0000004
     df4:	52455345 	subpl	r5, r5, #335544321	; 0x14000001
     df8:	5f444556 	svcpl	0x00444556
     dfc:	54003632 	strpl	r3, [r0], #-1586	; 0xfffff9ce
     e00:	4e494d49 	cdpmi	13, 4, cr4, cr9, cr9, {2}
     e04:	4c500047 	mrrcmi	0, 4, r0, r0, cr7	; <UNPREDICTABLE>
     e08:	49565f4c 	ldmdbmi	r6, {r2, r3, r6, r8, r9, sl, fp, ip, lr}^
     e0c:	004f4544 	subeq	r4, pc, r4, asr #10
     e10:	5f4c4c50 	svcpl	0x004c4c50
     e14:	49445541 	stmdbmi	r4, {r0, r6, r8, sl, ip, lr}^
     e18:	5443004f 	strbpl	r0, [r3], #-79	; 0xffffffb1
     e1c:	5f314c52 	svcpl	0x00314c52
     e20:	00524c43 	subseq	r4, r2, r3, asr #24
     e24:	4353494d 	cmpmi	r3, #1261568	; 0x134000
     e28:	4f545f30 	svcmi	0x00545f30
     e2c:	6e750047 	cdpvs	0, 7, cr0, cr5, cr7, {2}
     e30:	6e676973 			; <UNDEFINED> instruction: 0x6e676973
     e34:	63206465 			; <UNDEFINED> instruction: 0x63206465
     e38:	00726168 	rsbseq	r6, r2, r8, ror #2
     e3c:	5f4c4c50 	svcpl	0x004c4c50
     e40:	54454e45 	strbpl	r4, [r5], #-3653	; 0xfffff1bb
     e44:	5445535f 	strbpl	r5, [r5], #-863	; 0xfffffca1
     e48:	4c4c5000 	marmi	acc0, r5, ip
     e4c:	454e455f 	strbmi	r4, [lr, #-1375]	; 0xfffffaa1
     e50:	4f545f54 	svcmi	0x00545f54
     e54:	46500047 	ldrbmi	r0, [r0], -r7, asr #32
     e58:	38345f44 	ldmdacc	r4!, {r2, r6, r8, r9, sl, fp, ip, lr}
     e5c:	4f545f30 	svcmi	0x00545f30
     e60:	4c500047 	mrrcmi	0, 4, r0, r0, cr7	; <UNPREDICTABLE>
     e64:	53555f4c 	cmppl	r5, #76, 30	; 0x130
     e68:	52003142 	andpl	r3, r0, #-2147483632	; 0x80000010
     e6c:	52455345 	subpl	r5, r5, #335544321	; 0x14000001
     e70:	5f444556 	svcpl	0x00444556
     e74:	52003031 	andpl	r3, r0, #49	; 0x31
     e78:	52455345 	subpl	r5, r5, #335544321	; 0x14000001
     e7c:	5f444556 	svcpl	0x00444556
     e80:	52003131 	andpl	r3, r0, #1073741836	; 0x4000000c
     e84:	52455345 	subpl	r5, r5, #335544321	; 0x14000001
     e88:	5f444556 	svcpl	0x00444556
     e8c:	52003231 	andpl	r3, r0, #268435459	; 0x10000003
     e90:	52455345 	subpl	r5, r5, #335544321	; 0x14000001
     e94:	5f444556 	svcpl	0x00444556
     e98:	43003331 	movwmi	r3, #817	; 0x331
     e9c:	5f4c5254 	svcpl	0x004c5254
     ea0:	00524c43 	subseq	r4, r2, r3, asr #24
     ea4:	45534552 	ldrbmi	r4, [r3, #-1362]	; 0xfffffaae
     ea8:	44455652 	strbmi	r5, [r5], #-1618	; 0xfffff9ae
     eac:	0035315f 	eorseq	r3, r5, pc, asr r1
     eb0:	45534552 	ldrbmi	r4, [r3, #-1362]	; 0xfffffaae
     eb4:	44455652 	strbmi	r5, [r5], #-1618	; 0xfffff9ae
     eb8:	0036315f 	eorseq	r3, r6, pc, asr r1
     ebc:	45534552 	ldrbmi	r4, [r3, #-1362]	; 0xfffffaae
     ec0:	44455652 	strbmi	r5, [r5], #-1618	; 0xfffff9ae
     ec4:	0037315f 	eorseq	r3, r7, pc, asr r1
     ec8:	45534552 	ldrbmi	r4, [r3, #-1362]	; 0xfffffaae
     ecc:	44455652 	strbmi	r5, [r5], #-1618	; 0xfffff9ae
     ed0:	0038315f 	eorseq	r3, r8, pc, asr r1
     ed4:	45534552 	ldrbmi	r4, [r3, #-1362]	; 0xfffffaae
     ed8:	44455652 	strbmi	r5, [r5], #-1618	; 0xfffff9ae
     edc:	0039315f 	eorseq	r3, r9, pc, asr r1
     ee0:	45534552 	ldrbmi	r4, [r3, #-1362]	; 0xfffffaae
     ee4:	44455652 	strbmi	r5, [r5], #-1618	; 0xfffff9ae
     ee8:	0033325f 	eorseq	r3, r3, pc, asr r2
     eec:	5f435343 	svcpl	0x00435343
     ef0:	5346464f 	movtpl	r4, #26191	; 0x664f
     ef4:	52005445 	andpl	r5, r0, #1157627904	; 0x45000000
     ef8:	52455345 	subpl	r5, r5, #335544321	; 0x14000001
     efc:	5f444556 	svcpl	0x00444556
     f00:	53003432 	movwpl	r3, #1074	; 0x432
     f04:	554d5f57 	strbpl	r5, [sp, #-3927]	; 0xfffff0a9
     f08:	54435f58 	strbpl	r5, [r3], #-3928	; 0xfffff0a8
     f0c:	41505f4c 	cmpmi	r0, ip, asr #30
     f10:	434c5f44 	movtmi	r5, #53060	; 0xcf44
     f14:	41445f44 	cmpmi	r4, r4, asr #30
     f18:	30324154 	eorscc	r4, r2, r4, asr r1
     f1c:	5f575300 	svcpl	0x00575300
     f20:	5f58554d 	svcpl	0x0058554d
     f24:	5f4c5443 	svcpl	0x004c5443
     f28:	5f444150 	svcpl	0x00444150
     f2c:	5f44434c 	svcpl	0x0044434c
     f30:	41544144 	cmpmi	r4, r4, asr #2
     f34:	53003132 	movwpl	r3, #306	; 0x132
     f38:	554d5f57 	strbpl	r5, [sp, #-3927]	; 0xfffff0a9
     f3c:	54435f58 	strbpl	r5, [r3], #-3928	; 0xfffff0a8
     f40:	41505f4c 	cmpmi	r0, ip, asr #30
     f44:	434c5f44 	movtmi	r5, #53060	; 0xcf44
     f48:	41445f44 	cmpmi	r4, r4, asr #30
     f4c:	32324154 	eorscc	r4, r2, #84, 2
     f50:	5f575300 	svcpl	0x00575300
     f54:	5f58554d 	svcpl	0x0058554d
     f58:	5f4c5443 	svcpl	0x004c5443
     f5c:	5f444150 	svcpl	0x00444150
     f60:	5f44434c 	svcpl	0x0044434c
     f64:	41544144 	cmpmi	r4, r4, asr #2
     f68:	52003332 	andpl	r3, r0, #-939524096	; 0xc8000000
     f6c:	52455345 	subpl	r5, r5, #335544321	; 0x14000001
     f70:	5f444556 	svcpl	0x00444556
     f74:	43003732 	movwmi	r3, #1842	; 0x732
     f78:	50494844 	subpl	r4, r9, r4, asr #16
     f7c:	53410052 	movtpl	r0, #4178	; 0x1052
     f80:	524c435f 	subpl	r4, ip, #2080374785	; 0x7c000001
     f84:	4859454b 	ldmdami	r9, {r0, r1, r3, r6, r8, sl, lr}^
     f88:	00484749 	subeq	r4, r8, r9, asr #14
     f8c:	5f4c4c50 	svcpl	0x004c4c50
     f90:	54454e45 	strbpl	r4, [r5], #-3653	; 0xfffff1bb
     f94:	44465000 	strbmi	r5, [r6], #-0
     f98:	3832355f 	ldmdacc	r2!, {r0, r1, r2, r3, r4, r6, r8, sl, ip, sp}
     f9c:	474f545f 	smlsldmi	r5, pc, pc, r4	; <UNPREDICTABLE>
     fa0:	49504700 	ldmdbmi	r0, {r8, r9, sl, lr}^
     fa4:	495f314f 	ldmdbmi	pc, {r0, r1, r2, r3, r6, r8, ip, sp}^	; <UNPREDICTABLE>
     fa8:	5f38304f 	svcpl	0x0038304f
     fac:	00444150 	subeq	r4, r4, r0, asr r1
     fb0:	5f4c4c50 	svcpl	0x004c4c50
     fb4:	32425355 	subcc	r5, r2, #1409286145	; 0x54000001
     fb8:	52544300 	subspl	r4, r4, #0, 6
     fbc:	535f324c 	cmppl	pc, #76, 4	; 0xc0000004
     fc0:	43005445 	movwmi	r5, #1093	; 0x445
     fc4:	00525047 	subseq	r5, r2, r7, asr #32
     fc8:	36786d49 	ldrbtcc	r6, [r8], -r9, asr #26
     fcc:	5f6c6c75 	svcpl	0x006c6c75
     fd0:	5f64636c 	svcpl	0x0064636c
     fd4:	746e6f63 	strbtvc	r6, [lr], #-3939	; 0xfffff09d
     fd8:	6c6c6f72 	stclvs	15, cr6, [ip], #-456	; 0xfffffe38
     fdc:	695f7265 	ldmdbvs	pc, {r0, r2, r5, r6, r9, ip, sp, lr}^	; <UNPREDICTABLE>
     fe0:	0074696e 	rsbseq	r6, r4, lr, ror #18
     fe4:	5f444650 	svcpl	0x00444650
     fe8:	5f383235 	svcpl	0x00383235
     fec:	00544553 	subseq	r4, r4, r3, asr r5
     ff0:	554d4f49 	strbpl	r4, [sp, #-3913]	; 0xfffff0b7
     ff4:	535f4358 	cmppl	pc, #88, 6	; 0x60000001
     ff8:	41505f57 	cmpmi	r0, r7, asr pc
     ffc:	54435f44 	strbpl	r5, [r3], #-3908	; 0xfffff0bc
    1000:	41505f4c 	cmpmi	r0, ip, asr #30
    1004:	434c5f44 	movtmi	r5, #53060	; 0xcf44
    1008:	53485f44 	movtpl	r5, #36676	; 0x8f44
    100c:	00434e59 	subeq	r4, r3, r9, asr lr
    1010:	4353494d 	cmpmi	r3, #1261568	; 0x134000
    1014:	45535f32 	ldrbmi	r5, [r3, #-3890]	; 0xfffff0ce
    1018:	43430054 	movtmi	r0, #12372	; 0x3054
    101c:	0052534f 	subseq	r5, r2, pc, asr #6
    1020:	52534943 	subspl	r4, r3, #1097728	; 0x10c000
    1024:	43534300 	cmpmi	r3, #0, 6
    1028:	00315244 	eorseq	r5, r1, r4, asr #4
    102c:	44435343 	strbmi	r5, [r3], #-835	; 0xfffffcbd
    1030:	49003252 	stmdbmi	r0, {r1, r4, r6, r9, ip, sp}
    1034:	58554d4f 	ldmdapl	r5, {r0, r1, r2, r3, r6, r8, sl, fp, lr}^
    1038:	57535f43 	ldrbpl	r5, [r3, -r3, asr #30]
    103c:	4441505f 	strbmi	r5, [r1], #-95	; 0xffffffa1
    1040:	4c54435f 	mrrcmi	3, 5, r4, r4, cr15	; <UNPREDICTABLE>
    1044:	4441505f 	strbmi	r5, [r1], #-95	; 0xffffffa1
    1048:	44434c5f 	strbmi	r4, [r3], #-3167	; 0xfffff3a1
    104c:	5441445f 	strbpl	r4, [r1], #-1119	; 0xfffffba1
    1050:	00303041 	eorseq	r3, r0, r1, asr #32
    1054:	554d4f49 	strbpl	r4, [sp, #-3913]	; 0xfffff0b7
    1058:	535f4358 	cmppl	pc, #88, 6	; 0x60000001
    105c:	41505f57 	cmpmi	r0, r7, asr pc
    1060:	54435f44 	strbpl	r5, [r3], #-3908	; 0xfffff0bc
    1064:	41505f4c 	cmpmi	r0, ip, asr #30
    1068:	434c5f44 	movtmi	r5, #53060	; 0xcf44
    106c:	41445f44 	cmpmi	r4, r4, asr #30
    1070:	31304154 	teqcc	r0, r4, asr r1
    1074:	4d4f4900 	vstrmi.16	s9, [pc, #-0]	; 107c <_start-0x800fef84>	; <UNPREDICTABLE>
    1078:	5f435855 	svcpl	0x00435855
    107c:	505f5753 	subspl	r5, pc, r3, asr r7	; <UNPREDICTABLE>
    1080:	435f4441 	cmpmi	pc, #1090519040	; 0x41000000
    1084:	505f4c54 	subspl	r4, pc, r4, asr ip	; <UNPREDICTABLE>
    1088:	4c5f4441 	cfldrdmi	mvd4, [pc], {65}	; 0x41
    108c:	445f4443 	ldrbmi	r4, [pc], #-1091	; 1094 <_start-0x800fef6c>
    1090:	30415441 	subcc	r5, r1, r1, asr #8
    1094:	4f490032 	svcmi	0x00490032
    1098:	4358554d 	cmpmi	r8, #322961408	; 0x13400000
    109c:	5f57535f 	svcpl	0x0057535f
    10a0:	5f444150 	svcpl	0x00444150
    10a4:	5f4c5443 	svcpl	0x004c5443
    10a8:	5f444150 	svcpl	0x00444150
    10ac:	5f44434c 	svcpl	0x0044434c
    10b0:	41544144 	cmpmi	r4, r4, asr #2
    10b4:	49003330 	stmdbmi	r0, {r4, r5, r8, r9, ip, sp}
    10b8:	58554d4f 	ldmdapl	r5, {r0, r1, r2, r3, r6, r8, sl, fp, lr}^
    10bc:	57535f43 	ldrbpl	r5, [r3, -r3, asr #30]
    10c0:	4441505f 	strbmi	r5, [r1], #-95	; 0xffffffa1
    10c4:	4c54435f 	mrrcmi	3, 5, r4, r4, cr15	; <UNPREDICTABLE>
    10c8:	4441505f 	strbmi	r5, [r1], #-95	; 0xffffffa1
    10cc:	44434c5f 	strbmi	r4, [r3], #-3167	; 0xfffff3a1
    10d0:	5441445f 	strbpl	r4, [r1], #-1119	; 0xfffffba1
    10d4:	00343041 	eorseq	r3, r4, r1, asr #32

Disassembly of section .debug_frame:

00000000 <.debug_frame>:
   0:	0000000c 	andeq	r0, r0, ip
   4:	ffffffff 			; <UNDEFINED> instruction: 0xffffffff
   8:	7c020001 	stcvc	0, cr0, [r2], {1}
   c:	000d0c0e 	andeq	r0, sp, lr, lsl #24
  10:	00000020 	andeq	r0, r0, r0, lsr #32
  14:	00000000 	andeq	r0, r0, r0
  18:	8010003c 	andshi	r0, r0, ip, lsr r0
  1c:	0000017c 	andeq	r0, r0, ip, ror r1
  20:	87080e41 	strhi	r0, [r8, -r1, asr #28]
  24:	41018e02 	tstmi	r1, r2, lsl #28
  28:	0d41280e 	stcleq	8, cr2, [r1, #-56]	; 0xffffffc8
  2c:	0eb90207 	cdpeq	2, 11, cr0, cr9, cr7, {0}
  30:	0d0d4108 	stfeqs	f4, [sp, #-32]	; 0xffffffe0
  34:	00000018 	andeq	r0, r0, r8, lsl r0
  38:	00000000 	andeq	r0, r0, r0
  3c:	801001b8 			; <UNDEFINED> instruction: 0x801001b8
  40:	00000012 	andeq	r0, r0, r2, lsl r0
  44:	87080e41 	strhi	r0, [r8, -r1, asr #28]
  48:	41018e02 	tstmi	r1, r2, lsl #28
  4c:	0000070d 	andeq	r0, r0, sp, lsl #14
  50:	0000000c 	andeq	r0, r0, ip
  54:	ffffffff 			; <UNDEFINED> instruction: 0xffffffff
  58:	7c020001 	stcvc	0, cr0, [r2], {1}
  5c:	000d0c0e 	andeq	r0, sp, lr, lsl #24
  60:	00000024 	andeq	r0, r0, r4, lsr #32
  64:	00000050 	andeq	r0, r0, r0, asr r0
  68:	801001ca 	andshi	r0, r0, sl, asr #3
  6c:	0000003a 	andeq	r0, r0, sl, lsr r0
  70:	84080e41 	strhi	r0, [r8], #-3649	; 0xfffff1bf
  74:	41018702 	tstmi	r1, r2, lsl #14
  78:	0d41100e 	stcleq	0, cr1, [r1, #-56]	; 0xffffffc8
  7c:	080e5707 	stmdaeq	lr, {r0, r1, r2, r8, r9, sl, ip, lr}
  80:	410d0d41 	tstmi	sp, r1, asr #26
  84:	000ec4c7 	andeq	ip, lr, r7, asr #9
  88:	00000024 	andeq	r0, r0, r4, lsr #32
  8c:	00000050 	andeq	r0, r0, r0, asr r0
  90:	80100204 	andshi	r0, r0, r4, lsl #4
  94:	00000050 	andeq	r0, r0, r0, asr r0
  98:	87040e41 	strhi	r0, [r4, -r1, asr #28]
  9c:	180e4101 	stmdane	lr, {r0, r8, lr}
  a0:	61070d41 	tstvs	r7, r1, asr #26
  a4:	0d41040e 	cfstrdeq	mvd0, [r1, #-56]	; 0xffffffc8
  a8:	0ec7420d 	cdpeq	2, 12, cr4, cr7, cr13, {0}
  ac:	00000000 	andeq	r0, r0, r0
  b0:	00000020 	andeq	r0, r0, r0, lsr #32
  b4:	00000050 	andeq	r0, r0, r0, asr r0
  b8:	80100254 	andshi	r0, r0, r4, asr r2
  bc:	00000072 	andeq	r0, r0, r2, ror r0
  c0:	87080e41 	strhi	r0, [r8, -r1, asr #28]
  c4:	41018e02 	tstmi	r1, r2, lsl #28
  c8:	0d41180e 	stcleq	8, cr1, [r1, #-56]	; 0xffffffc8
  cc:	080e7407 	stmdaeq	lr, {r0, r1, r2, sl, ip, sp, lr}
  d0:	000d0d41 	andeq	r0, sp, r1, asr #26
  d4:	00000020 	andeq	r0, r0, r0, lsr #32
  d8:	00000050 	andeq	r0, r0, r0, asr r0
  dc:	801002c6 	andshi	r0, r0, r6, asr #5
  e0:	00000036 	andeq	r0, r0, r6, lsr r0
  e4:	87080e41 	strhi	r0, [r8, -r1, asr #28]
  e8:	41018e02 	tstmi	r1, r2, lsl #28
  ec:	0d41100e 	stcleq	0, cr1, [r1, #-56]	; 0xffffffc8
  f0:	080e5607 	stmdaeq	lr, {r0, r1, r2, r9, sl, ip, lr}
  f4:	000d0d41 	andeq	r0, sp, r1, asr #26
  f8:	00000018 	andeq	r0, r0, r8, lsl r0
  fc:	00000050 	andeq	r0, r0, r0, asr r0
 100:	801002fc 			; <UNDEFINED> instruction: 0x801002fc
 104:	00000024 	andeq	r0, r0, r4, lsr #32
 108:	87080e41 	strhi	r0, [r8, -r1, asr #28]
 10c:	41018e02 	tstmi	r1, r2, lsl #28
 110:	0000070d 	andeq	r0, r0, sp, lsl #14
 114:	00000018 	andeq	r0, r0, r8, lsl r0
 118:	00000050 	andeq	r0, r0, r0, asr r0
 11c:	80100320 	andshi	r0, r0, r0, lsr #6
 120:	00000024 	andeq	r0, r0, r4, lsr #32
 124:	87080e41 	strhi	r0, [r8, -r1, asr #28]
 128:	41018e02 	tstmi	r1, r2, lsl #28
 12c:	0000070d 	andeq	r0, r0, sp, lsl #14
 130:	00000018 	andeq	r0, r0, r8, lsl r0
 134:	00000050 	andeq	r0, r0, r0, asr r0
 138:	80100344 	andshi	r0, r0, r4, asr #6
 13c:	0000000c 	andeq	r0, r0, ip
 140:	87080e41 	strhi	r0, [r8, -r1, asr #28]
 144:	41018e02 	tstmi	r1, r2, lsl #28
 148:	0000070d 	andeq	r0, r0, sp, lsl #14
 14c:	0000000c 	andeq	r0, r0, ip
 150:	ffffffff 			; <UNDEFINED> instruction: 0xffffffff
 154:	7c020001 	stcvc	0, cr0, [r2], {1}
 158:	000d0c0e 	andeq	r0, sp, lr, lsl #24
 15c:	00000024 	andeq	r0, r0, r4, lsr #32
 160:	0000014c 	andeq	r0, r0, ip, asr #2
 164:	80100350 	andshi	r0, r0, r0, asr r3
 168:	00000020 	andeq	r0, r0, r0, lsr #32
 16c:	87040e41 	strhi	r0, [r4, -r1, asr #28]
 170:	100e4101 	andne	r4, lr, r1, lsl #2
 174:	49070d41 	stmdbmi	r7, {r0, r6, r8, sl, fp}
 178:	0d41040e 	cfstrdeq	mvd0, [r1, #-56]	; 0xffffffc8
 17c:	0ec7420d 	cdpeq	2, 12, cr4, cr7, cr13, {0}
 180:	00000000 	andeq	r0, r0, r0
 184:	00000024 	andeq	r0, r0, r4, lsr #32
 188:	0000014c 	andeq	r0, r0, ip, asr #2
 18c:	80100370 	andshi	r0, r0, r0, ror r3
 190:	00000050 	andeq	r0, r0, r0, asr r0
 194:	87040e41 	strhi	r0, [r4, -r1, asr #28]
 198:	180e4101 	stmdane	lr, {r0, r8, lr}
 19c:	61070d41 	tstvs	r7, r1, asr #26
 1a0:	0d41040e 	cfstrdeq	mvd0, [r1, #-56]	; 0xffffffc8
 1a4:	0ec7420d 	cdpeq	2, 12, cr4, cr7, cr13, {0}
 1a8:	00000000 	andeq	r0, r0, r0
 1ac:	00000020 	andeq	r0, r0, r0, lsr #32
 1b0:	0000014c 	andeq	r0, r0, ip, asr #2
 1b4:	801003c0 	andshi	r0, r0, r0, asr #7
 1b8:	00000072 	andeq	r0, r0, r2, ror r0
 1bc:	87080e41 	strhi	r0, [r8, -r1, asr #28]
 1c0:	41018e02 	tstmi	r1, r2, lsl #28
 1c4:	0d41180e 	stcleq	8, cr1, [r1, #-56]	; 0xffffffc8
 1c8:	080e7407 	stmdaeq	lr, {r0, r1, r2, sl, ip, sp, lr}
 1cc:	000d0d41 	andeq	r0, sp, r1, asr #26
 1d0:	00000024 	andeq	r0, r0, r4, lsr #32
 1d4:	0000014c 	andeq	r0, r0, ip, asr #2
 1d8:	80100432 	andshi	r0, r0, r2, lsr r4
 1dc:	0000005a 	andeq	r0, r0, sl, asr r0
 1e0:	87040e41 	strhi	r0, [r4, -r1, asr #28]
 1e4:	180e4101 	stmdane	lr, {r0, r8, lr}
 1e8:	66070d41 	strvs	r0, [r7], -r1, asr #26
 1ec:	0d41040e 	cfstrdeq	mvd0, [r1, #-56]	; 0xffffffc8
 1f0:	0ec7420d 	cdpeq	2, 12, cr4, cr7, cr13, {0}
 1f4:	00000000 	andeq	r0, r0, r0
 1f8:	00000018 	andeq	r0, r0, r8, lsl r0
 1fc:	0000014c 	andeq	r0, r0, ip, asr #2
 200:	8010048c 	andshi	r0, r0, ip, lsl #9
 204:	0000000c 	andeq	r0, r0, ip
 208:	87080e41 	strhi	r0, [r8, -r1, asr #28]
 20c:	41018e02 	tstmi	r1, r2, lsl #28
 210:	0000070d 	andeq	r0, r0, sp, lsl #14
 214:	00000018 	andeq	r0, r0, r8, lsl r0
 218:	0000014c 	andeq	r0, r0, ip, asr #2
 21c:	80100498 	mulshi	r0, r8, r4
 220:	0000000c 	andeq	r0, r0, ip
 224:	87080e41 	strhi	r0, [r8, -r1, asr #28]
 228:	41018e02 	tstmi	r1, r2, lsl #28
 22c:	0000070d 	andeq	r0, r0, sp, lsl #14
 230:	00000018 	andeq	r0, r0, r8, lsl r0
 234:	0000014c 	andeq	r0, r0, ip, asr #2
 238:	801004a4 	andshi	r0, r0, r4, lsr #9
 23c:	00000038 	andeq	r0, r0, r8, lsr r0
 240:	87080e41 	strhi	r0, [r8, -r1, asr #28]
 244:	41018e02 	tstmi	r1, r2, lsl #28
 248:	0000070d 	andeq	r0, r0, sp, lsl #14
 24c:	0000000c 	andeq	r0, r0, ip
 250:	ffffffff 			; <UNDEFINED> instruction: 0xffffffff
 254:	7c020001 	stcvc	0, cr0, [r2], {1}
 258:	000d0c0e 	andeq	r0, sp, lr, lsl #24
 25c:	00000018 	andeq	r0, r0, r8, lsl r0
 260:	0000024c 	andeq	r0, r0, ip, asr #4
 264:	801004dc 			; <UNDEFINED> instruction: 0x801004dc
 268:	00000014 	andeq	r0, r0, r4, lsl r0
 26c:	87080e41 	strhi	r0, [r8, -r1, asr #28]
 270:	41018e02 	tstmi	r1, r2, lsl #28
 274:	0000070d 	andeq	r0, r0, sp, lsl #14
 278:	0000000c 	andeq	r0, r0, ip
 27c:	ffffffff 			; <UNDEFINED> instruction: 0xffffffff
 280:	7c020001 	stcvc	0, cr0, [r2], {1}
 284:	000d0c0e 	andeq	r0, sp, lr, lsl #24
 288:	00000024 	andeq	r0, r0, r4, lsr #32
 28c:	00000278 	andeq	r0, r0, r8, ror r2
 290:	801004f0 			; <UNDEFINED> instruction: 0x801004f0
 294:	000000b8 	strheq	r0, [r0], -r8
 298:	87040e41 	strhi	r0, [r4, -r1, asr #28]
 29c:	100e4101 	andne	r4, lr, r1, lsl #2
 2a0:	02070d41 	andeq	r0, r7, #4160	; 0x1040
 2a4:	41040e55 	tstmi	r4, r5, asr lr
 2a8:	c7420d0d 	strbgt	r0, [r2, -sp, lsl #26]
 2ac:	0000000e 	andeq	r0, r0, lr
 2b0:	00000024 	andeq	r0, r0, r4, lsr #32
 2b4:	00000278 	andeq	r0, r0, r8, ror r2
 2b8:	801005a8 	andshi	r0, r0, r8, lsr #11
 2bc:	00000296 	muleq	r0, r6, r2
 2c0:	87080e41 	strhi	r0, [r8, -r1, asr #28]
 2c4:	41018e02 	tstmi	r1, r2, lsl #28
 2c8:	0d41180e 	stcleq	8, cr1, [r1, #-56]	; 0xffffffc8
 2cc:	01460307 	cmpeq	r6, r7, lsl #6
 2d0:	0d41080e 	stcleq	8, cr0, [r1, #-56]	; 0xffffffc8
 2d4:	0000000d 	andeq	r0, r0, sp
 2d8:	0000001c 	andeq	r0, r0, ip, lsl r0
 2dc:	00000278 	andeq	r0, r0, r8, ror r2
 2e0:	8010083e 	andshi	r0, r0, lr, lsr r8
 2e4:	00000026 	andeq	r0, r0, r6, lsr #32
 2e8:	87040e41 	strhi	r0, [r4, -r1, asr #28]
 2ec:	070d4101 	streq	r4, [sp, -r1, lsl #2]
 2f0:	420d0d4e 	andmi	r0, sp, #4992	; 0x1380
 2f4:	00000ec7 	andeq	r0, r0, r7, asr #29
 2f8:	0000001c 	andeq	r0, r0, ip, lsl r0
 2fc:	00000278 	andeq	r0, r0, r8, ror r2
 300:	80100864 	andshi	r0, r0, r4, ror #16
 304:	00000026 	andeq	r0, r0, r6, lsr #32
 308:	87040e41 	strhi	r0, [r4, -r1, asr #28]
 30c:	070d4101 	streq	r4, [sp, -r1, lsl #2]
 310:	420d0d4e 	andmi	r0, sp, #4992	; 0x1380
 314:	00000ec7 	andeq	r0, r0, r7, asr #29
 318:	00000018 	andeq	r0, r0, r8, lsl r0
 31c:	00000278 	andeq	r0, r0, r8, ror r2
 320:	8010088a 	andshi	r0, r0, sl, lsl #17
 324:	00000014 	andeq	r0, r0, r4, lsl r0
 328:	87080e41 	strhi	r0, [r8, -r1, asr #28]
 32c:	41018e02 	tstmi	r1, r2, lsl #28
 330:	0000070d 	andeq	r0, r0, sp, lsl #14
