
dot_line_circle.elf:     file format elf32-littlearm


Disassembly of section .text:

80100000 <_start>:
80100000:	e59fd028 	ldr	sp, [pc, #40]	; 80100030 <clean+0x14>
80100004:	eb000001 	bl	80100010 <clean_bss>
80100008:	fb0000b2 	blx	801002da <main>

8010000c <halt>:
8010000c:	eafffffe 	b	8010000c <halt>

80100010 <clean_bss>:
80100010:	e59f101c 	ldr	r1, [pc, #28]	; 80100034 <clean+0x18>
80100014:	e59f201c 	ldr	r2, [pc, #28]	; 80100038 <clean+0x1c>
80100018:	e3a03000 	mov	r3, #0

8010001c <clean>:
8010001c:	e5813000 	str	r3, [r1]
80100020:	e2811004 	add	r1, r1, #4
80100024:	e1510002 	cmp	r1, r2
80100028:	1afffffb 	bne	8010001c <clean>
8010002c:	e1a0f00e 	mov	pc, lr
80100030:	80200000 	eorhi	r0, r0, r0
80100034:	80100f3c 	andshi	r0, r0, ip, lsr pc
80100038:	80100f90 	mulshi	r0, r0, pc	; <UNPREDICTABLE>

8010003c <lcd_test>:
8010003c:	b580      	push	{r7, lr}
8010003e:	b08a      	sub	sp, #40	; 0x28
80100040:	af02      	add	r7, sp, #8
80100042:	f000 fd33 	bl	80100aac <lcd_enable>
80100046:	463b      	mov	r3, r7
80100048:	1d3a      	adds	r2, r7, #4
8010004a:	f107 0108 	add.w	r1, r7, #8
8010004e:	f107 000c 	add.w	r0, r7, #12
80100052:	f000 fcfe 	bl	80100a52 <get_lcd_params>
80100056:	683b      	ldr	r3, [r7, #0]
80100058:	2b10      	cmp	r3, #16
8010005a:	d153      	bne.n	80100104 <lcd_test+0xc8>
8010005c:	68fb      	ldr	r3, [r7, #12]
8010005e:	617b      	str	r3, [r7, #20]
80100060:	2300      	movs	r3, #0
80100062:	61fb      	str	r3, [r7, #28]
80100064:	e012      	b.n	8010008c <lcd_test+0x50>
80100066:	2300      	movs	r3, #0
80100068:	61bb      	str	r3, [r7, #24]
8010006a:	e008      	b.n	8010007e <lcd_test+0x42>
8010006c:	697b      	ldr	r3, [r7, #20]
8010006e:	1c9a      	adds	r2, r3, #2
80100070:	617a      	str	r2, [r7, #20]
80100072:	f44f 42f8 	mov.w	r2, #31744	; 0x7c00
80100076:	801a      	strh	r2, [r3, #0]
80100078:	69bb      	ldr	r3, [r7, #24]
8010007a:	3301      	adds	r3, #1
8010007c:	61bb      	str	r3, [r7, #24]
8010007e:	687b      	ldr	r3, [r7, #4]
80100080:	69ba      	ldr	r2, [r7, #24]
80100082:	429a      	cmp	r2, r3
80100084:	dbf2      	blt.n	8010006c <lcd_test+0x30>
80100086:	69fb      	ldr	r3, [r7, #28]
80100088:	3301      	adds	r3, #1
8010008a:	61fb      	str	r3, [r7, #28]
8010008c:	68bb      	ldr	r3, [r7, #8]
8010008e:	69fa      	ldr	r2, [r7, #28]
80100090:	429a      	cmp	r2, r3
80100092:	dbe8      	blt.n	80100066 <lcd_test+0x2a>
80100094:	68fb      	ldr	r3, [r7, #12]
80100096:	617b      	str	r3, [r7, #20]
80100098:	2300      	movs	r3, #0
8010009a:	61fb      	str	r3, [r7, #28]
8010009c:	e012      	b.n	801000c4 <lcd_test+0x88>
8010009e:	2300      	movs	r3, #0
801000a0:	61bb      	str	r3, [r7, #24]
801000a2:	e008      	b.n	801000b6 <lcd_test+0x7a>
801000a4:	697b      	ldr	r3, [r7, #20]
801000a6:	1c9a      	adds	r2, r3, #2
801000a8:	617a      	str	r2, [r7, #20]
801000aa:	f44f 7278 	mov.w	r2, #992	; 0x3e0
801000ae:	801a      	strh	r2, [r3, #0]
801000b0:	69bb      	ldr	r3, [r7, #24]
801000b2:	3301      	adds	r3, #1
801000b4:	61bb      	str	r3, [r7, #24]
801000b6:	687b      	ldr	r3, [r7, #4]
801000b8:	69ba      	ldr	r2, [r7, #24]
801000ba:	429a      	cmp	r2, r3
801000bc:	dbf2      	blt.n	801000a4 <lcd_test+0x68>
801000be:	69fb      	ldr	r3, [r7, #28]
801000c0:	3301      	adds	r3, #1
801000c2:	61fb      	str	r3, [r7, #28]
801000c4:	68bb      	ldr	r3, [r7, #8]
801000c6:	69fa      	ldr	r2, [r7, #28]
801000c8:	429a      	cmp	r2, r3
801000ca:	dbe8      	blt.n	8010009e <lcd_test+0x62>
801000cc:	68fb      	ldr	r3, [r7, #12]
801000ce:	617b      	str	r3, [r7, #20]
801000d0:	2300      	movs	r3, #0
801000d2:	61fb      	str	r3, [r7, #28]
801000d4:	e011      	b.n	801000fa <lcd_test+0xbe>
801000d6:	2300      	movs	r3, #0
801000d8:	61bb      	str	r3, [r7, #24]
801000da:	e007      	b.n	801000ec <lcd_test+0xb0>
801000dc:	697b      	ldr	r3, [r7, #20]
801000de:	1c9a      	adds	r2, r3, #2
801000e0:	617a      	str	r2, [r7, #20]
801000e2:	221f      	movs	r2, #31
801000e4:	801a      	strh	r2, [r3, #0]
801000e6:	69bb      	ldr	r3, [r7, #24]
801000e8:	3301      	adds	r3, #1
801000ea:	61bb      	str	r3, [r7, #24]
801000ec:	687b      	ldr	r3, [r7, #4]
801000ee:	69ba      	ldr	r2, [r7, #24]
801000f0:	429a      	cmp	r2, r3
801000f2:	dbf3      	blt.n	801000dc <lcd_test+0xa0>
801000f4:	69fb      	ldr	r3, [r7, #28]
801000f6:	3301      	adds	r3, #1
801000f8:	61fb      	str	r3, [r7, #28]
801000fa:	68bb      	ldr	r3, [r7, #8]
801000fc:	69fa      	ldr	r2, [r7, #28]
801000fe:	429a      	cmp	r2, r3
80100100:	dbe9      	blt.n	801000d6 <lcd_test+0x9a>
80100102:	e055      	b.n	801001b0 <lcd_test+0x174>
80100104:	683b      	ldr	r3, [r7, #0]
80100106:	2b20      	cmp	r3, #32
80100108:	d152      	bne.n	801001b0 <lcd_test+0x174>
8010010a:	68fb      	ldr	r3, [r7, #12]
8010010c:	613b      	str	r3, [r7, #16]
8010010e:	2300      	movs	r3, #0
80100110:	61fb      	str	r3, [r7, #28]
80100112:	e012      	b.n	8010013a <lcd_test+0xfe>
80100114:	2300      	movs	r3, #0
80100116:	61bb      	str	r3, [r7, #24]
80100118:	e008      	b.n	8010012c <lcd_test+0xf0>
8010011a:	693b      	ldr	r3, [r7, #16]
8010011c:	1d1a      	adds	r2, r3, #4
8010011e:	613a      	str	r2, [r7, #16]
80100120:	f44f 027f 	mov.w	r2, #16711680	; 0xff0000
80100124:	601a      	str	r2, [r3, #0]
80100126:	69bb      	ldr	r3, [r7, #24]
80100128:	3301      	adds	r3, #1
8010012a:	61bb      	str	r3, [r7, #24]
8010012c:	687b      	ldr	r3, [r7, #4]
8010012e:	69ba      	ldr	r2, [r7, #24]
80100130:	429a      	cmp	r2, r3
80100132:	dbf2      	blt.n	8010011a <lcd_test+0xde>
80100134:	69fb      	ldr	r3, [r7, #28]
80100136:	3301      	adds	r3, #1
80100138:	61fb      	str	r3, [r7, #28]
8010013a:	68bb      	ldr	r3, [r7, #8]
8010013c:	69fa      	ldr	r2, [r7, #28]
8010013e:	429a      	cmp	r2, r3
80100140:	dbe8      	blt.n	80100114 <lcd_test+0xd8>
80100142:	68fb      	ldr	r3, [r7, #12]
80100144:	613b      	str	r3, [r7, #16]
80100146:	2300      	movs	r3, #0
80100148:	61fb      	str	r3, [r7, #28]
8010014a:	e012      	b.n	80100172 <lcd_test+0x136>
8010014c:	2300      	movs	r3, #0
8010014e:	61bb      	str	r3, [r7, #24]
80100150:	e008      	b.n	80100164 <lcd_test+0x128>
80100152:	693b      	ldr	r3, [r7, #16]
80100154:	1d1a      	adds	r2, r3, #4
80100156:	613a      	str	r2, [r7, #16]
80100158:	f44f 427f 	mov.w	r2, #65280	; 0xff00
8010015c:	601a      	str	r2, [r3, #0]
8010015e:	69bb      	ldr	r3, [r7, #24]
80100160:	3301      	adds	r3, #1
80100162:	61bb      	str	r3, [r7, #24]
80100164:	687b      	ldr	r3, [r7, #4]
80100166:	69ba      	ldr	r2, [r7, #24]
80100168:	429a      	cmp	r2, r3
8010016a:	dbf2      	blt.n	80100152 <lcd_test+0x116>
8010016c:	69fb      	ldr	r3, [r7, #28]
8010016e:	3301      	adds	r3, #1
80100170:	61fb      	str	r3, [r7, #28]
80100172:	68bb      	ldr	r3, [r7, #8]
80100174:	69fa      	ldr	r2, [r7, #28]
80100176:	429a      	cmp	r2, r3
80100178:	dbe8      	blt.n	8010014c <lcd_test+0x110>
8010017a:	68fb      	ldr	r3, [r7, #12]
8010017c:	613b      	str	r3, [r7, #16]
8010017e:	2300      	movs	r3, #0
80100180:	61fb      	str	r3, [r7, #28]
80100182:	e011      	b.n	801001a8 <lcd_test+0x16c>
80100184:	2300      	movs	r3, #0
80100186:	61bb      	str	r3, [r7, #24]
80100188:	e007      	b.n	8010019a <lcd_test+0x15e>
8010018a:	693b      	ldr	r3, [r7, #16]
8010018c:	1d1a      	adds	r2, r3, #4
8010018e:	613a      	str	r2, [r7, #16]
80100190:	22ff      	movs	r2, #255	; 0xff
80100192:	601a      	str	r2, [r3, #0]
80100194:	69bb      	ldr	r3, [r7, #24]
80100196:	3301      	adds	r3, #1
80100198:	61bb      	str	r3, [r7, #24]
8010019a:	687b      	ldr	r3, [r7, #4]
8010019c:	69ba      	ldr	r2, [r7, #24]
8010019e:	429a      	cmp	r2, r3
801001a0:	dbf3      	blt.n	8010018a <lcd_test+0x14e>
801001a2:	69fb      	ldr	r3, [r7, #28]
801001a4:	3301      	adds	r3, #1
801001a6:	61fb      	str	r3, [r7, #28]
801001a8:	68bb      	ldr	r3, [r7, #8]
801001aa:	69fa      	ldr	r2, [r7, #28]
801001ac:	429a      	cmp	r2, r3
801001ae:	dbe9      	blt.n	80100184 <lcd_test+0x148>
801001b0:	f000 fa89 	bl	801006c6 <fb_get_lcd_params>
801001b4:	f248 60a0 	movw	r0, #34464	; 0x86a0
801001b8:	f2c0 0001 	movt	r0, #1
801001bc:	f000 fbd8 	bl	80100970 <delay>
801001c0:	68bb      	ldr	r3, [r7, #8]
801001c2:	1e5a      	subs	r2, r3, #1
801001c4:	f44f 037f 	mov.w	r3, #16711680	; 0xff0000
801001c8:	9300      	str	r3, [sp, #0]
801001ca:	2300      	movs	r3, #0
801001cc:	2100      	movs	r1, #0
801001ce:	2000      	movs	r0, #0
801001d0:	f000 f914 	bl	801003fc <draw_line>
801001d4:	f248 60a0 	movw	r0, #34464	; 0x86a0
801001d8:	f2c0 0001 	movt	r0, #1
801001dc:	f000 fbc8 	bl	80100970 <delay>
801001e0:	68bb      	ldr	r3, [r7, #8]
801001e2:	1e58      	subs	r0, r3, #1
801001e4:	68bb      	ldr	r3, [r7, #8]
801001e6:	1e5a      	subs	r2, r3, #1
801001e8:	687b      	ldr	r3, [r7, #4]
801001ea:	1e59      	subs	r1, r3, #1
801001ec:	f44f 437f 	mov.w	r3, #65280	; 0xff00
801001f0:	f2c0 03ff 	movt	r3, #255	; 0xff
801001f4:	9300      	str	r3, [sp, #0]
801001f6:	460b      	mov	r3, r1
801001f8:	2100      	movs	r1, #0
801001fa:	f000 f8ff 	bl	801003fc <draw_line>
801001fe:	f248 60a0 	movw	r0, #34464	; 0x86a0
80100202:	f2c0 0001 	movt	r0, #1
80100206:	f000 fbb3 	bl	80100970 <delay>
8010020a:	687b      	ldr	r3, [r7, #4]
8010020c:	1e59      	subs	r1, r3, #1
8010020e:	68bb      	ldr	r3, [r7, #8]
80100210:	1e5a      	subs	r2, r3, #1
80100212:	687b      	ldr	r3, [r7, #4]
80100214:	1e58      	subs	r0, r3, #1
80100216:	23aa      	movs	r3, #170	; 0xaa
80100218:	f2c0 03ff 	movt	r3, #255	; 0xff
8010021c:	9300      	str	r3, [sp, #0]
8010021e:	4603      	mov	r3, r0
80100220:	2000      	movs	r0, #0
80100222:	f000 f8eb 	bl	801003fc <draw_line>
80100226:	f248 60a0 	movw	r0, #34464	; 0x86a0
8010022a:	f2c0 0001 	movt	r0, #1
8010022e:	f000 fb9f 	bl	80100970 <delay>
80100232:	687b      	ldr	r3, [r7, #4]
80100234:	1e5a      	subs	r2, r3, #1
80100236:	23ef      	movs	r3, #239	; 0xef
80100238:	f2c0 03ff 	movt	r3, #255	; 0xff
8010023c:	9300      	str	r3, [sp, #0]
8010023e:	4613      	mov	r3, r2
80100240:	2200      	movs	r2, #0
80100242:	2100      	movs	r1, #0
80100244:	2000      	movs	r0, #0
80100246:	f000 f8d9 	bl	801003fc <draw_line>
8010024a:	f248 60a0 	movw	r0, #34464	; 0x86a0
8010024e:	f2c0 0001 	movt	r0, #1
80100252:	f000 fb8d 	bl	80100970 <delay>
80100256:	68bb      	ldr	r3, [r7, #8]
80100258:	1e5a      	subs	r2, r3, #1
8010025a:	687b      	ldr	r3, [r7, #4]
8010025c:	1e59      	subs	r1, r3, #1
8010025e:	f44f 438a 	mov.w	r3, #17664	; 0x4500
80100262:	f2c0 03ff 	movt	r3, #255	; 0xff
80100266:	9300      	str	r3, [sp, #0]
80100268:	460b      	mov	r3, r1
8010026a:	2100      	movs	r1, #0
8010026c:	2000      	movs	r0, #0
8010026e:	f000 f8c5 	bl	801003fc <draw_line>
80100272:	f248 60a0 	movw	r0, #34464	; 0x86a0
80100276:	f2c0 0001 	movt	r0, #1
8010027a:	f000 fb79 	bl	80100970 <delay>
8010027e:	68bb      	ldr	r3, [r7, #8]
80100280:	1e58      	subs	r0, r3, #1
80100282:	687b      	ldr	r3, [r7, #4]
80100284:	1e5a      	subs	r2, r3, #1
80100286:	f44f 63f0 	mov.w	r3, #1920	; 0x780
8010028a:	f2c0 03ff 	movt	r3, #255	; 0xff
8010028e:	9300      	str	r3, [sp, #0]
80100290:	4613      	mov	r3, r2
80100292:	2200      	movs	r2, #0
80100294:	2100      	movs	r1, #0
80100296:	f000 f8b1 	bl	801003fc <draw_line>
8010029a:	f248 60a0 	movw	r0, #34464	; 0x86a0
8010029e:	f2c0 0001 	movt	r0, #1
801002a2:	f000 fb65 	bl	80100970 <delay>
801002a6:	68bb      	ldr	r3, [r7, #8]
801002a8:	0fda      	lsrs	r2, r3, #31
801002aa:	4413      	add	r3, r2
801002ac:	105b      	asrs	r3, r3, #1
801002ae:	4618      	mov	r0, r3
801002b0:	687b      	ldr	r3, [r7, #4]
801002b2:	0fda      	lsrs	r2, r3, #31
801002b4:	4413      	add	r3, r2
801002b6:	105b      	asrs	r3, r3, #1
801002b8:	4619      	mov	r1, r3
801002ba:	687b      	ldr	r3, [r7, #4]
801002bc:	1cda      	adds	r2, r3, #3
801002be:	2b00      	cmp	r3, #0
801002c0:	bfb4      	ite	lt
801002c2:	4613      	movlt	r3, r2
801002c4:	461b      	movge	r3, r3
801002c6:	109b      	asrs	r3, r3, #2
801002c8:	461a      	mov	r2, r3
801002ca:	f44f 437f 	mov.w	r3, #65280	; 0xff00
801002ce:	f000 f80d 	bl	801002ec <draw_circle>
801002d2:	bf00      	nop
801002d4:	3720      	adds	r7, #32
801002d6:	46bd      	mov	sp, r7
801002d8:	bd80      	pop	{r7, pc}

801002da <main>:
801002da:	b580      	push	{r7, lr}
801002dc:	af00      	add	r7, sp, #0
801002de:	f000 fbf1 	bl	80100ac4 <lcd_init>
801002e2:	f7ff feab 	bl	8010003c <lcd_test>
801002e6:	2300      	movs	r3, #0
801002e8:	4618      	mov	r0, r3
801002ea:	bd80      	pop	{r7, pc}

801002ec <draw_circle>:
801002ec:	b580      	push	{r7, lr}
801002ee:	b088      	sub	sp, #32
801002f0:	af00      	add	r7, sp, #0
801002f2:	60f8      	str	r0, [r7, #12]
801002f4:	60b9      	str	r1, [r7, #8]
801002f6:	607a      	str	r2, [r7, #4]
801002f8:	603b      	str	r3, [r7, #0]
801002fa:	2300      	movs	r3, #0
801002fc:	61fb      	str	r3, [r7, #28]
801002fe:	687b      	ldr	r3, [r7, #4]
80100300:	61bb      	str	r3, [r7, #24]
80100302:	e06a      	b.n	801003da <draw_circle+0xee>
80100304:	68fa      	ldr	r2, [r7, #12]
80100306:	69fb      	ldr	r3, [r7, #28]
80100308:	18d0      	adds	r0, r2, r3
8010030a:	68ba      	ldr	r2, [r7, #8]
8010030c:	69bb      	ldr	r3, [r7, #24]
8010030e:	1ad3      	subs	r3, r2, r3
80100310:	683a      	ldr	r2, [r7, #0]
80100312:	4619      	mov	r1, r3
80100314:	f000 fa18 	bl	80100748 <fb_put_pixel>
80100318:	68fa      	ldr	r2, [r7, #12]
8010031a:	69fb      	ldr	r3, [r7, #28]
8010031c:	1ad0      	subs	r0, r2, r3
8010031e:	68ba      	ldr	r2, [r7, #8]
80100320:	69bb      	ldr	r3, [r7, #24]
80100322:	1ad3      	subs	r3, r2, r3
80100324:	683a      	ldr	r2, [r7, #0]
80100326:	4619      	mov	r1, r3
80100328:	f000 fa0e 	bl	80100748 <fb_put_pixel>
8010032c:	68fa      	ldr	r2, [r7, #12]
8010032e:	69fb      	ldr	r3, [r7, #28]
80100330:	1ad0      	subs	r0, r2, r3
80100332:	68ba      	ldr	r2, [r7, #8]
80100334:	69bb      	ldr	r3, [r7, #24]
80100336:	4413      	add	r3, r2
80100338:	683a      	ldr	r2, [r7, #0]
8010033a:	4619      	mov	r1, r3
8010033c:	f000 fa04 	bl	80100748 <fb_put_pixel>
80100340:	68fa      	ldr	r2, [r7, #12]
80100342:	69fb      	ldr	r3, [r7, #28]
80100344:	18d0      	adds	r0, r2, r3
80100346:	68ba      	ldr	r2, [r7, #8]
80100348:	69bb      	ldr	r3, [r7, #24]
8010034a:	4413      	add	r3, r2
8010034c:	683a      	ldr	r2, [r7, #0]
8010034e:	4619      	mov	r1, r3
80100350:	f000 f9fa 	bl	80100748 <fb_put_pixel>
80100354:	68fa      	ldr	r2, [r7, #12]
80100356:	69bb      	ldr	r3, [r7, #24]
80100358:	18d0      	adds	r0, r2, r3
8010035a:	68ba      	ldr	r2, [r7, #8]
8010035c:	69fb      	ldr	r3, [r7, #28]
8010035e:	4413      	add	r3, r2
80100360:	683a      	ldr	r2, [r7, #0]
80100362:	4619      	mov	r1, r3
80100364:	f000 f9f0 	bl	80100748 <fb_put_pixel>
80100368:	68fa      	ldr	r2, [r7, #12]
8010036a:	69bb      	ldr	r3, [r7, #24]
8010036c:	18d0      	adds	r0, r2, r3
8010036e:	68ba      	ldr	r2, [r7, #8]
80100370:	69fb      	ldr	r3, [r7, #28]
80100372:	1ad3      	subs	r3, r2, r3
80100374:	683a      	ldr	r2, [r7, #0]
80100376:	4619      	mov	r1, r3
80100378:	f000 f9e6 	bl	80100748 <fb_put_pixel>
8010037c:	68fa      	ldr	r2, [r7, #12]
8010037e:	69bb      	ldr	r3, [r7, #24]
80100380:	1ad0      	subs	r0, r2, r3
80100382:	68ba      	ldr	r2, [r7, #8]
80100384:	69fb      	ldr	r3, [r7, #28]
80100386:	1ad3      	subs	r3, r2, r3
80100388:	683a      	ldr	r2, [r7, #0]
8010038a:	4619      	mov	r1, r3
8010038c:	f000 f9dc 	bl	80100748 <fb_put_pixel>
80100390:	68fa      	ldr	r2, [r7, #12]
80100392:	69bb      	ldr	r3, [r7, #24]
80100394:	1ad0      	subs	r0, r2, r3
80100396:	68ba      	ldr	r2, [r7, #8]
80100398:	69fb      	ldr	r3, [r7, #28]
8010039a:	4413      	add	r3, r2
8010039c:	683a      	ldr	r2, [r7, #0]
8010039e:	4619      	mov	r1, r3
801003a0:	f000 f9d2 	bl	80100748 <fb_put_pixel>
801003a4:	69fb      	ldr	r3, [r7, #28]
801003a6:	3301      	adds	r3, #1
801003a8:	61fb      	str	r3, [r7, #28]
801003aa:	69fb      	ldr	r3, [r7, #28]
801003ac:	69fa      	ldr	r2, [r7, #28]
801003ae:	fb02 f203 	mul.w	r2, r2, r3
801003b2:	69bb      	ldr	r3, [r7, #24]
801003b4:	69b9      	ldr	r1, [r7, #24]
801003b6:	fb01 f303 	mul.w	r3, r1, r3
801003ba:	441a      	add	r2, r3
801003bc:	687b      	ldr	r3, [r7, #4]
801003be:	6879      	ldr	r1, [r7, #4]
801003c0:	fb01 f303 	mul.w	r3, r1, r3
801003c4:	1ad3      	subs	r3, r2, r3
801003c6:	617b      	str	r3, [r7, #20]
801003c8:	697b      	ldr	r3, [r7, #20]
801003ca:	2b00      	cmp	r3, #0
801003cc:	dd05      	ble.n	801003da <draw_circle+0xee>
801003ce:	69bb      	ldr	r3, [r7, #24]
801003d0:	3b01      	subs	r3, #1
801003d2:	61bb      	str	r3, [r7, #24]
801003d4:	69fb      	ldr	r3, [r7, #28]
801003d6:	3b01      	subs	r3, #1
801003d8:	61fb      	str	r3, [r7, #28]
801003da:	69bb      	ldr	r3, [r7, #24]
801003dc:	2216      	movs	r2, #22
801003de:	fb02 f303 	mul.w	r3, r2, r3
801003e2:	69ba      	ldr	r2, [r7, #24]
801003e4:	fb02 f203 	mul.w	r2, r2, r3
801003e8:	687b      	ldr	r3, [r7, #4]
801003ea:	6879      	ldr	r1, [r7, #4]
801003ec:	fb01 f303 	mul.w	r3, r1, r3
801003f0:	429a      	cmp	r2, r3
801003f2:	da87      	bge.n	80100304 <draw_circle+0x18>
801003f4:	bf00      	nop
801003f6:	3720      	adds	r7, #32
801003f8:	46bd      	mov	sp, r7
801003fa:	bd80      	pop	{r7, pc}

801003fc <draw_line>:
801003fc:	b580      	push	{r7, lr}
801003fe:	b088      	sub	sp, #32
80100400:	af00      	add	r7, sp, #0
80100402:	60f8      	str	r0, [r7, #12]
80100404:	60b9      	str	r1, [r7, #8]
80100406:	607a      	str	r2, [r7, #4]
80100408:	603b      	str	r3, [r7, #0]
8010040a:	687a      	ldr	r2, [r7, #4]
8010040c:	68fb      	ldr	r3, [r7, #12]
8010040e:	1ad3      	subs	r3, r2, r3
80100410:	61bb      	str	r3, [r7, #24]
80100412:	683a      	ldr	r2, [r7, #0]
80100414:	68bb      	ldr	r3, [r7, #8]
80100416:	1ad3      	subs	r3, r2, r3
80100418:	617b      	str	r3, [r7, #20]
8010041a:	69bb      	ldr	r3, [r7, #24]
8010041c:	2b00      	cmp	r3, #0
8010041e:	f2c0 80a6 	blt.w	8010056e <draw_line+0x172>
80100422:	697b      	ldr	r3, [r7, #20]
80100424:	2b00      	cmp	r3, #0
80100426:	db4f      	blt.n	801004c8 <draw_line+0xcc>
80100428:	69ba      	ldr	r2, [r7, #24]
8010042a:	697b      	ldr	r3, [r7, #20]
8010042c:	429a      	cmp	r2, r3
8010042e:	db25      	blt.n	8010047c <draw_line+0x80>
80100430:	69bb      	ldr	r3, [r7, #24]
80100432:	0fda      	lsrs	r2, r3, #31
80100434:	4413      	add	r3, r2
80100436:	105b      	asrs	r3, r3, #1
80100438:	425b      	negs	r3, r3
8010043a:	461a      	mov	r2, r3
8010043c:	697b      	ldr	r3, [r7, #20]
8010043e:	4413      	add	r3, r2
80100440:	61fb      	str	r3, [r7, #28]
80100442:	e016      	b.n	80100472 <draw_line+0x76>
80100444:	6abb      	ldr	r3, [r7, #40]	; 0x28
80100446:	461a      	mov	r2, r3
80100448:	68b9      	ldr	r1, [r7, #8]
8010044a:	68f8      	ldr	r0, [r7, #12]
8010044c:	f000 f97c 	bl	80100748 <fb_put_pixel>
80100450:	69fb      	ldr	r3, [r7, #28]
80100452:	2b00      	cmp	r3, #0
80100454:	dd06      	ble.n	80100464 <draw_line+0x68>
80100456:	68bb      	ldr	r3, [r7, #8]
80100458:	3301      	adds	r3, #1
8010045a:	60bb      	str	r3, [r7, #8]
8010045c:	69fa      	ldr	r2, [r7, #28]
8010045e:	69bb      	ldr	r3, [r7, #24]
80100460:	1ad3      	subs	r3, r2, r3
80100462:	61fb      	str	r3, [r7, #28]
80100464:	68fb      	ldr	r3, [r7, #12]
80100466:	3301      	adds	r3, #1
80100468:	60fb      	str	r3, [r7, #12]
8010046a:	69fa      	ldr	r2, [r7, #28]
8010046c:	697b      	ldr	r3, [r7, #20]
8010046e:	4413      	add	r3, r2
80100470:	61fb      	str	r3, [r7, #28]
80100472:	68fa      	ldr	r2, [r7, #12]
80100474:	687b      	ldr	r3, [r7, #4]
80100476:	429a      	cmp	r2, r3
80100478:	dde4      	ble.n	80100444 <draw_line+0x48>
8010047a:	e120      	b.n	801006be <draw_line+0x2c2>
8010047c:	697b      	ldr	r3, [r7, #20]
8010047e:	0fda      	lsrs	r2, r3, #31
80100480:	4413      	add	r3, r2
80100482:	105b      	asrs	r3, r3, #1
80100484:	425b      	negs	r3, r3
80100486:	461a      	mov	r2, r3
80100488:	69bb      	ldr	r3, [r7, #24]
8010048a:	4413      	add	r3, r2
8010048c:	61fb      	str	r3, [r7, #28]
8010048e:	e016      	b.n	801004be <draw_line+0xc2>
80100490:	6abb      	ldr	r3, [r7, #40]	; 0x28
80100492:	461a      	mov	r2, r3
80100494:	68b9      	ldr	r1, [r7, #8]
80100496:	68f8      	ldr	r0, [r7, #12]
80100498:	f000 f956 	bl	80100748 <fb_put_pixel>
8010049c:	69fb      	ldr	r3, [r7, #28]
8010049e:	2b00      	cmp	r3, #0
801004a0:	dd06      	ble.n	801004b0 <draw_line+0xb4>
801004a2:	68fb      	ldr	r3, [r7, #12]
801004a4:	3301      	adds	r3, #1
801004a6:	60fb      	str	r3, [r7, #12]
801004a8:	69fa      	ldr	r2, [r7, #28]
801004aa:	697b      	ldr	r3, [r7, #20]
801004ac:	1ad3      	subs	r3, r2, r3
801004ae:	61fb      	str	r3, [r7, #28]
801004b0:	68bb      	ldr	r3, [r7, #8]
801004b2:	3301      	adds	r3, #1
801004b4:	60bb      	str	r3, [r7, #8]
801004b6:	69fa      	ldr	r2, [r7, #28]
801004b8:	69bb      	ldr	r3, [r7, #24]
801004ba:	4413      	add	r3, r2
801004bc:	61fb      	str	r3, [r7, #28]
801004be:	68ba      	ldr	r2, [r7, #8]
801004c0:	683b      	ldr	r3, [r7, #0]
801004c2:	429a      	cmp	r2, r3
801004c4:	dde4      	ble.n	80100490 <draw_line+0x94>
801004c6:	e0fa      	b.n	801006be <draw_line+0x2c2>
801004c8:	697b      	ldr	r3, [r7, #20]
801004ca:	425b      	negs	r3, r3
801004cc:	617b      	str	r3, [r7, #20]
801004ce:	69ba      	ldr	r2, [r7, #24]
801004d0:	697b      	ldr	r3, [r7, #20]
801004d2:	429a      	cmp	r2, r3
801004d4:	db25      	blt.n	80100522 <draw_line+0x126>
801004d6:	69bb      	ldr	r3, [r7, #24]
801004d8:	0fda      	lsrs	r2, r3, #31
801004da:	4413      	add	r3, r2
801004dc:	105b      	asrs	r3, r3, #1
801004de:	425b      	negs	r3, r3
801004e0:	461a      	mov	r2, r3
801004e2:	697b      	ldr	r3, [r7, #20]
801004e4:	4413      	add	r3, r2
801004e6:	61fb      	str	r3, [r7, #28]
801004e8:	e016      	b.n	80100518 <draw_line+0x11c>
801004ea:	6abb      	ldr	r3, [r7, #40]	; 0x28
801004ec:	461a      	mov	r2, r3
801004ee:	68b9      	ldr	r1, [r7, #8]
801004f0:	68f8      	ldr	r0, [r7, #12]
801004f2:	f000 f929 	bl	80100748 <fb_put_pixel>
801004f6:	69fb      	ldr	r3, [r7, #28]
801004f8:	2b00      	cmp	r3, #0
801004fa:	dd06      	ble.n	8010050a <draw_line+0x10e>
801004fc:	68bb      	ldr	r3, [r7, #8]
801004fe:	3b01      	subs	r3, #1
80100500:	60bb      	str	r3, [r7, #8]
80100502:	69fa      	ldr	r2, [r7, #28]
80100504:	69bb      	ldr	r3, [r7, #24]
80100506:	1ad3      	subs	r3, r2, r3
80100508:	61fb      	str	r3, [r7, #28]
8010050a:	68fb      	ldr	r3, [r7, #12]
8010050c:	3301      	adds	r3, #1
8010050e:	60fb      	str	r3, [r7, #12]
80100510:	69fa      	ldr	r2, [r7, #28]
80100512:	697b      	ldr	r3, [r7, #20]
80100514:	4413      	add	r3, r2
80100516:	61fb      	str	r3, [r7, #28]
80100518:	68fa      	ldr	r2, [r7, #12]
8010051a:	687b      	ldr	r3, [r7, #4]
8010051c:	429a      	cmp	r2, r3
8010051e:	dde4      	ble.n	801004ea <draw_line+0xee>
80100520:	e0cd      	b.n	801006be <draw_line+0x2c2>
80100522:	697b      	ldr	r3, [r7, #20]
80100524:	0fda      	lsrs	r2, r3, #31
80100526:	4413      	add	r3, r2
80100528:	105b      	asrs	r3, r3, #1
8010052a:	425b      	negs	r3, r3
8010052c:	461a      	mov	r2, r3
8010052e:	69bb      	ldr	r3, [r7, #24]
80100530:	4413      	add	r3, r2
80100532:	61fb      	str	r3, [r7, #28]
80100534:	e016      	b.n	80100564 <draw_line+0x168>
80100536:	6abb      	ldr	r3, [r7, #40]	; 0x28
80100538:	461a      	mov	r2, r3
8010053a:	68b9      	ldr	r1, [r7, #8]
8010053c:	68f8      	ldr	r0, [r7, #12]
8010053e:	f000 f903 	bl	80100748 <fb_put_pixel>
80100542:	69fb      	ldr	r3, [r7, #28]
80100544:	2b00      	cmp	r3, #0
80100546:	dd06      	ble.n	80100556 <draw_line+0x15a>
80100548:	68fb      	ldr	r3, [r7, #12]
8010054a:	3301      	adds	r3, #1
8010054c:	60fb      	str	r3, [r7, #12]
8010054e:	69fa      	ldr	r2, [r7, #28]
80100550:	697b      	ldr	r3, [r7, #20]
80100552:	1ad3      	subs	r3, r2, r3
80100554:	61fb      	str	r3, [r7, #28]
80100556:	68bb      	ldr	r3, [r7, #8]
80100558:	3b01      	subs	r3, #1
8010055a:	60bb      	str	r3, [r7, #8]
8010055c:	69fa      	ldr	r2, [r7, #28]
8010055e:	69bb      	ldr	r3, [r7, #24]
80100560:	4413      	add	r3, r2
80100562:	61fb      	str	r3, [r7, #28]
80100564:	68ba      	ldr	r2, [r7, #8]
80100566:	683b      	ldr	r3, [r7, #0]
80100568:	429a      	cmp	r2, r3
8010056a:	dae4      	bge.n	80100536 <draw_line+0x13a>
8010056c:	e0a7      	b.n	801006be <draw_line+0x2c2>
8010056e:	69bb      	ldr	r3, [r7, #24]
80100570:	425b      	negs	r3, r3
80100572:	61bb      	str	r3, [r7, #24]
80100574:	697b      	ldr	r3, [r7, #20]
80100576:	2b00      	cmp	r3, #0
80100578:	db4f      	blt.n	8010061a <draw_line+0x21e>
8010057a:	69ba      	ldr	r2, [r7, #24]
8010057c:	697b      	ldr	r3, [r7, #20]
8010057e:	429a      	cmp	r2, r3
80100580:	db25      	blt.n	801005ce <draw_line+0x1d2>
80100582:	69bb      	ldr	r3, [r7, #24]
80100584:	0fda      	lsrs	r2, r3, #31
80100586:	4413      	add	r3, r2
80100588:	105b      	asrs	r3, r3, #1
8010058a:	425b      	negs	r3, r3
8010058c:	461a      	mov	r2, r3
8010058e:	697b      	ldr	r3, [r7, #20]
80100590:	4413      	add	r3, r2
80100592:	61fb      	str	r3, [r7, #28]
80100594:	e016      	b.n	801005c4 <draw_line+0x1c8>
80100596:	6abb      	ldr	r3, [r7, #40]	; 0x28
80100598:	461a      	mov	r2, r3
8010059a:	68b9      	ldr	r1, [r7, #8]
8010059c:	68f8      	ldr	r0, [r7, #12]
8010059e:	f000 f8d3 	bl	80100748 <fb_put_pixel>
801005a2:	69fb      	ldr	r3, [r7, #28]
801005a4:	2b00      	cmp	r3, #0
801005a6:	dd06      	ble.n	801005b6 <draw_line+0x1ba>
801005a8:	68bb      	ldr	r3, [r7, #8]
801005aa:	3301      	adds	r3, #1
801005ac:	60bb      	str	r3, [r7, #8]
801005ae:	69fa      	ldr	r2, [r7, #28]
801005b0:	69bb      	ldr	r3, [r7, #24]
801005b2:	1ad3      	subs	r3, r2, r3
801005b4:	61fb      	str	r3, [r7, #28]
801005b6:	68fb      	ldr	r3, [r7, #12]
801005b8:	3b01      	subs	r3, #1
801005ba:	60fb      	str	r3, [r7, #12]
801005bc:	69fa      	ldr	r2, [r7, #28]
801005be:	697b      	ldr	r3, [r7, #20]
801005c0:	4413      	add	r3, r2
801005c2:	61fb      	str	r3, [r7, #28]
801005c4:	68fa      	ldr	r2, [r7, #12]
801005c6:	687b      	ldr	r3, [r7, #4]
801005c8:	429a      	cmp	r2, r3
801005ca:	dae4      	bge.n	80100596 <draw_line+0x19a>
801005cc:	e077      	b.n	801006be <draw_line+0x2c2>
801005ce:	697b      	ldr	r3, [r7, #20]
801005d0:	0fda      	lsrs	r2, r3, #31
801005d2:	4413      	add	r3, r2
801005d4:	105b      	asrs	r3, r3, #1
801005d6:	425b      	negs	r3, r3
801005d8:	461a      	mov	r2, r3
801005da:	69bb      	ldr	r3, [r7, #24]
801005dc:	4413      	add	r3, r2
801005de:	61fb      	str	r3, [r7, #28]
801005e0:	e016      	b.n	80100610 <draw_line+0x214>
801005e2:	6abb      	ldr	r3, [r7, #40]	; 0x28
801005e4:	461a      	mov	r2, r3
801005e6:	68b9      	ldr	r1, [r7, #8]
801005e8:	68f8      	ldr	r0, [r7, #12]
801005ea:	f000 f8ad 	bl	80100748 <fb_put_pixel>
801005ee:	69fb      	ldr	r3, [r7, #28]
801005f0:	2b00      	cmp	r3, #0
801005f2:	dd06      	ble.n	80100602 <draw_line+0x206>
801005f4:	68fb      	ldr	r3, [r7, #12]
801005f6:	3b01      	subs	r3, #1
801005f8:	60fb      	str	r3, [r7, #12]
801005fa:	69fa      	ldr	r2, [r7, #28]
801005fc:	697b      	ldr	r3, [r7, #20]
801005fe:	1ad3      	subs	r3, r2, r3
80100600:	61fb      	str	r3, [r7, #28]
80100602:	68bb      	ldr	r3, [r7, #8]
80100604:	3301      	adds	r3, #1
80100606:	60bb      	str	r3, [r7, #8]
80100608:	69fa      	ldr	r2, [r7, #28]
8010060a:	69bb      	ldr	r3, [r7, #24]
8010060c:	4413      	add	r3, r2
8010060e:	61fb      	str	r3, [r7, #28]
80100610:	68ba      	ldr	r2, [r7, #8]
80100612:	683b      	ldr	r3, [r7, #0]
80100614:	429a      	cmp	r2, r3
80100616:	dde4      	ble.n	801005e2 <draw_line+0x1e6>
80100618:	e051      	b.n	801006be <draw_line+0x2c2>
8010061a:	697b      	ldr	r3, [r7, #20]
8010061c:	425b      	negs	r3, r3
8010061e:	617b      	str	r3, [r7, #20]
80100620:	69ba      	ldr	r2, [r7, #24]
80100622:	697b      	ldr	r3, [r7, #20]
80100624:	429a      	cmp	r2, r3
80100626:	db25      	blt.n	80100674 <draw_line+0x278>
80100628:	69bb      	ldr	r3, [r7, #24]
8010062a:	0fda      	lsrs	r2, r3, #31
8010062c:	4413      	add	r3, r2
8010062e:	105b      	asrs	r3, r3, #1
80100630:	425b      	negs	r3, r3
80100632:	461a      	mov	r2, r3
80100634:	697b      	ldr	r3, [r7, #20]
80100636:	4413      	add	r3, r2
80100638:	61fb      	str	r3, [r7, #28]
8010063a:	e016      	b.n	8010066a <draw_line+0x26e>
8010063c:	6abb      	ldr	r3, [r7, #40]	; 0x28
8010063e:	461a      	mov	r2, r3
80100640:	68b9      	ldr	r1, [r7, #8]
80100642:	68f8      	ldr	r0, [r7, #12]
80100644:	f000 f880 	bl	80100748 <fb_put_pixel>
80100648:	69fb      	ldr	r3, [r7, #28]
8010064a:	2b00      	cmp	r3, #0
8010064c:	dd06      	ble.n	8010065c <draw_line+0x260>
8010064e:	68bb      	ldr	r3, [r7, #8]
80100650:	3b01      	subs	r3, #1
80100652:	60bb      	str	r3, [r7, #8]
80100654:	69fa      	ldr	r2, [r7, #28]
80100656:	69bb      	ldr	r3, [r7, #24]
80100658:	1ad3      	subs	r3, r2, r3
8010065a:	61fb      	str	r3, [r7, #28]
8010065c:	68fb      	ldr	r3, [r7, #12]
8010065e:	3b01      	subs	r3, #1
80100660:	60fb      	str	r3, [r7, #12]
80100662:	69fa      	ldr	r2, [r7, #28]
80100664:	697b      	ldr	r3, [r7, #20]
80100666:	4413      	add	r3, r2
80100668:	61fb      	str	r3, [r7, #28]
8010066a:	68fa      	ldr	r2, [r7, #12]
8010066c:	687b      	ldr	r3, [r7, #4]
8010066e:	429a      	cmp	r2, r3
80100670:	dae4      	bge.n	8010063c <draw_line+0x240>
80100672:	e024      	b.n	801006be <draw_line+0x2c2>
80100674:	697b      	ldr	r3, [r7, #20]
80100676:	0fda      	lsrs	r2, r3, #31
80100678:	4413      	add	r3, r2
8010067a:	105b      	asrs	r3, r3, #1
8010067c:	425b      	negs	r3, r3
8010067e:	461a      	mov	r2, r3
80100680:	69bb      	ldr	r3, [r7, #24]
80100682:	4413      	add	r3, r2
80100684:	61fb      	str	r3, [r7, #28]
80100686:	e016      	b.n	801006b6 <draw_line+0x2ba>
80100688:	6abb      	ldr	r3, [r7, #40]	; 0x28
8010068a:	461a      	mov	r2, r3
8010068c:	68b9      	ldr	r1, [r7, #8]
8010068e:	68f8      	ldr	r0, [r7, #12]
80100690:	f000 f85a 	bl	80100748 <fb_put_pixel>
80100694:	69fb      	ldr	r3, [r7, #28]
80100696:	2b00      	cmp	r3, #0
80100698:	dd06      	ble.n	801006a8 <draw_line+0x2ac>
8010069a:	68fb      	ldr	r3, [r7, #12]
8010069c:	3b01      	subs	r3, #1
8010069e:	60fb      	str	r3, [r7, #12]
801006a0:	69fa      	ldr	r2, [r7, #28]
801006a2:	697b      	ldr	r3, [r7, #20]
801006a4:	1ad3      	subs	r3, r2, r3
801006a6:	61fb      	str	r3, [r7, #28]
801006a8:	68bb      	ldr	r3, [r7, #8]
801006aa:	3b01      	subs	r3, #1
801006ac:	60bb      	str	r3, [r7, #8]
801006ae:	69fa      	ldr	r2, [r7, #28]
801006b0:	69bb      	ldr	r3, [r7, #24]
801006b2:	4413      	add	r3, r2
801006b4:	61fb      	str	r3, [r7, #28]
801006b6:	68ba      	ldr	r2, [r7, #8]
801006b8:	683b      	ldr	r3, [r7, #0]
801006ba:	429a      	cmp	r2, r3
801006bc:	dae4      	bge.n	80100688 <draw_line+0x28c>
801006be:	bf00      	nop
801006c0:	3720      	adds	r7, #32
801006c2:	46bd      	mov	sp, r7
801006c4:	bd80      	pop	{r7, pc}

801006c6 <fb_get_lcd_params>:
801006c6:	b580      	push	{r7, lr}
801006c8:	af00      	add	r7, sp, #0
801006ca:	f640 7348 	movw	r3, #3912	; 0xf48
801006ce:	f2c8 0310 	movt	r3, #32784	; 0x8010
801006d2:	f640 7244 	movw	r2, #3908	; 0xf44
801006d6:	f2c8 0210 	movt	r2, #32784	; 0x8010
801006da:	f640 7140 	movw	r1, #3904	; 0xf40
801006de:	f2c8 0110 	movt	r1, #32784	; 0x8010
801006e2:	f640 703c 	movw	r0, #3900	; 0xf3c
801006e6:	f2c8 0010 	movt	r0, #32784	; 0x8010
801006ea:	f000 f9b2 	bl	80100a52 <get_lcd_params>
801006ee:	bf00      	nop
801006f0:	bd80      	pop	{r7, pc}

801006f2 <convert32bppto16bpp>:
801006f2:	b480      	push	{r7}
801006f4:	b087      	sub	sp, #28
801006f6:	af00      	add	r7, sp, #0
801006f8:	6078      	str	r0, [r7, #4]
801006fa:	687b      	ldr	r3, [r7, #4]
801006fc:	0c1b      	lsrs	r3, r3, #16
801006fe:	b2db      	uxtb	r3, r3
80100700:	617b      	str	r3, [r7, #20]
80100702:	687b      	ldr	r3, [r7, #4]
80100704:	0a1b      	lsrs	r3, r3, #8
80100706:	b2db      	uxtb	r3, r3
80100708:	613b      	str	r3, [r7, #16]
8010070a:	687b      	ldr	r3, [r7, #4]
8010070c:	b2db      	uxtb	r3, r3
8010070e:	60fb      	str	r3, [r7, #12]
80100710:	697b      	ldr	r3, [r7, #20]
80100712:	10db      	asrs	r3, r3, #3
80100714:	617b      	str	r3, [r7, #20]
80100716:	693b      	ldr	r3, [r7, #16]
80100718:	10db      	asrs	r3, r3, #3
8010071a:	613b      	str	r3, [r7, #16]
8010071c:	68fb      	ldr	r3, [r7, #12]
8010071e:	10db      	asrs	r3, r3, #3
80100720:	60fb      	str	r3, [r7, #12]
80100722:	697b      	ldr	r3, [r7, #20]
80100724:	029b      	lsls	r3, r3, #10
80100726:	b21a      	sxth	r2, r3
80100728:	693b      	ldr	r3, [r7, #16]
8010072a:	015b      	lsls	r3, r3, #5
8010072c:	b21b      	sxth	r3, r3
8010072e:	4313      	orrs	r3, r2
80100730:	b21a      	sxth	r2, r3
80100732:	68fb      	ldr	r3, [r7, #12]
80100734:	b21b      	sxth	r3, r3
80100736:	4313      	orrs	r3, r2
80100738:	b21b      	sxth	r3, r3
8010073a:	b29b      	uxth	r3, r3
8010073c:	4618      	mov	r0, r3
8010073e:	371c      	adds	r7, #28
80100740:	46bd      	mov	sp, r7
80100742:	f85d 7b04 	ldr.w	r7, [sp], #4
80100746:	4770      	bx	lr

80100748 <fb_put_pixel>:
80100748:	b580      	push	{r7, lr}
8010074a:	b088      	sub	sp, #32
8010074c:	af00      	add	r7, sp, #0
8010074e:	60f8      	str	r0, [r7, #12]
80100750:	60b9      	str	r1, [r7, #8]
80100752:	607a      	str	r2, [r7, #4]
80100754:	f640 7340 	movw	r3, #3904	; 0xf40
80100758:	f2c8 0310 	movt	r3, #32784	; 0x8010
8010075c:	681a      	ldr	r2, [r3, #0]
8010075e:	f640 7348 	movw	r3, #3912	; 0xf48
80100762:	f2c8 0310 	movt	r3, #32784	; 0x8010
80100766:	681b      	ldr	r3, [r3, #0]
80100768:	fb03 f302 	mul.w	r3, r3, r2
8010076c:	1dda      	adds	r2, r3, #7
8010076e:	2b00      	cmp	r3, #0
80100770:	bfb4      	ite	lt
80100772:	4613      	movlt	r3, r2
80100774:	461b      	movge	r3, r3
80100776:	10db      	asrs	r3, r3, #3
80100778:	461a      	mov	r2, r3
8010077a:	68bb      	ldr	r3, [r7, #8]
8010077c:	fb03 f302 	mul.w	r3, r3, r2
80100780:	461a      	mov	r2, r3
80100782:	f640 733c 	movw	r3, #3900	; 0xf3c
80100786:	f2c8 0310 	movt	r3, #32784	; 0x8010
8010078a:	681b      	ldr	r3, [r3, #0]
8010078c:	441a      	add	r2, r3
8010078e:	f640 7348 	movw	r3, #3912	; 0xf48
80100792:	f2c8 0310 	movt	r3, #32784	; 0x8010
80100796:	681b      	ldr	r3, [r3, #0]
80100798:	68f9      	ldr	r1, [r7, #12]
8010079a:	fb01 f303 	mul.w	r3, r1, r3
8010079e:	1dd9      	adds	r1, r3, #7
801007a0:	2b00      	cmp	r3, #0
801007a2:	bfb4      	ite	lt
801007a4:	460b      	movlt	r3, r1
801007a6:	461b      	movge	r3, r3
801007a8:	10db      	asrs	r3, r3, #3
801007aa:	4413      	add	r3, r2
801007ac:	61fb      	str	r3, [r7, #28]
801007ae:	f640 7348 	movw	r3, #3912	; 0xf48
801007b2:	f2c8 0310 	movt	r3, #32784	; 0x8010
801007b6:	681b      	ldr	r3, [r3, #0]
801007b8:	2b10      	cmp	r3, #16
801007ba:	d002      	beq.n	801007c2 <fb_put_pixel+0x7a>
801007bc:	2b20      	cmp	r3, #32
801007be:	d00a      	beq.n	801007d6 <fb_put_pixel+0x8e>
801007c0:	e00f      	b.n	801007e2 <fb_put_pixel+0x9a>
801007c2:	69fb      	ldr	r3, [r7, #28]
801007c4:	61bb      	str	r3, [r7, #24]
801007c6:	6878      	ldr	r0, [r7, #4]
801007c8:	f7ff ff93 	bl	801006f2 <convert32bppto16bpp>
801007cc:	4603      	mov	r3, r0
801007ce:	461a      	mov	r2, r3
801007d0:	69bb      	ldr	r3, [r7, #24]
801007d2:	801a      	strh	r2, [r3, #0]
801007d4:	e005      	b.n	801007e2 <fb_put_pixel+0x9a>
801007d6:	69fb      	ldr	r3, [r7, #28]
801007d8:	617b      	str	r3, [r7, #20]
801007da:	697b      	ldr	r3, [r7, #20]
801007dc:	687a      	ldr	r2, [r7, #4]
801007de:	601a      	str	r2, [r3, #0]
801007e0:	bf00      	nop
801007e2:	bf00      	nop
801007e4:	3720      	adds	r7, #32
801007e6:	46bd      	mov	sp, r7
801007e8:	bd80      	pop	{r7, pc}

801007ea <strcmp>:
801007ea:	b490      	push	{r4, r7}
801007ec:	b082      	sub	sp, #8
801007ee:	af00      	add	r7, sp, #0
801007f0:	6078      	str	r0, [r7, #4]
801007f2:	6039      	str	r1, [r7, #0]
801007f4:	687b      	ldr	r3, [r7, #4]
801007f6:	781a      	ldrb	r2, [r3, #0]
801007f8:	683b      	ldr	r3, [r7, #0]
801007fa:	1c59      	adds	r1, r3, #1
801007fc:	6039      	str	r1, [r7, #0]
801007fe:	781b      	ldrb	r3, [r3, #0]
80100800:	1ad3      	subs	r3, r2, r3
80100802:	b2db      	uxtb	r3, r3
80100804:	b25c      	sxtb	r4, r3
80100806:	2c00      	cmp	r4, #0
80100808:	d106      	bne.n	80100818 <strcmp+0x2e>
8010080a:	687b      	ldr	r3, [r7, #4]
8010080c:	1c5a      	adds	r2, r3, #1
8010080e:	607a      	str	r2, [r7, #4]
80100810:	781b      	ldrb	r3, [r3, #0]
80100812:	2b00      	cmp	r3, #0
80100814:	d000      	beq.n	80100818 <strcmp+0x2e>
80100816:	e7ed      	b.n	801007f4 <strcmp+0xa>
80100818:	4623      	mov	r3, r4
8010081a:	4618      	mov	r0, r3
8010081c:	3708      	adds	r7, #8
8010081e:	46bd      	mov	sp, r7
80100820:	bc90      	pop	{r4, r7}
80100822:	4770      	bx	lr

80100824 <register_lcd_controller>:
80100824:	b480      	push	{r7}
80100826:	b085      	sub	sp, #20
80100828:	af00      	add	r7, sp, #0
8010082a:	6078      	str	r0, [r7, #4]
8010082c:	2300      	movs	r3, #0
8010082e:	60fb      	str	r3, [r7, #12]
80100830:	e015      	b.n	8010085e <register_lcd_controller+0x3a>
80100832:	f640 734c 	movw	r3, #3916	; 0xf4c
80100836:	f2c8 0310 	movt	r3, #32784	; 0x8010
8010083a:	68fa      	ldr	r2, [r7, #12]
8010083c:	f853 3022 	ldr.w	r3, [r3, r2, lsl #2]
80100840:	2b00      	cmp	r3, #0
80100842:	d109      	bne.n	80100858 <register_lcd_controller+0x34>
80100844:	f640 734c 	movw	r3, #3916	; 0xf4c
80100848:	f2c8 0310 	movt	r3, #32784	; 0x8010
8010084c:	68fa      	ldr	r2, [r7, #12]
8010084e:	6879      	ldr	r1, [r7, #4]
80100850:	f843 1022 	str.w	r1, [r3, r2, lsl #2]
80100854:	68fb      	ldr	r3, [r7, #12]
80100856:	e007      	b.n	80100868 <register_lcd_controller+0x44>
80100858:	68fb      	ldr	r3, [r7, #12]
8010085a:	3301      	adds	r3, #1
8010085c:	60fb      	str	r3, [r7, #12]
8010085e:	68fb      	ldr	r3, [r7, #12]
80100860:	2b09      	cmp	r3, #9
80100862:	dde6      	ble.n	80100832 <register_lcd_controller+0xe>
80100864:	f04f 33ff 	mov.w	r3, #4294967295	; 0xffffffff
80100868:	4618      	mov	r0, r3
8010086a:	3714      	adds	r7, #20
8010086c:	46bd      	mov	sp, r7
8010086e:	f85d 7b04 	ldr.w	r7, [sp], #4
80100872:	4770      	bx	lr

80100874 <select_lcd_controller>:
80100874:	b580      	push	{r7, lr}
80100876:	b084      	sub	sp, #16
80100878:	af00      	add	r7, sp, #0
8010087a:	6078      	str	r0, [r7, #4]
8010087c:	2300      	movs	r3, #0
8010087e:	60fb      	str	r3, [r7, #12]
80100880:	e028      	b.n	801008d4 <select_lcd_controller+0x60>
80100882:	f640 734c 	movw	r3, #3916	; 0xf4c
80100886:	f2c8 0310 	movt	r3, #32784	; 0x8010
8010088a:	68fa      	ldr	r2, [r7, #12]
8010088c:	f853 3022 	ldr.w	r3, [r3, r2, lsl #2]
80100890:	2b00      	cmp	r3, #0
80100892:	d01c      	beq.n	801008ce <select_lcd_controller+0x5a>
80100894:	f640 734c 	movw	r3, #3916	; 0xf4c
80100898:	f2c8 0310 	movt	r3, #32784	; 0x8010
8010089c:	68fa      	ldr	r2, [r7, #12]
8010089e:	f853 3022 	ldr.w	r3, [r3, r2, lsl #2]
801008a2:	681b      	ldr	r3, [r3, #0]
801008a4:	6879      	ldr	r1, [r7, #4]
801008a6:	4618      	mov	r0, r3
801008a8:	f7ff ff9f 	bl	801007ea <strcmp>
801008ac:	4603      	mov	r3, r0
801008ae:	2b00      	cmp	r3, #0
801008b0:	d10d      	bne.n	801008ce <select_lcd_controller+0x5a>
801008b2:	f640 734c 	movw	r3, #3916	; 0xf4c
801008b6:	f2c8 0310 	movt	r3, #32784	; 0x8010
801008ba:	68fa      	ldr	r2, [r7, #12]
801008bc:	f853 2022 	ldr.w	r2, [r3, r2, lsl #2]
801008c0:	f640 7374 	movw	r3, #3956	; 0xf74
801008c4:	f2c8 0310 	movt	r3, #32784	; 0x8010
801008c8:	601a      	str	r2, [r3, #0]
801008ca:	68fb      	ldr	r3, [r7, #12]
801008cc:	e007      	b.n	801008de <select_lcd_controller+0x6a>
801008ce:	68fb      	ldr	r3, [r7, #12]
801008d0:	3301      	adds	r3, #1
801008d2:	60fb      	str	r3, [r7, #12]
801008d4:	68fb      	ldr	r3, [r7, #12]
801008d6:	2b09      	cmp	r3, #9
801008d8:	ddd3      	ble.n	80100882 <select_lcd_controller+0xe>
801008da:	f04f 33ff 	mov.w	r3, #4294967295	; 0xffffffff
801008de:	4618      	mov	r0, r3
801008e0:	3710      	adds	r7, #16
801008e2:	46bd      	mov	sp, r7
801008e4:	bd80      	pop	{r7, pc}

801008e6 <lcd_controller_init>:
801008e6:	b580      	push	{r7, lr}
801008e8:	b082      	sub	sp, #8
801008ea:	af00      	add	r7, sp, #0
801008ec:	6078      	str	r0, [r7, #4]
801008ee:	f640 7374 	movw	r3, #3956	; 0xf74
801008f2:	f2c8 0310 	movt	r3, #32784	; 0x8010
801008f6:	681b      	ldr	r3, [r3, #0]
801008f8:	2b00      	cmp	r3, #0
801008fa:	d009      	beq.n	80100910 <lcd_controller_init+0x2a>
801008fc:	f640 7374 	movw	r3, #3956	; 0xf74
80100900:	f2c8 0310 	movt	r3, #32784	; 0x8010
80100904:	681b      	ldr	r3, [r3, #0]
80100906:	685b      	ldr	r3, [r3, #4]
80100908:	6878      	ldr	r0, [r7, #4]
8010090a:	4798      	blx	r3
8010090c:	2300      	movs	r3, #0
8010090e:	e001      	b.n	80100914 <lcd_controller_init+0x2e>
80100910:	f04f 33ff 	mov.w	r3, #4294967295	; 0xffffffff
80100914:	4618      	mov	r0, r3
80100916:	3708      	adds	r7, #8
80100918:	46bd      	mov	sp, r7
8010091a:	bd80      	pop	{r7, pc}

8010091c <lcd_controller_enable>:
8010091c:	b580      	push	{r7, lr}
8010091e:	af00      	add	r7, sp, #0
80100920:	f640 7374 	movw	r3, #3956	; 0xf74
80100924:	f2c8 0310 	movt	r3, #32784	; 0x8010
80100928:	681b      	ldr	r3, [r3, #0]
8010092a:	2b00      	cmp	r3, #0
8010092c:	d006      	beq.n	8010093c <lcd_controller_enable+0x20>
8010092e:	f640 7374 	movw	r3, #3956	; 0xf74
80100932:	f2c8 0310 	movt	r3, #32784	; 0x8010
80100936:	681b      	ldr	r3, [r3, #0]
80100938:	689b      	ldr	r3, [r3, #8]
8010093a:	4798      	blx	r3
8010093c:	bf00      	nop
8010093e:	bd80      	pop	{r7, pc}

80100940 <lcd_controller_disable>:
80100940:	b580      	push	{r7, lr}
80100942:	af00      	add	r7, sp, #0
80100944:	f640 7374 	movw	r3, #3956	; 0xf74
80100948:	f2c8 0310 	movt	r3, #32784	; 0x8010
8010094c:	681b      	ldr	r3, [r3, #0]
8010094e:	2b00      	cmp	r3, #0
80100950:	d006      	beq.n	80100960 <lcd_controller_disable+0x20>
80100952:	f640 7374 	movw	r3, #3956	; 0xf74
80100956:	f2c8 0310 	movt	r3, #32784	; 0x8010
8010095a:	681b      	ldr	r3, [r3, #0]
8010095c:	68db      	ldr	r3, [r3, #12]
8010095e:	4798      	blx	r3
80100960:	bf00      	nop
80100962:	bd80      	pop	{r7, pc}

80100964 <lcd_contoller_add>:
80100964:	b580      	push	{r7, lr}
80100966:	af00      	add	r7, sp, #0
80100968:	f000 fa9f 	bl	80100eaa <Imx6ull_lcd_controller_add>
8010096c:	bf00      	nop
8010096e:	bd80      	pop	{r7, pc}

80100970 <delay>:
80100970:	b480      	push	{r7}
80100972:	b083      	sub	sp, #12
80100974:	af00      	add	r7, sp, #0
80100976:	6078      	str	r0, [r7, #4]
80100978:	bf00      	nop
8010097a:	687b      	ldr	r3, [r7, #4]
8010097c:	1e5a      	subs	r2, r3, #1
8010097e:	607a      	str	r2, [r7, #4]
80100980:	2b00      	cmp	r3, #0
80100982:	d1fa      	bne.n	8010097a <delay+0xa>
80100984:	bf00      	nop
80100986:	370c      	adds	r7, #12
80100988:	46bd      	mov	sp, r7
8010098a:	f85d 7b04 	ldr.w	r7, [sp], #4
8010098e:	4770      	bx	lr

80100990 <register_lcd>:
80100990:	b480      	push	{r7}
80100992:	b085      	sub	sp, #20
80100994:	af00      	add	r7, sp, #0
80100996:	6078      	str	r0, [r7, #4]
80100998:	2300      	movs	r3, #0
8010099a:	60fb      	str	r3, [r7, #12]
8010099c:	e015      	b.n	801009ca <register_lcd+0x3a>
8010099e:	f640 7378 	movw	r3, #3960	; 0xf78
801009a2:	f2c8 0310 	movt	r3, #32784	; 0x8010
801009a6:	68fa      	ldr	r2, [r7, #12]
801009a8:	f853 3022 	ldr.w	r3, [r3, r2, lsl #2]
801009ac:	2b00      	cmp	r3, #0
801009ae:	d109      	bne.n	801009c4 <register_lcd+0x34>
801009b0:	f640 7378 	movw	r3, #3960	; 0xf78
801009b4:	f2c8 0310 	movt	r3, #32784	; 0x8010
801009b8:	68fa      	ldr	r2, [r7, #12]
801009ba:	6879      	ldr	r1, [r7, #4]
801009bc:	f843 1022 	str.w	r1, [r3, r2, lsl #2]
801009c0:	68fb      	ldr	r3, [r7, #12]
801009c2:	e007      	b.n	801009d4 <register_lcd+0x44>
801009c4:	68fb      	ldr	r3, [r7, #12]
801009c6:	3301      	adds	r3, #1
801009c8:	60fb      	str	r3, [r7, #12]
801009ca:	68fb      	ldr	r3, [r7, #12]
801009cc:	2b04      	cmp	r3, #4
801009ce:	dde6      	ble.n	8010099e <register_lcd+0xe>
801009d0:	f04f 33ff 	mov.w	r3, #4294967295	; 0xffffffff
801009d4:	4618      	mov	r0, r3
801009d6:	3714      	adds	r7, #20
801009d8:	46bd      	mov	sp, r7
801009da:	f85d 7b04 	ldr.w	r7, [sp], #4
801009de:	4770      	bx	lr

801009e0 <select_lcd>:
801009e0:	b580      	push	{r7, lr}
801009e2:	b084      	sub	sp, #16
801009e4:	af00      	add	r7, sp, #0
801009e6:	6078      	str	r0, [r7, #4]
801009e8:	2300      	movs	r3, #0
801009ea:	60fb      	str	r3, [r7, #12]
801009ec:	e028      	b.n	80100a40 <select_lcd+0x60>
801009ee:	f640 7378 	movw	r3, #3960	; 0xf78
801009f2:	f2c8 0310 	movt	r3, #32784	; 0x8010
801009f6:	68fa      	ldr	r2, [r7, #12]
801009f8:	f853 3022 	ldr.w	r3, [r3, r2, lsl #2]
801009fc:	2b00      	cmp	r3, #0
801009fe:	d01c      	beq.n	80100a3a <select_lcd+0x5a>
80100a00:	f640 7378 	movw	r3, #3960	; 0xf78
80100a04:	f2c8 0310 	movt	r3, #32784	; 0x8010
80100a08:	68fa      	ldr	r2, [r7, #12]
80100a0a:	f853 3022 	ldr.w	r3, [r3, r2, lsl #2]
80100a0e:	681b      	ldr	r3, [r3, #0]
80100a10:	6879      	ldr	r1, [r7, #4]
80100a12:	4618      	mov	r0, r3
80100a14:	f7ff fee9 	bl	801007ea <strcmp>
80100a18:	4603      	mov	r3, r0
80100a1a:	2b00      	cmp	r3, #0
80100a1c:	d10d      	bne.n	80100a3a <select_lcd+0x5a>
80100a1e:	f640 7378 	movw	r3, #3960	; 0xf78
80100a22:	f2c8 0310 	movt	r3, #32784	; 0x8010
80100a26:	68fa      	ldr	r2, [r7, #12]
80100a28:	f853 2022 	ldr.w	r2, [r3, r2, lsl #2]
80100a2c:	f640 738c 	movw	r3, #3980	; 0xf8c
80100a30:	f2c8 0310 	movt	r3, #32784	; 0x8010
80100a34:	601a      	str	r2, [r3, #0]
80100a36:	68fb      	ldr	r3, [r7, #12]
80100a38:	e007      	b.n	80100a4a <select_lcd+0x6a>
80100a3a:	68fb      	ldr	r3, [r7, #12]
80100a3c:	3301      	adds	r3, #1
80100a3e:	60fb      	str	r3, [r7, #12]
80100a40:	68fb      	ldr	r3, [r7, #12]
80100a42:	2b04      	cmp	r3, #4
80100a44:	ddd3      	ble.n	801009ee <select_lcd+0xe>
80100a46:	f04f 33ff 	mov.w	r3, #4294967295	; 0xffffffff
80100a4a:	4618      	mov	r0, r3
80100a4c:	3710      	adds	r7, #16
80100a4e:	46bd      	mov	sp, r7
80100a50:	bd80      	pop	{r7, pc}

80100a52 <get_lcd_params>:
80100a52:	b480      	push	{r7}
80100a54:	b085      	sub	sp, #20
80100a56:	af00      	add	r7, sp, #0
80100a58:	60f8      	str	r0, [r7, #12]
80100a5a:	60b9      	str	r1, [r7, #8]
80100a5c:	607a      	str	r2, [r7, #4]
80100a5e:	603b      	str	r3, [r7, #0]
80100a60:	f640 738c 	movw	r3, #3980	; 0xf8c
80100a64:	f2c8 0310 	movt	r3, #32784	; 0x8010
80100a68:	681b      	ldr	r3, [r3, #0]
80100a6a:	6bda      	ldr	r2, [r3, #60]	; 0x3c
80100a6c:	68fb      	ldr	r3, [r7, #12]
80100a6e:	601a      	str	r2, [r3, #0]
80100a70:	f640 738c 	movw	r3, #3980	; 0xf8c
80100a74:	f2c8 0310 	movt	r3, #32784	; 0x8010
80100a78:	681b      	ldr	r3, [r3, #0]
80100a7a:	6b1a      	ldr	r2, [r3, #48]	; 0x30
80100a7c:	68bb      	ldr	r3, [r7, #8]
80100a7e:	601a      	str	r2, [r3, #0]
80100a80:	f640 738c 	movw	r3, #3980	; 0xf8c
80100a84:	f2c8 0310 	movt	r3, #32784	; 0x8010
80100a88:	681b      	ldr	r3, [r3, #0]
80100a8a:	6b5a      	ldr	r2, [r3, #52]	; 0x34
80100a8c:	687b      	ldr	r3, [r7, #4]
80100a8e:	601a      	str	r2, [r3, #0]
80100a90:	f640 738c 	movw	r3, #3980	; 0xf8c
80100a94:	f2c8 0310 	movt	r3, #32784	; 0x8010
80100a98:	681b      	ldr	r3, [r3, #0]
80100a9a:	6b9a      	ldr	r2, [r3, #56]	; 0x38
80100a9c:	683b      	ldr	r3, [r7, #0]
80100a9e:	601a      	str	r2, [r3, #0]
80100aa0:	bf00      	nop
80100aa2:	3714      	adds	r7, #20
80100aa4:	46bd      	mov	sp, r7
80100aa6:	f85d 7b04 	ldr.w	r7, [sp], #4
80100aaa:	4770      	bx	lr

80100aac <lcd_enable>:
80100aac:	b580      	push	{r7, lr}
80100aae:	af00      	add	r7, sp, #0
80100ab0:	f7ff ff34 	bl	8010091c <lcd_controller_enable>
80100ab4:	bf00      	nop
80100ab6:	bd80      	pop	{r7, pc}

80100ab8 <lcd_disable>:
80100ab8:	b580      	push	{r7, lr}
80100aba:	af00      	add	r7, sp, #0
80100abc:	f7ff ff40 	bl	80100940 <lcd_controller_disable>
80100ac0:	bf00      	nop
80100ac2:	bd80      	pop	{r7, pc}

80100ac4 <lcd_init>:
80100ac4:	b580      	push	{r7, lr}
80100ac6:	af00      	add	r7, sp, #0
80100ac8:	f000 f818 	bl	80100afc <lcd_7_0_add>
80100acc:	f7ff ff4a 	bl	80100964 <lcd_contoller_add>
80100ad0:	f640 60c0 	movw	r0, #3776	; 0xec0
80100ad4:	f2c8 0010 	movt	r0, #32784	; 0x8010
80100ad8:	f7ff fecc 	bl	80100874 <select_lcd_controller>
80100adc:	f640 60c8 	movw	r0, #3784	; 0xec8
80100ae0:	f2c8 0010 	movt	r0, #32784	; 0x8010
80100ae4:	f7ff ff7c 	bl	801009e0 <select_lcd>
80100ae8:	f640 738c 	movw	r3, #3980	; 0xf8c
80100aec:	f2c8 0310 	movt	r3, #32784	; 0x8010
80100af0:	681b      	ldr	r3, [r3, #0]
80100af2:	4618      	mov	r0, r3
80100af4:	f7ff fef7 	bl	801008e6 <lcd_controller_init>
80100af8:	bf00      	nop
80100afa:	bd80      	pop	{r7, pc}

80100afc <lcd_7_0_add>:
80100afc:	b580      	push	{r7, lr}
80100afe:	af00      	add	r7, sp, #0
80100b00:	f640 60e0 	movw	r0, #3808	; 0xee0
80100b04:	f2c8 0010 	movt	r0, #32784	; 0x8010
80100b08:	f7ff ff42 	bl	80100990 <register_lcd>
80100b0c:	bf00      	nop
80100b0e:	bd80      	pop	{r7, pc}

80100b10 <Imx6ull_lcd_io_init>:
80100b10:	b480      	push	{r7}
80100b12:	b083      	sub	sp, #12
80100b14:	af00      	add	r7, sp, #0
80100b16:	2300      	movs	r3, #0
80100b18:	603b      	str	r3, [r7, #0]
80100b1a:	f44f 7382 	mov.w	r3, #260	; 0x104
80100b1e:	f2c0 230e 	movt	r3, #526	; 0x20e
80100b22:	607b      	str	r3, [r7, #4]
80100b24:	2300      	movs	r3, #0
80100b26:	603b      	str	r3, [r7, #0]
80100b28:	e008      	b.n	80100b3c <Imx6ull_lcd_io_init+0x2c>
80100b2a:	687b      	ldr	r3, [r7, #4]
80100b2c:	2200      	movs	r2, #0
80100b2e:	601a      	str	r2, [r3, #0]
80100b30:	687b      	ldr	r3, [r7, #4]
80100b32:	3304      	adds	r3, #4
80100b34:	607b      	str	r3, [r7, #4]
80100b36:	683b      	ldr	r3, [r7, #0]
80100b38:	3301      	adds	r3, #1
80100b3a:	603b      	str	r3, [r7, #0]
80100b3c:	683b      	ldr	r3, [r7, #0]
80100b3e:	2b1c      	cmp	r3, #28
80100b40:	d9f3      	bls.n	80100b2a <Imx6ull_lcd_io_init+0x1a>
80100b42:	f44f 7364 	mov.w	r3, #912	; 0x390
80100b46:	f2c0 230e 	movt	r3, #526	; 0x20e
80100b4a:	607b      	str	r3, [r7, #4]
80100b4c:	2300      	movs	r3, #0
80100b4e:	603b      	str	r3, [r7, #0]
80100b50:	e00e      	b.n	80100b70 <Imx6ull_lcd_io_init+0x60>
80100b52:	687b      	ldr	r3, [r7, #4]
80100b54:	2200      	movs	r2, #0
80100b56:	601a      	str	r2, [r3, #0]
80100b58:	687b      	ldr	r3, [r7, #4]
80100b5a:	681b      	ldr	r3, [r3, #0]
80100b5c:	f043 02b9 	orr.w	r2, r3, #185	; 0xb9
80100b60:	687b      	ldr	r3, [r7, #4]
80100b62:	601a      	str	r2, [r3, #0]
80100b64:	687b      	ldr	r3, [r7, #4]
80100b66:	3304      	adds	r3, #4
80100b68:	607b      	str	r3, [r7, #4]
80100b6a:	683b      	ldr	r3, [r7, #0]
80100b6c:	3301      	adds	r3, #1
80100b6e:	603b      	str	r3, [r7, #0]
80100b70:	683b      	ldr	r3, [r7, #0]
80100b72:	2b1c      	cmp	r3, #28
80100b74:	d9ed      	bls.n	80100b52 <Imx6ull_lcd_io_init+0x42>
80100b76:	f640 7320 	movw	r3, #3872	; 0xf20
80100b7a:	f2c8 0310 	movt	r3, #32784	; 0x8010
80100b7e:	681b      	ldr	r3, [r3, #0]
80100b80:	22b9      	movs	r2, #185	; 0xb9
80100b82:	601a      	str	r2, [r3, #0]
80100b84:	f640 7324 	movw	r3, #3876	; 0xf24
80100b88:	f2c8 0310 	movt	r3, #32784	; 0x8010
80100b8c:	681a      	ldr	r2, [r3, #0]
80100b8e:	f640 7324 	movw	r3, #3876	; 0xf24
80100b92:	f2c8 0310 	movt	r3, #32784	; 0x8010
80100b96:	681b      	ldr	r3, [r3, #0]
80100b98:	681b      	ldr	r3, [r3, #0]
80100b9a:	f443 7380 	orr.w	r3, r3, #256	; 0x100
80100b9e:	6013      	str	r3, [r2, #0]
80100ba0:	f640 7328 	movw	r3, #3880	; 0xf28
80100ba4:	f2c8 0310 	movt	r3, #32784	; 0x8010
80100ba8:	681a      	ldr	r2, [r3, #0]
80100baa:	f640 7328 	movw	r3, #3880	; 0xf28
80100bae:	f2c8 0310 	movt	r3, #32784	; 0x8010
80100bb2:	681b      	ldr	r3, [r3, #0]
80100bb4:	681b      	ldr	r3, [r3, #0]
80100bb6:	f443 7380 	orr.w	r3, r3, #256	; 0x100
80100bba:	6013      	str	r3, [r2, #0]
80100bbc:	bf00      	nop
80100bbe:	370c      	adds	r7, #12
80100bc0:	46bd      	mov	sp, r7
80100bc2:	f85d 7b04 	ldr.w	r7, [sp], #4
80100bc6:	4770      	bx	lr

80100bc8 <Imx6ull_lcd_controller_init>:
80100bc8:	b580      	push	{r7, lr}
80100bca:	b084      	sub	sp, #16
80100bcc:	af00      	add	r7, sp, #0
80100bce:	6078      	str	r0, [r7, #4]
80100bd0:	f7ff ff9e 	bl	80100b10 <Imx6ull_lcd_io_init>
80100bd4:	f44f 4300 	mov.w	r3, #32768	; 0x8000
80100bd8:	f2c0 230c 	movt	r3, #524	; 0x20c
80100bdc:	2200      	movs	r2, #0
80100bde:	f8c3 20b0 	str.w	r2, [r3, #176]	; 0xb0
80100be2:	f44f 4300 	mov.w	r3, #32768	; 0x8000
80100be6:	f2c0 230c 	movt	r3, #524	; 0x20c
80100bea:	2200      	movs	r2, #0
80100bec:	f8c3 20c0 	str.w	r2, [r3, #192]	; 0xc0
80100bf0:	f44f 4300 	mov.w	r3, #32768	; 0x8000
80100bf4:	f2c0 230c 	movt	r3, #524	; 0x20c
80100bf8:	f242 0220 	movw	r2, #8224	; 0x2020
80100bfc:	f2c0 0210 	movt	r2, #16
80100c00:	f8c3 20a0 	str.w	r2, [r3, #160]	; 0xa0
80100c04:	f44f 4380 	mov.w	r3, #16384	; 0x4000
80100c08:	f2c0 230c 	movt	r3, #524	; 0x20c
80100c0c:	f44f 4280 	mov.w	r2, #16384	; 0x4000
80100c10:	f2c0 220c 	movt	r2, #524	; 0x20c
80100c14:	6b92      	ldr	r2, [r2, #56]	; 0x38
80100c16:	f422 3260 	bic.w	r2, r2, #229376	; 0x38000
80100c1a:	639a      	str	r2, [r3, #56]	; 0x38
80100c1c:	f44f 4380 	mov.w	r3, #16384	; 0x4000
80100c20:	f2c0 230c 	movt	r3, #524	; 0x20c
80100c24:	f44f 4280 	mov.w	r2, #16384	; 0x4000
80100c28:	f2c0 220c 	movt	r2, #524	; 0x20c
80100c2c:	6b92      	ldr	r2, [r2, #56]	; 0x38
80100c2e:	f442 3280 	orr.w	r2, r2, #65536	; 0x10000
80100c32:	639a      	str	r2, [r3, #56]	; 0x38
80100c34:	f44f 4380 	mov.w	r3, #16384	; 0x4000
80100c38:	f2c0 230c 	movt	r3, #524	; 0x20c
80100c3c:	f44f 4280 	mov.w	r2, #16384	; 0x4000
80100c40:	f2c0 220c 	movt	r2, #524	; 0x20c
80100c44:	6b92      	ldr	r2, [r2, #56]	; 0x38
80100c46:	f422 42e0 	bic.w	r2, r2, #28672	; 0x7000
80100c4a:	639a      	str	r2, [r3, #56]	; 0x38
80100c4c:	f44f 4380 	mov.w	r3, #16384	; 0x4000
80100c50:	f2c0 230c 	movt	r3, #524	; 0x20c
80100c54:	f44f 4280 	mov.w	r2, #16384	; 0x4000
80100c58:	f2c0 220c 	movt	r2, #524	; 0x20c
80100c5c:	6b92      	ldr	r2, [r2, #56]	; 0x38
80100c5e:	f442 5200 	orr.w	r2, r2, #8192	; 0x2000
80100c62:	639a      	str	r2, [r3, #56]	; 0x38
80100c64:	f44f 4380 	mov.w	r3, #16384	; 0x4000
80100c68:	f2c0 230c 	movt	r3, #524	; 0x20c
80100c6c:	f44f 4280 	mov.w	r2, #16384	; 0x4000
80100c70:	f2c0 220c 	movt	r2, #524	; 0x20c
80100c74:	6b92      	ldr	r2, [r2, #56]	; 0x38
80100c76:	f422 6260 	bic.w	r2, r2, #3584	; 0xe00
80100c7a:	639a      	str	r2, [r3, #56]	; 0x38
80100c7c:	f44f 4380 	mov.w	r3, #16384	; 0x4000
80100c80:	f2c0 230c 	movt	r3, #524	; 0x20c
80100c84:	f44f 4280 	mov.w	r2, #16384	; 0x4000
80100c88:	f2c0 220c 	movt	r2, #524	; 0x20c
80100c8c:	6992      	ldr	r2, [r2, #24]
80100c8e:	f022 7260 	bic.w	r2, r2, #58720256	; 0x3800000
80100c92:	619a      	str	r2, [r3, #24]
80100c94:	f44f 4380 	mov.w	r3, #16384	; 0x4000
80100c98:	f2c0 230c 	movt	r3, #524	; 0x20c
80100c9c:	f44f 4280 	mov.w	r2, #16384	; 0x4000
80100ca0:	f2c0 220c 	movt	r2, #524	; 0x20c
80100ca4:	6992      	ldr	r2, [r2, #24]
80100ca6:	f042 7200 	orr.w	r2, r2, #33554432	; 0x2000000
80100caa:	619a      	str	r2, [r3, #24]
80100cac:	f44f 4300 	mov.w	r3, #32768	; 0x8000
80100cb0:	f2c0 231c 	movt	r3, #540	; 0x21c
80100cb4:	f04f 4200 	mov.w	r2, #2147483648	; 0x80000000
80100cb8:	601a      	str	r2, [r3, #0]
80100cba:	2064      	movs	r0, #100	; 0x64
80100cbc:	f7ff fe58 	bl	80100970 <delay>
80100cc0:	f44f 4300 	mov.w	r3, #32768	; 0x8000
80100cc4:	f2c0 231c 	movt	r3, #540	; 0x21c
80100cc8:	2200      	movs	r2, #0
80100cca:	601a      	str	r2, [r3, #0]
80100ccc:	687b      	ldr	r3, [r7, #4]
80100cce:	6b9b      	ldr	r3, [r3, #56]	; 0x38
80100cd0:	2b08      	cmp	r3, #8
80100cd2:	d007      	beq.n	80100ce4 <Imx6ull_lcd_controller_init+0x11c>
80100cd4:	687b      	ldr	r3, [r7, #4]
80100cd6:	6b9b      	ldr	r3, [r3, #56]	; 0x38
80100cd8:	2b10      	cmp	r3, #16
80100cda:	d101      	bne.n	80100ce0 <Imx6ull_lcd_controller_init+0x118>
80100cdc:	2300      	movs	r3, #0
80100cde:	e002      	b.n	80100ce6 <Imx6ull_lcd_controller_init+0x11e>
80100ce0:	2303      	movs	r3, #3
80100ce2:	e000      	b.n	80100ce6 <Imx6ull_lcd_controller_init+0x11e>
80100ce4:	2301      	movs	r3, #1
80100ce6:	60fb      	str	r3, [r7, #12]
80100ce8:	f44f 4200 	mov.w	r2, #32768	; 0x8000
80100cec:	f2c0 221c 	movt	r2, #540	; 0x21c
80100cf0:	f44f 4300 	mov.w	r3, #32768	; 0x8000
80100cf4:	f2c0 231c 	movt	r3, #540	; 0x21c
80100cf8:	681b      	ldr	r3, [r3, #0]
80100cfa:	68f9      	ldr	r1, [r7, #12]
80100cfc:	0209      	lsls	r1, r1, #8
80100cfe:	430b      	orrs	r3, r1
80100d00:	f443 2320 	orr.w	r3, r3, #655360	; 0xa0000
80100d04:	f443 6342 	orr.w	r3, r3, #3104	; 0xc20
80100d08:	6013      	str	r3, [r2, #0]
80100d0a:	687b      	ldr	r3, [r7, #4]
80100d0c:	6b9b      	ldr	r3, [r3, #56]	; 0x38
80100d0e:	2b10      	cmp	r3, #16
80100d10:	d10b      	bne.n	80100d2a <Imx6ull_lcd_controller_init+0x162>
80100d12:	f44f 4300 	mov.w	r3, #32768	; 0x8000
80100d16:	f2c0 231c 	movt	r3, #540	; 0x21c
80100d1a:	f44f 4200 	mov.w	r2, #32768	; 0x8000
80100d1e:	f2c0 221c 	movt	r2, #540	; 0x21c
80100d22:	6812      	ldr	r2, [r2, #0]
80100d24:	f042 0208 	orr.w	r2, r2, #8
80100d28:	601a      	str	r2, [r3, #0]
80100d2a:	687b      	ldr	r3, [r7, #4]
80100d2c:	6b9b      	ldr	r3, [r3, #56]	; 0x38
80100d2e:	2b18      	cmp	r3, #24
80100d30:	d003      	beq.n	80100d3a <Imx6ull_lcd_controller_init+0x172>
80100d32:	687b      	ldr	r3, [r7, #4]
80100d34:	6b9b      	ldr	r3, [r3, #56]	; 0x38
80100d36:	2b20      	cmp	r3, #32
80100d38:	d117      	bne.n	80100d6a <Imx6ull_lcd_controller_init+0x1a2>
80100d3a:	f44f 4300 	mov.w	r3, #32768	; 0x8000
80100d3e:	f2c0 231c 	movt	r3, #540	; 0x21c
80100d42:	f44f 4200 	mov.w	r2, #32768	; 0x8000
80100d46:	f2c0 221c 	movt	r2, #540	; 0x21c
80100d4a:	6912      	ldr	r2, [r2, #16]
80100d4c:	f422 2270 	bic.w	r2, r2, #983040	; 0xf0000
80100d50:	611a      	str	r2, [r3, #16]
80100d52:	f44f 4300 	mov.w	r3, #32768	; 0x8000
80100d56:	f2c0 231c 	movt	r3, #540	; 0x21c
80100d5a:	f44f 4200 	mov.w	r2, #32768	; 0x8000
80100d5e:	f2c0 221c 	movt	r2, #540	; 0x21c
80100d62:	6912      	ldr	r2, [r2, #16]
80100d64:	f442 22e0 	orr.w	r2, r2, #458752	; 0x70000
80100d68:	611a      	str	r2, [r3, #16]
80100d6a:	f44f 4300 	mov.w	r3, #32768	; 0x8000
80100d6e:	f2c0 231c 	movt	r3, #540	; 0x21c
80100d72:	687a      	ldr	r2, [r7, #4]
80100d74:	6b52      	ldr	r2, [r2, #52]	; 0x34
80100d76:	0411      	lsls	r1, r2, #16
80100d78:	687a      	ldr	r2, [r7, #4]
80100d7a:	6b12      	ldr	r2, [r2, #48]	; 0x30
80100d7c:	430a      	orrs	r2, r1
80100d7e:	631a      	str	r2, [r3, #48]	; 0x30
80100d80:	f44f 4300 	mov.w	r3, #32768	; 0x8000
80100d84:	f2c0 231c 	movt	r3, #540	; 0x21c
80100d88:	687a      	ldr	r2, [r7, #4]
80100d8a:	6912      	ldr	r2, [r2, #16]
80100d8c:	06d2      	lsls	r2, r2, #27
80100d8e:	f042 5180 	orr.w	r1, r2, #268435456	; 0x10000000
80100d92:	687a      	ldr	r2, [r7, #4]
80100d94:	68d2      	ldr	r2, [r2, #12]
80100d96:	0692      	lsls	r2, r2, #26
80100d98:	4311      	orrs	r1, r2
80100d9a:	687a      	ldr	r2, [r7, #4]
80100d9c:	6892      	ldr	r2, [r2, #8]
80100d9e:	0652      	lsls	r2, r2, #25
80100da0:	4311      	orrs	r1, r2
80100da2:	687a      	ldr	r2, [r7, #4]
80100da4:	6852      	ldr	r2, [r2, #4]
80100da6:	0612      	lsls	r2, r2, #24
80100da8:	430a      	orrs	r2, r1
80100daa:	f442 1140 	orr.w	r1, r2, #3145728	; 0x300000
80100dae:	687a      	ldr	r2, [r7, #4]
80100db0:	6952      	ldr	r2, [r2, #20]
80100db2:	430a      	orrs	r2, r1
80100db4:	671a      	str	r2, [r3, #112]	; 0x70
80100db6:	f44f 4300 	mov.w	r3, #32768	; 0x8000
80100dba:	f2c0 231c 	movt	r3, #540	; 0x21c
80100dbe:	687a      	ldr	r2, [r7, #4]
80100dc0:	6991      	ldr	r1, [r2, #24]
80100dc2:	687a      	ldr	r2, [r7, #4]
80100dc4:	6952      	ldr	r2, [r2, #20]
80100dc6:	4411      	add	r1, r2
80100dc8:	687a      	ldr	r2, [r7, #4]
80100dca:	6b52      	ldr	r2, [r2, #52]	; 0x34
80100dcc:	4411      	add	r1, r2
80100dce:	687a      	ldr	r2, [r7, #4]
80100dd0:	69d2      	ldr	r2, [r2, #28]
80100dd2:	440a      	add	r2, r1
80100dd4:	f8c3 2080 	str.w	r2, [r3, #128]	; 0x80
80100dd8:	f44f 4300 	mov.w	r3, #32768	; 0x8000
80100ddc:	f2c0 231c 	movt	r3, #540	; 0x21c
80100de0:	687a      	ldr	r2, [r7, #4]
80100de2:	6a12      	ldr	r2, [r2, #32]
80100de4:	0491      	lsls	r1, r2, #18
80100de6:	687a      	ldr	r2, [r7, #4]
80100de8:	6a50      	ldr	r0, [r2, #36]	; 0x24
80100dea:	687a      	ldr	r2, [r7, #4]
80100dec:	6a12      	ldr	r2, [r2, #32]
80100dee:	4410      	add	r0, r2
80100df0:	687a      	ldr	r2, [r7, #4]
80100df2:	6b12      	ldr	r2, [r2, #48]	; 0x30
80100df4:	4410      	add	r0, r2
80100df6:	687a      	ldr	r2, [r7, #4]
80100df8:	6a92      	ldr	r2, [r2, #40]	; 0x28
80100dfa:	4402      	add	r2, r0
80100dfc:	430a      	orrs	r2, r1
80100dfe:	f8c3 2090 	str.w	r2, [r3, #144]	; 0x90
80100e02:	f44f 4300 	mov.w	r3, #32768	; 0x8000
80100e06:	f2c0 231c 	movt	r3, #540	; 0x21c
80100e0a:	687a      	ldr	r2, [r7, #4]
80100e0c:	6a51      	ldr	r1, [r2, #36]	; 0x24
80100e0e:	687a      	ldr	r2, [r7, #4]
80100e10:	6a12      	ldr	r2, [r2, #32]
80100e12:	440a      	add	r2, r1
80100e14:	0411      	lsls	r1, r2, #16
80100e16:	687a      	ldr	r2, [r7, #4]
80100e18:	6990      	ldr	r0, [r2, #24]
80100e1a:	687a      	ldr	r2, [r7, #4]
80100e1c:	6952      	ldr	r2, [r2, #20]
80100e1e:	4402      	add	r2, r0
80100e20:	430a      	orrs	r2, r1
80100e22:	f8c3 20a0 	str.w	r2, [r3, #160]	; 0xa0
80100e26:	f44f 4300 	mov.w	r3, #32768	; 0x8000
80100e2a:	f2c0 231c 	movt	r3, #540	; 0x21c
80100e2e:	687a      	ldr	r2, [r7, #4]
80100e30:	6b12      	ldr	r2, [r2, #48]	; 0x30
80100e32:	f442 2280 	orr.w	r2, r2, #262144	; 0x40000
80100e36:	f8c3 20b0 	str.w	r2, [r3, #176]	; 0xb0
80100e3a:	f44f 4300 	mov.w	r3, #32768	; 0x8000
80100e3e:	f2c0 231c 	movt	r3, #540	; 0x21c
80100e42:	687a      	ldr	r2, [r7, #4]
80100e44:	6bd2      	ldr	r2, [r2, #60]	; 0x3c
80100e46:	641a      	str	r2, [r3, #64]	; 0x40
80100e48:	f44f 4300 	mov.w	r3, #32768	; 0x8000
80100e4c:	f2c0 231c 	movt	r3, #540	; 0x21c
80100e50:	687a      	ldr	r2, [r7, #4]
80100e52:	6bd2      	ldr	r2, [r2, #60]	; 0x3c
80100e54:	651a      	str	r2, [r3, #80]	; 0x50
80100e56:	bf00      	nop
80100e58:	3710      	adds	r7, #16
80100e5a:	46bd      	mov	sp, r7
80100e5c:	bd80      	pop	{r7, pc}

80100e5e <Imx6ull_lcd_controller_enable>:
80100e5e:	b480      	push	{r7}
80100e60:	af00      	add	r7, sp, #0
80100e62:	f44f 4300 	mov.w	r3, #32768	; 0x8000
80100e66:	f2c0 231c 	movt	r3, #540	; 0x21c
80100e6a:	f44f 4200 	mov.w	r2, #32768	; 0x8000
80100e6e:	f2c0 221c 	movt	r2, #540	; 0x21c
80100e72:	6812      	ldr	r2, [r2, #0]
80100e74:	f042 0201 	orr.w	r2, r2, #1
80100e78:	601a      	str	r2, [r3, #0]
80100e7a:	bf00      	nop
80100e7c:	46bd      	mov	sp, r7
80100e7e:	f85d 7b04 	ldr.w	r7, [sp], #4
80100e82:	4770      	bx	lr

80100e84 <Imx6ull_lcd_controller_disable>:
80100e84:	b480      	push	{r7}
80100e86:	af00      	add	r7, sp, #0
80100e88:	f44f 4300 	mov.w	r3, #32768	; 0x8000
80100e8c:	f2c0 231c 	movt	r3, #540	; 0x21c
80100e90:	f44f 4200 	mov.w	r2, #32768	; 0x8000
80100e94:	f2c0 221c 	movt	r2, #540	; 0x21c
80100e98:	6812      	ldr	r2, [r2, #0]
80100e9a:	f022 0201 	bic.w	r2, r2, #1
80100e9e:	601a      	str	r2, [r3, #0]
80100ea0:	bf00      	nop
80100ea2:	46bd      	mov	sp, r7
80100ea4:	f85d 7b04 	ldr.w	r7, [sp], #4
80100ea8:	4770      	bx	lr

80100eaa <Imx6ull_lcd_controller_add>:
80100eaa:	b580      	push	{r7, lr}
80100eac:	af00      	add	r7, sp, #0
80100eae:	f640 702c 	movw	r0, #3884	; 0xf2c
80100eb2:	f2c8 0010 	movt	r0, #32784	; 0x8010
80100eb6:	f7ff fcb5 	bl	80100824 <register_lcd_controller>
80100eba:	bf00      	nop
80100ebc:	bd80      	pop	{r7, pc}

Disassembly of section .rodata:

80100ec0 <.LC0>:
80100ec0:	36786d49 	ldrbtcc	r6, [r8], -r9, asr #26
80100ec4:	006c6c75 	rsbeq	r6, ip, r5, ror ip

80100ec8 <.LC1>:
80100ec8:	5f64636c 	svcpl	0x0064636c
80100ecc:	00302e37 	eorseq	r2, r0, r7, lsr lr
80100ed0:	5f64636c 	svcpl	0x0064636c
80100ed4:	00302e37 	eorseq	r2, r0, r7, lsr lr
80100ed8:	36786d49 	ldrbtcc	r6, [r8], -r9, asr #26
80100edc:	006c6c75 	rsbeq	r6, ip, r5, ror ip

Disassembly of section .data:

80100ee0 <lcd_7_0_params>:
80100ee0:	80100ed0 			; <UNDEFINED> instruction: 0x80100ed0
80100ee4:	00000001 	andeq	r0, r0, r1
80100ee8:	00000001 	andeq	r0, r0, r1
	...
80100ef4:	00000003 	andeq	r0, r0, r3
80100ef8:	00000014 	andeq	r0, r0, r4, lsl r0
80100efc:	0000000c 	andeq	r0, r0, ip
80100f00:	00000014 	andeq	r0, r0, r4, lsl r0
80100f04:	0000008c 	andeq	r0, r0, ip, lsl #1
80100f08:	000000a0 	andeq	r0, r0, r0, lsr #1
80100f0c:	00000033 	andeq	r0, r0, r3, lsr r0
80100f10:	00000400 	andeq	r0, r0, r0, lsl #8
80100f14:	00000258 	andeq	r0, r0, r8, asr r2
80100f18:	00000010 	andeq	r0, r0, r0, lsl r0
80100f1c:	99000000 	stmdbls	r0, {}	; <UNPREDICTABLE>

80100f20 <GPIO1_IO08_PAD>:
80100f20:	020e0308 	andeq	r0, lr, #8, 6	; 0x20000000

80100f24 <GPIO1_GDIR>:
80100f24:	0209c000 	andeq	ip, r9, #0

80100f28 <GPIO1_DR>:
80100f28:	0209c004 	andeq	ip, r9, #4

80100f2c <Imx6ull_lcd_controller>:
80100f2c:	80100ed8 			; <UNDEFINED> instruction: 0x80100ed8
80100f30:	80100bc9 	andshi	r0, r0, r9, asr #23
80100f34:	80100e5f 	andshi	r0, r0, pc, asr lr
80100f38:	80100e85 	andshi	r0, r0, r5, lsl #29

Disassembly of section .bss:

80100f3c <__bss_start>:
80100f3c:	00000000 	andeq	r0, r0, r0

80100f40 <xres>:
80100f40:	00000000 	andeq	r0, r0, r0

80100f44 <yres>:
80100f44:	00000000 	andeq	r0, r0, r0

80100f48 <bpp>:
80100f48:	00000000 	andeq	r0, r0, r0

80100f4c <p_array_lcd_controller>:
	...

80100f74 <g_p_lcd_controller_selected>:
80100f74:	00000000 	andeq	r0, r0, r0

80100f78 <p_array_lcd>:
	...

80100f8c <g_p_lcd_selected>:
80100f8c:	00000000 	andeq	r0, r0, r0

Disassembly of section .ARM.attributes:

00000000 <.ARM.attributes>:
   0:	00002e41 	andeq	r2, r0, r1, asr #28
   4:	61656100 	cmnvs	r5, r0, lsl #2
   8:	01006962 	tsteq	r0, r2, ror #18
   c:	00000024 	andeq	r0, r0, r4, lsr #32
  10:	412d3705 			; <UNDEFINED> instruction: 0x412d3705
  14:	070a0600 	streq	r0, [sl, -r0, lsl #12]
  18:	09010841 	stmdbeq	r1, {r0, r6, fp}
  1c:	12040a02 	andne	r0, r4, #8192	; 0x2000
  20:	15011404 	strne	r1, [r1, #-1028]	; 0xfffffbfc
  24:	18031701 	stmdane	r3, {r0, r8, r9, sl, ip}
  28:	1c021a01 			; <UNDEFINED> instruction: 0x1c021a01
  2c:	Address 0x000000000000002c is out of bounds.


Disassembly of section .comment:

00000000 <.comment>:
   0:	3a434347 	bcc	10d0d24 <_start-0x7f02f2dc>
   4:	694c2820 	stmdbvs	ip, {r5, fp, sp}^
   8:	6f72616e 	svcvs	0x0072616e
   c:	43434720 	movtmi	r4, #14112	; 0x3720
  10:	322e3620 	eorcc	r3, lr, #32, 12	; 0x2000000
  14:	3130322d 	teqcc	r0, sp, lsr #4
  18:	31312e36 	teqcc	r1, r6, lsr lr
  1c:	2e362029 	cdpcs	0, 3, cr2, cr6, cr9, {1}
  20:	20312e32 	eorscs	r2, r1, r2, lsr lr
  24:	36313032 			; <UNDEFINED> instruction: 0x36313032
  28:	36313031 			; <UNDEFINED> instruction: 0x36313031
	...

Disassembly of section .debug_line:

00000000 <.debug_line>:
   0:	00000043 	andeq	r0, r0, r3, asr #32
   4:	001e0002 	andseq	r0, lr, r2
   8:	01020000 	mrseq	r0, (UNDEF: 2)
   c:	000d0efb 	strdeq	r0, [sp], -fp
  10:	01010101 	tsteq	r1, r1, lsl #2
  14:	01000000 	mrseq	r0, (UNDEF: 0)
  18:	00010000 	andeq	r0, r1, r0
  1c:	72617473 	rsbvc	r7, r1, #1929379840	; 0x73000000
  20:	00532e74 	subseq	r2, r3, r4, ror lr
  24:	00000000 	andeq	r0, r0, r0
  28:	00020500 	andeq	r0, r2, r0, lsl #10
  2c:	18801000 	stmne	r0, {ip}
  30:	32313030 	eorscc	r3, r1, #48	; 0x30
  34:	2f302f2f 	svccs	0x00302f2f
  38:	03302f2f 	teqeq	r0, #47, 30	; 0xbc
  3c:	0b032e6c 	bleq	cb9f4 <_start-0x8003460c>
  40:	02022f2e 	andeq	r2, r2, #46, 30	; 0xb8
  44:	09010100 	stmdbeq	r1, {r8}
  48:	02000001 	andeq	r0, r0, #1
  4c:	00001d00 	andeq	r1, r0, r0, lsl #26
  50:	fb010200 	blx	4085a <_start-0x800bf7a6>
  54:	01000d0e 	tsteq	r0, lr, lsl #26
  58:	00010101 	andeq	r0, r1, r1, lsl #2
  5c:	00010000 	andeq	r0, r1, r0
  60:	6d000100 	stfvss	f0, [r0, #-0]
  64:	2e6e6961 	vnmulcs.f16	s13, s28, s3	; <UNPREDICTABLE>
  68:	00000063 	andeq	r0, r0, r3, rrx
  6c:	05000000 	streq	r0, [r0, #-0]
  70:	10003c02 	andne	r3, r0, r2, lsl #24
  74:	31441780 	smlalbbcc	r1, r4, r0, r7
  78:	3d2f4285 	sfmcc	f4, 4, [pc, #-532]!	; fffffe6c <__bss_end+0x7fefeedc>
  7c:	03040200 	movweq	r0, #16896	; 0x4200
  80:	0402003d 	streq	r0, [r2], #-61	; 0xffffffc3
  84:	02006503 	andeq	r6, r0, #12582912	; 0xc00000
  88:	3c060104 	stfccs	f0, [r6], {4}
  8c:	02040200 	andeq	r0, r4, #0, 4
  90:	02004906 	andeq	r4, r0, #98304	; 0x18000
  94:	3c060104 	stfccs	f0, [r6], {4}
  98:	3d2f4f06 	stccc	15, cr4, [pc, #-24]!	; 88 <_start-0x800fff78>
  9c:	03040200 	movweq	r0, #16896	; 0x4200
  a0:	0402003d 	streq	r0, [r2], #-61	; 0xffffffc3
  a4:	02006503 	andeq	r6, r0, #12582912	; 0xc00000
  a8:	3c060104 	stfccs	f0, [r6], {4}
  ac:	02040200 	andeq	r0, r4, #0, 4
  b0:	02004906 	andeq	r4, r0, #98304	; 0x18000
  b4:	3c060104 	stfccs	f0, [r6], {4}
  b8:	3d2f4f06 	stccc	15, cr4, [pc, #-24]!	; a8 <_start-0x800fff58>
  bc:	03040200 	movweq	r0, #16896	; 0x4200
  c0:	0402003d 	streq	r0, [r2], #-61	; 0xffffffc3
  c4:	02005703 	andeq	r5, r0, #786432	; 0xc0000
  c8:	3c060104 	stfccs	f0, [r6], {4}
  cc:	02040200 	andeq	r0, r4, #0, 4
  d0:	02004906 	andeq	r4, r0, #98304	; 0x18000
  d4:	3c060104 	stfccs	f0, [r6], {4}
  d8:	2f425d06 	svccs	0x00425d06
  dc:	0402003d 	streq	r0, [r2], #-61	; 0xffffffc3
  e0:	02003d03 	andeq	r3, r0, #3, 26	; 0xc0
  e4:	00650304 	rsbeq	r0, r5, r4, lsl #6
  e8:	06010402 	streq	r0, [r1], -r2, lsl #8
  ec:	0402003c 	streq	r0, [r2], #-60	; 0xffffffc4
  f0:	00490602 	subeq	r0, r9, r2, lsl #12
  f4:	06010402 	streq	r0, [r1], -r2, lsl #8
  f8:	2f4f063c 	svccs	0x004f063c
  fc:	0402003d 	streq	r0, [r2], #-61	; 0xffffffc3
 100:	02003d03 	andeq	r3, r0, #3, 26	; 0xc0
 104:	00650304 	rsbeq	r0, r5, r4, lsl #6
 108:	06010402 	streq	r0, [r1], -r2, lsl #8
 10c:	0402003c 	streq	r0, [r2], #-60	; 0xffffffc4
 110:	00490602 	subeq	r0, r9, r2, lsl #12
 114:	06010402 	streq	r0, [r1], -r2, lsl #8
 118:	2f4f063c 	svccs	0x004f063c
 11c:	0402003d 	streq	r0, [r2], #-61	; 0xffffffc3
 120:	02003d03 	andeq	r3, r0, #3, 26	; 0xc0
 124:	00570304 	subseq	r0, r7, r4, lsl #6
 128:	06010402 	streq	r0, [r1], -r2, lsl #8
 12c:	0402003c 	streq	r0, [r2], #-60	; 0xffffffc4
 130:	00490602 	subeq	r0, r9, r2, lsl #12
 134:	06010402 	streq	r0, [r1], -r2, lsl #8
 138:	3050063c 	subscc	r0, r0, ip, lsr r6
 13c:	e5679f68 	strb	r9, [r7, #-3944]!	; 0xfffff098
 140:	bb67d767 	bllt	19f5ee4 <_start-0x7e70a11c>
 144:	d767d767 	strble	sp, [r7, -r7, ror #14]!
 148:	4f590868 	svcmi	0x00590868
 14c:	023e3130 	eorseq	r3, lr, #48, 2
 150:	01010002 	tsteq	r1, r2
 154:	000000f8 	strdeq	r0, [r0], -r8
 158:	00210002 	eoreq	r0, r1, r2
 15c:	01020000 	mrseq	r0, (UNDEF: 2)
 160:	000d0efb 	strdeq	r0, [sp], -fp
 164:	01010101 	tsteq	r1, r1, lsl #2
 168:	01000000 	mrseq	r0, (UNDEF: 0)
 16c:	00010000 	andeq	r0, r1, r0
 170:	6d6f6567 	cfstr64vs	mvdx6, [pc, #-412]!	; ffffffdc <__bss_end+0x7feff04c>
 174:	79727465 	ldmdbvc	r2!, {r0, r2, r5, r6, sl, ip, sp, lr}^
 178:	0000632e 	andeq	r6, r0, lr, lsr #6
 17c:	00000000 	andeq	r0, r0, r0
 180:	02ec0205 	rsceq	r0, ip, #1342177280	; 0x50000000
 184:	1d038010 	stcne	0, cr8, [r3, #-64]	; 0xffffffc0
 188:	2f2f7601 	svccs	0x002f7601
 18c:	9f9f9f22 	svcls	0x009f9f22
 190:	9f9f9fa0 	svcls	0x009f9fa0
 194:	3ee53da0 	cdpcc	13, 14, cr3, cr5, cr0, {5}
 198:	3c6f033d 	stclcc	3, cr0, [pc], #-244	; ac <_start-0x800fff54>
 19c:	03c81403 	biceq	r1, r8, #50331648	; 0x3000000
 1a0:	4b764a0f 	blmi	1d929e4 <_start-0x7e36d61c>
 1a4:	4c3e4c4b 	ldcmi	12, cr4, [lr], #-300	; 0xfffffed4
 1a8:	00672291 	mlseq	r7, r1, r2, r2
 1ac:	06010402 	streq	r0, [r1], -r2, lsl #8
 1b0:	3d75063c 	ldclcc	6, cr0, [r5, #-240]!	; 0xffffff10
 1b4:	00e60345 	rsceq	r0, r6, r5, asr #6
 1b8:	7fa4034a 	svcvc	0x00a4034a
 1bc:	67229120 	strvs	r9, [r2, -r0, lsr #2]!
 1c0:	01040200 	mrseq	r0, R12_usr
 1c4:	75063c06 	strvc	r3, [r6, #-3078]	; 0xfffff3fa
 1c8:	db03453d 	blle	d16c4 <_start-0x8002e93c>
 1cc:	b0034a00 	andlt	r4, r3, r0, lsl #20
 1d0:	4c3d207f 	ldcmi	0, cr2, [sp], #-508	; 0xfffffe04
 1d4:	00672291 	mlseq	r7, r1, r2, r2
 1d8:	06010402 	streq	r0, [r1], -r2, lsl #8
 1dc:	3d75063c 	ldclcc	6, cr0, [r5, #-240]!	; 0xffffff10
 1e0:	00cc0345 	sbceq	r0, ip, r5, asr #6
 1e4:	7fbe034a 	svcvc	0x00be034a
 1e8:	67229120 	strvs	r9, [r2, -r0, lsr #2]!
 1ec:	01040200 	mrseq	r0, R12_usr
 1f0:	75063c06 	strvc	r3, [r6, #-3078]	; 0xfffff3fa
 1f4:	c103453d 	tstgt	r3, sp, lsr r5
 1f8:	4b034a00 	blmi	d2a00 <_start-0x8002d600>
 1fc:	4c3e3d20 	ldcmi	13, cr3, [lr], #-128	; 0xffffff80
 200:	00672291 	mlseq	r7, r1, r2, r2
 204:	06010402 	streq	r0, [r1], -r2, lsl #8
 208:	3d75063c 	ldclcc	6, cr0, [r5, #-240]!	; 0xffffff10
 20c:	4a2f0345 	bmi	bc0f28 <_start-0x7f53f0d8>
 210:	91205b03 			; <UNDEFINED> instruction: 0x91205b03
 214:	02006722 	andeq	r6, r0, #8912896	; 0x880000
 218:	3c060104 	stfccs	f0, [r6], {4}
 21c:	453d7506 	ldrmi	r7, [sp, #-1286]!	; 0xfffffafa
 220:	034a2403 	movteq	r2, #41987	; 0xa403
 224:	4c3d2067 	ldcmi	0, cr2, [sp], #-412	; 0xfffffe64
 228:	00672291 	mlseq	r7, r1, r2, r2
 22c:	06010402 	streq	r0, [r1], -r2, lsl #8
 230:	3d75063c 	ldclcc	6, cr0, [r5, #-240]!	; 0xffffff10
 234:	4a150345 	bmi	540f50 <_start-0x7fbbf0b0>
 238:	91207503 			; <UNDEFINED> instruction: 0x91207503
 23c:	02006722 	andeq	r6, r0, #8912896	; 0x880000
 240:	3c060104 	stfccs	f0, [r6], {4}
 244:	453d7506 	ldrmi	r7, [sp, #-1286]!	; 0xfffffafa
 248:	024a0a03 	subeq	r0, sl, #12288	; 0x3000
 24c:	01010004 	tsteq	r1, r4
 250:	00000058 	andeq	r0, r0, r8, asr r0
 254:	00240002 	eoreq	r0, r4, r2
 258:	01020000 	mrseq	r0, (UNDEF: 2)
 25c:	000d0efb 	strdeq	r0, [sp], -fp
 260:	01010101 	tsteq	r1, r1, lsl #2
 264:	01000000 	mrseq	r0, (UNDEF: 0)
 268:	00010000 	andeq	r0, r1, r0
 26c:	6d617266 	sfmvs	f7, 2, [r1, #-408]!	; 0xfffffe68
 270:	66756265 	ldrbtvs	r6, [r5], -r5, ror #4
 274:	2e726566 	cdpcs	5, 7, cr6, cr2, cr6, {3}
 278:	00000063 	andeq	r0, r0, r3, rrx
 27c:	05000000 	streq	r0, [r0, #-0]
 280:	1006c602 	andne	ip, r6, r2, lsl #12
 284:	01150380 	tsteq	r5, r0, lsl #7
 288:	3221082f 	eorcc	r0, r1, #3080192	; 0x2f0000
 28c:	3f4b4b4b 	svccc	0x004b4b4b
 290:	c93e3d3d 	ldmdbgt	lr!, {r0, r2, r3, r4, r5, r8, sl, fp, ip, sp}
 294:	6a661203 	bvs	1984aa8 <_start-0x7e77b558>
 298:	03142d02 	tsteq	r4, #2, 26	; 0x80
 29c:	7803900b 	stmdavc	r3, {r0, r1, r3, ip, pc}
 2a0:	22752f20 	rsbscs	r2, r5, #32, 30	; 0x80
 2a4:	02223d2f 	eoreq	r3, r2, #3008	; 0xbc0
 2a8:	01010004 	tsteq	r1, r4
 2ac:	000000c6 	andeq	r0, r0, r6, asr #1
 2b0:	005c0002 	subseq	r0, ip, r2
 2b4:	01020000 	mrseq	r0, (UNDEF: 2)
 2b8:	000d0efb 	strdeq	r0, [sp], -fp
 2bc:	01010101 	tsteq	r1, r1, lsl #2
 2c0:	01000000 	mrseq	r0, (UNDEF: 0)
 2c4:	00010000 	andeq	r0, r1, r0
 2c8:	5f64636c 	svcpl	0x0064636c
 2cc:	746e6f63 	strbtvc	r6, [lr], #-3939	; 0xfffff09d
 2d0:	6c6c6f72 	stclvs	15, cr6, [ip], #-456	; 0xfffffe38
 2d4:	6d5f7265 	lfmvs	f7, 2, [pc, #-404]	; 148 <_start-0x800ffeb8>
 2d8:	67616e61 	strbvs	r6, [r1, -r1, ror #28]!
 2dc:	632e7265 			; <UNDEFINED> instruction: 0x632e7265
 2e0:	00000000 	andeq	r0, r0, r0
 2e4:	5f64636c 	svcpl	0x0064636c
 2e8:	616e616d 	cmnvs	lr, sp, ror #2
 2ec:	2e726567 	cdpcs	5, 7, cr6, cr2, cr7, {3}
 2f0:	00000068 	andeq	r0, r0, r8, rrx
 2f4:	64636c00 	strbtvs	r6, [r3], #-3072	; 0xfffff400
 2f8:	6e6f635f 	mcrvs	3, 3, r6, cr15, cr15, {2}
 2fc:	6c6f7274 	sfmvs	f7, 2, [pc], #-464	; 134 <_start-0x800ffecc>
 300:	5f72656c 	svcpl	0x0072656c
 304:	616e616d 	cmnvs	lr, sp, ror #2
 308:	2e726567 	cdpcs	5, 7, cr6, cr2, cr7, {3}
 30c:	00000068 	andeq	r0, r0, r8, rrx
 310:	05000000 	streq	r0, [r0, #-0]
 314:	1007ea02 	andne	lr, r7, r2, lsl #20
 318:	01140380 	tsteq	r4, r0, lsl #7
 31c:	0402005c 	streq	r0, [r2], #-92	; 0xffffffa4
 320:	66ac0601 	strtvs	r0, [ip], r1, lsl #12
 324:	03212406 			; <UNDEFINED> instruction: 0x03212406
 328:	3e4c580d 	cdpcc	8, 4, cr5, cr12, cr13, {0}
 32c:	02008392 	andeq	r8, r0, #1207959554	; 0x48000002
 330:	00290204 	eoreq	r0, r9, r4, lsl #4
 334:	06010402 	streq	r0, [r1], -r2, lsl #8
 338:	2f44063c 	svccs	0x0044063c
 33c:	4c660d03 	stclmi	13, cr0, [r6], #-12
 340:	0402003e 	streq	r0, [r2], #-62	; 0xffffffc2
 344:	06900601 	ldreq	r0, [r0], r1, lsl #12
 348:	0200bbe6 	andeq	fp, r0, #235520	; 0x39800
 34c:	00290204 	eoreq	r0, r9, r4, lsl #4
 350:	06010402 	streq	r0, [r1], -r2, lsl #8
 354:	2f44063c 	svccs	0x0044063c
 358:	4b4a0d03 	blmi	128376c <_start-0x7ee7c894>
 35c:	2f308376 	svccs	0x00308376
 360:	2f4a0d03 	svccs	0x004a0d03
 364:	0d037676 	stceq	6, cr7, [r3, #-472]	; 0xfffffe28
 368:	76762f2e 	ldrbtvc	r2, [r6], -lr, lsr #30
 36c:	2f2e0d03 	svccs	0x002e0d03
 370:	0002022f 	andeq	r0, r2, pc, lsr #4
 374:	009d0101 	addseq	r0, sp, r1, lsl #2
 378:	00020000 	andeq	r0, r2, r0
 37c:	00000035 	andeq	r0, r0, r5, lsr r0
 380:	0efb0102 	cdpeq	1, 15, cr0, cr11, cr2, {0}
 384:	0101000d 	tsteq	r1, sp
 388:	00000101 	andeq	r0, r0, r1, lsl #2
 38c:	00000100 	andeq	r0, r0, r0, lsl #2
 390:	636c0001 	cmnvs	ip, #1
 394:	616d5f64 	cmnvs	sp, r4, ror #30
 398:	6567616e 	strbvs	r6, [r7, #-366]!	; 0xfffffe92
 39c:	00632e72 	rsbeq	r2, r3, r2, ror lr
 3a0:	6c000000 	stcvs	0, cr0, [r0], {-0}
 3a4:	6d5f6463 	cfldrdvs	mvd6, [pc, #-396]	; 220 <_start-0x800ffde0>
 3a8:	67616e61 	strbvs	r6, [r1, -r1, ror #28]!
 3ac:	682e7265 	stmdavs	lr!, {r0, r2, r5, r6, r9, ip, sp, lr}
 3b0:	00000000 	andeq	r0, r0, r0
 3b4:	02050000 	andeq	r0, r5, #0
 3b8:	80100970 	andshi	r0, r0, r0, ror r9
 3bc:	4b011403 	blmi	453d0 <_start-0x800bac30>
 3c0:	01040200 	mrseq	r0, R12_usr
 3c4:	59062006 	stmdbpl	r6, {r1, r2, sp}
 3c8:	4c660e03 	stclmi	14, cr0, [r6], #-12
 3cc:	0083923e 	addeq	r9, r3, lr, lsr r2
 3d0:	29020402 	stmdbcs	r2, {r1, sl}
 3d4:	01040200 	mrseq	r0, R12_usr
 3d8:	44063c06 	strmi	r3, [r6], #-3078	; 0xfffff3fa
 3dc:	3e4c692f 	vmlacc.f16	s13, s24, s31	; <UNPREDICTABLE>
 3e0:	01040200 	mrseq	r0, R12_usr
 3e4:	e6069006 	str	r9, [r6], -r6
 3e8:	040200bb 	streq	r0, [r2], #-187	; 0xffffff45
 3ec:	02002902 	andeq	r2, r0, #32768	; 0x8000
 3f0:	3c060104 	stfccs	f0, [r6], {4}
 3f4:	032f4406 			; <UNDEFINED> instruction: 0x032f4406
 3f8:	83754a0d 	cmnhi	r5, #53248	; 0xd000
 3fc:	03838383 	orreq	r8, r3, #201326594	; 0xc000002
 400:	2f2f660e 	svccs	0x002f660e
 404:	2f2e0d03 	svccs	0x002e0d03
 408:	2e0d032f 	cdpcs	3, 0, cr0, cr13, cr15, {1}
 40c:	69313130 	ldmdbvs	r1!, {r4, r5, r8, ip, sp}
 410:	02028368 	andeq	r8, r2, #104, 6	; 0xa0000001
 414:	48010100 	stmdami	r1, {r8}
 418:	02000000 	andeq	r0, r0, #0
 41c:	00003100 	andeq	r3, r0, r0, lsl #2
 420:	fb010200 	blx	40c2a <_start-0x800bf3d6>
 424:	01000d0e 	tsteq	r0, lr, lsl #26
 428:	00010101 	andeq	r0, r1, r1, lsl #2
 42c:	00010000 	andeq	r0, r1, r0
 430:	6c000100 	stfvss	f0, [r0], {-0}
 434:	375f6463 	ldrbcc	r6, [pc, -r3, ror #8]
 438:	632e305f 			; <UNDEFINED> instruction: 0x632e305f
 43c:	00000000 	andeq	r0, r0, r0
 440:	5f64636c 	svcpl	0x0064636c
 444:	616e616d 	cmnvs	lr, sp, ror #2
 448:	2e726567 	cdpcs	5, 7, cr6, cr2, cr7, {3}
 44c:	00000068 	andeq	r0, r0, r8, rrx
 450:	05000000 	streq	r0, [r0, #-0]
 454:	100afc02 	andne	pc, sl, r2, lsl #24
 458:	012b0380 	smlawbeq	fp, r0, r3, r0
 45c:	0202672f 	andeq	r6, r2, #12320768	; 0xbc0000
 460:	24010100 	strcs	r0, [r1], #-256	; 0xffffff00
 464:	02000001 	andeq	r0, r0, #1
 468:	00006200 	andeq	r6, r0, r0, lsl #4
 46c:	fb010200 	blx	40c76 <_start-0x800bf38a>
 470:	01000d0e 	tsteq	r0, lr, lsl #26
 474:	00010101 	andeq	r0, r1, r1, lsl #2
 478:	00010000 	andeq	r0, r1, r0
 47c:	69000100 	stmdbvs	r0, {r8}
 480:	7536786d 	ldrvc	r7, [r6, #-2157]!	; 0xfffff793
 484:	635f6c6c 	cmpvs	pc, #108, 24	; 0x6c00
 488:	632e6e6f 			; <UNDEFINED> instruction: 0x632e6e6f
 48c:	00000000 	andeq	r0, r0, r0
 490:	36786d69 	ldrbtcc	r6, [r8], -r9, ror #26
 494:	5f6c6c75 	svcpl	0x006c6c75
 498:	2e636f73 	mcrcs	15, 3, r6, cr3, cr3, {3}
 49c:	00000068 	andeq	r0, r0, r8, rrx
 4a0:	64636c00 	strbtvs	r6, [r3], #-3072	; 0xfffff400
 4a4:	6e616d5f 	mcrvs	13, 3, r6, cr1, cr15, {2}
 4a8:	72656761 	rsbvc	r6, r5, #25427968	; 0x1840000
 4ac:	0000682e 	andeq	r6, r0, lr, lsr #16
 4b0:	636c0000 	cmnvs	ip, #0
 4b4:	6f635f64 	svcvs	0x00635f64
 4b8:	6f72746e 	svcvs	0x0072746e
 4bc:	72656c6c 	rsbvc	r6, r5, #108, 24	; 0x6c00
 4c0:	6e616d5f 	mcrvs	13, 3, r6, cr1, cr15, {2}
 4c4:	72656761 	rsbvc	r6, r5, #25427968	; 0x1840000
 4c8:	0000682e 	andeq	r6, r0, lr, lsr #16
 4cc:	00000000 	andeq	r0, r0, r0
 4d0:	0b100205 	bleq	400cec <_start-0x7fcff314>
 4d4:	09038010 	stmdbeq	r3, {r4, pc}
 4d8:	59303e01 	ldmdbpl	r0!, {r0, r9, sl, fp, ip, sp}
 4dc:	03040200 	movweq	r0, #16896	; 0x4200
 4e0:	0402003e 	streq	r0, [r2], #-62	; 0xffffffc2
 4e4:	02003d03 	andeq	r3, r0, #3, 26	; 0xc0
 4e8:	00390304 	eorseq	r0, r9, r4, lsl #6
 4ec:	06010402 	streq	r0, [r1], -r2, lsl #8
 4f0:	1003063c 	andne	r0, r3, ip, lsr r6
 4f4:	0200593c 	andeq	r5, r0, #60, 18	; 0xf0000
 4f8:	003e0304 	eorseq	r0, lr, r4, lsl #6
 4fc:	3d030402 	cfstrscc	mvf0, [r3, #-8]
 500:	03040200 	movweq	r0, #16896	; 0x4200
 504:	04020067 	streq	r0, [r2], #-103	; 0xffffff99
 508:	02003803 	andeq	r3, r0, #196608	; 0x30000
 50c:	3c060104 	stfccs	f0, [r6], {4}
 510:	3c0a0306 	stccc	3, cr0, [sl], {6}
 514:	68d9d876 	ldmvs	r9, {r1, r2, r4, r5, r6, fp, ip, lr, pc}^
 518:	2e1b034c 	cdpcs	3, 1, cr0, cr11, cr12, {2}
 51c:	740d0375 	strvc	r0, [sp], #-885	; 0xfffffc8b
 520:	bb9e1603 	bllt	fe785d34 <__bss_end+0x7e684da4>
 524:	03bcbbbc 			; <UNDEFINED> instruction: 0x03bcbbbc
 528:	bdbbba0d 			; <UNDEFINED> instruction: 0xbdbbba0d
 52c:	10033f77 	andne	r3, r3, r7, ror pc
 530:	04020066 	streq	r0, [r2], #-102	; 0xffffff9a
 534:	004a0601 	subeq	r0, sl, r1, lsl #12
 538:	4a030402 	bmi	c1548 <_start-0x8003eab8>
 53c:	04040200 	streq	r0, [r4], #-512	; 0xfffffe00
 540:	0402002e 	streq	r0, [r2], #-46	; 0xffffffd2
 544:	02002e02 	andeq	r2, r0, #2, 28
 548:	00200804 	eoreq	r0, r0, r4, lsl #16
 54c:	06080402 	streq	r0, [r8], -r2, lsl #8
 550:	04020022 	streq	r0, [r2], #-34	; 0xffffffde
 554:	4c150808 	ldcmi	8, cr0, [r5], {8}
 558:	040200c1 	streq	r0, [r2], #-193	; 0xffffff3f
 55c:	064a0601 	strbeq	r0, [sl], -r1, lsl #12
 560:	03c2bb4c 	biceq	fp, r2, #76, 22	; 0x13000
 564:	4b91ac0e 	blmi	fe46b5a4 <__bss_end+0x7e36a614>
 568:	03544b4b 	cmpeq	r4, #76800	; 0x12c00
 56c:	0903200a 	stmdbeq	r3, {r1, r3, sp}
 570:	52081208 	andpl	r1, r8, #8, 4	; 0x80000000
 574:	09032808 	stmdbeq	r3, {r3, fp, sp}
 578:	4c76759e 	cfldr64mi	mvdx7, [r6], #-632	; 0xfffffd88
 57c:	2f5abb2f 	svccs	0x005abb2f
 580:	581403bb 	ldmdapl	r4, {r0, r1, r3, r4, r5, r7, r8, r9}
 584:	0202672f 	andeq	r6, r2, #12320768	; 0xbc0000
 588:	Address 0x0000000000000588 is out of bounds.


Disassembly of section .debug_info:

00000000 <.debug_info>:
       0:	00000083 	andeq	r0, r0, r3, lsl #1
       4:	00000002 	andeq	r0, r0, r2
       8:	01040000 	mrseq	r0, (UNDEF: 4)
       c:	00000000 	andeq	r0, r0, r0
      10:	80100000 	andshi	r0, r0, r0
      14:	8010003c 	andshi	r0, r0, ip, lsr r0
      18:	72617473 	rsbvc	r7, r1, #1929379840	; 0x73000000
      1c:	00532e74 	subseq	r2, r3, r4, ror lr
      20:	6d6f682f 	stclvs	8, cr6, [pc, #-188]!	; ffffff6c <__bss_end+0x7fefefdc>
      24:	6f622f65 	svcvs	0x00622f65
      28:	442f6b6f 	strtmi	r6, [pc], #-2927	; 30 <_start-0x800fffd0>
      2c:	6c6e776f 	stclvs	7, cr7, [lr], #-444	; 0xfffffe44
      30:	7364616f 	cmnvc	r4, #-1073741797	; 0xc000001b
      34:	3030312f 	eorscc	r3, r0, pc, lsr #2
      38:	5f6b7361 	svcpl	0x006b7361
      3c:	36786d69 	ldrbtcc	r6, [r8], -r9, ror #26
      40:	5f6c6c75 	svcpl	0x006c6c75
      44:	736f6f4e 	cmnvc	pc, #312	; 0x138
      48:	676f7250 			; <UNDEFINED> instruction: 0x676f7250
      4c:	506d6172 	rsbpl	r6, sp, r2, ror r1
      50:	656a6f72 	strbvs	r6, [sl, #-3954]!	; 0xfffff08e
      54:	312f7463 			; <UNDEFINED> instruction: 0x312f7463
      58:	434c5f35 	movtmi	r5, #53045	; 0xcf35
      5c:	96bce744 	ldrtls	lr, [ip], r4, asr #14
      60:	2f8ba8e7 	svccs	0x008ba8e7
      64:	645f3230 	ldrbvs	r3, [pc], #-560	; 6c <_start-0x800fff94>
      68:	6c5f746f 	cfldrdvs	mvd7, [pc], {111}	; 0x6f
      6c:	5f656e69 	svcpl	0x00656e69
      70:	63726963 	cmnvs	r2, #1622016	; 0x18c000
      74:	4700656c 	strmi	r6, [r0, -ip, ror #10]
      78:	4120554e 			; <UNDEFINED> instruction: 0x4120554e
      7c:	2e322053 	mrccs	0, 1, r2, cr2, cr3, {2}
      80:	302e3732 	eorcc	r3, lr, r2, lsr r7
      84:	de800100 	rmfles	f0, f0, f0
      88:	04000000 	streq	r0, [r0], #-0
      8c:	00001400 	andeq	r1, r0, r0, lsl #8
      90:	57010400 	strpl	r0, [r1, -r0, lsl #8]
      94:	0c000000 	stceq	0, cr0, [r0], {-0}
      98:	000000cc 	andeq	r0, r0, ip, asr #1
      9c:	00000000 	andeq	r0, r0, r0
      a0:	8010003c 	andshi	r0, r0, ip, lsr r0
      a4:	000002b0 			; <UNDEFINED> instruction: 0x000002b0
      a8:	00000047 	andeq	r0, r0, r7, asr #32
      ac:	f4070402 	vst3.8	{d0-d2}, [r7], r2
      b0:	03000000 	movweq	r0, #0
      b4:	6e690504 	cdpvs	5, 6, cr0, cr9, cr4, {0}
      b8:	01020074 	tsteq	r2, r4, ror r0
      bc:	000e9f08 	andeq	r9, lr, r8, lsl #30
      c0:	00d30400 	sbcseq	r0, r3, r0, lsl #8
      c4:	5b010000 	blpl	400cc <_start-0x800bff34>
      c8:	0000002c 	andeq	r0, r0, ip, lsr #32
      cc:	801002da 			; <UNDEFINED> instruction: 0x801002da
      d0:	00000012 	andeq	r0, r0, r2, lsl r0
      d4:	dd059c01 	stcle	12, cr9, [r5, #-4]
      d8:	01000000 	mrseq	r0, (UNDEF: 0)
      dc:	10003c05 	andne	r3, r0, r5, lsl #24
      e0:	00029e80 	andeq	r9, r2, r0, lsl #29
      e4:	ce9c0100 	fmlgte	f0, f4, f0
      e8:	06000000 	streq	r0, [r0], -r0
      ec:	000000e6 	andeq	r0, r0, r6, ror #1
      f0:	00250701 	eoreq	r0, r5, r1, lsl #14
      f4:	91020000 	mrsls	r0, (UNDEF: 2)
      f8:	00d80664 	sbcseq	r0, r8, r4, ror #12
      fc:	08010000 	stmdaeq	r1, {}	; <UNPREDICTABLE>
     100:	0000002c 	andeq	r0, r0, ip, lsr #32
     104:	06609102 	strbteq	r9, [r0], -r2, lsl #2
     108:	00000101 	andeq	r0, r0, r1, lsl #2
     10c:	002c0801 	eoreq	r0, ip, r1, lsl #16
     110:	91020000 	mrsls	r0, (UNDEF: 2)
     114:	7062075c 	rsbvc	r0, r2, ip, asr r7
     118:	08010070 	stmdaeq	r1, {r4, r5, r6}
     11c:	0000002c 	andeq	r0, r0, ip, lsr #32
     120:	07589102 	ldrbeq	r9, [r8, -r2, lsl #2]
     124:	09010078 	stmdbeq	r1, {r3, r4, r5, r6}
     128:	0000002c 	andeq	r0, r0, ip, lsr #32
     12c:	07749102 	ldrbeq	r9, [r4, -r2, lsl #2]!
     130:	09010079 	stmdbeq	r1, {r0, r3, r4, r5, r6}
     134:	0000002c 	andeq	r0, r0, ip, lsr #32
     138:	07709102 	ldrbeq	r9, [r0, -r2, lsl #2]!
     13c:	0a010070 	beq	40304 <_start-0x800bfcfc>
     140:	000000ce 	andeq	r0, r0, lr, asr #1
     144:	076c9102 	strbeq	r9, [ip, -r2, lsl #2]!
     148:	01003270 	tsteq	r0, r0, ror r2
     14c:	0000db0b 	andeq	sp, r0, fp, lsl #22
     150:	68910200 	ldmvs	r1, {r9}
     154:	d4040800 	strle	r0, [r4], #-2048	; 0xfffff800
     158:	02000000 	andeq	r0, r0, #0
     15c:	00ee0702 	rsceq	r0, lr, r2, lsl #14
     160:	04080000 	streq	r0, [r8], #-0
     164:	00000025 	andeq	r0, r0, r5, lsr #32
     168:	00011100 	andeq	r1, r1, r0, lsl #2
     16c:	99000400 	stmdbls	r0, {sl}
     170:	04000000 	streq	r0, [r0], #-0
     174:	00005701 	andeq	r5, r0, r1, lsl #14
     178:	01060c00 	tsteq	r6, r0, lsl #24
     17c:	00000000 	andeq	r0, r0, r0
     180:	02ec0000 	rsceq	r0, ip, #0
     184:	03da8010 	bicseq	r8, sl, #16
     188:	01540000 	cmpeq	r4, r0
     18c:	23020000 	movwcs	r0, #8192	; 0x2000
     190:	01000001 	tsteq	r0, r1
     194:	1003fc44 	andne	pc, r3, r4, asr #24
     198:	0002ca80 	andeq	ip, r2, r0, lsl #21
     19c:	a39c0100 	orrsge	r0, ip, #0, 2
     1a0:	03000000 	movweq	r0, #0
     1a4:	01003178 	tsteq	r0, r8, ror r1
     1a8:	0000a344 	andeq	sl, r0, r4, asr #6
     1ac:	64910200 	ldrvs	r0, [r1], #512	; 0x200
     1b0:	00317903 	eorseq	r7, r1, r3, lsl #18
     1b4:	00a34401 	adceq	r4, r3, r1, lsl #8
     1b8:	91020000 	mrsls	r0, (UNDEF: 2)
     1bc:	32780360 	rsbscc	r0, r8, #96, 6	; 0x80000001
     1c0:	a3440100 	movtge	r0, #16640	; 0x4100
     1c4:	02000000 	andeq	r0, r0, #0
     1c8:	79035c91 	stmdbvc	r3, {r0, r4, r7, sl, fp, ip, lr}
     1cc:	44010032 	strmi	r0, [r1], #-50	; 0xffffffce
     1d0:	000000a3 	andeq	r0, r0, r3, lsr #1
     1d4:	04589102 	ldrbeq	r9, [r8], #-258	; 0xfffffefe
     1d8:	0000011d 	andeq	r0, r0, sp, lsl r1
     1dc:	00a34401 	adceq	r4, r3, r1, lsl #8
     1e0:	91020000 	mrsls	r0, (UNDEF: 2)
     1e4:	78640500 	stmdavc	r4!, {r8, sl}^
     1e8:	a3460100 	movtge	r0, #24832	; 0x6100
     1ec:	02000000 	andeq	r0, r0, #0
     1f0:	64057091 	strvs	r7, [r5], #-145	; 0xffffff6f
     1f4:	46010079 			; <UNDEFINED> instruction: 0x46010079
     1f8:	000000a3 	andeq	r0, r0, r3, lsr #1
     1fc:	056c9102 	strbeq	r9, [ip, #-258]!	; 0xfffffefe
     200:	46010065 	strmi	r0, [r1], -r5, rrx
     204:	000000a3 	andeq	r0, r0, r3, lsr #1
     208:	00749102 	rsbseq	r9, r4, r2, lsl #2
     20c:	69050406 	stmdbvs	r5, {r1, r2, sl}
     210:	0700746e 	streq	r7, [r0, -lr, ror #8]
     214:	00000111 	andeq	r0, r0, r1, lsl r1
     218:	02ec1d01 	rsceq	r1, ip, #1, 26	; 0x40
     21c:	01108010 	tsteq	r0, r0, lsl r0
     220:	9c010000 	stcls	0, cr0, [r1], {-0}
     224:	01007803 	tsteq	r0, r3, lsl #16
     228:	0000a31d 	andeq	sl, r0, sp, lsl r3
     22c:	64910200 	ldrvs	r0, [r1], #512	; 0x200
     230:	01007903 	tsteq	r0, r3, lsl #18
     234:	0000a31d 	andeq	sl, r0, sp, lsl r3
     238:	60910200 	addsvs	r0, r1, r0, lsl #4
     23c:	01007203 	tsteq	r0, r3, lsl #4
     240:	0000a31d 	andeq	sl, r0, sp, lsl r3
     244:	5c910200 	lfmpl	f0, 4, [r1], {0}
     248:	00011d04 	andeq	r1, r1, r4, lsl #26
     24c:	a31d0100 	tstge	sp, #0, 2
     250:	02000000 	andeq	r0, r0, #0
     254:	61055891 			; <UNDEFINED> instruction: 0x61055891
     258:	a31f0100 	tstge	pc, #0, 2
     25c:	02000000 	andeq	r0, r0, #0
     260:	62057491 	andvs	r7, r5, #-1862270976	; 0x91000000
     264:	a31f0100 	tstge	pc, #0, 2
     268:	02000000 	andeq	r0, r0, #0
     26c:	6e057091 	mcrvs	0, 0, r7, cr5, cr1, {4}
     270:	01006d75 	tsteq	r0, r5, ror sp
     274:	0000a31f 	andeq	sl, r0, pc, lsl r3
     278:	6c910200 	lfmvs	f0, 4, [r1], {0}
     27c:	01500000 	cmpeq	r0, r0
     280:	00040000 	andeq	r0, r4, r0
     284:	00000117 	andeq	r0, r0, r7, lsl r1
     288:	00570104 	subseq	r0, r7, r4, lsl #2
     28c:	6b0c0000 	blvs	300294 <_start-0x7fdffd6c>
     290:	00000001 	andeq	r0, r0, r1
     294:	c6000000 	strgt	r0, [r0], -r0
     298:	24801006 	strcs	r1, [r0], #6
     29c:	50000001 	andpl	r0, r0, r1
     2a0:	02000002 	andeq	r0, r0, #2
     2a4:	00f40704 	rscseq	r0, r4, r4, lsl #14
     2a8:	04030000 	streq	r0, [r3], #-0
     2ac:	746e6905 	strbtvc	r6, [lr], #-2309	; 0xfffff6fb
     2b0:	08010200 	stmdaeq	r1, {r9}
     2b4:	00000e9f 	muleq	r0, pc, lr	; <UNPREDICTABLE>
     2b8:	0000e604 	andeq	lr, r0, r4, lsl #12
     2bc:	25080100 	strcs	r0, [r8, #-256]	; 0xffffff00
     2c0:	05000000 	streq	r0, [r0, #-0]
     2c4:	100f3c03 	andne	r3, pc, r3, lsl #24
     2c8:	00d80480 	sbcseq	r0, r8, r0, lsl #9
     2cc:	09010000 	stmdbeq	r1, {}	; <UNPREDICTABLE>
     2d0:	0000002c 	andeq	r0, r0, ip, lsr #32
     2d4:	0f400305 	svceq	0x00400305
     2d8:	01048010 	tsteq	r4, r0, lsl r0
     2dc:	01000001 	tsteq	r0, r1
     2e0:	00002c09 	andeq	r2, r0, r9, lsl #24
     2e4:	44030500 	strmi	r0, [r3], #-1280	; 0xfffffb00
     2e8:	0580100f 	streq	r1, [r0, #15]
     2ec:	00707062 	rsbseq	r7, r0, r2, rrx
     2f0:	002c0901 	eoreq	r0, ip, r1, lsl #18
     2f4:	03050000 	movweq	r0, #20480	; 0x5000
     2f8:	80100f48 	andshi	r0, r0, r8, asr #30
     2fc:	00014c06 	andeq	r4, r1, r6, lsl #24
     300:	48380100 	ldmdami	r8!, {r8}
     304:	a2801007 	addge	r1, r0, #7
     308:	01000000 	mrseq	r0, (UNDEF: 0)
     30c:	0000e39c 	muleq	r0, ip, r3
     310:	00780700 	rsbseq	r0, r8, r0, lsl #14
     314:	002c3801 	eoreq	r3, ip, r1, lsl #16
     318:	91020000 	mrsls	r0, (UNDEF: 2)
     31c:	00790764 	rsbseq	r0, r9, r4, ror #14
     320:	002c3801 	eoreq	r3, ip, r1, lsl #16
     324:	91020000 	mrsls	r0, (UNDEF: 2)
     328:	011d0860 	tsteq	sp, r0, ror #16
     32c:	38010000 	stmdacc	r1, {}	; <UNPREDICTABLE>
     330:	00000025 	andeq	r0, r0, r5, lsr #32
     334:	055c9102 	ldrbeq	r9, [ip, #-258]	; 0xfffffefe
     338:	01007770 	tsteq	r0, r0, ror r7
     33c:	0000e33a 	andeq	lr, r0, sl, lsr r3
     340:	70910200 	addsvc	r0, r1, r0, lsl #4
     344:	77647005 	strbvc	r7, [r4, -r5]!
     348:	f03b0100 			; <UNDEFINED> instruction: 0xf03b0100
     34c:	02000000 	andeq	r0, r0, #0
     350:	2d046c91 	stccs	12, cr6, [r4, #-580]	; 0xfffffdbc
     354:	01000001 	tsteq	r0, r1
     358:	0000253d 	andeq	r2, r0, sp, lsr r5
     35c:	74910200 	ldrvc	r0, [r1], #512	; 0x200
     360:	e9040900 	stmdb	r4, {r8, fp}
     364:	02000000 	andeq	r0, r0, #0
     368:	00ee0702 	rsceq	r0, lr, r2, lsl #14
     36c:	04090000 	streq	r0, [r9], #-0
     370:	00000025 	andeq	r0, r0, r5, lsr #32
     374:	0001380a 	andeq	r3, r1, sl, lsl #16
     378:	e91b0100 	ldmdb	fp, {r8}
     37c:	f2000000 	vhadd.s8	d0, d0, d0
     380:	56801006 	strpl	r1, [r0], r6
     384:	01000000 	mrseq	r0, (UNDEF: 0)
     388:	0001429c 	muleq	r1, ip, r2
     38c:	67720700 	ldrbvs	r0, [r2, -r0, lsl #14]!
     390:	1b010062 	blne	40520 <_start-0x800bfae0>
     394:	00000025 	andeq	r0, r0, r5, lsr #32
     398:	05649102 	strbeq	r9, [r4, #-258]!	; 0xfffffefe
     39c:	1d010072 	stcne	0, cr0, [r1, #-456]	; 0xfffffe38
     3a0:	0000002c 	andeq	r0, r0, ip, lsr #32
     3a4:	05749102 	ldrbeq	r9, [r4, #-258]!	; 0xfffffefe
     3a8:	1e010067 	cdpne	0, 0, cr0, cr1, cr7, {3}
     3ac:	0000002c 	andeq	r0, r0, ip, lsr #32
     3b0:	05709102 	ldrbeq	r9, [r0, #-258]!	; 0xfffffefe
     3b4:	1f010062 	svcne	0x00010062
     3b8:	0000002c 	andeq	r0, r0, ip, lsr #32
     3bc:	006c9102 	rsbeq	r9, ip, r2, lsl #2
     3c0:	0001590b 	andeq	r5, r1, fp, lsl #18
     3c4:	c6150100 	ldrgt	r0, [r5], -r0, lsl #2
     3c8:	2c801006 	stccs	0, cr1, [r0], {6}
     3cc:	01000000 	mrseq	r0, (UNDEF: 0)
     3d0:	0317009c 	tsteq	r7, #156	; 0x9c
     3d4:	00040000 	andeq	r0, r4, r0
     3d8:	000001d4 	ldrdeq	r0, [r0], -r4
     3dc:	00570104 	subseq	r0, r7, r4, lsl #2
     3e0:	c60c0000 	strgt	r0, [ip], -r0
     3e4:	00000001 	andeq	r0, r0, r1
     3e8:	ea000000 	b	3f0 <_start-0x800ffc10>
     3ec:	86801007 	strhi	r1, [r0], r7
     3f0:	ac000001 	stcge	0, cr0, [r0], {1}
     3f4:	02000002 	andeq	r0, r0, #2
     3f8:	00f40704 	rscseq	r0, r4, r4, lsl #14
     3fc:	a7030000 	strge	r0, [r3, -r0]
     400:	10000001 	andne	r0, r0, r1
     404:	00680c02 	rsbeq	r0, r8, r2, lsl #24
     408:	64040000 	strvs	r0, [r4], #-0
     40c:	0d020065 	stceq	0, cr0, [r2, #-404]	; 0xfffffe6c
     410:	00000068 	andeq	r0, r0, r8, rrx
     414:	02190500 	andseq	r0, r9, #0, 10
     418:	0e020000 	cdpeq	0, 0, cr0, cr2, cr0, {0}
     41c:	00000068 	andeq	r0, r0, r8, rrx
     420:	01fb0504 	mvnseq	r0, r4, lsl #10
     424:	0f020000 	svceq	0x00020000
     428:	00000068 	andeq	r0, r0, r8, rrx
     42c:	02680508 	rsbeq	r0, r8, #8, 10	; 0x2000000
     430:	10020000 	andne	r0, r2, r0
     434:	00000068 	andeq	r0, r0, r8, rrx
     438:	0406000c 	streq	r0, [r6], #-12
     43c:	746e6905 	strbtvc	r6, [lr], #-2309	; 0xfffff6fb
     440:	01a70700 			; <UNDEFINED> instruction: 0x01a70700
     444:	11020000 	mrsne	r0, (UNDEF: 2)
     448:	0000002c 	andeq	r0, r0, ip, lsr #32
     44c:	00027c03 	andeq	r7, r2, r3, lsl #24
     450:	13021c00 	movwne	r1, #11264	; 0x2c00
     454:	000000db 	ldrdeq	r0, [r0], -fp
     458:	70767404 	rsbsvc	r7, r6, r4, lsl #8
     45c:	68150200 	ldmdavs	r5, {r9}
     460:	00000000 	andeq	r0, r0, r0
     464:	62767404 	rsbsvs	r7, r6, #4, 8	; 0x4000000
     468:	68160200 	ldmdavs	r6, {r9}
     46c:	04000000 	streq	r0, [r0], #-0
     470:	66767404 	ldrbtvs	r7, [r6], -r4, lsl #8
     474:	68170200 	ldmdavs	r7, {r9}
     478:	08000000 	stmdaeq	r0, {}	; <UNPREDICTABLE>
     47c:	70687404 	rsbvc	r7, r8, r4, lsl #8
     480:	681a0200 	ldmdavs	sl, {r9}
     484:	0c000000 	stceq	0, cr0, [r0], {-0}
     488:	62687404 	rsbvs	r7, r8, #4, 8	; 0x4000000
     48c:	681b0200 	ldmdavs	fp, {r9}
     490:	10000000 	andne	r0, r0, r0
     494:	66687404 	strbtvs	r7, [r8], -r4, lsl #8
     498:	681c0200 	ldmdavs	ip, {r9}
     49c:	14000000 	strne	r0, [r0], #-0
     4a0:	00021905 	andeq	r1, r2, r5, lsl #18
     4a4:	681e0200 	ldmdavs	lr, {r9}
     4a8:	18000000 	stmdane	r0, {}	; <UNPREDICTABLE>
     4ac:	027c0700 	rsbseq	r0, ip, #0, 14
     4b0:	1f020000 	svcne	0x00020000
     4b4:	0000007a 	andeq	r0, r0, sl, ror r0
     4b8:	00022003 	andeq	r2, r2, r3
     4bc:	22024000 	andcs	r4, r2, #0
     4c0:	00000147 	andeq	r0, r0, r7, asr #2
     4c4:	00026e05 	andeq	r6, r2, r5, lsl #28
     4c8:	47240200 	strmi	r0, [r4, -r0, lsl #4]!
     4cc:	00000001 	andeq	r0, r0, r1
     4d0:	00027305 	andeq	r7, r2, r5, lsl #6
     4d4:	6f270200 	svcvs	0x00270200
     4d8:	04000000 	streq	r0, [r0], #-0
     4dc:	0001b505 	andeq	fp, r1, r5, lsl #10
     4e0:	db2a0200 	blle	a80ce8 <_start-0x7f67f318>
     4e4:	14000000 	strne	r0, [r0], #-0
     4e8:	0000d805 	andeq	sp, r0, r5, lsl #16
     4ec:	682d0200 	stmdavs	sp!, {r9}
     4f0:	30000000 	andcc	r0, r0, r0
     4f4:	00010105 	andeq	r0, r1, r5, lsl #2
     4f8:	682e0200 	stmdavs	lr!, {r9}
     4fc:	34000000 	strcc	r0, [r0], #-0
     500:	70706204 	rsbsvc	r6, r0, r4, lsl #4
     504:	682f0200 	stmdavs	pc!, {r9}	; <UNPREDICTABLE>
     508:	38000000 	stmdacc	r0, {}	; <UNPREDICTABLE>
     50c:	0000e605 	andeq	lr, r0, r5, lsl #12
     510:	25320200 	ldrcs	r0, [r2, #-512]!	; 0xfffffe00
     514:	3c000000 	stccc	0, cr0, [r0], {-0}
     518:	4d040800 	stcmi	8, cr0, [r4, #-0]
     51c:	02000001 	andeq	r0, r0, #1
     520:	0e9f0801 	cdpeq	8, 9, cr0, cr15, cr1, {0}
     524:	4d090000 	stcmi	0, cr0, [r9, #-0]
     528:	07000001 	streq	r0, [r0, -r1]
     52c:	0000021e 	andeq	r0, r0, lr, lsl r2
     530:	01643402 	cmneq	r4, r2, lsl #8
     534:	04080000 	streq	r0, [r8], #-0
     538:	000000e6 	andeq	r0, r0, r6, ror #1
     53c:	00043203 	andeq	r3, r4, r3, lsl #4
     540:	07031000 	streq	r1, [r3, -r0]
     544:	000001a7 	andeq	r0, r0, r7, lsr #3
     548:	00026e05 	andeq	r6, r2, r5, lsl #28
     54c:	47080300 	strmi	r0, [r8, -r0, lsl #6]
     550:	00000001 	andeq	r0, r0, r1
     554:	0002a805 	andeq	sl, r2, r5, lsl #16
     558:	b2090300 	andlt	r0, r9, #0, 6
     55c:	04000001 	streq	r0, [r0], #-1
     560:	0002c905 	andeq	ip, r2, r5, lsl #18
     564:	b90a0300 	stmdblt	sl, {r8, r9}
     568:	08000001 	stmdaeq	r0, {r0}
     56c:	0002b105 	andeq	fp, r2, r5, lsl #2
     570:	b90b0300 	stmdblt	fp, {r8, r9}
     574:	0c000001 	stceq	0, cr0, [r0], {1}
     578:	01b20a00 			; <UNDEFINED> instruction: 0x01b20a00
     57c:	590b0000 	stmdbpl	fp, {}	; <UNPREDICTABLE>
     580:	00000001 	andeq	r0, r0, r1
     584:	01a70408 			; <UNDEFINED> instruction: 0x01a70408
     588:	080c0000 	stmdaeq	ip, {}	; <UNPREDICTABLE>
     58c:	0001b804 	andeq	fp, r1, r4, lsl #16
     590:	01790700 	cmneq	r9, r0, lsl #14
     594:	0c030000 	stceq	0, cr0, [r3], {-0}
     598:	000001ca 	andeq	r0, r0, sl, asr #3
     59c:	016a0408 	cmneq	sl, r8, lsl #8
     5a0:	bf0d0000 	svclt	0x000d0000
     5a4:	e0000001 	and	r0, r0, r1
     5a8:	0e000001 	cdpeq	0, 0, cr0, cr0, cr1, {0}
     5ac:	000001e0 	andeq	r0, r0, r0, ror #3
     5b0:	04020009 	streq	r0, [r2], #-9
     5b4:	00024907 	andeq	r4, r2, r7, lsl #18
     5b8:	022b0f00 	eoreq	r0, fp, #0, 30
     5bc:	07010000 	streq	r0, [r1, -r0]
     5c0:	000001d0 	ldrdeq	r0, [r0], -r0	; <UNPREDICTABLE>
     5c4:	0f4c0305 	svceq	0x004c0305
     5c8:	df0f8010 	svcle	0x000f8010
     5cc:	01000001 	tsteq	r0, r1
     5d0:	0001bf08 	andeq	fp, r1, r8, lsl #30
     5d4:	74030500 	strvc	r0, [r3], #-1280	; 0xfffffb00
     5d8:	1080100f 	addne	r1, r0, pc
     5dc:	0000018a 	andeq	r0, r0, sl, lsl #3
     5e0:	09649201 	stmdbeq	r4!, {r0, r9, ip, pc}^
     5e4:	000c8010 	andeq	r8, ip, r0, lsl r0
     5e8:	9c010000 	stcls	0, cr0, [r1], {-0}
     5ec:	000a2c10 	andeq	r2, sl, r0, lsl ip
     5f0:	40800100 	addmi	r0, r0, r0, lsl #2
     5f4:	24801009 	strcs	r1, [r0], #9
     5f8:	01000000 	mrseq	r0, (UNDEF: 0)
     5fc:	0a6e109c 	beq	1b84874 <_start-0x7e57b78c>
     600:	6e010000 	cdpvs	0, 0, cr0, cr1, cr0, {0}
     604:	8010091c 	andshi	r0, r0, ip, lsl r9
     608:	00000024 	andeq	r0, r0, r4, lsr #32
     60c:	38119c01 	ldmdacc	r1, {r0, sl, fp, ip, pc}
     610:	01000010 	tsteq	r0, r0, lsl r0
     614:	0000685a 	andeq	r6, r0, sl, asr r8
     618:	1008e600 	andne	lr, r8, r0, lsl #12
     61c:	00003680 	andeq	r3, r0, r0, lsl #13
     620:	649c0100 	ldrvs	r0, [ip], #256	; 0x100
     624:	12000002 	andne	r0, r0, #2
     628:	0000019c 	muleq	r0, ip, r1
     62c:	01595a01 	cmpeq	r9, r1, lsl #20
     630:	91020000 	mrsls	r0, (UNDEF: 2)
     634:	52110074 	andspl	r0, r1, #116	; 0x74
     638:	01000002 	tsteq	r0, r2
     63c:	00006842 	andeq	r6, r0, r2, asr #16
     640:	10087400 	andne	r7, r8, r0, lsl #8
     644:	00007280 	andeq	r7, r0, r0, lsl #5
     648:	989c0100 	ldmls	ip, {r8}
     64c:	12000002 	andne	r0, r0, #2
     650:	0000026e 	andeq	r0, r0, lr, ror #4
     654:	01474201 	cmpeq	r7, r1, lsl #4
     658:	91020000 	mrsls	r0, (UNDEF: 2)
     65c:	0069136c 	rsbeq	r1, r9, ip, ror #6
     660:	00684401 	rsbeq	r4, r8, r1, lsl #8
     664:	91020000 	mrsls	r0, (UNDEF: 2)
     668:	01140074 	tsteq	r4, r4, ror r0
     66c:	01000002 	tsteq	r0, r2
     670:	0000682a 	andeq	r6, r0, sl, lsr #16
     674:	10082400 	andne	r2, r8, r0, lsl #8
     678:	00005080 	andeq	r5, r0, r0, lsl #1
     67c:	cc9c0100 	ldfgts	f0, [ip], {0}
     680:	12000002 	andne	r0, r0, #2
     684:	000001be 			; <UNDEFINED> instruction: 0x000001be
     688:	01bf2a01 			; <UNDEFINED> instruction: 0x01bf2a01
     68c:	91020000 	mrsls	r0, (UNDEF: 2)
     690:	0069136c 	rsbeq	r1, r9, ip, ror #6
     694:	00682c01 	rsbeq	r2, r8, r1, lsl #24
     698:	91020000 	mrsls	r0, (UNDEF: 2)
     69c:	42140074 	andsmi	r0, r4, #116	; 0x74
     6a0:	01000002 	tsteq	r0, r2
     6a4:	00006814 	andeq	r6, r0, r4, lsl r8
     6a8:	1007ea00 	andne	lr, r7, r0, lsl #20
     6ac:	00003a80 	andeq	r3, r0, r0, lsl #21
     6b0:	0d9c0100 	ldfeqs	f0, [ip]
     6b4:	15000003 	strne	r0, [r0, #-3]
     6b8:	01007363 	tsteq	r0, r3, ror #6
     6bc:	00030d14 	andeq	r0, r3, r4, lsl sp
     6c0:	74910200 	ldrvc	r0, [r1], #512	; 0x200
     6c4:	00746315 	rsbseq	r6, r4, r5, lsl r3
     6c8:	030d1401 	movweq	r1, #54273	; 0xd401
     6cc:	91020000 	mrsls	r0, (UNDEF: 2)
     6d0:	028a0f70 	addeq	r0, sl, #112, 30	; 0x1c0
     6d4:	16010000 	strne	r0, [r1], -r0
     6d8:	00000313 	andeq	r0, r0, r3, lsl r3
     6dc:	08005401 	stmdaeq	r0, {r0, sl, ip, lr}
     6e0:	00015404 	andeq	r5, r1, r4, lsl #8
     6e4:	06010200 	streq	r0, [r1], -r0, lsl #4
     6e8:	00000e98 	muleq	r0, r8, lr
     6ec:	0002b300 	andeq	fp, r2, r0, lsl #6
     6f0:	fd000400 	stc2	4, cr0, [r0, #-0]
     6f4:	04000002 	streq	r0, [r0], #-2
     6f8:	00005701 	andeq	r5, r0, r1, lsl #14
     6fc:	02900c00 	addseq	r0, r0, #0, 24
     700:	00000000 	andeq	r0, r0, r0
     704:	09700000 	ldmdbeq	r0!, {}^	; <UNPREDICTABLE>
     708:	018c8010 	orreq	r8, ip, r0, lsl r0
     70c:	03760000 	cmneq	r6, #0
     710:	04020000 	streq	r0, [r2], #-0
     714:	0000f407 	andeq	pc, r0, r7, lsl #8
     718:	01a70300 			; <UNDEFINED> instruction: 0x01a70300
     71c:	02100000 	andseq	r0, r0, #0
     720:	0000680c 	andeq	r6, r0, ip, lsl #16
     724:	65640400 	strbvs	r0, [r4, #-1024]!	; 0xfffffc00
     728:	680d0200 	stmdavs	sp, {r9}
     72c:	00000000 	andeq	r0, r0, r0
     730:	00021905 	andeq	r1, r2, r5, lsl #18
     734:	680e0200 	stmdavs	lr, {r9}
     738:	04000000 	streq	r0, [r0], #-0
     73c:	0001fb05 	andeq	pc, r1, r5, lsl #22
     740:	680f0200 	stmdavs	pc, {r9}	; <UNPREDICTABLE>
     744:	08000000 	stmdaeq	r0, {}	; <UNPREDICTABLE>
     748:	00026805 	andeq	r6, r2, r5, lsl #16
     74c:	68100200 	ldmdavs	r0, {r9}
     750:	0c000000 	stceq	0, cr0, [r0], {-0}
     754:	05040600 	streq	r0, [r4, #-1536]	; 0xfffffa00
     758:	00746e69 	rsbseq	r6, r4, r9, ror #28
     75c:	00006807 	andeq	r6, r0, r7, lsl #16
     760:	01a70800 			; <UNDEFINED> instruction: 0x01a70800
     764:	11020000 	mrsne	r0, (UNDEF: 2)
     768:	0000002c 	andeq	r0, r0, ip, lsr #32
     76c:	00027c03 	andeq	r7, r2, r3, lsl #24
     770:	13021c00 	movwne	r1, #11264	; 0x2c00
     774:	000000e0 	andeq	r0, r0, r0, ror #1
     778:	70767404 	rsbsvc	r7, r6, r4, lsl #8
     77c:	68150200 	ldmdavs	r5, {r9}
     780:	00000000 	andeq	r0, r0, r0
     784:	62767404 	rsbsvs	r7, r6, #4, 8	; 0x4000000
     788:	68160200 	ldmdavs	r6, {r9}
     78c:	04000000 	streq	r0, [r0], #-0
     790:	66767404 	ldrbtvs	r7, [r6], -r4, lsl #8
     794:	68170200 	ldmdavs	r7, {r9}
     798:	08000000 	stmdaeq	r0, {}	; <UNPREDICTABLE>
     79c:	70687404 	rsbvc	r7, r8, r4, lsl #8
     7a0:	681a0200 	ldmdavs	sl, {r9}
     7a4:	0c000000 	stceq	0, cr0, [r0], {-0}
     7a8:	62687404 	rsbvs	r7, r8, #4, 8	; 0x4000000
     7ac:	681b0200 	ldmdavs	fp, {r9}
     7b0:	10000000 	andne	r0, r0, r0
     7b4:	66687404 	strbtvs	r7, [r8], -r4, lsl #8
     7b8:	681c0200 	ldmdavs	ip, {r9}
     7bc:	14000000 	strne	r0, [r0], #-0
     7c0:	00021905 	andeq	r1, r2, r5, lsl #18
     7c4:	681e0200 	ldmdavs	lr, {r9}
     7c8:	18000000 	stmdane	r0, {}	; <UNPREDICTABLE>
     7cc:	027c0800 	rsbseq	r0, ip, #0, 16
     7d0:	1f020000 	svcne	0x00020000
     7d4:	0000007f 	andeq	r0, r0, pc, ror r0
     7d8:	00022003 	andeq	r2, r2, r3
     7dc:	22024000 	andcs	r4, r2, #0
     7e0:	0000014c 	andeq	r0, r0, ip, asr #2
     7e4:	00026e05 	andeq	r6, r2, r5, lsl #28
     7e8:	4c240200 	sfmmi	f0, 4, [r4], #-0
     7ec:	00000001 	andeq	r0, r0, r1
     7f0:	00027305 	andeq	r7, r2, r5, lsl #6
     7f4:	74270200 	strtvc	r0, [r7], #-512	; 0xfffffe00
     7f8:	04000000 	streq	r0, [r0], #-0
     7fc:	0001b505 	andeq	fp, r1, r5, lsl #10
     800:	e02a0200 	eor	r0, sl, r0, lsl #4
     804:	14000000 	strne	r0, [r0], #-0
     808:	0000d805 	andeq	sp, r0, r5, lsl #16
     80c:	682d0200 	stmdavs	sp!, {r9}
     810:	30000000 	andcc	r0, r0, r0
     814:	00010105 	andeq	r0, r1, r5, lsl #2
     818:	682e0200 	stmdavs	lr!, {r9}
     81c:	34000000 	strcc	r0, [r0], #-0
     820:	70706204 	rsbsvc	r6, r0, r4, lsl #4
     824:	682f0200 	stmdavs	pc!, {r9}	; <UNPREDICTABLE>
     828:	38000000 	stmdacc	r0, {}	; <UNPREDICTABLE>
     82c:	0000e605 	andeq	lr, r0, r5, lsl #12
     830:	25320200 	ldrcs	r0, [r2, #-512]!	; 0xfffffe00
     834:	3c000000 	stccc	0, cr0, [r0], {-0}
     838:	52040900 	andpl	r0, r4, #0, 18
     83c:	02000001 	andeq	r0, r0, #1
     840:	0e9f0801 	cdpeq	8, 9, cr0, cr15, cr1, {0}
     844:	1e080000 	cdpne	0, 0, cr0, cr8, cr0, {0}
     848:	02000002 	andeq	r0, r0, #2
     84c:	00016434 	andeq	r6, r1, r4, lsr r4
     850:	eb040900 	bl	102c58 <_start-0x7fffd3a8>
     854:	0a000000 	beq	85c <_start-0x800ff7a4>
     858:	00000159 	andeq	r0, r0, r9, asr r1
     85c:	0000017a 	andeq	r0, r0, sl, ror r1
     860:	00017a0b 	andeq	r7, r1, fp, lsl #20
     864:	02000400 	andeq	r0, r0, #0, 8
     868:	02490704 	subeq	r0, r9, #4, 14	; 0x100000
     86c:	b90c0000 	stmdblt	ip, {}	; <UNPREDICTABLE>
     870:	01000002 	tsteq	r0, r2
     874:	00016a07 	andeq	r6, r1, r7, lsl #20
     878:	78030500 	stmdavc	r3, {r8, sl}
     87c:	0c80100f 	stceq	0, cr1, [r0], {15}
     880:	000002db 	ldrdeq	r0, [r0], -fp
     884:	01590801 	cmpeq	r9, r1, lsl #16
     888:	03050000 	movweq	r0, #20480	; 0x5000
     88c:	80100f8c 	andshi	r0, r0, ip, lsl #31
     890:	0002a40d 	andeq	sl, r2, sp, lsl #8
     894:	c47b0100 	ldrbtgt	r0, [fp], #-256	; 0xffffff00
     898:	3880100a 	stmcc	r0, {r1, r3, ip}
     89c:	01000000 	mrseq	r0, (UNDEF: 0)
     8a0:	02ad0d9c 	adceq	r0, sp, #156, 26	; 0x2700
     8a4:	6c010000 	stcvs	0, cr0, [r1], {-0}
     8a8:	80100ab8 			; <UNDEFINED> instruction: 0x80100ab8
     8ac:	0000000c 	andeq	r0, r0, ip
     8b0:	c50d9c01 	strgt	r9, [sp, #-3073]	; 0xfffff3ff
     8b4:	01000002 	tsteq	r0, r2
     8b8:	100aac5d 	andne	sl, sl, sp, asr ip
     8bc:	00000c80 	andeq	r0, r0, r0, lsl #25
     8c0:	0e9c0100 	fmleqe	f0, f4, f0
     8c4:	0000015c 	andeq	r0, r0, ip, asr r1
     8c8:	0a524a01 	beq	14930d4 <_start-0x7ec6cf2c>
     8cc:	005a8010 	subseq	r8, sl, r0, lsl r0
     8d0:	9c010000 	stcls	0, cr0, [r1], {-0}
     8d4:	00000224 	andeq	r0, r0, r4, lsr #4
     8d8:	0000e60f 	andeq	lr, r0, pc, lsl #12
     8dc:	244a0100 	strbcs	r0, [sl], #-256	; 0xffffff00
     8e0:	02000002 	andeq	r0, r0, #2
     8e4:	d80f7491 	stmdale	pc, {r0, r4, r7, sl, ip, sp, lr}	; <UNPREDICTABLE>
     8e8:	01000000 	mrseq	r0, (UNDEF: 0)
     8ec:	00022a4a 	andeq	r2, r2, sl, asr #20
     8f0:	70910200 	addsvc	r0, r1, r0, lsl #4
     8f4:	0001010f 	andeq	r0, r1, pc, lsl #2
     8f8:	2a4a0100 	bcs	1280d00 <_start-0x7ee7f300>
     8fc:	02000002 	andeq	r0, r0, #2
     900:	62106c91 	andsvs	r6, r0, #37120	; 0x9100
     904:	01007070 	tsteq	r0, r0, ror r0
     908:	00022a4a 	andeq	r2, r2, sl, asr #20
     90c:	68910200 	ldmvs	r1, {r9}
     910:	25040900 	strcs	r0, [r4, #-2304]	; 0xfffff700
     914:	09000000 	stmdbeq	r0, {}	; <UNPREDICTABLE>
     918:	00006804 	andeq	r6, r0, r4, lsl #16
     91c:	02d01100 	sbcseq	r1, r0, #0, 2
     920:	32010000 	andcc	r0, r1, #0
     924:	00000068 	andeq	r0, r0, r8, rrx
     928:	801009e0 	andshi	r0, r0, r0, ror #19
     92c:	00000072 	andeq	r0, r0, r2, ror r0
     930:	02649c01 	rsbeq	r9, r4, #256	; 0x100
     934:	6e0f0000 	cdpvs	0, 0, cr0, cr15, cr0, {0}
     938:	01000002 	tsteq	r0, r2
     93c:	00014c32 	andeq	r4, r1, r2, lsr ip
     940:	6c910200 	lfmvs	f0, 4, [r1], {0}
     944:	01006912 	tsteq	r0, r2, lsl r9
     948:	00006834 	andeq	r6, r0, r4, lsr r8
     94c:	74910200 	ldrvc	r0, [r1], #512	; 0x200
     950:	02ec1300 	rsceq	r1, ip, #0, 6
     954:	24010000 	strcs	r0, [r1], #-0
     958:	00000068 	andeq	r0, r0, r8, rrx
     95c:	80100990 	mulshi	r0, r0, r9
     960:	00000050 	andeq	r0, r0, r0, asr r0
     964:	02989c01 	addseq	r9, r8, #256	; 0x100
     968:	f90f0000 			; <UNDEFINED> instruction: 0xf90f0000
     96c:	01000002 	tsteq	r0, r2
     970:	00015924 	andeq	r5, r1, r4, lsr #18
     974:	6c910200 	lfmvs	f0, 4, [r1], {0}
     978:	01006912 	tsteq	r0, r2, lsl r9
     97c:	00006826 	andeq	r6, r0, r6, lsr #16
     980:	74910200 	ldrvc	r0, [r1], #512	; 0x200
     984:	029e1400 	addseq	r1, lr, #0, 8
     988:	14010000 	strne	r0, [r1], #-0
     98c:	80100970 	andshi	r0, r0, r0, ror r9
     990:	00000020 	andeq	r0, r0, r0, lsr #32
     994:	64109c01 	ldrvs	r9, [r0], #-3073	; 0xfffff3ff
     998:	6f140100 	svcvs	0x00140100
     99c:	02000000 	andeq	r0, r0, #0
     9a0:	00007491 	muleq	r0, r1, r4
     9a4:	00000197 	muleq	r0, r7, r1
     9a8:	04410004 	strbeq	r0, [r1], #-4
     9ac:	01040000 	mrseq	r0, (UNDEF: 4)
     9b0:	00000057 	andeq	r0, r0, r7, asr r0
     9b4:	0003270c 	andeq	r2, r3, ip, lsl #14
     9b8:	00000000 	andeq	r0, r0, r0
     9bc:	100afc00 	andne	pc, sl, r0, lsl #24
     9c0:	00001480 	andeq	r1, r0, r0, lsl #9
     9c4:	00041700 	andeq	r1, r4, r0, lsl #14
     9c8:	3e040200 	cdpcc	2, 0, cr0, cr4, cr0, {0}
     9cc:	02000000 	andeq	r0, r0, #0
     9d0:	00003e04 	andeq	r3, r0, r4, lsl #28
     9d4:	03200300 	nopeq	{0}	; <UNPREDICTABLE>
     9d8:	03000000 	movweq	r0, #0
     9dc:	0000030a 	andeq	r0, r0, sl, lsl #6
     9e0:	04040001 	streq	r0, [r4], #-1
     9e4:	0000f407 	andeq	pc, r0, r7, lsl #8
     9e8:	01a70500 			; <UNDEFINED> instruction: 0x01a70500
     9ec:	02100000 	andseq	r0, r0, #0
     9f0:	0000810c 	andeq	r8, r0, ip, lsl #2
     9f4:	65640600 	strbvs	r0, [r4, #-1536]!	; 0xfffffa00
     9f8:	810d0200 	mrshi	r0, SP_fiq
     9fc:	00000000 	andeq	r0, r0, r0
     a00:	00021907 	andeq	r1, r2, r7, lsl #18
     a04:	810e0200 	mrshi	r0, LR_fiq
     a08:	04000000 	streq	r0, [r0], #-0
     a0c:	0001fb07 	andeq	pc, r1, r7, lsl #22
     a10:	810f0200 	mrshi	r0, (UNDEF: 47)
     a14:	08000000 	stmdaeq	r0, {}	; <UNPREDICTABLE>
     a18:	00026807 	andeq	r6, r2, r7, lsl #16
     a1c:	81100200 	tsthi	r0, r0, lsl #4
     a20:	0c000000 	stceq	0, cr0, [r0], {-0}
     a24:	05040800 	streq	r0, [r4, #-2048]	; 0xfffff800
     a28:	00746e69 	rsbseq	r6, r4, r9, ror #28
     a2c:	0001a709 	andeq	sl, r1, r9, lsl #14
     a30:	45110200 	ldrmi	r0, [r1, #-512]	; 0xfffffe00
     a34:	05000000 	streq	r0, [r0, #-0]
     a38:	0000027c 	andeq	r0, r0, ip, ror r2
     a3c:	f413021c 			; <UNDEFINED> instruction: 0xf413021c
     a40:	06000000 	streq	r0, [r0], -r0
     a44:	00707674 	rsbseq	r7, r0, r4, ror r6
     a48:	00811502 	addeq	r1, r1, r2, lsl #10
     a4c:	06000000 	streq	r0, [r0], -r0
     a50:	00627674 	rsbeq	r7, r2, r4, ror r6
     a54:	00811602 	addeq	r1, r1, r2, lsl #12
     a58:	06040000 	streq	r0, [r4], -r0
     a5c:	00667674 	rsbeq	r7, r6, r4, ror r6
     a60:	00811702 	addeq	r1, r1, r2, lsl #14
     a64:	06080000 	streq	r0, [r8], -r0
     a68:	00706874 	rsbseq	r6, r0, r4, ror r8
     a6c:	00811a02 	addeq	r1, r1, r2, lsl #20
     a70:	060c0000 	streq	r0, [ip], -r0
     a74:	00626874 	rsbeq	r6, r2, r4, ror r8
     a78:	00811b02 	addeq	r1, r1, r2, lsl #22
     a7c:	06100000 	ldreq	r0, [r0], -r0
     a80:	00666874 	rsbeq	r6, r6, r4, ror r8
     a84:	00811c02 	addeq	r1, r1, r2, lsl #24
     a88:	07140000 	ldreq	r0, [r4, -r0]
     a8c:	00000219 	andeq	r0, r0, r9, lsl r2
     a90:	00811e02 	addeq	r1, r1, r2, lsl #28
     a94:	00180000 	andseq	r0, r8, r0
     a98:	00027c09 	andeq	r7, r2, r9, lsl #24
     a9c:	931f0200 	tstls	pc, #0, 4
     aa0:	05000000 	streq	r0, [r0, #-0]
     aa4:	00000220 	andeq	r0, r0, r0, lsr #4
     aa8:	60220240 	eorvs	r0, r2, r0, asr #4
     aac:	07000001 	streq	r0, [r0, -r1]
     ab0:	0000026e 	andeq	r0, r0, lr, ror #4
     ab4:	01602402 	cmneq	r0, r2, lsl #8
     ab8:	07000000 	streq	r0, [r0, -r0]
     abc:	00000273 	andeq	r0, r0, r3, ror r2
     ac0:	00882702 	addeq	r2, r8, r2, lsl #14
     ac4:	07040000 	streq	r0, [r4, -r0]
     ac8:	000001b5 			; <UNDEFINED> instruction: 0x000001b5
     acc:	00f42a02 	rscseq	r2, r4, r2, lsl #20
     ad0:	07140000 	ldreq	r0, [r4, -r0]
     ad4:	000000d8 	ldrdeq	r0, [r0], -r8
     ad8:	00812d02 	addeq	r2, r1, r2, lsl #26
     adc:	07300000 	ldreq	r0, [r0, -r0]!
     ae0:	00000101 	andeq	r0, r0, r1, lsl #2
     ae4:	00812e02 	addeq	r2, r1, r2, lsl #28
     ae8:	06340000 	ldrteq	r0, [r4], -r0
     aec:	00707062 	rsbseq	r7, r0, r2, rrx
     af0:	00812f02 	addeq	r2, r1, r2, lsl #30
     af4:	07380000 	ldreq	r0, [r8, -r0]!
     af8:	000000e6 	andeq	r0, r0, r6, ror #1
     afc:	003e3202 	eorseq	r3, lr, r2, lsl #4
     b00:	003c0000 	eorseq	r0, ip, r0
     b04:	0166040a 	cmneq	r6, sl, lsl #8
     b08:	01040000 	mrseq	r0, (UNDEF: 4)
     b0c:	000e9f08 	andeq	r9, lr, r8, lsl #30
     b10:	02200900 	eoreq	r0, r0, #0, 18
     b14:	34020000 	strcc	r0, [r2], #-0
     b18:	000000ff 	strdeq	r0, [r0], -pc	; <UNPREDICTABLE>
     b1c:	0003110b 	andeq	r1, r3, fp, lsl #2
     b20:	6d060100 	stfvss	f0, [r6, #-0]
     b24:	05000001 	streq	r0, [r0, #-1]
     b28:	100ee003 	andne	lr, lr, r3
     b2c:	02fe0c80 	rscseq	r0, lr, #128, 24	; 0x8000
     b30:	2b010000 	blcs	40b38 <_start-0x800bf4c8>
     b34:	80100afc 			; <UNDEFINED> instruction: 0x80100afc
     b38:	00000014 	andeq	r0, r0, r4, lsl r0
     b3c:	91009c01 	tstls	r0, r1, lsl #24
     b40:	0400000e 	streq	r0, [r0], #-14
     b44:	0004ef00 	andeq	lr, r4, r0, lsl #30
     b48:	57010400 	strpl	r0, [r1, -r0, lsl #8]
     b4c:	0c000000 	stceq	0, cr0, [r0], {-0}
     b50:	0000083d 	andeq	r0, r0, sp, lsr r8
     b54:	00000000 	andeq	r0, r0, r0
     b58:	80100b10 	andshi	r0, r0, r0, lsl fp
     b5c:	000003ae 	andeq	r0, r0, lr, lsr #7
     b60:	00000463 	andeq	r0, r0, r3, ror #8
     b64:	17027402 	strne	r7, [r2, -r2, lsl #8]
     b68:	0000018a 	andeq	r0, r0, sl, lsl #3
     b6c:	0007e103 	andeq	lr, r7, r3, lsl #2
     b70:	91180200 	tstls	r8, r0, lsl #4
     b74:	00000001 	andeq	r0, r0, r1
     b78:	0004b103 	andeq	fp, r4, r3, lsl #2
     b7c:	91190200 	tstls	r9, r0, lsl #4
     b80:	04000001 	streq	r0, [r0], #-1
     b84:	00093e03 	andeq	r3, r9, r3, lsl #28
     b88:	911a0200 	tstls	sl, r0, lsl #4
     b8c:	08000001 	stmdaeq	r0, {r0}
     b90:	0007c103 	andeq	ip, r7, r3, lsl #2
     b94:	911b0200 	tstls	fp, r0, lsl #4
     b98:	0c000001 	stceq	0, cr0, [r0], {1}
     b9c:	00068e03 	andeq	r8, r6, r3, lsl #28
     ba0:	911c0200 	tstls	ip, r0, lsl #4
     ba4:	10000001 	andne	r0, r0, r1
     ba8:	000aee03 	andeq	lr, sl, r3, lsl #28
     bac:	911d0200 	tstls	sp, r0, lsl #4
     bb0:	14000001 	strne	r0, [r0], #-1
     bb4:	000b0803 	andeq	r0, fp, r3, lsl #16
     bb8:	911e0200 	tstls	lr, r0, lsl #4
     bbc:	18000001 	stmdane	r0, {r0}
     bc0:	000b2203 	andeq	r2, fp, r3, lsl #4
     bc4:	911f0200 	tstls	pc, r0, lsl #4
     bc8:	1c000001 	stcne	0, cr0, [r0], {1}
     bcc:	000b3c03 	andeq	r3, fp, r3, lsl #24
     bd0:	91200200 			; <UNDEFINED> instruction: 0x91200200
     bd4:	20000001 	andcs	r0, r0, r1
     bd8:	000b5603 	andeq	r5, fp, r3, lsl #12
     bdc:	91210200 			; <UNDEFINED> instruction: 0x91210200
     be0:	24000001 	strcs	r0, [r0], #-1
     be4:	000b7003 	andeq	r7, fp, r3
     be8:	91220200 			; <UNDEFINED> instruction: 0x91220200
     bec:	28000001 	stmdacs	r0, {r0}
     bf0:	000b8a03 	andeq	r8, fp, r3, lsl #20
     bf4:	91230200 			; <UNDEFINED> instruction: 0x91230200
     bf8:	2c000001 	stccs	0, cr0, [r0], {1}
     bfc:	000ba403 	andeq	sl, fp, r3, lsl #8
     c00:	91240200 			; <UNDEFINED> instruction: 0x91240200
     c04:	30000001 	andcc	r0, r0, r1
     c08:	000bbe03 	andeq	fp, fp, r3, lsl #28
     c0c:	91250200 			; <UNDEFINED> instruction: 0x91250200
     c10:	34000001 	strcc	r0, [r0], #-1
     c14:	000bd803 	andeq	sp, fp, r3, lsl #16
     c18:	91260200 			; <UNDEFINED> instruction: 0x91260200
     c1c:	38000001 	stmdacc	r0, {r0}
     c20:	000d4103 	andeq	r4, sp, r3, lsl #2
     c24:	91270200 			; <UNDEFINED> instruction: 0x91270200
     c28:	3c000001 	stccc	0, cr0, [r0], {1}
     c2c:	000d5b03 	andeq	r5, sp, r3, lsl #22
     c30:	91280200 			; <UNDEFINED> instruction: 0x91280200
     c34:	40000001 	andmi	r0, r0, r1
     c38:	000d7503 	andeq	r7, sp, r3, lsl #10
     c3c:	91290200 			; <UNDEFINED> instruction: 0x91290200
     c40:	44000001 	strmi	r0, [r0], #-1
     c44:	000d8f03 	andeq	r8, sp, r3, lsl #30
     c48:	912a0200 			; <UNDEFINED> instruction: 0x912a0200
     c4c:	48000001 	stmdami	r0, {r0}
     c50:	000da903 	andeq	sl, sp, r3, lsl #18
     c54:	912b0200 			; <UNDEFINED> instruction: 0x912b0200
     c58:	4c000001 	stcmi	0, cr0, [r0], {1}
     c5c:	000dc303 	andeq	ip, sp, r3, lsl #6
     c60:	912c0200 			; <UNDEFINED> instruction: 0x912c0200
     c64:	50000001 	andpl	r0, r0, r1
     c68:	000ddd03 	andeq	sp, sp, r3, lsl #26
     c6c:	912d0200 			; <UNDEFINED> instruction: 0x912d0200
     c70:	54000001 	strpl	r0, [r0], #-1
     c74:	000df703 	andeq	pc, sp, r3, lsl #14
     c78:	912e0200 			; <UNDEFINED> instruction: 0x912e0200
     c7c:	58000001 	stmdapl	r0, {r0}
     c80:	000e1103 	andeq	r1, lr, r3, lsl #2
     c84:	912f0200 			; <UNDEFINED> instruction: 0x912f0200
     c88:	5c000001 	stcpl	0, cr0, [r0], {1}
     c8c:	000e2b03 	andeq	r2, lr, r3, lsl #22
     c90:	91300200 	teqls	r0, r0, lsl #4
     c94:	60000001 	andvs	r0, r0, r1
     c98:	000f6b03 	andeq	r6, pc, r3, lsl #22
     c9c:	91310200 	teqls	r1, r0, lsl #4
     ca0:	64000001 	strvs	r0, [r0], #-1
     ca4:	000f8503 	andeq	r8, pc, r3, lsl #10
     ca8:	91320200 	teqls	r2, r0, lsl #4
     cac:	68000001 	stmdavs	r0, {r0}
     cb0:	000f9f03 	andeq	r9, pc, r3, lsl #30
     cb4:	91330200 	teqls	r3, r0, lsl #4
     cb8:	6c000001 	stcvs	0, cr0, [r0], {1}
     cbc:	000fb903 	andeq	fp, pc, r3, lsl #18
     cc0:	91340200 	teqls	r4, r0, lsl #4
     cc4:	70000001 	andvc	r0, r0, r1
     cc8:	07040400 	streq	r0, [r4, -r0, lsl #8]
     ccc:	000000f4 	strdeq	r0, [r0], -r4
     cd0:	00018a05 	andeq	r8, r1, r5, lsl #20
     cd4:	06700600 	ldrbteq	r0, [r0], -r0, lsl #12
     cd8:	35020000 	strcc	r0, [r2, #-0]
     cdc:	00000025 	andeq	r0, r0, r5, lsr #32
     ce0:	37027402 	strcc	r7, [r2, -r2, lsl #8]
     ce4:	00000306 	andeq	r0, r0, r6, lsl #6
     ce8:	0009c403 	andeq	ip, r9, r3, lsl #8
     cec:	91380200 	teqls	r8, r0, lsl #4
     cf0:	00000001 	andeq	r0, r0, r1
     cf4:	0006c403 	andeq	ip, r6, r3, lsl #8
     cf8:	91390200 	teqls	r9, r0, lsl #4
     cfc:	04000001 	streq	r0, [r0], #-1
     d00:	00105803 	andseq	r5, r0, r3, lsl #16
     d04:	913a0200 	teqls	sl, r0, lsl #4
     d08:	08000001 	stmdaeq	r0, {r0}
     d0c:	000ab403 	andeq	fp, sl, r3, lsl #8
     d10:	913b0200 	teqls	fp, r0, lsl #4
     d14:	0c000001 	stceq	0, cr0, [r0], {1}
     d18:	000c9503 	andeq	r9, ip, r3, lsl #10
     d1c:	913c0200 	teqls	ip, r0, lsl #4
     d20:	10000001 	andne	r0, r0, r1
     d24:	00109b03 	andseq	r9, r0, r3, lsl #22
     d28:	913d0200 	teqls	sp, r0, lsl #4
     d2c:	14000001 	strne	r0, [r0], #-1
     d30:	0010bc03 	andseq	fp, r0, r3, lsl #24
     d34:	913e0200 	teqls	lr, r0, lsl #4
     d38:	18000001 	stmdane	r0, {r0}
     d3c:	0010dd03 	andseq	sp, r0, r3, lsl #26
     d40:	913f0200 	teqls	pc, r0, lsl #4
     d44:	1c000001 	stcne	0, cr0, [r0], {1}
     d48:	0010fe03 	andseq	pc, r0, r3, lsl #28
     d4c:	91400200 	mrsls	r0, (UNDEF: 96)
     d50:	20000001 	andcs	r0, r0, r1
     d54:	00111f03 	andseq	r1, r1, r3, lsl #30
     d58:	91410200 	mrsls	r0, (UNDEF: 97)
     d5c:	24000001 	strcs	r0, [r0], #-1
     d60:	00033103 	andeq	r3, r3, r3, lsl #2
     d64:	91420200 	mrsls	r0, (UNDEF: 98)
     d68:	28000001 	stmdacs	r0, {r0}
     d6c:	00035203 	andeq	r5, r3, r3, lsl #4
     d70:	91430200 	mrsls	r0, (UNDEF: 99)
     d74:	2c000001 	stccs	0, cr0, [r0], {1}
     d78:	00037303 	andeq	r7, r3, r3, lsl #6
     d7c:	91440200 	mrsls	r0, (UNDEF: 100)
     d80:	30000001 	andcc	r0, r0, r1
     d84:	00039403 	andeq	r9, r3, r3, lsl #8
     d88:	91450200 	mrsls	r0, (UNDEF: 101)
     d8c:	34000001 	strcc	r0, [r0], #-1
     d90:	0003b503 	andeq	fp, r3, r3, lsl #10
     d94:	91460200 	mrsls	r0, (UNDEF: 102)
     d98:	38000001 	stmdacc	r0, {r0}
     d9c:	0004d203 	andeq	sp, r4, r3, lsl #4
     da0:	91470200 	mrsls	r0, (UNDEF: 103)
     da4:	3c000001 	stccc	0, cr0, [r0], {1}
     da8:	0004f303 	andeq	pc, r4, r3, lsl #6
     dac:	91480200 	mrsls	r0, (UNDEF: 104)
     db0:	40000001 	andmi	r0, r0, r1
     db4:	00051403 	andeq	r1, r5, r3, lsl #8
     db8:	91490200 	mrsls	r0, (UNDEF: 105)
     dbc:	44000001 	strmi	r0, [r0], #-1
     dc0:	00053503 	andeq	r3, r5, r3, lsl #10
     dc4:	914a0200 	mrsls	r0, (UNDEF: 106)
     dc8:	48000001 	stmdami	r0, {r0}
     dcc:	00055603 	andeq	r5, r5, r3, lsl #12
     dd0:	914b0200 	mrsls	r0, (UNDEF: 107)
     dd4:	4c000001 	stcmi	0, cr0, [r0], {1}
     dd8:	00057703 	andeq	r7, r5, r3, lsl #14
     ddc:	914c0200 	mrsls	r0, (UNDEF: 108)
     de0:	50000001 	andpl	r0, r0, r1
     de4:	00059803 	andeq	r9, r5, r3, lsl #16
     de8:	914d0200 	mrsls	r0, (UNDEF: 109)
     dec:	54000001 	strpl	r0, [r0], #-1
     df0:	0005b903 	andeq	fp, r5, r3, lsl #18
     df4:	914e0200 	mrsls	r0, SPSR_fiq
     df8:	58000001 	stmdapl	r0, {r0}
     dfc:	0005da03 	andeq	sp, r5, r3, lsl #20
     e00:	914f0200 	mrsls	r0, (UNDEF: 111)
     e04:	5c000001 	stcpl	0, cr0, [r0], {1}
     e08:	0005fb03 	andeq	pc, r5, r3, lsl #22
     e0c:	91500200 	cmpls	r0, r0, lsl #4
     e10:	60000001 	andvs	r0, r0, r1
     e14:	00075e03 	andeq	r5, r7, r3, lsl #28
     e18:	91510200 	cmpls	r1, r0, lsl #4
     e1c:	64000001 	strvs	r0, [r0], #-1
     e20:	00077f03 	andeq	r7, r7, r3, lsl #30
     e24:	91520200 	cmpls	r2, r0, lsl #4
     e28:	68000001 	stmdavs	r0, {r0}
     e2c:	0007a003 	andeq	sl, r7, r3
     e30:	91530200 	cmpls	r3, r0, lsl #4
     e34:	6c000001 	stcvs	0, cr0, [r0], {1}
     e38:	00089703 	andeq	r9, r8, r3, lsl #14
     e3c:	91540200 	cmpls	r4, r0, lsl #4
     e40:	70000001 	andvc	r0, r0, r1
     e44:	0d260600 	stceq	6, cr0, [r6, #-0]
     e48:	55020000 	strpl	r0, [r2, #-0]
     e4c:	000001a1 	andeq	r0, r0, r1, lsr #3
     e50:	59028c02 	stmdbpl	r2, {r1, sl, fp, pc}
     e54:	000004a6 	andeq	r0, r0, r6, lsr #9
     e58:	52434307 	subpl	r4, r3, #469762048	; 0x1c000000
     e5c:	915a0200 	cmpls	sl, r0, lsl #4
     e60:	00000001 	andeq	r0, r0, r1
     e64:	00040503 	andeq	r0, r4, r3, lsl #10
     e68:	915b0200 	cmpls	fp, r0, lsl #4
     e6c:	04000001 	streq	r0, [r0], #-1
     e70:	52534307 	subspl	r4, r3, #469762048	; 0x1c000000
     e74:	915c0200 	cmpls	ip, r0, lsl #4
     e78:	08000001 	stmdaeq	r0, {r0}
     e7c:	00045a03 	andeq	r5, r4, r3, lsl #20
     e80:	915d0200 	cmpls	sp, r0, lsl #4
     e84:	0c000001 	stceq	0, cr0, [r0], {1}
     e88:	00070103 	andeq	r0, r7, r3, lsl #2
     e8c:	915e0200 	cmpls	lr, r0, lsl #4
     e90:	10000001 	andne	r0, r0, r1
     e94:	00081303 	andeq	r1, r8, r3, lsl #6
     e98:	915f0200 	cmpls	pc, r0, lsl #4
     e9c:	14000001 	strne	r0, [r0], #-1
     ea0:	00095e03 	andeq	r5, r9, r3, lsl #28
     ea4:	91600200 	cmnls	r0, r0, lsl #4
     ea8:	18000001 	stmdane	r0, {r0}
     eac:	000c4703 	andeq	r4, ip, r3, lsl #14
     eb0:	91610200 	cmnls	r1, r0, lsl #4
     eb4:	1c000001 	stcne	0, cr0, [r0], {1}
     eb8:	00089003 	andeq	r9, r8, r3
     ebc:	91620200 	cmnls	r2, r0, lsl #4
     ec0:	20000001 	andcs	r0, r0, r1
     ec4:	00108d03 	andseq	r8, r0, r3, lsl #26
     ec8:	91630200 	cmnls	r3, r0, lsl #4
     ecc:	24000001 	strcs	r0, [r0], #-1
     ed0:	0008b803 	andeq	fp, r8, r3, lsl #16
     ed4:	91640200 	cmnls	r4, r0, lsl #4
     ed8:	28000001 	stmdacs	r0, {r0}
     edc:	00085903 	andeq	r5, r8, r3, lsl #18
     ee0:	91650200 	cmnls	r5, r0, lsl #4
     ee4:	2c000001 	stccs	0, cr0, [r0], {1}
     ee8:	00044b03 	andeq	r4, r4, r3, lsl #22
     eec:	91660200 	cmnls	r6, r0, lsl #4
     ef0:	30000001 	andcc	r0, r0, r1
     ef4:	00040203 	andeq	r0, r4, r3, lsl #4
     ef8:	91670200 	cmnls	r7, r0, lsl #4
     efc:	34000001 	strcc	r0, [r0], #-1
     f00:	00109403 	andseq	r9, r0, r3, lsl #8
     f04:	91680200 	cmnls	r8, r0, lsl #4
     f08:	38000001 	stmdacc	r0, {r0}
     f0c:	00096403 	andeq	r6, r9, r3, lsl #8
     f10:	91690200 	cmnls	r9, r0, lsl #4
     f14:	3c000001 	stccc	0, cr0, [r0], {1}
     f18:	0006eb03 	andeq	lr, r6, r3, lsl #22
     f1c:	a66a0200 	strbtge	r0, [sl], -r0, lsl #4
     f20:	40000004 	andmi	r0, r0, r4
     f24:	000fdf03 	andeq	sp, pc, r3, lsl #30
     f28:	916b0200 	cmnls	fp, r0, lsl #4
     f2c:	48000001 	stmdami	r0, {r0}
     f30:	0006f603 	andeq	pc, r6, r3, lsl #12
     f34:	a66c0200 	strbtge	r0, [ip], -r0, lsl #4
     f38:	4c000004 	stcmi	0, cr0, [r0], {4}
     f3c:	000c7303 	andeq	r7, ip, r3, lsl #6
     f40:	916d0200 	cmnls	sp, r0, lsl #4
     f44:	54000001 	strpl	r0, [r0], #-1
     f48:	00108803 	andseq	r8, r0, r3, lsl #16
     f4c:	916e0200 	cmnls	lr, r0, lsl #4
     f50:	58000001 	stmdapl	r0, {r0}
     f54:	00065503 	andeq	r5, r6, r3, lsl #10
     f58:	916f0200 	cmnls	pc, r0, lsl #4
     f5c:	5c000001 	stcpl	0, cr0, [r0], {1}
     f60:	00108203 	andseq	r8, r0, r3, lsl #4
     f64:	91700200 	cmnls	r0, r0, lsl #4
     f68:	60000001 	andvs	r0, r0, r1
     f6c:	00102b03 	andseq	r2, r0, r3, lsl #22
     f70:	91710200 	cmnls	r1, r0, lsl #4
     f74:	64000001 	strvs	r0, [r0], #-1
     f78:	0006be03 	andeq	fp, r6, r3, lsl #28
     f7c:	91720200 	cmnls	r2, r0, lsl #4
     f80:	68000001 	stmdavs	r0, {r0}
     f84:	00041203 	andeq	r1, r4, r3, lsl #4
     f88:	91730200 	cmnls	r3, r0, lsl #4
     f8c:	6c000001 	stcvs	0, cr0, [r0], {1}
     f90:	0006e503 	andeq	lr, r6, r3, lsl #10
     f94:	91740200 	cmnls	r4, r0, lsl #4
     f98:	70000001 	andvc	r0, r0, r1
     f9c:	00041803 	andeq	r1, r4, r3, lsl #16
     fa0:	91750200 	cmnls	r5, r0, lsl #4
     fa4:	74000001 	strvc	r0, [r0], #-1
     fa8:	00041e03 	andeq	r1, r4, r3, lsl #28
     fac:	91760200 	cmnls	r6, r0, lsl #4
     fb0:	78000001 	stmdavc	r0, {r0}
     fb4:	00042403 	andeq	r2, r4, r3, lsl #8
     fb8:	91770200 	cmnls	r7, r0, lsl #4
     fbc:	7c000001 	stcvc	0, cr0, [r0], {1}
     fc0:	00070703 	andeq	r0, r7, r3, lsl #14
     fc4:	91780200 	cmnls	r8, r0, lsl #4
     fc8:	80000001 	andhi	r0, r0, r1
     fcc:	000d3603 	andeq	r3, sp, r3, lsl #12
     fd0:	c4790200 	ldrbtgt	r0, [r9], #-512	; 0xfffffe00
     fd4:	84000004 	strhi	r0, [r0], #-4
     fd8:	00063f03 	andeq	r3, r6, r3, lsl #30
     fdc:	917a0200 	cmnls	sl, r0, lsl #4
     fe0:	88000001 	stmdahi	r0, {r0}
     fe4:	04bd0800 	ldrteq	r0, [sp], #2048	; 0x800
     fe8:	04b60000 	ldrteq	r0, [r6], #0
     fec:	b6090000 	strlt	r0, [r9], -r0
     ff0:	07000004 	streq	r0, [r0, -r4]
     ff4:	07040400 	streq	r0, [r4, -r0, lsl #8]
     ff8:	00000249 	andeq	r0, r0, r9, asr #4
     ffc:	96080104 	strls	r0, [r8], -r4, lsl #2
    1000:	0800000e 	stmdaeq	r0, {r1, r2, r3}
    1004:	000004bd 			; <UNDEFINED> instruction: 0x000004bd
    1008:	000004d4 	ldrdeq	r0, [r0], -r4
    100c:	0004b609 	andeq	fp, r4, r9, lsl #12
    1010:	06000300 	streq	r0, [r0], -r0, lsl #6
    1014:	00000475 	andeq	r0, r0, r5, ror r4
    1018:	03117b02 	tsteq	r1, #2048	; 0x800
    101c:	640a0000 	strvs	r0, [sl], #-0
    1020:	aa7e0202 	bge	1f81830 <_start-0x7e17e7d0>
    1024:	03000008 	movweq	r0, #8
    1028:	00000a0a 	andeq	r0, r0, sl, lsl #20
    102c:	01917f02 	orrseq	r7, r1, r2, lsl #30
    1030:	03000000 	movweq	r0, #0
    1034:	00000451 	andeq	r0, r0, r1, asr r4
    1038:	01918002 	orrseq	r8, r1, r2
    103c:	03040000 	movweq	r0, #16384	; 0x4000
    1040:	00000f03 	andeq	r0, r0, r3, lsl #30
    1044:	01918102 	orrseq	r8, r1, r2, lsl #2
    1048:	03080000 	movweq	r0, #32768	; 0x8000
    104c:	0000064c 	andeq	r0, r0, ip, asr #12
    1050:	01918202 	orrseq	r8, r1, r2, lsl #4
    1054:	030c0000 	movweq	r0, #49152	; 0xc000
    1058:	00000882 	andeq	r0, r0, r2, lsl #17
    105c:	01918302 	orrseq	r8, r1, r2, lsl #6
    1060:	03100000 	tsteq	r0, #0
    1064:	0000065a 	andeq	r0, r0, sl, asr r6
    1068:	01918402 	orrseq	r8, r1, r2, lsl #8
    106c:	03140000 	tsteq	r4, #0
    1070:	00000e82 	andeq	r0, r0, r2, lsl #29
    1074:	01918502 	orrseq	r8, r1, r2, lsl #10
    1078:	03180000 	tsteq	r8, #0
    107c:	0000091c 	andeq	r0, r0, ip, lsl r9
    1080:	01918602 	orrseq	r8, r1, r2, lsl #12
    1084:	031c0000 	tsteq	ip, #0
    1088:	0000088a 	andeq	r0, r0, sl, lsl #17
    108c:	01918702 	orrseq	r8, r1, r2, lsl #14
    1090:	03200000 	nopeq	{0}	; <UNPREDICTABLE>
    1094:	00001021 	andeq	r1, r0, r1, lsr #32
    1098:	01918802 	orrseq	r8, r1, r2, lsl #16
    109c:	03240000 			; <UNDEFINED> instruction: 0x03240000
    10a0:	00000d1c 	andeq	r0, r0, ip, lsl sp
    10a4:	01918902 	orrseq	r8, r1, r2, lsl #18
    10a8:	03280000 			; <UNDEFINED> instruction: 0x03280000
    10ac:	00000441 	andeq	r0, r0, r1, asr #8
    10b0:	01918a02 	orrseq	r8, r1, r2, lsl #20
    10b4:	032c0000 			; <UNDEFINED> instruction: 0x032c0000
    10b8:	0000074f 	andeq	r0, r0, pc, asr #14
    10bc:	01918b02 	orrseq	r8, r1, r2, lsl #22
    10c0:	03300000 	teqeq	r0, #0
    10c4:	000006eb 	andeq	r0, r0, fp, ror #13
    10c8:	08aa8c02 	stmiaeq	sl!, {r1, sl, fp, pc}
    10cc:	03340000 	teqeq	r4, #0
    10d0:	00000995 	muleq	r0, r5, r9
    10d4:	01918d02 	orrseq	r8, r1, r2, lsl #26
    10d8:	03400000 	movteq	r0, #0
    10dc:	000006f6 	strdeq	r0, [r0], -r6
    10e0:	08aa8e02 	stmiaeq	sl!, {r1, r9, sl, fp, pc}
    10e4:	03440000 	movteq	r0, #16384	; 0x4000
    10e8:	00000aab 	andeq	r0, r0, fp, lsr #21
    10ec:	01918f02 	orrseq	r8, r1, r2, lsl #30
    10f0:	03500000 	cmpeq	r0, #0
    10f4:	00000d36 	andeq	r0, r0, r6, lsr sp
    10f8:	08aa9002 	stmiaeq	sl!, {r1, ip, pc}
    10fc:	03540000 	cmpeq	r4, #0
    1100:	00000e67 	andeq	r0, r0, r7, ror #28
    1104:	01919102 	orrseq	r9, r1, r2, lsl #2
    1108:	03600000 	cmneq	r0, #0
    110c:	000009ec 	andeq	r0, r0, ip, ror #19
    1110:	08aa9202 	stmiaeq	sl!, {r1, r9, ip, pc}
    1114:	03640000 	cmneq	r4, #0
    1118:	00000878 	andeq	r0, r0, r8, ror r8
    111c:	01919302 	orrseq	r9, r1, r2, lsl #6
    1120:	03700000 	cmneq	r0, #0
    1124:	00000664 	andeq	r0, r0, r4, ror #12
    1128:	01919402 	orrseq	r9, r1, r2, lsl #8
    112c:	03740000 	cmneq	r4, #0
    1130:	000003ee 	andeq	r0, r0, lr, ror #7
    1134:	01919502 	orrseq	r9, r1, r2, lsl #10
    1138:	03780000 	cmneq	r8, #0
    113c:	00000c32 	andeq	r0, r0, r2, lsr ip
    1140:	01919602 	orrseq	r9, r1, r2, lsl #12
    1144:	037c0000 	cmneq	ip, #0
    1148:	00000880 	andeq	r0, r0, r0, lsl #17
    114c:	01919702 	orrseq	r9, r1, r2, lsl #14
    1150:	03800000 	orreq	r0, r0, #0
    1154:	0000070d 	andeq	r0, r0, sp, lsl #14
    1158:	08aa9802 	stmiaeq	sl!, {r1, fp, ip, pc}
    115c:	03840000 	orreq	r0, r4, #0
    1160:	00000888 	andeq	r0, r0, r8, lsl #17
    1164:	01919902 	orrseq	r9, r1, r2, lsl #18
    1168:	03900000 	orrseq	r0, r0, #0
    116c:	00000718 	andeq	r0, r0, r8, lsl r7
    1170:	08aa9a02 	stmiaeq	sl!, {r1, r9, fp, ip, pc}
    1174:	03940000 	orrseq	r0, r4, #0
    1178:	00000cb5 			; <UNDEFINED> instruction: 0x00000cb5
    117c:	01919b02 	orrseq	r9, r1, r2, lsl #22
    1180:	03a00000 	moveq	r0, #0
    1184:	00000723 	andeq	r0, r0, r3, lsr #14
    1188:	08aa9c02 	stmiaeq	sl!, {r1, sl, fp, ip, pc}
    118c:	03a40000 			; <UNDEFINED> instruction: 0x03a40000
    1190:	00000cbd 			; <UNDEFINED> instruction: 0x00000cbd
    1194:	01919d02 	orrseq	r9, r1, r2, lsl #26
    1198:	03b00000 	movseq	r0, #0
    119c:	0000072e 	andeq	r0, r0, lr, lsr #14
    11a0:	08aa9e02 	stmiaeq	sl!, {r1, r9, sl, fp, ip, pc}
    11a4:	03b40000 			; <UNDEFINED> instruction: 0x03b40000
    11a8:	00000c20 	andeq	r0, r0, r0, lsr #24
    11ac:	01919f02 	orrseq	r9, r1, r2, lsl #30
    11b0:	03c00000 	biceq	r0, r0, #0
    11b4:	00000739 	andeq	r0, r0, r9, lsr r7
    11b8:	08aaa002 	stmiaeq	sl!, {r1, sp, pc}
    11bc:	03c40000 	biceq	r0, r4, #0
    11c0:	00000c29 	andeq	r0, r0, r9, lsr #24
    11c4:	0191a102 	orrseq	sl, r1, r2, lsl #2
    11c8:	03d00000 	bicseq	r0, r0, #0
    11cc:	00000744 	andeq	r0, r0, r4, asr #14
    11d0:	08aaa202 	stmiaeq	sl!, {r1, r9, sp, pc}
    11d4:	03d40000 	bicseq	r0, r4, #0
    11d8:	00000ce5 	andeq	r0, r0, r5, ror #25
    11dc:	0191a302 	orrseq	sl, r1, r2, lsl #6
    11e0:	03e00000 	mvneq	r0, #0
    11e4:	00000ed3 	ldrdeq	r0, [r0], -r3
    11e8:	08aaa402 	stmiaeq	sl!, {r1, sl, sp, pc}
    11ec:	03e40000 	mvneq	r0, #0
    11f0:	00000c3e 	andeq	r0, r0, lr, lsr ip
    11f4:	0191a502 	orrseq	sl, r1, r2, lsl #10
    11f8:	03f00000 	mvnseq	r0, #0
    11fc:	00000edf 	ldrdeq	r0, [r0], -pc	; <UNPREDICTABLE>
    1200:	08aaa602 	stmiaeq	sl!, {r1, r9, sl, sp, pc}
    1204:	0bf40000 	bleq	ffd0120c <__bss_end+0x7fc0027c>
    1208:	00000d07 	andeq	r0, r0, r7, lsl #26
    120c:	0191a702 	orrseq	sl, r1, r2, lsl #14
    1210:	01000000 	mrseq	r0, (UNDEF: 0)
    1214:	000eeb0b 	andeq	lr, lr, fp, lsl #22
    1218:	aaa80200 	bge	fea01a20 <__bss_end+0x7e900a90>
    121c:	04000008 	streq	r0, [r0], #-8
    1220:	08cb0b01 	stmiaeq	fp, {r0, r8, r9, fp}^
    1224:	a9020000 	stmdbge	r2, {}	; <UNPREDICTABLE>
    1228:	00000191 	muleq	r0, r1, r1
    122c:	f70b0110 			; <UNDEFINED> instruction: 0xf70b0110
    1230:	0200000e 	andeq	r0, r0, #14
    1234:	0008aaaa 	andeq	sl, r8, sl, lsr #21
    1238:	0b011400 	bleq	46240 <_start-0x800b9dc0>
    123c:	000008d6 	ldrdeq	r0, [r0], -r6
    1240:	0191ab02 	orrseq	sl, r1, r2, lsl #22
    1244:	01200000 			; <UNDEFINED> instruction: 0x01200000
    1248:	000ae20b 	andeq	lr, sl, fp, lsl #4
    124c:	aaac0200 	bge	feb01a54 <__bss_end+0x7ea00ac4>
    1250:	24000008 	strcs	r0, [r0], #-8
    1254:	08e10b01 	stmiaeq	r1!, {r0, r8, r9, fp}^
    1258:	ad020000 	stcge	0, cr0, [r2, #-0]
    125c:	00000191 	muleq	r0, r1, r1
    1260:	0c0b0130 	stfeqs	f0, [fp], {48}	; 0x30
    1264:	0200000f 	andeq	r0, r0, #15
    1268:	0008aaae 	andeq	sl, r8, lr, lsr #21
    126c:	0b013400 	bleq	4e274 <_start-0x800b1d8c>
    1270:	000008ec 	andeq	r0, r0, ip, ror #17
    1274:	0191af02 	orrseq	sl, r1, r2, lsl #30
    1278:	01400000 	mrseq	r0, (UNDEF: 64)
    127c:	000f180b 	andeq	r1, pc, fp, lsl #16
    1280:	aab00200 	bge	fec01a88 <__bss_end+0x7eb00af8>
    1284:	44000008 	strmi	r0, [r0], #-8
    1288:	08f70b01 	ldmeq	r7!, {r0, r8, r9, fp}^
    128c:	b1020000 	mrslt	r0, (UNDEF: 2)
    1290:	00000191 	muleq	r0, r1, r1
    1294:	240b0150 	strcs	r0, [fp], #-336	; 0xfffffeb0
    1298:	0200000f 	andeq	r0, r0, #15
    129c:	0008aab2 			; <UNDEFINED> instruction: 0x0008aab2
    12a0:	0b015400 	bleq	562a8 <_start-0x800a9d58>
    12a4:	00000f54 	andeq	r0, r0, r4, asr pc
    12a8:	0191b302 	orrseq	fp, r1, r2, lsl #6
    12ac:	01600000 	cmneq	r0, r0
    12b0:	000f300b 	andeq	r3, pc, fp
    12b4:	aab40200 	bge	fed01abc <__bss_end+0x7ec00b2c>
    12b8:	64000008 	strvs	r0, [r0], #-8
    12bc:	0cc50b01 	fstmiaxeq	r5, {d16-d15}	;@ Deprecated
    12c0:	b5020000 	strlt	r0, [r2, #-0]
    12c4:	00000191 	muleq	r0, r1, r1
    12c8:	3c0b0170 	stfccs	f0, [fp], {112}	; 0x70
    12cc:	0200000f 	andeq	r0, r0, #15
    12d0:	0008aab6 			; <UNDEFINED> instruction: 0x0008aab6
    12d4:	0b017400 	bleq	5e2dc <_start-0x800a1d24>
    12d8:	00000917 	andeq	r0, r0, r7, lsl r9
    12dc:	0191b702 	orrseq	fp, r1, r2, lsl #14
    12e0:	01800000 	orreq	r0, r0, r0
    12e4:	000d100b 	andeq	r1, sp, fp
    12e8:	aab80200 	bge	fee01af0 <__bss_end+0x7ed00b60>
    12ec:	84000008 	strhi	r0, [r0], #-8
    12f0:	06270b01 	strteq	r0, [r7], -r1, lsl #22
    12f4:	b9020000 	stmdblt	r2, {}	; <UNPREDICTABLE>
    12f8:	00000191 	muleq	r0, r1, r1
    12fc:	b80b0190 	stmdalt	fp, {r4, r7, r8}
    1300:	02000009 	andeq	r0, r0, #9
    1304:	0008aaba 			; <UNDEFINED> instruction: 0x0008aaba
    1308:	0b019400 	bleq	66310 <_start-0x80099cf0>
    130c:	00000a0f 	andeq	r0, r0, pc, lsl #20
    1310:	0191bb02 	orrseq	fp, r1, r2, lsl #22
    1314:	01a00000 	moveq	r0, r0
    1318:	00090b0b 	andeq	r0, r9, fp, lsl #22
    131c:	aabc0200 	bge	fef01b24 <__bss_end+0x7ee00b94>
    1320:	a4000008 	strge	r0, [r0], #-8
    1324:	0a130b01 	beq	4c3f30 <_start-0x7fc3c0d0>
    1328:	bd020000 	stclt	0, cr0, [r2, #-0]
    132c:	00000191 	muleq	r0, r1, r1
    1330:	480b01b0 	stmdami	fp, {r4, r5, r7, r8}
    1334:	0200000f 	andeq	r0, r0, #15
    1338:	0008babe 			; <UNDEFINED> instruction: 0x0008babe
    133c:	0b01b400 	bleq	6e344 <_start-0x80091cbc>
    1340:	000009aa 	andeq	r0, r0, sl, lsr #19
    1344:	0191bf02 	orrseq	fp, r1, r2, lsl #30
    1348:	02000000 	andeq	r0, r0, #0
    134c:	000f5f0b 	andeq	r5, pc, fp, lsl #30
    1350:	aac00200 	bge	ff001b58 <__bss_end+0x7ef00bc8>
    1354:	04000008 	streq	r0, [r0], #-8
    1358:	0a070b02 	beq	1c3f68 <_start-0x7ff3c098>
    135c:	c1020000 	mrsgt	r0, (UNDEF: 2)
    1360:	00000191 	muleq	r0, r1, r1
    1364:	450b0210 	strmi	r0, [fp, #-528]	; 0xfffffdf0
    1368:	0200000e 	andeq	r0, r0, #14
    136c:	0008aac2 	andeq	sl, r8, r2, asr #21
    1370:	0b021400 	bleq	86378 <_start-0x80079c88>
    1374:	00000645 	andeq	r0, r0, r5, asr #12
    1378:	0191c302 	orrseq	ip, r1, r2, lsl #6
    137c:	02200000 	eoreq	r0, r0, #0
    1380:	000e5b0b 	andeq	r5, lr, fp, lsl #22
    1384:	aac40200 	bge	ff101b8c <__bss_end+0x7f000bfc>
    1388:	24000008 	strcs	r0, [r0], #-8
    138c:	0aa80b02 	beq	fea03f9c <__bss_end+0x7e90300c>
    1390:	c5020000 	strgt	r0, [r2, #-0]
    1394:	00000191 	muleq	r0, r1, r1
    1398:	d30b0230 	movwle	r0, #45616	; 0xb230
    139c:	0200000f 	andeq	r0, r0, #15
    13a0:	0008aac6 	andeq	sl, r8, r6, asr #21
    13a4:	0b023400 	bleq	8e3ac <_start-0x80071c54>
    13a8:	00000c5a 	andeq	r0, r0, sl, asr ip
    13ac:	0191c702 	orrseq	ip, r1, r2, lsl #14
    13b0:	02400000 	subeq	r0, r0, #0
    13b4:	0003d60b 	andeq	sp, r3, fp, lsl #12
    13b8:	aac80200 	bge	ff201bc0 <__bss_end+0x7f100c30>
    13bc:	44000008 	strmi	r0, [r0], #-8
    13c0:	0fe60b02 	svceq	0x00e60b02
    13c4:	c9020000 	stmdbgt	r2, {}	; <UNPREDICTABLE>
    13c8:	00000191 	muleq	r0, r1, r1
    13cc:	e20b0250 	and	r0, fp, #80, 4
    13d0:	02000003 	andeq	r0, r0, #3
    13d4:	0008aaca 	andeq	sl, r8, sl, asr #21
    13d8:	0b025400 	bleq	963e0 <_start-0x80069c20>
    13dc:	00000a50 	andeq	r0, r0, r0, asr sl
    13e0:	0191cb02 	orrseq	ip, r1, r2, lsl #22
    13e4:	02600000 	rsbeq	r0, r0, #0
    13e8:	04bd0800 	ldrteq	r0, [sp], #2048	; 0x800
    13ec:	08ba0000 	ldmeq	sl!, {}	; <UNPREDICTABLE>
    13f0:	b6090000 	strlt	r0, [r9], -r0
    13f4:	0b000004 	bleq	140c <_start-0x800febf4>
    13f8:	04bd0800 	ldrteq	r0, [sp], #2048	; 0x800
    13fc:	08ca0000 	stmiaeq	sl, {}^	; <UNPREDICTABLE>
    1400:	b6090000 	strlt	r0, [r9], -r0
    1404:	4b000004 	blmi	141c <_start-0x800febe4>
    1408:	08250600 	stmdaeq	r5!, {r9, sl}
    140c:	cc020000 	stcgt	0, cr0, [r2], {-0}
    1410:	000004df 	ldrdeq	r0, [r0], -pc	; <UNPREDICTABLE>
    1414:	0201800a 	andeq	r8, r1, #10
    1418:	000bf3cf 	andeq	pc, fp, pc, asr #7
    141c:	09b00300 	ldmibeq	r0!, {r8, r9}
    1420:	d0020000 	andle	r0, r2, r0
    1424:	00000191 	muleq	r0, r1, r1
    1428:	09790300 	ldmdbeq	r9!, {r8, r9}^
    142c:	d1020000 	mrsle	r0, (UNDEF: 2)
    1430:	00000191 	muleq	r0, r1, r1
    1434:	08190304 	ldmdaeq	r9, {r2, r8, r9}
    1438:	d2020000 	andle	r0, r2, #0
    143c:	00000191 	muleq	r0, r1, r1
    1440:	0a9c0308 	beq	fe702068 <__bss_end+0x7e6010d8>
    1444:	d3020000 	movwle	r0, #8192	; 0x2000
    1448:	00000191 	muleq	r0, r1, r1
    144c:	0eca030c 	cdpeq	3, 12, cr0, cr10, cr12, {0}
    1450:	d4020000 	strle	r0, [r2], #-0
    1454:	00000191 	muleq	r0, r1, r1
    1458:	099d0310 	ldmibeq	sp, {r4, r8, r9}
    145c:	d5020000 	strle	r0, [r2, #-0]
    1460:	00000191 	muleq	r0, r1, r1
    1464:	08300314 	ldmdaeq	r0!, {r2, r4, r8, r9}
    1468:	d6020000 	strle	r0, [r2], -r0
    146c:	00000191 	muleq	r0, r1, r1
    1470:	0a430318 	beq	10c20d8 <_start-0x7f03df28>
    1474:	d7020000 	strle	r0, [r2, -r0]
    1478:	00000191 	muleq	r0, r1, r1
    147c:	1018031c 	andsne	r0, r8, ip, lsl r3
    1480:	d8020000 	stmdale	r2, {}	; <UNPREDICTABLE>
    1484:	00000191 	muleq	r0, r1, r1
    1488:	0ccf0320 	stcleq	3, cr0, [pc], {32}
    148c:	d9020000 	stmdble	r2, {}	; <UNPREDICTABLE>
    1490:	00000191 	muleq	r0, r1, r1
    1494:	0bf20324 	bleq	ffc8212c <__bss_end+0x7fb8119c>
    1498:	da020000 	ble	814a0 <_start-0x8007eb60>
    149c:	00000191 	muleq	r0, r1, r1
    14a0:	0cee0328 	stcleq	3, cr0, [lr], #160	; 0xa0
    14a4:	db020000 	blle	814ac <_start-0x8007eb54>
    14a8:	00000191 	muleq	r0, r1, r1
    14ac:	03fa032c 	mvnseq	r0, #44, 6	; 0xb0000000
    14b0:	dc020000 	stcle	0, cr0, [r2], {-0}
    14b4:	00000191 	muleq	r0, r1, r1
    14b8:	0a900330 	beq	fe402180 <__bss_end+0x7e3011f0>
    14bc:	dd020000 	stcle	0, cr0, [r2, #-0]
    14c0:	00000191 	muleq	r0, r1, r1
    14c4:	08bf0334 	ldmeq	pc!, {r2, r4, r5, r8, r9}	; <UNPREDICTABLE>
    14c8:	de020000 	cdple	0, 0, cr0, cr2, cr0, {0}
    14cc:	00000191 	muleq	r0, r1, r1
    14d0:	0c4e0338 	mcrreq	3, 3, r0, lr, cr8
    14d4:	df020000 	svcle	0x00020000
    14d8:	00000191 	muleq	r0, r1, r1
    14dc:	061c033c 			; <UNDEFINED> instruction: 0x061c033c
    14e0:	e0020000 	and	r0, r2, r0
    14e4:	00000191 	muleq	r0, r1, r1
    14e8:	06eb0340 	strbteq	r0, [fp], r0, asr #6
    14ec:	e1020000 	mrs	r0, (UNDEF: 2)
    14f0:	000008aa 	andeq	r0, r0, sl, lsr #17
    14f4:	0a840344 	beq	fe10220c <__bss_end+0x7e00127c>
    14f8:	e2020000 	and	r0, r2, #0
    14fc:	00000191 	muleq	r0, r1, r1
    1500:	06f60350 	usateq	r0, #22, r0, asr #6
    1504:	e3020000 	movw	r0, #8192	; 0x2000
    1508:	000008aa 	andeq	r0, r0, sl, lsr #17
    150c:	0ad40354 	beq	ff502264 <__bss_end+0x7f4012d4>
    1510:	e4020000 	str	r0, [r2], #-0
    1514:	00000191 	muleq	r0, r1, r1
    1518:	0d360360 	ldceq	3, cr0, [r6, #-384]!	; 0xfffffe80
    151c:	e5020000 	str	r0, [r2, #-0]
    1520:	000008aa 	andeq	r0, r0, sl, lsr #17
    1524:	0e780364 	cdpeq	3, 7, cr0, cr8, cr4, {3}
    1528:	e6020000 	str	r0, [r2], -r0
    152c:	00000191 	muleq	r0, r1, r1
    1530:	04670370 	strbteq	r0, [r7], #-880	; 0xfffffc90
    1534:	e7020000 	str	r0, [r2, -r0]
    1538:	00000191 	muleq	r0, r1, r1
    153c:	08600374 	stmdaeq	r0!, {r2, r4, r5, r6, r8, r9}^
    1540:	e8020000 	stmda	r2, {}	; <UNPREDICTABLE>
    1544:	00000191 	muleq	r0, r1, r1
    1548:	084b0378 	stmdaeq	fp, {r3, r4, r5, r6, r8, r9}^
    154c:	e9020000 	stmdb	r2, {}	; <UNPREDICTABLE>
    1550:	00000191 	muleq	r0, r1, r1
    1554:	0926037c 	stmdbeq	r6!, {r2, r3, r4, r5, r6, r8, r9}
    1558:	ea020000 	b	81560 <_start-0x8007eaa0>
    155c:	00000191 	muleq	r0, r1, r1
    1560:	09ec0380 	stmibeq	ip!, {r7, r8, r9}^
    1564:	eb020000 	bl	8156c <_start-0x8007ea94>
    1568:	000008aa 	andeq	r0, r0, sl, lsr #17
    156c:	09f70384 	ldmibeq	r7!, {r2, r7, r8, r9}^
    1570:	ec020000 	stc	0, cr0, [r2], {-0}
    1574:	00000191 	muleq	r0, r1, r1
    1578:	070d0390 			; <UNDEFINED> instruction: 0x070d0390
    157c:	ed020000 	stc	0, cr0, [r2, #-0]
    1580:	000008aa 	andeq	r0, r0, sl, lsr #17
    1584:	0e6e0394 	mcreq	3, 3, r0, cr14, cr4, {4}
    1588:	ee020000 	cdp	0, 0, cr0, cr2, cr0, {0}
    158c:	00000191 	muleq	r0, r1, r1
    1590:	068003a0 	streq	r0, [r0], r0, lsr #7
    1594:	ef020000 	svc	0x00020000
    1598:	00000191 	muleq	r0, r1, r1
    159c:	080503a4 	stmdaeq	r5, {r2, r5, r7, r8, r9}
    15a0:	f0020000 			; <UNDEFINED> instruction: 0xf0020000
    15a4:	00000191 	muleq	r0, r1, r1
    15a8:	096b03a8 	stmdbeq	fp!, {r3, r5, r7, r8, r9}^
    15ac:	f1020000 	cps	#0
    15b0:	00000191 	muleq	r0, r1, r1
    15b4:	04a303ac 	strteq	r0, [r3], #940	; 0x3ac
    15b8:	f2020000 	vhadd.s8	d0, d2, d0
    15bc:	00000191 	muleq	r0, r1, r1
    15c0:	071803b0 			; <UNDEFINED> instruction: 0x071803b0
    15c4:	f3020000 	vhadd.u8	d0, d2, d0
    15c8:	000008aa 	andeq	r0, r0, sl, lsr #17
    15cc:	098503b4 	stmibeq	r5, {r2, r4, r5, r7, r8, r9}
    15d0:	f4020000 	vst4.8	{d0-d3}, [r2], r0
    15d4:	00000191 	muleq	r0, r1, r1
    15d8:	072303c0 	streq	r0, [r3, -r0, asr #7]!
    15dc:	f5020000 			; <UNDEFINED> instruction: 0xf5020000
    15e0:	00000bf3 	strdeq	r0, [r0], -r3
    15e4:	0ff403c4 	svceq	0x00f403c4
    15e8:	f6020000 			; <UNDEFINED> instruction: 0xf6020000
    15ec:	00000191 	muleq	r0, r1, r1
    15f0:	0ea403e0 	cdpeq	3, 10, cr0, cr4, cr0, {7}
    15f4:	f7020000 			; <UNDEFINED> instruction: 0xf7020000
    15f8:	00000191 	muleq	r0, r1, r1
    15fc:	0c1303e4 	ldceq	3, cr0, [r3], {228}	; 0xe4
    1600:	f8020000 			; <UNDEFINED> instruction: 0xf8020000
    1604:	00000191 	muleq	r0, r1, r1
    1608:	0eb103e8 	cdpeq	3, 11, cr0, cr1, cr8, {7}
    160c:	f9020000 			; <UNDEFINED> instruction: 0xf9020000
    1610:	00000191 	muleq	r0, r1, r1
    1614:	040a03ec 	streq	r0, [sl], #-1004	; 0xfffffc14
    1618:	fa020000 	blx	81620 <_start-0x8007e9e0>
    161c:	00000191 	muleq	r0, r1, r1
    1620:	0cfb03f0 	ldcleq	3, cr0, [fp], #960	; 0x3c0
    1624:	fb020000 	blx	8162e <_start-0x8007e9d2>
    1628:	00000191 	muleq	r0, r1, r1
    162c:	0a1803f4 	beq	602604 <_start-0x7fafd9fc>
    1630:	fc020000 	stc2	0, cr0, [r2], {-0}
    1634:	00000191 	muleq	r0, r1, r1
    1638:	0ebe03f8 	mrceq	3, 5, r0, cr14, cr8, {7}
    163c:	fd020000 	stc2	0, cr0, [r2, #-0]
    1640:	00000191 	muleq	r0, r1, r1
    1644:	045f0bfc 	ldrbeq	r0, [pc], #-3068	; 164c <_start-0x800fe9b4>
    1648:	fe020000 	cdp2	0, 0, cr0, cr2, cr0, {0}
    164c:	00000191 	muleq	r0, r1, r1
    1650:	4c0b0100 	stfmis	f0, [fp], {-0}
    1654:	02000010 	andeq	r0, r0, #16
    1658:	000191ff 	strdeq	r9, [r1], -pc	; <UNPREDICTABLE>
    165c:	0c010400 	cfstrseq	mvf0, [r1], {-0}
    1660:	00000c67 	andeq	r0, r0, r7, ror #24
    1664:	91010002 	tstls	r1, r2
    1668:	08000001 	stmdaeq	r0, {r0}
    166c:	0ffd0c01 	svceq	0x00fd0c01
    1670:	01020000 	mrseq	r0, (UNDEF: 2)
    1674:	00019101 	andeq	r9, r1, r1, lsl #2
    1678:	0c010c00 	stceq	12, cr0, [r1], {-0}
    167c:	0000072e 	andeq	r0, r0, lr, lsr #14
    1680:	03010202 	movweq	r0, #4610	; 0x1202
    1684:	1000000c 	andne	r0, r0, ip
    1688:	0c790c01 	ldcleq	12, cr0, [r9], #-4
    168c:	03020000 	movweq	r0, #8192	; 0x2000
    1690:	00019101 	andeq	r9, r1, r1, lsl #2
    1694:	0c015000 	stceq	0, cr5, [r1], {-0}
    1698:	00000c8b 	andeq	r0, r0, fp, lsl #25
    169c:	91010402 	tstls	r1, r2, lsl #8
    16a0:	54000001 	strpl	r0, [r0], #-1
    16a4:	09e20c01 	stmibeq	r2!, {r0, sl, fp}^
    16a8:	05020000 	streq	r0, [r2, #-0]
    16ac:	00019101 	andeq	r9, r1, r1, lsl #2
    16b0:	0c015800 	stceq	8, cr5, [r1], {-0}
    16b4:	00000e8c 	andeq	r0, r0, ip, lsl #29
    16b8:	91010602 	tstls	r1, r2, lsl #12
    16bc:	5c000001 	stcpl	0, cr0, [r0], {1}
    16c0:	0c7f0c01 	ldcleq	12, cr0, [pc], #-4	; 16c4 <_start-0x800fe93c>
    16c4:	07020000 	streq	r0, [r2, -r0]
    16c8:	00019101 	andeq	r9, r1, r1, lsl #2
    16cc:	0c016000 	stceq	0, cr6, [r1], {-0}
    16d0:	0000086e 	andeq	r0, r0, lr, ror #16
    16d4:	91010802 	tstls	r1, r2, lsl #16
    16d8:	64000001 	strvs	r0, [r0], #-1
    16dc:	06350c01 	ldrteq	r0, [r5], -r1, lsl #24
    16e0:	09020000 	stmdbeq	r2, {}	; <UNPREDICTABLE>
    16e4:	00019101 	andeq	r9, r1, r1, lsl #2
    16e8:	0c016800 	stceq	8, cr6, [r1], {-0}
    16ec:	00000934 	andeq	r0, r0, r4, lsr r9
    16f0:	91010a02 	tstls	r1, r2, lsl #20
    16f4:	6c000001 	stcvs	0, cr0, [r0], {1}
    16f8:	0c850c01 	stceq	12, cr0, [r5], {1}
    16fc:	0b020000 	bleq	81704 <_start-0x8007e8fc>
    1700:	00019101 	andeq	r9, r1, r1, lsl #2
    1704:	0c017000 	stceq	0, cr7, [r1], {-0}
    1708:	00001078 	andeq	r1, r0, r8, ror r0
    170c:	91010c02 	tstls	r1, r2, lsl #24
    1710:	74000001 	strvc	r0, [r0], #-1
    1714:	0e510c01 	cdpeq	12, 5, cr0, cr1, cr1, {0}
    1718:	0d020000 	stceq	0, cr0, [r2, #-0]
    171c:	00019101 	andeq	r9, r1, r1, lsl #2
    1720:	0c017800 	stceq	8, cr7, [r1], {-0}
    1724:	0000047e 	andeq	r0, r0, lr, ror r4
    1728:	91010e02 	tstls	r1, r2, lsl #28
    172c:	7c000001 	stcvc	0, cr0, [r0], {1}
    1730:	bd080001 	stclt	0, cr0, [r8, #-4]
    1734:	03000004 	movweq	r0, #4
    1738:	0900000c 	stmdbeq	r0, {r2, r3}
    173c:	000004b6 			; <UNDEFINED> instruction: 0x000004b6
    1740:	bd08001b 	stclt	0, cr0, [r8, #-108]	; 0xffffff94
    1744:	13000004 	movwne	r0, #4
    1748:	0900000c 	stmdbeq	r0, {r2, r3}
    174c:	000004b6 			; <UNDEFINED> instruction: 0x000004b6
    1750:	ae0d003f 	mcrge	0, 0, r0, cr13, cr15, {1}
    1754:	02000006 	andeq	r0, r0, #6
    1758:	08d5010f 	ldmeq	r5, {r0, r1, r2, r3, r8}^
    175c:	a70e0000 	strge	r0, [lr, -r0]
    1760:	10000001 	andne	r0, r0, r1
    1764:	0c5b0c03 	mrrceq	12, 0, r0, fp, cr3
    1768:	64070000 	strvs	r0, [r7], #-0
    176c:	0d030065 	stceq	0, cr0, [r3, #-404]	; 0xfffffe6c
    1770:	00000c5b 	andeq	r0, r0, fp, asr ip
    1774:	02190300 	andseq	r0, r9, #0, 6
    1778:	0e030000 	cdpeq	0, 0, cr0, cr3, cr0, {0}
    177c:	00000c5b 	andeq	r0, r0, fp, asr ip
    1780:	01fb0304 	mvnseq	r0, r4, lsl #6
    1784:	0f030000 	svceq	0x00030000
    1788:	00000c5b 	andeq	r0, r0, fp, asr ip
    178c:	02680308 	rsbeq	r0, r8, #8, 6	; 0x20000000
    1790:	10030000 	andne	r0, r3, r0
    1794:	00000c5b 	andeq	r0, r0, fp, asr ip
    1798:	040f000c 	streq	r0, [pc], #-12	; 17a0 <_start-0x800fe860>
    179c:	746e6905 	strbtvc	r6, [lr], #-2309	; 0xfffff6fb
    17a0:	01a70600 			; <UNDEFINED> instruction: 0x01a70600
    17a4:	11030000 	mrsne	r0, (UNDEF: 3)
    17a8:	00000c1f 	andeq	r0, r0, pc, lsl ip
    17ac:	00027c0e 	andeq	r7, r2, lr, lsl #24
    17b0:	13031c00 	movwne	r1, #15360	; 0x3c00
    17b4:	00000cce 	andeq	r0, r0, lr, asr #25
    17b8:	70767407 	rsbsvc	r7, r6, r7, lsl #8
    17bc:	5b150300 	blpl	5423c4 <_start-0x7fbbdc3c>
    17c0:	0000000c 	andeq	r0, r0, ip
    17c4:	62767407 	rsbsvs	r7, r6, #117440512	; 0x7000000
    17c8:	5b160300 	blpl	5823d0 <_start-0x7fb7dc30>
    17cc:	0400000c 	streq	r0, [r0], #-12
    17d0:	66767407 	ldrbtvs	r7, [r6], -r7, lsl #8
    17d4:	5b170300 	blpl	5c23dc <_start-0x7fb3dc24>
    17d8:	0800000c 	stmdaeq	r0, {r2, r3}
    17dc:	70687407 	rsbvc	r7, r8, r7, lsl #8
    17e0:	5b1a0300 	blpl	6823e8 <_start-0x7fa7dc18>
    17e4:	0c00000c 	stceq	0, cr0, [r0], {12}
    17e8:	62687407 	rsbvs	r7, r8, #117440512	; 0x7000000
    17ec:	5b1b0300 	blpl	6c23f4 <_start-0x7fa3dc0c>
    17f0:	1000000c 	andne	r0, r0, ip
    17f4:	66687407 	strbtvs	r7, [r8], -r7, lsl #8
    17f8:	5b1c0300 	blpl	702400 <_start-0x7f9fdc00>
    17fc:	1400000c 	strne	r0, [r0], #-12
    1800:	00021903 	andeq	r1, r2, r3, lsl #18
    1804:	5b1e0300 	blpl	78240c <_start-0x7f97dbf4>
    1808:	1800000c 	stmdane	r0, {r2, r3}
    180c:	027c0600 	rsbseq	r0, ip, #0, 12
    1810:	1f030000 	svcne	0x00030000
    1814:	00000c6d 	andeq	r0, r0, sp, ror #24
    1818:	0002200e 	andeq	r2, r2, lr
    181c:	22034000 	andcs	r4, r3, #0
    1820:	00000d3a 	andeq	r0, r0, sl, lsr sp
    1824:	00026e03 	andeq	r6, r2, r3, lsl #28
    1828:	3a240300 	bcc	902430 <_start-0x7f7fdbd0>
    182c:	0000000d 	andeq	r0, r0, sp
    1830:	00027303 	andeq	r7, r2, r3, lsl #6
    1834:	62270300 	eorvs	r0, r7, #0, 6
    1838:	0400000c 	streq	r0, [r0], #-12
    183c:	0001b503 	andeq	fp, r1, r3, lsl #10
    1840:	ce2a0300 	cdpgt	3, 2, cr0, cr10, cr0, {0}
    1844:	1400000c 	strne	r0, [r0], #-12
    1848:	0000d803 	andeq	sp, r0, r3, lsl #16
    184c:	5b2d0300 	blpl	b42454 <_start-0x7f5bdbac>
    1850:	3000000c 	andcc	r0, r0, ip
    1854:	00010103 	andeq	r0, r1, r3, lsl #2
    1858:	5b2e0300 	blpl	b82460 <_start-0x7f57dba0>
    185c:	3400000c 	strcc	r0, [r0], #-12
    1860:	70706207 	rsbsvc	r6, r0, r7, lsl #4
    1864:	5b2f0300 	blpl	bc246c <_start-0x7f53db94>
    1868:	3800000c 	stmdacc	r0, {r2, r3}
    186c:	0000e603 	andeq	lr, r0, r3, lsl #12
    1870:	8a320300 	bhi	c82478 <_start-0x7f47db88>
    1874:	3c000001 	stccc	0, cr0, [r0], {1}
    1878:	40041000 	andmi	r1, r4, r0
    187c:	0400000d 	streq	r0, [r0], #-13
    1880:	0e9f0801 	cdpeq	8, 9, cr0, cr15, cr1, {0}
    1884:	1e060000 	cdpne	0, 0, cr0, cr6, cr0, {0}
    1888:	03000002 	movweq	r0, #2
    188c:	000d5234 	andeq	r5, sp, r4, lsr r2
    1890:	d9041000 	stmdble	r4, {ip}
    1894:	0e00000c 	cdpeq	0, 0, cr0, cr0, cr12, {0}
    1898:	00000432 	andeq	r0, r0, r2, lsr r4
    189c:	95070410 	strls	r0, [r7, #-1040]	; 0xfffffbf0
    18a0:	0300000d 	movweq	r0, #13
    18a4:	0000026e 	andeq	r0, r0, lr, ror #4
    18a8:	0d3a0804 	ldceq	8, cr0, [sl, #-16]!
    18ac:	03000000 	movweq	r0, #0
    18b0:	000002a8 	andeq	r0, r0, r8, lsr #5
    18b4:	0da00904 			; <UNDEFINED> instruction: 0x0da00904
    18b8:	03040000 	movweq	r0, #16384	; 0x4000
    18bc:	000002c9 	andeq	r0, r0, r9, asr #5
    18c0:	0da70a04 			; <UNDEFINED> instruction: 0x0da70a04
    18c4:	03080000 	movweq	r0, #32768	; 0x8000
    18c8:	000002b1 			; <UNDEFINED> instruction: 0x000002b1
    18cc:	0da70b04 			; <UNDEFINED> instruction: 0x0da70b04
    18d0:	000c0000 	andeq	r0, ip, r0
    18d4:	000da011 	andeq	sl, sp, r1, lsl r0
    18d8:	0d471200 	sfmeq	f1, 2, [r7, #-0]
    18dc:	10000000 	andne	r0, r0, r0
    18e0:	000d9504 	andeq	r9, sp, r4, lsl #10
    18e4:	04101300 	ldreq	r1, [r0], #-768	; 0xfffffd00
    18e8:	00000da6 	andeq	r0, r0, r6, lsr #27
    18ec:	00100914 	andseq	r0, r0, r4, lsl r9
    18f0:	be050100 	adflts	f0, f5, f0
    18f4:	0500000d 	streq	r0, [r0, #-13]
    18f8:	100f2003 	andne	r2, pc, r3
    18fc:	91041080 	smlabbls	r4, r0, r0, r1
    1900:	14000001 	strne	r0, [r0], #-1
    1904:	00000a5b 	andeq	r0, r0, fp, asr sl
    1908:	0dbe0601 	ldceq	6, cr0, [lr, #4]!
    190c:	03050000 	movweq	r0, #20480	; 0x5000
    1910:	80100f24 	andshi	r0, r0, r4, lsr #30
    1914:	000cdc14 	andeq	sp, ip, r4, lsl ip
    1918:	be070100 	adflts	f0, f7, f0
    191c:	0500000d 	streq	r0, [r0, #-13]
    1920:	100f2803 	andne	r2, pc, r3, lsl #16
    1924:	042a1580 	strteq	r1, [sl], #-1408	; 0xfffffa80
    1928:	01010000 	mrseq	r0, (UNDEF: 1)
    192c:	000d5801 	andeq	r5, sp, r1, lsl #16
    1930:	2c030500 	cfstr32cs	mvfx0, [r3], {-0}
    1934:	1680100f 	strne	r1, [r0], pc
    1938:	00000488 	andeq	r0, r0, r8, lsl #9
    193c:	aa011201 	bge	46148 <_start-0x800b9eb8>
    1940:	1480100e 	strne	r1, [r0], #14
    1944:	01000000 	mrseq	r0, (UNDEF: 0)
    1948:	0a24179c 	beq	9077c0 <_start-0x7f7f8840>
    194c:	fc010000 	stc2	0, cr0, [r1], {-0}
    1950:	80100e84 	andshi	r0, r0, r4, lsl #29
    1954:	00000026 	andeq	r0, r0, r6, lsr #32
    1958:	66179c01 	ldrvs	r9, [r7], -r1, lsl #24
    195c:	0100000a 	tsteq	r0, sl
    1960:	100e5ef8 	strdne	r5, [lr], -r8
    1964:	00002680 	andeq	r2, r0, r0, lsl #13
    1968:	189c0100 	ldmne	ip, {r8}
    196c:	00001030 	andeq	r1, r0, r0, lsr r0
    1970:	0bc83201 	bleq	ff20e17c <__bss_end+0x7f10d1ec>
    1974:	02968010 	addseq	r8, r6, #16
    1978:	9c010000 	stcls	0, cr0, [r1], {-0}
    197c:	00000e5e 	andeq	r0, r0, lr, asr lr
    1980:	00019c19 	andeq	r9, r1, r9, lsl ip
    1984:	47320100 	ldrmi	r0, [r2, -r0, lsl #2]!
    1988:	0200000d 	andeq	r0, r0, #13
    198c:	02146c91 	andseq	r6, r4, #37120	; 0x9100
    1990:	01000009 	tsteq	r0, r9
    1994:	000c5b34 	andeq	r5, ip, r4, lsr fp
    1998:	74910200 	ldrvc	r0, [r1], #512	; 0x200
    199c:	0bff1a00 	bleq	fffc81a4 <__bss_end+0x7fec7214>
    19a0:	09010000 	stmdbeq	r1, {}	; <UNPREDICTABLE>
    19a4:	80100b10 	andshi	r0, r0, r0, lsl fp
    19a8:	000000b8 	strheq	r0, [r0], -r8
    19ac:	0e8e9c01 	cdpeq	12, 8, cr9, cr14, cr1, {0}
    19b0:	ff140000 			; <UNDEFINED> instruction: 0xff140000
    19b4:	01000007 	tsteq	r0, r7
    19b8:	000e8e0b 	andeq	r8, lr, fp, lsl #28
    19bc:	74910200 	ldrvc	r0, [r1], #512	; 0x200
    19c0:	0100691b 	tsteq	r0, fp, lsl r9
    19c4:	00018a0c 	andeq	r8, r1, ip, lsl #20
    19c8:	70910200 	addsvc	r0, r1, r0, lsl #4
    19cc:	8a041000 	bhi	1059d4 <_start-0x7fffa62c>
    19d0:	00000001 	andeq	r0, r0, r1

Disassembly of section .debug_abbrev:

00000000 <.debug_abbrev>:
   0:	10001101 	andne	r1, r0, r1, lsl #2
   4:	12011106 	andne	r1, r1, #-2147483647	; 0x80000001
   8:	1b080301 	blne	200c14 <_start-0x7feff3ec>
   c:	13082508 	movwne	r2, #34056	; 0x8508
  10:	00000005 	andeq	r0, r0, r5
  14:	25011101 	strcs	r1, [r1, #-257]	; 0xfffffeff
  18:	030b130e 	movweq	r1, #45838	; 0xb30e
  1c:	110e1b0e 	tstne	lr, lr, lsl #22
  20:	10061201 	andne	r1, r6, r1, lsl #4
  24:	02000017 	andeq	r0, r0, #23
  28:	0b0b0024 	bleq	2c00c0 <_start-0x7fe3ff40>
  2c:	0e030b3e 	vmoveq.16	d3[0], r0
  30:	24030000 	strcs	r0, [r3], #-0
  34:	3e0b0b00 	vmlacc.f64	d0, d11, d0
  38:	0008030b 	andeq	r0, r8, fp, lsl #6
  3c:	002e0400 	eoreq	r0, lr, r0, lsl #8
  40:	0e03193f 			; <UNDEFINED> instruction: 0x0e03193f
  44:	0b3b0b3a 	bleq	ec2d34 <_start-0x7f23d2cc>
  48:	13491927 	movtne	r1, #39207	; 0x9927
  4c:	06120111 			; <UNDEFINED> instruction: 0x06120111
  50:	42961840 	addsmi	r1, r6, #64, 16	; 0x400000
  54:	05000019 	streq	r0, [r0, #-25]	; 0xffffffe7
  58:	193f012e 	ldmdbne	pc!, {r1, r2, r3, r5, r8}	; <UNPREDICTABLE>
  5c:	0b3a0e03 	bleq	e83870 <_start-0x7f27c790>
  60:	19270b3b 	stmdbne	r7!, {r0, r1, r3, r4, r5, r8, r9, fp}
  64:	06120111 			; <UNDEFINED> instruction: 0x06120111
  68:	42961840 	addsmi	r1, r6, #64, 16	; 0x400000
  6c:	00130119 	andseq	r0, r3, r9, lsl r1
  70:	00340600 	eorseq	r0, r4, r0, lsl #12
  74:	0b3a0e03 	bleq	e83888 <_start-0x7f27c778>
  78:	13490b3b 	movtne	r0, #39739	; 0x9b3b
  7c:	00001802 	andeq	r1, r0, r2, lsl #16
  80:	03003407 	movweq	r3, #1031	; 0x407
  84:	3b0b3a08 	blcc	2ce8ac <_start-0x7fe31754>
  88:	0213490b 	andseq	r4, r3, #180224	; 0x2c000
  8c:	08000018 	stmdaeq	r0, {r3, r4}
  90:	0b0b000f 	bleq	2c00d4 <_start-0x7fe3ff2c>
  94:	00001349 	andeq	r1, r0, r9, asr #6
  98:	01110100 	tsteq	r1, r0, lsl #2
  9c:	0b130e25 	bleq	4c3938 <_start-0x7fc3c6c8>
  a0:	0e1b0e03 	cdpeq	14, 1, cr0, cr11, cr3, {0}
  a4:	06120111 			; <UNDEFINED> instruction: 0x06120111
  a8:	00001710 	andeq	r1, r0, r0, lsl r7
  ac:	3f012e02 	svccc	0x00012e02
  b0:	3a0e0319 	bcc	380d1c <_start-0x7fd7f2e4>
  b4:	270b3b0b 	strcs	r3, [fp, -fp, lsl #22]
  b8:	12011119 	andne	r1, r1, #1073741830	; 0x40000006
  bc:	96184006 	ldrls	r4, [r8], -r6
  c0:	13011942 	movwne	r1, #6466	; 0x1942
  c4:	05030000 	streq	r0, [r3, #-0]
  c8:	3a080300 	bcc	200cd0 <_start-0x7feff330>
  cc:	490b3b0b 	stmdbmi	fp, {r0, r1, r3, r8, r9, fp, ip, sp}
  d0:	00180213 	andseq	r0, r8, r3, lsl r2
  d4:	00050400 	andeq	r0, r5, r0, lsl #8
  d8:	0b3a0e03 	bleq	e838ec <_start-0x7f27c714>
  dc:	13490b3b 	movtne	r0, #39739	; 0x9b3b
  e0:	00001802 	andeq	r1, r0, r2, lsl #16
  e4:	03003405 	movweq	r3, #1029	; 0x405
  e8:	3b0b3a08 	blcc	2ce910 <_start-0x7fe316f0>
  ec:	0213490b 	andseq	r4, r3, #180224	; 0x2c000
  f0:	06000018 			; <UNDEFINED> instruction: 0x06000018
  f4:	0b0b0024 	bleq	2c018c <_start-0x7fe3fe74>
  f8:	08030b3e 	stmdaeq	r3, {r1, r2, r3, r4, r5, r8, r9, fp}
  fc:	2e070000 	cdpcs	0, 0, cr0, cr7, cr0, {0}
 100:	03193f01 	tsteq	r9, #1, 30
 104:	3b0b3a0e 	blcc	2ce944 <_start-0x7fe316bc>
 108:	1119270b 	tstne	r9, fp, lsl #14
 10c:	40061201 	andmi	r1, r6, r1, lsl #4
 110:	19429618 	stmdbne	r2, {r3, r4, r9, sl, ip, pc}^
 114:	01000000 	mrseq	r0, (UNDEF: 0)
 118:	0e250111 	mcreq	1, 1, r0, cr5, cr1, {0}
 11c:	0e030b13 	vmoveq.32	d3[0], r0
 120:	01110e1b 	tsteq	r1, fp, lsl lr
 124:	17100612 			; <UNDEFINED> instruction: 0x17100612
 128:	24020000 	strcs	r0, [r2], #-0
 12c:	3e0b0b00 	vmlacc.f64	d0, d11, d0
 130:	000e030b 	andeq	r0, lr, fp, lsl #6
 134:	00240300 	eoreq	r0, r4, r0, lsl #6
 138:	0b3e0b0b 	bleq	f82d6c <_start-0x7f17d294>
 13c:	00000803 	andeq	r0, r0, r3, lsl #16
 140:	03003404 	movweq	r3, #1028	; 0x404
 144:	3b0b3a0e 	blcc	2ce984 <_start-0x7fe3167c>
 148:	0213490b 	andseq	r4, r3, #180224	; 0x2c000
 14c:	05000018 	streq	r0, [r0, #-24]	; 0xffffffe8
 150:	08030034 	stmdaeq	r3, {r2, r4, r5}
 154:	0b3b0b3a 	bleq	ec2e44 <_start-0x7f23d1bc>
 158:	18021349 	stmdane	r2, {r0, r3, r6, r8, r9, ip}
 15c:	2e060000 	cdpcs	0, 0, cr0, cr6, cr0, {0}
 160:	03193f01 	tsteq	r9, #1, 30
 164:	3b0b3a0e 	blcc	2ce9a4 <_start-0x7fe3165c>
 168:	1119270b 	tstne	r9, fp, lsl #14
 16c:	40061201 	andmi	r1, r6, r1, lsl #4
 170:	19429618 	stmdbne	r2, {r3, r4, r9, sl, ip, pc}^
 174:	00001301 	andeq	r1, r0, r1, lsl #6
 178:	03000507 	movweq	r0, #1287	; 0x507
 17c:	3b0b3a08 	blcc	2ce9a4 <_start-0x7fe3165c>
 180:	0213490b 	andseq	r4, r3, #180224	; 0x2c000
 184:	08000018 	stmdaeq	r0, {r3, r4}
 188:	0e030005 	cdpeq	0, 0, cr0, cr3, cr5, {0}
 18c:	0b3b0b3a 	bleq	ec2e7c <_start-0x7f23d184>
 190:	18021349 	stmdane	r2, {r0, r3, r6, r8, r9, ip}
 194:	0f090000 	svceq	0x00090000
 198:	490b0b00 	stmdbmi	fp, {r8, r9, fp}
 19c:	0a000013 	beq	1f0 <_start-0x800ffe10>
 1a0:	193f012e 	ldmdbne	pc!, {r1, r2, r3, r5, r8}	; <UNPREDICTABLE>
 1a4:	0b3a0e03 	bleq	e839b8 <_start-0x7f27c648>
 1a8:	19270b3b 	stmdbne	r7!, {r0, r1, r3, r4, r5, r8, r9, fp}
 1ac:	01111349 	tsteq	r1, r9, asr #6
 1b0:	18400612 	stmdane	r0, {r1, r4, r9, sl}^
 1b4:	01194297 			; <UNDEFINED> instruction: 0x01194297
 1b8:	0b000013 	bleq	20c <_start-0x800ffdf4>
 1bc:	193f002e 	ldmdbne	pc!, {r1, r2, r3, r5}	; <UNPREDICTABLE>
 1c0:	0b3a0e03 	bleq	e839d4 <_start-0x7f27c62c>
 1c4:	19270b3b 	stmdbne	r7!, {r0, r1, r3, r4, r5, r8, r9, fp}
 1c8:	06120111 			; <UNDEFINED> instruction: 0x06120111
 1cc:	42961840 	addsmi	r1, r6, #64, 16	; 0x400000
 1d0:	00000019 	andeq	r0, r0, r9, lsl r0
 1d4:	25011101 	strcs	r1, [r1, #-257]	; 0xfffffeff
 1d8:	030b130e 	movweq	r1, #45838	; 0xb30e
 1dc:	110e1b0e 	tstne	lr, lr, lsl #22
 1e0:	10061201 	andne	r1, r6, r1, lsl #4
 1e4:	02000017 	andeq	r0, r0, #23
 1e8:	0b0b0024 	bleq	2c0280 <_start-0x7fe3fd80>
 1ec:	0e030b3e 	vmoveq.16	d3[0], r0
 1f0:	13030000 	movwne	r0, #12288	; 0x3000
 1f4:	0b0e0301 	bleq	380e00 <_start-0x7fd7f200>
 1f8:	3b0b3a0b 	blcc	2cea2c <_start-0x7fe315d4>
 1fc:	0013010b 	andseq	r0, r3, fp, lsl #2
 200:	000d0400 	andeq	r0, sp, r0, lsl #8
 204:	0b3a0803 	bleq	e82218 <_start-0x7f27dde8>
 208:	13490b3b 	movtne	r0, #39739	; 0x9b3b
 20c:	00000b38 	andeq	r0, r0, r8, lsr fp
 210:	03000d05 	movweq	r0, #3333	; 0xd05
 214:	3b0b3a0e 	blcc	2cea54 <_start-0x7fe315ac>
 218:	3813490b 	ldmdacc	r3, {r0, r1, r3, r8, fp, lr}
 21c:	0600000b 	streq	r0, [r0], -fp
 220:	0b0b0024 	bleq	2c02b8 <_start-0x7fe3fd48>
 224:	08030b3e 	stmdaeq	r3, {r1, r2, r3, r4, r5, r8, r9, fp}
 228:	16070000 	strne	r0, [r7], -r0
 22c:	3a0e0300 	bcc	380e34 <_start-0x7fd7f1cc>
 230:	490b3b0b 	stmdbmi	fp, {r0, r1, r3, r8, r9, fp, ip, sp}
 234:	08000013 	stmdaeq	r0, {r0, r1, r4}
 238:	0b0b000f 	bleq	2c027c <_start-0x7fe3fd84>
 23c:	00001349 	andeq	r1, r0, r9, asr #6
 240:	49002609 	stmdbmi	r0, {r0, r3, r9, sl, sp}
 244:	0a000013 	beq	298 <_start-0x800ffd68>
 248:	19270115 	stmdbne	r7!, {r0, r2, r4, r8}
 24c:	00001301 	andeq	r1, r0, r1, lsl #6
 250:	4900050b 	stmdbmi	r0, {r0, r1, r3, r8, sl}
 254:	0c000013 	stceq	0, cr0, [r0], {19}
 258:	19270015 	stmdbne	r7!, {r0, r2, r4}
 25c:	010d0000 	mrseq	r0, (UNDEF: 13)
 260:	01134901 	tsteq	r3, r1, lsl #18
 264:	0e000013 	mcreq	0, 0, r0, cr0, cr3, {0}
 268:	13490021 	movtne	r0, #36897	; 0x9021
 26c:	00000b2f 	andeq	r0, r0, pc, lsr #22
 270:	0300340f 	movweq	r3, #1039	; 0x40f
 274:	3b0b3a0e 	blcc	2ceab4 <_start-0x7fe3154c>
 278:	0213490b 	andseq	r4, r3, #180224	; 0x2c000
 27c:	10000018 	andne	r0, r0, r8, lsl r0
 280:	193f002e 	ldmdbne	pc!, {r1, r2, r3, r5}	; <UNPREDICTABLE>
 284:	0b3a0e03 	bleq	e83a98 <_start-0x7f27c568>
 288:	19270b3b 	stmdbne	r7!, {r0, r1, r3, r4, r5, r8, r9, fp}
 28c:	06120111 			; <UNDEFINED> instruction: 0x06120111
 290:	42961840 	addsmi	r1, r6, #64, 16	; 0x400000
 294:	11000019 	tstne	r0, r9, lsl r0
 298:	193f012e 	ldmdbne	pc!, {r1, r2, r3, r5, r8}	; <UNPREDICTABLE>
 29c:	0b3a0e03 	bleq	e83ab0 <_start-0x7f27c550>
 2a0:	19270b3b 	stmdbne	r7!, {r0, r1, r3, r4, r5, r8, r9, fp}
 2a4:	01111349 	tsteq	r1, r9, asr #6
 2a8:	18400612 	stmdane	r0, {r1, r4, r9, sl}^
 2ac:	01194296 			; <UNDEFINED> instruction: 0x01194296
 2b0:	12000013 	andne	r0, r0, #19
 2b4:	0e030005 	cdpeq	0, 0, cr0, cr3, cr5, {0}
 2b8:	0b3b0b3a 	bleq	ec2fa8 <_start-0x7f23d058>
 2bc:	18021349 	stmdane	r2, {r0, r3, r6, r8, r9, ip}
 2c0:	34130000 	ldrcc	r0, [r3], #-0
 2c4:	3a080300 	bcc	200ecc <_start-0x7feff134>
 2c8:	490b3b0b 	stmdbmi	fp, {r0, r1, r3, r8, r9, fp, ip, sp}
 2cc:	00180213 	andseq	r0, r8, r3, lsl r2
 2d0:	012e1400 			; <UNDEFINED> instruction: 0x012e1400
 2d4:	0e03193f 			; <UNDEFINED> instruction: 0x0e03193f
 2d8:	0b3b0b3a 	bleq	ec2fc8 <_start-0x7f23d038>
 2dc:	13491927 	movtne	r1, #39207	; 0x9927
 2e0:	06120111 			; <UNDEFINED> instruction: 0x06120111
 2e4:	42971840 	addsmi	r1, r7, #64, 16	; 0x400000
 2e8:	00130119 	andseq	r0, r3, r9, lsl r1
 2ec:	00051500 	andeq	r1, r5, r0, lsl #10
 2f0:	0b3a0803 	bleq	e82304 <_start-0x7f27dcfc>
 2f4:	13490b3b 	movtne	r0, #39739	; 0x9b3b
 2f8:	00001802 	andeq	r1, r0, r2, lsl #16
 2fc:	01110100 	tsteq	r1, r0, lsl #2
 300:	0b130e25 	bleq	4c3b9c <_start-0x7fc3c464>
 304:	0e1b0e03 	cdpeq	14, 1, cr0, cr11, cr3, {0}
 308:	06120111 			; <UNDEFINED> instruction: 0x06120111
 30c:	00001710 	andeq	r1, r0, r0, lsl r7
 310:	0b002402 	bleq	9320 <_start-0x800f6ce0>
 314:	030b3e0b 	movweq	r3, #48651	; 0xbe0b
 318:	0300000e 	movweq	r0, #14
 31c:	0e030113 	mcreq	1, 0, r0, cr3, cr3, {0}
 320:	0b3a0b0b 	bleq	e82f54 <_start-0x7f27d0ac>
 324:	13010b3b 	movwne	r0, #6971	; 0x1b3b
 328:	0d040000 	stceq	0, cr0, [r4, #-0]
 32c:	3a080300 	bcc	200f34 <_start-0x7feff0cc>
 330:	490b3b0b 	stmdbmi	fp, {r0, r1, r3, r8, r9, fp, ip, sp}
 334:	000b3813 	andeq	r3, fp, r3, lsl r8
 338:	000d0500 	andeq	r0, sp, r0, lsl #10
 33c:	0b3a0e03 	bleq	e83b50 <_start-0x7f27c4b0>
 340:	13490b3b 	movtne	r0, #39739	; 0x9b3b
 344:	00000b38 	andeq	r0, r0, r8, lsr fp
 348:	0b002406 	bleq	9368 <_start-0x800f6c98>
 34c:	030b3e0b 	movweq	r3, #48651	; 0xbe0b
 350:	07000008 	streq	r0, [r0, -r8]
 354:	13490035 	movtne	r0, #36917	; 0x9035
 358:	16080000 	strne	r0, [r8], -r0
 35c:	3a0e0300 	bcc	380f64 <_start-0x7fd7f09c>
 360:	490b3b0b 	stmdbmi	fp, {r0, r1, r3, r8, r9, fp, ip, sp}
 364:	09000013 	stmdbeq	r0, {r0, r1, r4}
 368:	0b0b000f 	bleq	2c03ac <_start-0x7fe3fc54>
 36c:	00001349 	andeq	r1, r0, r9, asr #6
 370:	4901010a 	stmdbmi	r1, {r1, r3, r8}
 374:	00130113 	andseq	r0, r3, r3, lsl r1
 378:	00210b00 	eoreq	r0, r1, r0, lsl #22
 37c:	0b2f1349 	bleq	bc50a8 <_start-0x7f53af58>
 380:	340c0000 	strcc	r0, [ip], #-0
 384:	3a0e0300 	bcc	380f8c <_start-0x7fd7f074>
 388:	490b3b0b 	stmdbmi	fp, {r0, r1, r3, r8, r9, fp, ip, sp}
 38c:	00180213 	andseq	r0, r8, r3, lsl r2
 390:	002e0d00 	eoreq	r0, lr, r0, lsl #26
 394:	0e03193f 			; <UNDEFINED> instruction: 0x0e03193f
 398:	0b3b0b3a 	bleq	ec3088 <_start-0x7f23cf78>
 39c:	01111927 	tsteq	r1, r7, lsr #18
 3a0:	18400612 	stmdane	r0, {r1, r4, r9, sl}^
 3a4:	00194296 	mulseq	r9, r6, r2
 3a8:	012e0e00 			; <UNDEFINED> instruction: 0x012e0e00
 3ac:	0e03193f 			; <UNDEFINED> instruction: 0x0e03193f
 3b0:	0b3b0b3a 	bleq	ec30a0 <_start-0x7f23cf60>
 3b4:	01111927 	tsteq	r1, r7, lsr #18
 3b8:	18400612 	stmdane	r0, {r1, r4, r9, sl}^
 3bc:	01194297 			; <UNDEFINED> instruction: 0x01194297
 3c0:	0f000013 	svceq	0x00000013
 3c4:	0e030005 	cdpeq	0, 0, cr0, cr3, cr5, {0}
 3c8:	0b3b0b3a 	bleq	ec30b8 <_start-0x7f23cf48>
 3cc:	18021349 	stmdane	r2, {r0, r3, r6, r8, r9, ip}
 3d0:	05100000 	ldreq	r0, [r0, #-0]
 3d4:	3a080300 	bcc	200fdc <_start-0x7feff024>
 3d8:	490b3b0b 	stmdbmi	fp, {r0, r1, r3, r8, r9, fp, ip, sp}
 3dc:	00180213 	andseq	r0, r8, r3, lsl r2
 3e0:	012e1100 			; <UNDEFINED> instruction: 0x012e1100
 3e4:	0e03193f 			; <UNDEFINED> instruction: 0x0e03193f
 3e8:	0b3b0b3a 	bleq	ec30d8 <_start-0x7f23cf28>
 3ec:	13491927 	movtne	r1, #39207	; 0x9927
 3f0:	06120111 			; <UNDEFINED> instruction: 0x06120111
 3f4:	42961840 	addsmi	r1, r6, #64, 16	; 0x400000
 3f8:	00130119 	andseq	r0, r3, r9, lsl r1
 3fc:	00341200 	eorseq	r1, r4, r0, lsl #4
 400:	0b3a0803 	bleq	e82414 <_start-0x7f27dbec>
 404:	13490b3b 	movtne	r0, #39739	; 0x9b3b
 408:	00001802 	andeq	r1, r0, r2, lsl #16
 40c:	3f012e13 	svccc	0x00012e13
 410:	3a0e0319 	bcc	38107c <_start-0x7fd7ef84>
 414:	270b3b0b 	strcs	r3, [fp, -fp, lsl #22]
 418:	11134919 	tstne	r3, r9, lsl r9
 41c:	40061201 	andmi	r1, r6, r1, lsl #4
 420:	19429718 	stmdbne	r2, {r3, r4, r8, r9, sl, ip, pc}^
 424:	00001301 	andeq	r1, r0, r1, lsl #6
 428:	3f012e14 	svccc	0x00012e14
 42c:	3a0e0319 	bcc	381098 <_start-0x7fd7ef68>
 430:	270b3b0b 	strcs	r3, [fp, -fp, lsl #22]
 434:	12011119 	andne	r1, r1, #1073741830	; 0x40000006
 438:	97184006 	ldrls	r4, [r8, -r6]
 43c:	00001942 	andeq	r1, r0, r2, asr #18
 440:	01110100 	tsteq	r1, r0, lsl #2
 444:	0b130e25 	bleq	4c3ce0 <_start-0x7fc3c320>
 448:	0e1b0e03 	cdpeq	14, 1, cr0, cr11, cr3, {0}
 44c:	06120111 			; <UNDEFINED> instruction: 0x06120111
 450:	00001710 	andeq	r1, r0, r0, lsl r7
 454:	0b010402 	bleq	41464 <_start-0x800beb9c>
 458:	3a13490b 	bcc	4d288c <_start-0x7fc2d774>
 45c:	010b3b0b 	tsteq	fp, fp, lsl #22
 460:	03000013 	movweq	r0, #19
 464:	0e030028 	cdpeq	0, 0, cr0, cr3, cr8, {1}
 468:	00000b1c 	andeq	r0, r0, ip, lsl fp
 46c:	0b002404 	bleq	9484 <_start-0x800f6b7c>
 470:	030b3e0b 	movweq	r3, #48651	; 0xbe0b
 474:	0500000e 	streq	r0, [r0, #-14]
 478:	0e030113 	mcreq	1, 0, r0, cr3, cr3, {0}
 47c:	0b3a0b0b 	bleq	e830b0 <_start-0x7f27cf50>
 480:	13010b3b 	movwne	r0, #6971	; 0x1b3b
 484:	0d060000 	stceq	0, cr0, [r6, #-0]
 488:	3a080300 	bcc	201090 <_start-0x7fefef70>
 48c:	490b3b0b 	stmdbmi	fp, {r0, r1, r3, r8, r9, fp, ip, sp}
 490:	000b3813 	andeq	r3, fp, r3, lsl r8
 494:	000d0700 	andeq	r0, sp, r0, lsl #14
 498:	0b3a0e03 	bleq	e83cac <_start-0x7f27c354>
 49c:	13490b3b 	movtne	r0, #39739	; 0x9b3b
 4a0:	00000b38 	andeq	r0, r0, r8, lsr fp
 4a4:	0b002408 	bleq	94cc <_start-0x800f6b34>
 4a8:	030b3e0b 	movweq	r3, #48651	; 0xbe0b
 4ac:	09000008 	stmdbeq	r0, {r3}
 4b0:	0e030016 	mcreq	0, 0, r0, cr3, cr6, {0}
 4b4:	0b3b0b3a 	bleq	ec31a4 <_start-0x7f23ce5c>
 4b8:	00001349 	andeq	r1, r0, r9, asr #6
 4bc:	0b000f0a 	bleq	40ec <_start-0x800fbf14>
 4c0:	0013490b 	andseq	r4, r3, fp, lsl #18
 4c4:	00340b00 	eorseq	r0, r4, r0, lsl #22
 4c8:	0b3a0e03 	bleq	e83cdc <_start-0x7f27c324>
 4cc:	13490b3b 	movtne	r0, #39739	; 0x9b3b
 4d0:	1802193f 	stmdane	r2, {r0, r1, r2, r3, r4, r5, r8, fp, ip}
 4d4:	2e0c0000 	cdpcs	0, 0, cr0, cr12, cr0, {0}
 4d8:	03193f00 	tsteq	r9, #0, 30
 4dc:	3b0b3a0e 	blcc	2ced1c <_start-0x7fe312e4>
 4e0:	1119270b 	tstne	r9, fp, lsl #14
 4e4:	40061201 	andmi	r1, r6, r1, lsl #4
 4e8:	19429618 	stmdbne	r2, {r3, r4, r9, sl, ip, pc}^
 4ec:	01000000 	mrseq	r0, (UNDEF: 0)
 4f0:	0e250111 	mcreq	1, 1, r0, cr5, cr1, {0}
 4f4:	0e030b13 	vmoveq.32	d3[0], r0
 4f8:	01110e1b 	tsteq	r1, fp, lsl lr
 4fc:	17100612 			; <UNDEFINED> instruction: 0x17100612
 500:	13020000 	movwne	r0, #8192	; 0x2000
 504:	3a0b0b01 	bcc	2c3110 <_start-0x7fe3cef0>
 508:	010b3b0b 	tsteq	fp, fp, lsl #22
 50c:	03000013 	movweq	r0, #19
 510:	0e03000d 	cdpeq	0, 0, cr0, cr3, cr13, {0}
 514:	0b3b0b3a 	bleq	ec3204 <_start-0x7f23cdfc>
 518:	0b381349 	bleq	e05244 <_start-0x7f2fadbc>
 51c:	24040000 	strcs	r0, [r4], #-0
 520:	3e0b0b00 	vmlacc.f64	d0, d11, d0
 524:	000e030b 	andeq	r0, lr, fp, lsl #6
 528:	00350500 	eorseq	r0, r5, r0, lsl #10
 52c:	00001349 	andeq	r1, r0, r9, asr #6
 530:	03001606 	movweq	r1, #1542	; 0x606
 534:	3b0b3a0e 	blcc	2ced74 <_start-0x7fe3128c>
 538:	0013490b 	andseq	r4, r3, fp, lsl #18
 53c:	000d0700 	andeq	r0, sp, r0, lsl #14
 540:	0b3a0803 	bleq	e82554 <_start-0x7f27daac>
 544:	13490b3b 	movtne	r0, #39739	; 0x9b3b
 548:	00000b38 	andeq	r0, r0, r8, lsr fp
 54c:	49010108 	stmdbmi	r1, {r3, r8}
 550:	00130113 	andseq	r0, r3, r3, lsl r1
 554:	00210900 	eoreq	r0, r1, r0, lsl #18
 558:	0b2f1349 	bleq	bc5284 <_start-0x7f53ad7c>
 55c:	130a0000 	movwne	r0, #40960	; 0xa000
 560:	3a050b01 	bcc	14316c <_start-0x7ffbce94>
 564:	010b3b0b 	tsteq	fp, fp, lsl #22
 568:	0b000013 	bleq	5bc <_start-0x800ffa44>
 56c:	0e03000d 	cdpeq	0, 0, cr0, cr3, cr13, {0}
 570:	0b3b0b3a 	bleq	ec3260 <_start-0x7f23cda0>
 574:	05381349 	ldreq	r1, [r8, #-841]!	; 0xfffffcb7
 578:	0d0c0000 	stceq	0, cr0, [ip, #-0]
 57c:	3a0e0300 	bcc	381184 <_start-0x7fd7ee7c>
 580:	49053b0b 	stmdbmi	r5, {r0, r1, r3, r8, r9, fp, ip, sp}
 584:	00053813 	andeq	r3, r5, r3, lsl r8
 588:	00160d00 	andseq	r0, r6, r0, lsl #26
 58c:	0b3a0e03 	bleq	e83da0 <_start-0x7f27c260>
 590:	1349053b 	movtne	r0, #38203	; 0x953b
 594:	130e0000 	movwne	r0, #57344	; 0xe000
 598:	0b0e0301 	bleq	3811a4 <_start-0x7fd7ee5c>
 59c:	3b0b3a0b 	blcc	2cedd0 <_start-0x7fe31230>
 5a0:	0013010b 	andseq	r0, r3, fp, lsl #2
 5a4:	00240f00 	eoreq	r0, r4, r0, lsl #30
 5a8:	0b3e0b0b 	bleq	f831dc <_start-0x7f17ce24>
 5ac:	00000803 	andeq	r0, r0, r3, lsl #16
 5b0:	0b000f10 	bleq	41f8 <_start-0x800fbe08>
 5b4:	0013490b 	andseq	r4, r3, fp, lsl #18
 5b8:	01151100 	tsteq	r5, r0, lsl #2
 5bc:	13011927 	movwne	r1, #6439	; 0x1927
 5c0:	05120000 	ldreq	r0, [r2, #-0]
 5c4:	00134900 	andseq	r4, r3, r0, lsl #18
 5c8:	00151300 	andseq	r1, r5, r0, lsl #6
 5cc:	00001927 	andeq	r1, r0, r7, lsr #18
 5d0:	03003414 	movweq	r3, #1044	; 0x414
 5d4:	3b0b3a0e 	blcc	2cee14 <_start-0x7fe311ec>
 5d8:	0213490b 	andseq	r4, r3, #180224	; 0x2c000
 5dc:	15000018 	strne	r0, [r0, #-24]	; 0xffffffe8
 5e0:	0e030034 	mcreq	0, 0, r0, cr3, cr4, {1}
 5e4:	053b0b3a 	ldreq	r0, [fp, #-2874]!	; 0xfffff4c6
 5e8:	193f1349 	ldmdbne	pc!, {r0, r3, r6, r8, r9, ip}	; <UNPREDICTABLE>
 5ec:	00001802 	andeq	r1, r0, r2, lsl #16
 5f0:	3f002e16 	svccc	0x00002e16
 5f4:	3a0e0319 	bcc	381260 <_start-0x7fd7eda0>
 5f8:	27053b0b 	strcs	r3, [r5, -fp, lsl #22]
 5fc:	12011119 	andne	r1, r1, #1073741830	; 0x40000006
 600:	96184006 	ldrls	r4, [r8], -r6
 604:	00001942 	andeq	r1, r0, r2, asr #18
 608:	03002e17 	movweq	r2, #3607	; 0xe17
 60c:	3b0b3a0e 	blcc	2cee4c <_start-0x7fe311b4>
 610:	1119270b 	tstne	r9, fp, lsl #14
 614:	40061201 	andmi	r1, r6, r1, lsl #4
 618:	19429718 	stmdbne	r2, {r3, r4, r8, r9, sl, ip, pc}^
 61c:	2e180000 	cdpcs	0, 1, cr0, cr8, cr0, {0}
 620:	3a0e0301 	bcc	38122c <_start-0x7fd7edd4>
 624:	270b3b0b 	strcs	r3, [fp, -fp, lsl #22]
 628:	12011119 	andne	r1, r1, #1073741830	; 0x40000006
 62c:	96184006 	ldrls	r4, [r8], -r6
 630:	13011942 	movwne	r1, #6466	; 0x1942
 634:	05190000 	ldreq	r0, [r9, #-0]
 638:	3a0e0300 	bcc	381240 <_start-0x7fd7edc0>
 63c:	490b3b0b 	stmdbmi	fp, {r0, r1, r3, r8, r9, fp, ip, sp}
 640:	00180213 	andseq	r0, r8, r3, lsl r2
 644:	012e1a00 			; <UNDEFINED> instruction: 0x012e1a00
 648:	0b3a0e03 	bleq	e83e5c <_start-0x7f27c1a4>
 64c:	19270b3b 	stmdbne	r7!, {r0, r1, r3, r4, r5, r8, r9, fp}
 650:	06120111 			; <UNDEFINED> instruction: 0x06120111
 654:	42971840 	addsmi	r1, r7, #64, 16	; 0x400000
 658:	00130119 	andseq	r0, r3, r9, lsl r1
 65c:	00341b00 	eorseq	r1, r4, r0, lsl #22
 660:	0b3a0803 	bleq	e82674 <_start-0x7f27d98c>
 664:	13490b3b 	movtne	r0, #39739	; 0x9b3b
 668:	00001802 	andeq	r1, r0, r2, lsl #16
	...

Disassembly of section .debug_aranges:

00000000 <.debug_aranges>:
   0:	0000001c 	andeq	r0, r0, ip, lsl r0
   4:	00000002 	andeq	r0, r0, r2
   8:	00040000 	andeq	r0, r4, r0
   c:	00000000 	andeq	r0, r0, r0
  10:	80100000 	andshi	r0, r0, r0
  14:	0000003c 	andeq	r0, r0, ip, lsr r0
	...
  20:	0000001c 	andeq	r0, r0, ip, lsl r0
  24:	00870002 	addeq	r0, r7, r2
  28:	00040000 	andeq	r0, r4, r0
  2c:	00000000 	andeq	r0, r0, r0
  30:	8010003c 	andshi	r0, r0, ip, lsr r0
  34:	000002b0 			; <UNDEFINED> instruction: 0x000002b0
	...
  40:	0000001c 	andeq	r0, r0, ip, lsl r0
  44:	01690002 	cmneq	r9, r2
  48:	00040000 	andeq	r0, r4, r0
  4c:	00000000 	andeq	r0, r0, r0
  50:	801002ec 	andshi	r0, r0, ip, ror #5
  54:	000003da 	ldrdeq	r0, [r0], -sl
	...
  60:	0000001c 	andeq	r0, r0, ip, lsl r0
  64:	027e0002 	rsbseq	r0, lr, #2
  68:	00040000 	andeq	r0, r4, r0
  6c:	00000000 	andeq	r0, r0, r0
  70:	801006c6 	andshi	r0, r0, r6, asr #13
  74:	00000124 	andeq	r0, r0, r4, lsr #2
	...
  80:	0000001c 	andeq	r0, r0, ip, lsl r0
  84:	03d20002 	bicseq	r0, r2, #2
  88:	00040000 	andeq	r0, r4, r0
  8c:	00000000 	andeq	r0, r0, r0
  90:	801007ea 	andshi	r0, r0, sl, ror #15
  94:	00000186 	andeq	r0, r0, r6, lsl #3
	...
  a0:	0000001c 	andeq	r0, r0, ip, lsl r0
  a4:	06ed0002 	strbteq	r0, [sp], r2
  a8:	00040000 	andeq	r0, r4, r0
  ac:	00000000 	andeq	r0, r0, r0
  b0:	80100970 	andshi	r0, r0, r0, ror r9
  b4:	0000018c 	andeq	r0, r0, ip, lsl #3
	...
  c0:	0000001c 	andeq	r0, r0, ip, lsl r0
  c4:	09a40002 	stmibeq	r4!, {r1}
  c8:	00040000 	andeq	r0, r4, r0
  cc:	00000000 	andeq	r0, r0, r0
  d0:	80100afc 			; <UNDEFINED> instruction: 0x80100afc
  d4:	00000014 	andeq	r0, r0, r4, lsl r0
	...
  e0:	0000001c 	andeq	r0, r0, ip, lsl r0
  e4:	0b3f0002 	bleq	fc00f4 <_start-0x7f13ff0c>
  e8:	00040000 	andeq	r0, r4, r0
  ec:	00000000 	andeq	r0, r0, r0
  f0:	80100b10 	andshi	r0, r0, r0, lsl fp
  f4:	000003ae 	andeq	r0, r0, lr, lsr #7
	...

Disassembly of section .debug_str:

00000000 <.debug_str>:
       0:	6d6f682f 	stclvs	8, cr6, [pc, #-188]!	; ffffff4c <__bss_end+0x7fefefbc>
       4:	6f622f65 	svcvs	0x00622f65
       8:	442f6b6f 	strtmi	r6, [pc], #-2927	; 10 <_start-0x800ffff0>
       c:	6c6e776f 	stclvs	7, cr7, [lr], #-444	; 0xfffffe44
      10:	7364616f 	cmnvc	r4, #-1073741797	; 0xc000001b
      14:	3030312f 	eorscc	r3, r0, pc, lsr #2
      18:	5f6b7361 	svcpl	0x006b7361
      1c:	36786d69 	ldrbtcc	r6, [r8], -r9, ror #26
      20:	5f6c6c75 	svcpl	0x006c6c75
      24:	736f6f4e 	cmnvc	pc, #312	; 0x138
      28:	676f7250 			; <UNDEFINED> instruction: 0x676f7250
      2c:	506d6172 	rsbpl	r6, sp, r2, ror r1
      30:	656a6f72 	strbvs	r6, [sl, #-3954]!	; 0xfffff08e
      34:	312f7463 			; <UNDEFINED> instruction: 0x312f7463
      38:	434c5f35 	movtmi	r5, #53045	; 0xcf35
      3c:	96bce744 	ldrtls	lr, [ip], r4, asr #14
      40:	2f8ba8e7 	svccs	0x008ba8e7
      44:	645f3230 	ldrbvs	r3, [pc], #-560	; 4c <_start-0x800fffb4>
      48:	6c5f746f 	cfldrdvs	mvd7, [pc], {111}	; 0x6f
      4c:	5f656e69 	svcpl	0x00656e69
      50:	63726963 	cmnvs	r2, #1622016	; 0x18c000
      54:	4700656c 	strmi	r6, [r0, -ip, ror #10]
      58:	4320554e 			; <UNDEFINED> instruction: 0x4320554e
      5c:	36203131 			; <UNDEFINED> instruction: 0x36203131
      60:	312e322e 			; <UNDEFINED> instruction: 0x312e322e
      64:	31303220 	teqcc	r0, r0, lsr #4
      68:	31303136 	teqcc	r0, r6, lsr r1
      6c:	6d2d2036 	stcvs	0, cr2, [sp, #-216]!	; 0xffffff28
      70:	68637261 	stmdavs	r3!, {r0, r5, r6, r9, ip, sp, lr}^
      74:	6d72613d 	ldfvse	f6, [r2, #-244]!	; 0xffffff0c
      78:	612d3776 			; <UNDEFINED> instruction: 0x612d3776
      7c:	746d2d20 	strbtvc	r2, [sp], #-3360	; 0xfffff2e0
      80:	3d656e75 	stclcc	14, cr6, [r5, #-468]!	; 0xfffffe2c
      84:	74726f63 	ldrbtvc	r6, [r2], #-3939	; 0xfffff09d
      88:	612d7865 			; <UNDEFINED> instruction: 0x612d7865
      8c:	6d2d2039 	stcvs	0, cr2, [sp, #-228]!	; 0xffffff1c
      90:	616f6c66 	cmnvs	pc, r6, ror #24
      94:	62612d74 	rsbvs	r2, r1, #116, 26	; 0x1d00
      98:	61683d69 	cmnvs	r8, r9, ror #26
      9c:	2d206472 	cfstrscs	mvf6, [r0, #-456]!	; 0xfffffe38
      a0:	7570666d 	ldrbvc	r6, [r0, #-1645]!	; 0xfffff993
      a4:	7066763d 	rsbvc	r7, r6, sp, lsr r6
      a8:	642d3376 	strtvs	r3, [sp], #-886	; 0xfffffc8a
      ac:	2d203631 	stccs	6, cr3, [r0, #-196]!	; 0xffffff3c
      b0:	7568746d 	strbvc	r7, [r8, #-1133]!	; 0xfffffb93
      b4:	2d20626d 	sfmcs	f6, 4, [r0, #-436]!	; 0xfffffe4c
      b8:	736c746d 	cmnvc	ip, #1828716544	; 0x6d000000
      bc:	6169642d 	cmnvs	r9, sp, lsr #8
      c0:	7463656c 	strbtvc	r6, [r3], #-1388	; 0xfffffa94
      c4:	756e673d 	strbvc	r6, [lr, #-1853]!	; 0xfffff8c3
      c8:	00672d20 	rsbeq	r2, r7, r0, lsr #26
      cc:	6e69616d 	powvsez	f6, f1, #5.0
      d0:	6d00632e 	stcvs	3, cr6, [r0, #-184]	; 0xffffff48
      d4:	006e6961 	rsbeq	r6, lr, r1, ror #18
      d8:	73657278 	cmnvc	r5, #120, 4	; 0x80000007
      dc:	64636c00 	strbtvs	r6, [r3], #-3072	; 0xfffff400
      e0:	7365745f 	cmnvc	r5, #1593835520	; 0x5f000000
      e4:	62660074 	rsbvs	r0, r6, #116	; 0x74
      e8:	7361625f 	cmnvc	r1, #-268435451	; 0xf0000005
      ec:	68730065 	ldmdavs	r3!, {r0, r2, r5, r6}^
      f0:	2074726f 	rsbscs	r7, r4, pc, ror #4
      f4:	69736e75 	ldmdbvs	r3!, {r0, r2, r4, r5, r6, r9, sl, fp, sp, lr}^
      f8:	64656e67 	strbtvs	r6, [r5], #-3687	; 0xfffff199
      fc:	746e6920 	strbtvc	r6, [lr], #-2336	; 0xfffff6e0
     100:	65727900 	ldrbvs	r7, [r2, #-2304]!	; 0xfffff700
     104:	65670073 	strbvs	r0, [r7, #-115]!	; 0xffffff8d
     108:	74656d6f 	strbtvc	r6, [r5], #-3439	; 0xfffff291
     10c:	632e7972 			; <UNDEFINED> instruction: 0x632e7972
     110:	61726400 	cmnvs	r2, r0, lsl #8
     114:	69635f77 	stmdbvs	r3!, {r0, r1, r2, r4, r5, r6, r8, r9, sl, fp, ip, lr}^
     118:	656c6372 	strbvs	r6, [ip, #-882]!	; 0xfffffc8e
     11c:	6c6f6300 	stclvs	3, cr6, [pc], #-0	; 124 <_start-0x800ffedc>
     120:	6400726f 	strvs	r7, [r0], #-623	; 0xfffffd91
     124:	5f776172 	svcpl	0x00776172
     128:	656e696c 	strbvs	r6, [lr, #-2412]!	; 0xfffff694
     12c:	78697000 	stmdavc	r9!, {ip, sp, lr}^
     130:	625f6c65 	subsvs	r6, pc, #25856	; 0x6500
     134:	00657361 	rsbeq	r7, r5, r1, ror #6
     138:	766e6f63 	strbtvc	r6, [lr], -r3, ror #30
     13c:	33747265 	cmncc	r4, #1342177286	; 0x50000006
     140:	70706232 	rsbsvc	r6, r0, r2, lsr r2
     144:	36316f74 	shsub16cc	r6, r1, r4
     148:	00707062 	rsbseq	r7, r0, r2, rrx
     14c:	705f6266 	subsvc	r6, pc, r6, ror #4
     150:	705f7475 	subsvc	r7, pc, r5, ror r4	; <UNPREDICTABLE>
     154:	6c657869 	stclvs	8, cr7, [r5], #-420	; 0xfffffe5c
     158:	5f626600 	svcpl	0x00626600
     15c:	5f746567 	svcpl	0x00746567
     160:	5f64636c 	svcpl	0x0064636c
     164:	61726170 	cmnvs	r2, r0, ror r1
     168:	6600736d 	strvs	r7, [r0], -sp, ror #6
     16c:	656d6172 	strbvs	r6, [sp, #-370]!	; 0xfffffe8e
     170:	66667562 	strbtvs	r7, [r6], -r2, ror #10
     174:	632e7265 			; <UNDEFINED> instruction: 0x632e7265
     178:	6c5f7000 	mravs	r7, pc, acc0
     17c:	635f6463 	cmpvs	pc, #1660944384	; 0x63000000
     180:	72746e6f 	rsbsvc	r6, r4, #1776	; 0x6f0
     184:	656c6c6f 	strbvs	r6, [ip, #-3183]!	; 0xfffff391
     188:	636c0072 	cmnvs	ip, #114	; 0x72
     18c:	6f635f64 	svcvs	0x00635f64
     190:	6c6f746e 	cfstrdvs	mvd7, [pc], #-440	; ffffffe0 <__bss_end+0x7feff050>
     194:	5f72656c 	svcpl	0x0072656c
     198:	00646461 	rsbeq	r6, r4, r1, ror #8
     19c:	64636c70 	strbtvs	r6, [r3], #-3184	; 0xfffff390
     1a0:	61726170 	cmnvs	r2, r0, ror r1
     1a4:	7000736d 	andvc	r7, r0, sp, ror #6
     1a8:	5f736e69 	svcpl	0x00736e69
     1ac:	616c6f70 	smcvs	50928	; 0xc6f0
     1b0:	79746972 	ldmdbvc	r4!, {r1, r4, r5, r6, r8, fp, sp, lr}^
     1b4:	6d697400 	cfstrdvs	mvd7, [r9, #-0]
     1b8:	65735f65 	ldrbvs	r5, [r3, #-3941]!	; 0xfffff09b
     1bc:	6c700071 	ldclvs	0, cr0, [r0], #-452	; 0xfffffe3c
     1c0:	6f636463 	svcvs	0x00636463
     1c4:	636c006e 	cmnvs	ip, #110	; 0x6e
     1c8:	6f635f64 	svcvs	0x00635f64
     1cc:	6f72746e 	svcvs	0x0072746e
     1d0:	72656c6c 	rsbvc	r6, r5, #108, 24	; 0x6c00
     1d4:	6e616d5f 	mcrvs	13, 3, r6, cr1, cr15, {2}
     1d8:	72656761 	rsbvc	r6, r5, #25427968	; 0x1840000
     1dc:	6700632e 	strvs	r6, [r0, -lr, lsr #6]
     1e0:	6c5f705f 	mrrcvs	0, 5, r7, pc, cr15	; <UNPREDICTABLE>
     1e4:	635f6463 	cmpvs	pc, #1660944384	; 0x63000000
     1e8:	72746e6f 	rsbsvc	r6, r4, #1776	; 0x6f0
     1ec:	656c6c6f 	strbvs	r6, [ip, #-3183]!	; 0xfffff391
     1f0:	65735f72 	ldrbvs	r5, [r3, #-3954]!	; 0xfffff08e
     1f4:	7463656c 	strbtvc	r6, [r3], #-1388	; 0xfffffa94
     1f8:	68006465 	stmdavs	r0, {r0, r2, r5, r6, sl, sp, lr}
     1fc:	636e7973 	cmnvs	lr, #1884160	; 0x1cc000
     200:	67657200 	strbvs	r7, [r5, -r0, lsl #4]!
     204:	65747369 	ldrbvs	r7, [r4, #-873]!	; 0xfffffc97
     208:	636c5f72 	cmnvs	ip, #456	; 0x1c8
     20c:	6f635f64 	svcvs	0x00635f64
     210:	6f72746e 	svcvs	0x0072746e
     214:	72656c6c 	rsbvc	r6, r5, #108, 24	; 0x6c00
     218:	6c637600 	stclvs	6, cr7, [r3], #-0
     21c:	5f70006b 	svcpl	0x0070006b
     220:	5f64636c 	svcpl	0x0064636c
     224:	61726170 	cmnvs	r2, r0, ror r1
     228:	7000736d 	andvc	r7, r0, sp, ror #6
     22c:	7272615f 	rsbsvc	r6, r2, #-1073741801	; 0xc0000017
     230:	6c5f7961 	mrrcvs	9, 6, r7, pc, cr1	; <UNPREDICTABLE>
     234:	635f6463 	cmpvs	pc, #1660944384	; 0x63000000
     238:	72746e6f 	rsbsvc	r6, r4, #1776	; 0x6f0
     23c:	656c6c6f 	strbvs	r6, [ip, #-3183]!	; 0xfffff391
     240:	74730072 	ldrbtvc	r0, [r3], #-114	; 0xffffff8e
     244:	706d6372 	rsbvc	r6, sp, r2, ror r3
     248:	7a697300 	bvc	1a5ce50 <_start-0x7e6a31b0>
     24c:	70797465 	rsbsvc	r7, r9, r5, ror #8
     250:	65730065 	ldrbvs	r0, [r3, #-101]!	; 0xffffff9b
     254:	7463656c 	strbtvc	r6, [r3], #-1388	; 0xfffffa94
     258:	64636c5f 	strbtvs	r6, [r3], #-3167	; 0xfffff3a1
     25c:	6e6f635f 	mcrvs	3, 3, r6, cr15, cr15, {2}
     260:	6c6f7274 	sfmvs	f7, 2, [pc], #-464	; 98 <_start-0x800fff68>
     264:	0072656c 	rsbseq	r6, r2, ip, ror #10
     268:	6e797376 	mrcvs	3, 3, r7, cr9, cr6, {3}
     26c:	616e0063 	cmnvs	lr, r3, rrx
     270:	7000656d 	andvc	r6, r0, sp, ror #10
     274:	5f736e69 	svcpl	0x00736e69
     278:	006c6f70 	rsbeq	r6, ip, r0, ror pc
     27c:	656d6974 	strbvs	r6, [sp, #-2420]!	; 0xfffff68c
     280:	7165735f 	cmnvc	r5, pc, asr r3
     284:	636e6575 	cmnvs	lr, #490733568	; 0x1d400000
     288:	5f5f0065 	svcpl	0x005f0065
     28c:	00736572 	rsbseq	r6, r3, r2, ror r5
     290:	5f64636c 	svcpl	0x0064636c
     294:	616e616d 	cmnvs	lr, sp, ror #2
     298:	2e726567 	cdpcs	5, 7, cr6, cr2, cr7, {3}
     29c:	65640063 	strbvs	r0, [r4, #-99]!	; 0xffffff9d
     2a0:	0079616c 	rsbseq	r6, r9, ip, ror #2
     2a4:	5f64636c 	svcpl	0x0064636c
     2a8:	74696e69 	strbtvc	r6, [r9], #-3689	; 0xfffff197
     2ac:	64636c00 	strbtvs	r6, [r3], #-3072	; 0xfffff400
     2b0:	7369645f 	cmnvc	r9, #1593835520	; 0x5f000000
     2b4:	656c6261 	strbvs	r6, [ip, #-609]!	; 0xfffffd9f
     2b8:	615f7000 	cmpvs	pc, r0
     2bc:	79617272 	stmdbvc	r1!, {r1, r4, r5, r6, r9, ip, sp, lr}^
     2c0:	64636c5f 	strbtvs	r6, [r3], #-3167	; 0xfffff3a1
     2c4:	64636c00 	strbtvs	r6, [r3], #-3072	; 0xfffff400
     2c8:	616e655f 	cmnvs	lr, pc, asr r5
     2cc:	00656c62 	rsbeq	r6, r5, r2, ror #24
     2d0:	656c6573 	strbvs	r6, [ip, #-1395]!	; 0xfffffa8d
     2d4:	6c5f7463 	cfldrdvs	mvd7, [pc], {99}	; 0x63
     2d8:	67006463 	strvs	r6, [r0, -r3, ror #8]
     2dc:	6c5f705f 	mrrcvs	0, 5, r7, pc, cr15	; <UNPREDICTABLE>
     2e0:	735f6463 	cmpvc	pc, #1660944384	; 0x63000000
     2e4:	63656c65 	cmnvs	r5, #25856	; 0x6500
     2e8:	00646574 	rsbeq	r6, r4, r4, ror r5
     2ec:	69676572 	stmdbvs	r7!, {r1, r4, r5, r6, r8, sl, sp, lr}^
     2f0:	72657473 	rsbvc	r7, r5, #1929379840	; 0x73000000
     2f4:	64636c5f 	strbtvs	r6, [r3], #-3167	; 0xfffff3a1
     2f8:	636c7000 	cmnvs	ip, #0
     2fc:	636c0064 	cmnvs	ip, #100	; 0x64
     300:	5f375f64 	svcpl	0x00375f64
     304:	64615f30 	strbtvs	r5, [r1], #-3888	; 0xfffff0d0
     308:	4e490064 	cdpmi	0, 4, cr0, cr9, cr4, {3}
     30c:	54524556 	ldrbpl	r4, [r2], #-1366	; 0xfffffaaa
     310:	64636c00 	strbtvs	r6, [r3], #-3072	; 0xfffff400
     314:	305f375f 	subscc	r3, pc, pc, asr r7	; <UNPREDICTABLE>
     318:	7261705f 	rsbvc	r7, r1, #95	; 0x5f
     31c:	00736d61 	rsbseq	r6, r3, r1, ror #26
     320:	4d524f4e 	ldclmi	15, cr4, [r2, #-312]	; 0xfffffec8
     324:	6c004c41 	stcvs	12, cr4, [r0], {65}	; 0x41
     328:	375f6463 	ldrbcc	r6, [pc, -r3, ror #8]
     32c:	632e305f 			; <UNDEFINED> instruction: 0x632e305f
     330:	4d4f4900 	vstrmi.16	s9, [pc, #-0]	; 338 <_start-0x800ffcc8>	; <UNPREDICTABLE>
     334:	5f435855 	svcpl	0x00435855
     338:	505f5753 	subspl	r5, pc, r3, asr r7	; <UNPREDICTABLE>
     33c:	435f4441 	cmpmi	pc, #1090519040	; 0x41000000
     340:	505f4c54 	subspl	r4, pc, r4, asr ip	; <UNPREDICTABLE>
     344:	4c5f4441 	cfldrdmi	mvd4, [pc], {65}	; 0x41
     348:	445f4443 	ldrbmi	r4, [pc], #-1091	; 350 <_start-0x800ffcb0>
     34c:	30415441 	subcc	r5, r1, r1, asr #8
     350:	4f490035 	svcmi	0x00490035
     354:	4358554d 	cmpmi	r8, #322961408	; 0x13400000
     358:	5f57535f 	svcpl	0x0057535f
     35c:	5f444150 	svcpl	0x00444150
     360:	5f4c5443 	svcpl	0x004c5443
     364:	5f444150 	svcpl	0x00444150
     368:	5f44434c 	svcpl	0x0044434c
     36c:	41544144 	cmpmi	r4, r4, asr #2
     370:	49003630 	stmdbmi	r0, {r4, r5, r9, sl, ip, sp}
     374:	58554d4f 	ldmdapl	r5, {r0, r1, r2, r3, r6, r8, sl, fp, lr}^
     378:	57535f43 	ldrbpl	r5, [r3, -r3, asr #30]
     37c:	4441505f 	strbmi	r5, [r1], #-95	; 0xffffffa1
     380:	4c54435f 	mrrcmi	3, 5, r4, r4, cr15	; <UNPREDICTABLE>
     384:	4441505f 	strbmi	r5, [r1], #-95	; 0xffffffa1
     388:	44434c5f 	strbmi	r4, [r3], #-3167	; 0xfffff3a1
     38c:	5441445f 	strbpl	r4, [r1], #-1119	; 0xfffffba1
     390:	00373041 	eorseq	r3, r7, r1, asr #32
     394:	554d4f49 	strbpl	r4, [sp, #-3913]	; 0xfffff0b7
     398:	535f4358 	cmppl	pc, #88, 6	; 0x60000001
     39c:	41505f57 	cmpmi	r0, r7, asr pc
     3a0:	54435f44 	strbpl	r5, [r3], #-3908	; 0xfffff0bc
     3a4:	41505f4c 	cmpmi	r0, ip, asr #30
     3a8:	434c5f44 	movtmi	r5, #53060	; 0xcf44
     3ac:	41445f44 	cmpmi	r4, r4, asr #30
     3b0:	38304154 	ldmdacc	r0!, {r2, r4, r6, r8, lr}
     3b4:	4d4f4900 	vstrmi.16	s9, [pc, #-0]	; 3bc <_start-0x800ffc44>	; <UNPREDICTABLE>
     3b8:	5f435855 	svcpl	0x00435855
     3bc:	505f5753 	subspl	r5, pc, r3, asr r7	; <UNPREDICTABLE>
     3c0:	435f4441 	cmpmi	pc, #1090519040	; 0x41000000
     3c4:	505f4c54 	subspl	r4, pc, r4, asr ip	; <UNPREDICTABLE>
     3c8:	4c5f4441 	cfldrdmi	mvd4, [pc], {65}	; 0x41
     3cc:	445f4443 	ldrbmi	r4, [pc], #-1091	; 3d4 <_start-0x800ffc2c>
     3d0:	30415441 	subcc	r5, r1, r1, asr #8
     3d4:	45520039 	ldrbmi	r0, [r2, #-57]	; 0xffffffc7
     3d8:	56524553 			; <UNDEFINED> instruction: 0x56524553
     3dc:	325f4445 	subscc	r4, pc, #1157627904	; 0x45000000
     3e0:	45520038 	ldrbmi	r0, [r2, #-56]	; 0xffffffc8
     3e4:	56524553 			; <UNDEFINED> instruction: 0x56524553
     3e8:	325f4445 	subscc	r4, pc, #1157627904	; 0x45000000
     3ec:	44560039 	ldrbmi	r0, [r6], #-57	; 0xffffffc7
     3f0:	4c525443 	cfldrdmi	mvd5, [r2], {67}	; 0x43
     3f4:	4c435f30 	mcrrmi	15, 3, r5, r3, cr0
     3f8:	4c500052 	mrrcmi	0, 5, r0, r0, cr2	; <UNPREDICTABLE>
     3fc:	59535f4c 	ldmdbpl	r3, {r2, r3, r6, r8, r9, sl, fp, ip, lr}^
     400:	48430053 	stmdami	r3, {r0, r1, r4, r6}^
     404:	44434353 	strbmi	r4, [r3], #-851	; 0xfffffcad
     408:	46500052 			; <UNDEFINED> instruction: 0x46500052
     40c:	38345f44 	ldmdacc	r4!, {r2, r6, r8, r9, sl, fp, ip, lr}
     410:	43430030 	movtmi	r0, #12336	; 0x3030
     414:	00315247 	eorseq	r5, r1, r7, asr #4
     418:	52474343 	subpl	r4, r7, #201326593	; 0xc000001
     41c:	43430033 	movtmi	r0, #12339	; 0x3033
     420:	00345247 	eorseq	r5, r4, r7, asr #4
     424:	52474343 	subpl	r4, r7, #201326593	; 0xc000001
     428:	6d490035 	stclvs	0, cr0, [r9, #-212]	; 0xffffff2c
     42c:	6c753678 	ldclvs	6, cr3, [r5], #-480	; 0xfffffe20
     430:	636c5f6c 	cmnvs	ip, #108, 30	; 0x1b0
     434:	6f635f64 	svcvs	0x00635f64
     438:	6f72746e 	svcvs	0x0072746e
     43c:	72656c6c 	rsbvc	r6, r5, #108, 24	; 0x6c00
     440:	52544300 	subspl	r4, r4, #0, 6
     444:	545f324c 	ldrbpl	r3, [pc], #-588	; 44c <_start-0x800ffbb4>
     448:	4300474f 	movwmi	r4, #1871	; 0x74f
     44c:	52444344 	subpl	r4, r4, #68, 6	; 0x10000001
     450:	52544300 	subspl	r4, r4, #0, 6
     454:	45535f4c 	ldrbmi	r5, [r3, #-3916]	; 0xfffff0b4
     458:	43430054 	movtmi	r0, #12372	; 0x3054
     45c:	50005253 	andpl	r5, r0, r3, asr r2
     460:	355f4446 	ldrbcc	r4, [pc, #-1094]	; 22 <_start-0x800fffde>
     464:	50003832 	andpl	r3, r0, r2, lsr r8
     468:	415f4c4c 	cmpmi	pc, ip, asr #24
     46c:	4f494455 	svcmi	0x00494455
     470:	5445535f 	strbpl	r5, [r5], #-863	; 0xfffffca1
     474:	4d434300 	stclmi	3, cr4, [r3, #-0]
     478:	7079545f 	rsbsvc	r5, r9, pc, asr r4
     47c:	494d0065 	stmdbmi	sp, {r0, r2, r5, r6}^
     480:	5f324353 	svcpl	0x00324353
     484:	00474f54 	subeq	r4, r7, r4, asr pc
     488:	36786d49 	ldrbtcc	r6, [r8], -r9, asr #26
     48c:	5f6c6c75 	svcpl	0x006c6c75
     490:	5f64636c 	svcpl	0x0064636c
     494:	746e6f63 	strbtvc	r6, [lr], #-3939	; 0xfffff09d
     498:	6c6c6f72 	stclvs	15, cr6, [ip], #-456	; 0xfffffe38
     49c:	615f7265 	cmpvs	pc, r5, ror #4
     4a0:	50006464 	andpl	r6, r0, r4, ror #8
     4a4:	565f4c4c 	ldrbpl	r4, [pc], -ip, asr #24
     4a8:	4f454449 	svcmi	0x00454449
     4ac:	4d554e5f 	ldclmi	14, cr4, [r5, #-380]	; 0xfffffe84
     4b0:	4d4f4900 	vstrmi.16	s9, [pc, #-0]	; 4b8 <_start-0x800ffb48>	; <UNPREDICTABLE>
     4b4:	5f435855 	svcpl	0x00435855
     4b8:	4d5f5753 	ldclmi	7, cr5, [pc, #-332]	; 374 <_start-0x800ffc8c>
     4bc:	435f5855 	cmpmi	pc, #5570560	; 0x550000
     4c0:	505f4c54 	subspl	r4, pc, r4, asr ip	; <UNPREDICTABLE>
     4c4:	4c5f4441 	cfldrdmi	mvd4, [pc], {65}	; 0x41
     4c8:	455f4443 	ldrbmi	r4, [pc, #-1091]	; 8d <_start-0x800fff73>
     4cc:	4c42414e 	stfmie	f4, [r2], {78}	; 0x4e
     4d0:	4f490045 	svcmi	0x00490045
     4d4:	4358554d 	cmpmi	r8, #322961408	; 0x13400000
     4d8:	5f57535f 	svcpl	0x0057535f
     4dc:	5f444150 	svcpl	0x00444150
     4e0:	5f4c5443 	svcpl	0x004c5443
     4e4:	5f444150 	svcpl	0x00444150
     4e8:	5f44434c 	svcpl	0x0044434c
     4ec:	41544144 	cmpmi	r4, r4, asr #2
     4f0:	49003031 	stmdbmi	r0, {r0, r4, r5, ip, sp}
     4f4:	58554d4f 	ldmdapl	r5, {r0, r1, r2, r3, r6, r8, sl, fp, lr}^
     4f8:	57535f43 	ldrbpl	r5, [r3, -r3, asr #30]
     4fc:	4441505f 	strbmi	r5, [r1], #-95	; 0xffffffa1
     500:	4c54435f 	mrrcmi	3, 5, r4, r4, cr15	; <UNPREDICTABLE>
     504:	4441505f 	strbmi	r5, [r1], #-95	; 0xffffffa1
     508:	44434c5f 	strbmi	r4, [r3], #-3167	; 0xfffff3a1
     50c:	5441445f 	strbpl	r4, [r1], #-1119	; 0xfffffba1
     510:	00313141 	eorseq	r3, r1, r1, asr #2
     514:	554d4f49 	strbpl	r4, [sp, #-3913]	; 0xfffff0b7
     518:	535f4358 	cmppl	pc, #88, 6	; 0x60000001
     51c:	41505f57 	cmpmi	r0, r7, asr pc
     520:	54435f44 	strbpl	r5, [r3], #-3908	; 0xfffff0bc
     524:	41505f4c 	cmpmi	r0, ip, asr #30
     528:	434c5f44 	movtmi	r5, #53060	; 0xcf44
     52c:	41445f44 	cmpmi	r4, r4, asr #30
     530:	32314154 	eorscc	r4, r1, #84, 2
     534:	4d4f4900 	vstrmi.16	s9, [pc, #-0]	; 53c <_start-0x800ffac4>	; <UNPREDICTABLE>
     538:	5f435855 	svcpl	0x00435855
     53c:	505f5753 	subspl	r5, pc, r3, asr r7	; <UNPREDICTABLE>
     540:	435f4441 	cmpmi	pc, #1090519040	; 0x41000000
     544:	505f4c54 	subspl	r4, pc, r4, asr ip	; <UNPREDICTABLE>
     548:	4c5f4441 	cfldrdmi	mvd4, [pc], {65}	; 0x41
     54c:	445f4443 	ldrbmi	r4, [pc], #-1091	; 554 <_start-0x800ffaac>
     550:	31415441 	cmpcc	r1, r1, asr #8
     554:	4f490033 	svcmi	0x00490033
     558:	4358554d 	cmpmi	r8, #322961408	; 0x13400000
     55c:	5f57535f 	svcpl	0x0057535f
     560:	5f444150 	svcpl	0x00444150
     564:	5f4c5443 	svcpl	0x004c5443
     568:	5f444150 	svcpl	0x00444150
     56c:	5f44434c 	svcpl	0x0044434c
     570:	41544144 	cmpmi	r4, r4, asr #2
     574:	49003431 	stmdbmi	r0, {r0, r4, r5, sl, ip, sp}
     578:	58554d4f 	ldmdapl	r5, {r0, r1, r2, r3, r6, r8, sl, fp, lr}^
     57c:	57535f43 	ldrbpl	r5, [r3, -r3, asr #30]
     580:	4441505f 	strbmi	r5, [r1], #-95	; 0xffffffa1
     584:	4c54435f 	mrrcmi	3, 5, r4, r4, cr15	; <UNPREDICTABLE>
     588:	4441505f 	strbmi	r5, [r1], #-95	; 0xffffffa1
     58c:	44434c5f 	strbmi	r4, [r3], #-3167	; 0xfffff3a1
     590:	5441445f 	strbpl	r4, [r1], #-1119	; 0xfffffba1
     594:	00353141 	eorseq	r3, r5, r1, asr #2
     598:	554d4f49 	strbpl	r4, [sp, #-3913]	; 0xfffff0b7
     59c:	535f4358 	cmppl	pc, #88, 6	; 0x60000001
     5a0:	41505f57 	cmpmi	r0, r7, asr pc
     5a4:	54435f44 	strbpl	r5, [r3], #-3908	; 0xfffff0bc
     5a8:	41505f4c 	cmpmi	r0, ip, asr #30
     5ac:	434c5f44 	movtmi	r5, #53060	; 0xcf44
     5b0:	41445f44 	cmpmi	r4, r4, asr #30
     5b4:	36314154 			; <UNDEFINED> instruction: 0x36314154
     5b8:	4d4f4900 	vstrmi.16	s9, [pc, #-0]	; 5c0 <_start-0x800ffa40>	; <UNPREDICTABLE>
     5bc:	5f435855 	svcpl	0x00435855
     5c0:	505f5753 	subspl	r5, pc, r3, asr r7	; <UNPREDICTABLE>
     5c4:	435f4441 	cmpmi	pc, #1090519040	; 0x41000000
     5c8:	505f4c54 	subspl	r4, pc, r4, asr ip	; <UNPREDICTABLE>
     5cc:	4c5f4441 	cfldrdmi	mvd4, [pc], {65}	; 0x41
     5d0:	445f4443 	ldrbmi	r4, [pc], #-1091	; 5d8 <_start-0x800ffa28>
     5d4:	31415441 	cmpcc	r1, r1, asr #8
     5d8:	4f490037 	svcmi	0x00490037
     5dc:	4358554d 	cmpmi	r8, #322961408	; 0x13400000
     5e0:	5f57535f 	svcpl	0x0057535f
     5e4:	5f444150 	svcpl	0x00444150
     5e8:	5f4c5443 	svcpl	0x004c5443
     5ec:	5f444150 	svcpl	0x00444150
     5f0:	5f44434c 	svcpl	0x0044434c
     5f4:	41544144 	cmpmi	r4, r4, asr #2
     5f8:	49003831 	stmdbmi	r0, {r0, r4, r5, fp, ip, sp}
     5fc:	58554d4f 	ldmdapl	r5, {r0, r1, r2, r3, r6, r8, sl, fp, lr}^
     600:	57535f43 	ldrbpl	r5, [r3, -r3, asr #30]
     604:	4441505f 	strbmi	r5, [r1], #-95	; 0xffffffa1
     608:	4c54435f 	mrrcmi	3, 5, r4, r4, cr15	; <UNPREDICTABLE>
     60c:	4441505f 	strbmi	r5, [r1], #-95	; 0xffffffa1
     610:	44434c5f 	strbmi	r4, [r3], #-3167	; 0xfffff3a1
     614:	5441445f 	strbpl	r4, [r1], #-1119	; 0xfffffba1
     618:	00393141 	eorseq	r3, r9, r1, asr #2
     61c:	5f4c4c50 	svcpl	0x004c4c50
     620:	5f535953 	svcpl	0x00535953
     624:	42005353 	andmi	r5, r0, #1275068417	; 0x4c000001
     628:	52455f4d 	subpl	r5, r5, #308	; 0x134
     62c:	5f524f52 	svcpl	0x00524f52
     630:	54415453 	strbpl	r5, [r1], #-1107	; 0xfffffbad
     634:	53494d00 	movtpl	r4, #40192	; 0x9d00
     638:	435f3143 	cmpmi	pc, #-1073741808	; 0xc0000010
     63c:	4300524c 	movwmi	r5, #588	; 0x24c
     640:	524f454d 	subpl	r4, pc, #322961408	; 0x13400000
     644:	5f534100 	svcpl	0x00534100
     648:	00465542 	subeq	r5, r6, r2, asr #10
     64c:	4c525443 	cfldrdmi	mvd5, [r2], {67}	; 0x43
     650:	474f545f 	smlsldmi	r5, pc, pc, r4	; <UNPREDICTABLE>
     654:	4d494300 	stclmi	3, cr4, [r9, #-0]
     658:	54430052 	strbpl	r0, [r3], #-82	; 0xffffffae
     65c:	5f314c52 	svcpl	0x00314c52
     660:	00544553 	subseq	r4, r4, r3, asr r5
     664:	54434456 	strbpl	r4, [r3], #-1110	; 0xfffffbaa
     668:	5f304c52 	svcpl	0x00304c52
     66c:	00544553 	subseq	r4, r4, r3, asr r5
     670:	4d5f5753 	ldclmi	7, cr5, [pc, #-332]	; 52c <_start-0x800ffad4>
     674:	435f5855 	cmpmi	pc, #5570560	; 0x550000
     678:	545f4c54 	ldrbpl	r4, [pc], #-3156	; 680 <_start-0x800ff980>
     67c:	00657079 	rsbeq	r7, r5, r9, ror r0
     680:	5f4c4c50 	svcpl	0x004c4c50
     684:	45444956 	strbmi	r4, [r4, #-2390]	; 0xfffff6aa
     688:	45535f4f 	ldrbmi	r5, [r3, #-3919]	; 0xfffff0b1
     68c:	4f490054 	svcmi	0x00490054
     690:	4358554d 	cmpmi	r8, #322961408	; 0x13400000
     694:	5f57535f 	svcpl	0x0057535f
     698:	5f58554d 	svcpl	0x0058554d
     69c:	5f4c5443 	svcpl	0x004c5443
     6a0:	5f444150 	svcpl	0x00444150
     6a4:	5f44434c 	svcpl	0x0044434c
     6a8:	45534552 	ldrbmi	r4, [r3, #-1362]	; 0xfffffaae
     6ac:	43430054 	movtmi	r0, #12372	; 0x3054
     6b0:	4e415f4d 	cdpmi	15, 4, cr5, cr1, cr13, {2}
     6b4:	474f4c41 	strbmi	r4, [pc, -r1, asr #24]
     6b8:	7079545f 	rsbsvc	r5, r9, pc, asr r4
     6bc:	43430065 	movtmi	r0, #12389	; 0x3065
     6c0:	00305247 	eorseq	r5, r0, r7, asr #4
     6c4:	554d4f49 	strbpl	r4, [sp, #-3913]	; 0xfffff0b7
     6c8:	535f4358 	cmppl	pc, #88, 6	; 0x60000001
     6cc:	41505f57 	cmpmi	r0, r7, asr pc
     6d0:	54435f44 	strbpl	r5, [r3], #-3908	; 0xfffff0bc
     6d4:	41505f4c 	cmpmi	r0, ip, asr #30
     6d8:	434c5f44 	movtmi	r5, #53060	; 0xcf44
     6dc:	4e455f44 	cdpmi	15, 4, cr5, cr5, cr4, {2}
     6e0:	454c4241 	strbmi	r4, [ip, #-577]	; 0xfffffdbf
     6e4:	47434300 	strbmi	r4, [r3, -r0, lsl #6]
     6e8:	52003252 	andpl	r3, r0, #536870917	; 0x20000005
     6ec:	52455345 	subpl	r5, r5, #335544321	; 0x14000001
     6f0:	5f444556 	svcpl	0x00444556
     6f4:	45520030 	ldrbmi	r0, [r2, #-48]	; 0xffffffd0
     6f8:	56524553 			; <UNDEFINED> instruction: 0x56524553
     6fc:	315f4445 	cmpcc	pc, r5, asr #8
     700:	43414300 	movtmi	r4, #4864	; 0x1300
     704:	43005252 	movwmi	r5, #594	; 0x252
     708:	36524743 	ldrbcc	r4, [r2], -r3, asr #14
     70c:	53455200 	movtpl	r5, #20992	; 0x5200
     710:	45565245 	ldrbmi	r5, [r6, #-581]	; 0xfffffdbb
     714:	00345f44 	eorseq	r5, r4, r4, asr #30
     718:	45534552 	ldrbmi	r4, [r3, #-1362]	; 0xfffffaae
     71c:	44455652 	strbmi	r5, [r5], #-1618	; 0xfffff9ae
     720:	5200355f 	andpl	r3, r0, #398458880	; 0x17c00000
     724:	52455345 	subpl	r5, r5, #335544321	; 0x14000001
     728:	5f444556 	svcpl	0x00444556
     72c:	45520036 	ldrbmi	r0, [r2, #-54]	; 0xffffffca
     730:	56524553 			; <UNDEFINED> instruction: 0x56524553
     734:	375f4445 	ldrbcc	r4, [pc, -r5, asr #8]
     738:	53455200 	movtpl	r5, #20992	; 0x5200
     73c:	45565245 	ldrbmi	r5, [r6, #-581]	; 0xfffffdbb
     740:	00385f44 	eorseq	r5, r8, r4, asr #30
     744:	45534552 	ldrbmi	r4, [r3, #-1362]	; 0xfffffaae
     748:	44455652 	strbmi	r5, [r5], #-1618	; 0xfffff9ae
     74c:	5400395f 	strpl	r3, [r0], #-2399	; 0xfffff6a1
     750:	534e4152 	movtpl	r4, #57682	; 0xe152
     754:	5f524546 	svcpl	0x00524546
     758:	4e554f43 	cdpmi	15, 5, cr4, cr5, cr3, {2}
     75c:	4f490054 	svcmi	0x00490054
     760:	4358554d 	cmpmi	r8, #322961408	; 0x13400000
     764:	5f57535f 	svcpl	0x0057535f
     768:	5f444150 	svcpl	0x00444150
     76c:	5f4c5443 	svcpl	0x004c5443
     770:	5f444150 	svcpl	0x00444150
     774:	5f44434c 	svcpl	0x0044434c
     778:	41544144 	cmpmi	r4, r4, asr #2
     77c:	49003032 	stmdbmi	r0, {r1, r4, r5, ip, sp}
     780:	58554d4f 	ldmdapl	r5, {r0, r1, r2, r3, r6, r8, sl, fp, lr}^
     784:	57535f43 	ldrbpl	r5, [r3, -r3, asr #30]
     788:	4441505f 	strbmi	r5, [r1], #-95	; 0xffffffa1
     78c:	4c54435f 	mrrcmi	3, 5, r4, r4, cr15	; <UNPREDICTABLE>
     790:	4441505f 	strbmi	r5, [r1], #-95	; 0xffffffa1
     794:	44434c5f 	strbmi	r4, [r3], #-3167	; 0xfffff3a1
     798:	5441445f 	strbpl	r4, [r1], #-1119	; 0xfffffba1
     79c:	00313241 	eorseq	r3, r1, r1, asr #4
     7a0:	554d4f49 	strbpl	r4, [sp, #-3913]	; 0xfffff0b7
     7a4:	535f4358 	cmppl	pc, #88, 6	; 0x60000001
     7a8:	41505f57 	cmpmi	r0, r7, asr pc
     7ac:	54435f44 	strbpl	r5, [r3], #-3908	; 0xfffff0bc
     7b0:	41505f4c 	cmpmi	r0, ip, asr #30
     7b4:	434c5f44 	movtmi	r5, #53060	; 0xcf44
     7b8:	41445f44 	cmpmi	r4, r4, asr #30
     7bc:	32324154 	eorscc	r4, r2, #84, 2
     7c0:	4d4f4900 	vstrmi.16	s9, [pc, #-0]	; 7c8 <_start-0x800ff838>	; <UNPREDICTABLE>
     7c4:	5f435855 	svcpl	0x00435855
     7c8:	4d5f5753 	ldclmi	7, cr5, [pc, #-332]	; 684 <_start-0x800ff97c>
     7cc:	435f5855 	cmpmi	pc, #5570560	; 0x550000
     7d0:	505f4c54 	subspl	r4, pc, r4, asr ip	; <UNPREDICTABLE>
     7d4:	4c5f4441 	cfldrdmi	mvd4, [pc], {65}	; 0x41
     7d8:	565f4443 	ldrbpl	r4, [pc], -r3, asr #8
     7dc:	434e5953 	movtmi	r5, #59731	; 0xe953
     7e0:	4d4f4900 	vstrmi.16	s9, [pc, #-0]	; 7e8 <_start-0x800ff818>	; <UNPREDICTABLE>
     7e4:	5f435855 	svcpl	0x00435855
     7e8:	4d5f5753 	ldclmi	7, cr5, [pc, #-332]	; 6a4 <_start-0x800ff95c>
     7ec:	435f5855 	cmpmi	pc, #5570560	; 0x550000
     7f0:	505f4c54 	subspl	r4, pc, r4, asr ip	; <UNPREDICTABLE>
     7f4:	4c5f4441 	cfldrdmi	mvd4, [pc], {65}	; 0x41
     7f8:	435f4443 	cmpmi	pc, #1124073472	; 0x43000000
     7fc:	70004b4c 	andvc	r4, r0, ip, asr #22
     800:	706d745f 	rsbvc	r7, sp, pc, asr r4
     804:	4c4c5000 	marmi	acc0, r5, ip
     808:	4449565f 	strbmi	r5, [r9], #-1631	; 0xfffff9a1
     80c:	435f4f45 	cmpmi	pc, #276	; 0x114
     810:	4300524c 	movwmi	r5, #588	; 0x24c
     814:	52444342 	subpl	r4, r4, #134217729	; 0x8000001
     818:	4c4c5000 	marmi	acc0, r5, ip
     81c:	4d52415f 	ldfmie	f4, [r2, #-380]	; 0xfffffe84
     820:	524c435f 	subpl	r4, ip, #2080374785	; 0x7c000001
     824:	44434c00 	strbmi	r4, [r3], #-3072	; 0xfffff400
     828:	545f4649 	ldrbpl	r4, [pc], #-1609	; 830 <_start-0x800ff7d0>
     82c:	00657079 	rsbeq	r7, r5, r9, ror r0
     830:	5f4c4c50 	svcpl	0x004c4c50
     834:	31425355 	cmpcc	r2, r5, asr r3
     838:	524c435f 	subpl	r4, ip, #2080374785	; 0x7c000001
     83c:	786d6900 	stmdavc	sp!, {r8, fp, sp, lr}^
     840:	6c6c7536 	cfstr64vs	mvdx7, [ip], #-216	; 0xffffff28
     844:	6e6f635f 	mcrvs	3, 3, r6, cr15, cr15, {2}
     848:	5000632e 	andpl	r6, r0, lr, lsr #6
     84c:	415f4c4c 	cmpmi	pc, ip, asr #24
     850:	4f494455 	svcmi	0x00494455
     854:	474f545f 	smlsldmi	r5, pc, pc, r4	; <UNPREDICTABLE>
     858:	32534300 	subscc	r4, r3, #0, 6
     85c:	00524443 	subseq	r4, r2, r3, asr #8
     860:	5f4c4c50 	svcpl	0x004c4c50
     864:	49445541 	stmdbmi	r4, {r0, r6, r8, sl, ip, lr}^
     868:	4c435f4f 	mcrrmi	15, 4, r5, r3, cr15
     86c:	494d0052 	stmdbmi	sp, {r1, r4, r6}^
     870:	5f314353 	svcpl	0x00314353
     874:	00544553 	subseq	r4, r4, r3, asr r5
     878:	54434456 	strbpl	r4, [r3], #-1110	; 0xfffffbaa
     87c:	00304c52 	eorseq	r4, r0, r2, asr ip
     880:	54434456 	strbpl	r4, [r3], #-1110	; 0xfffffbaa
     884:	00314c52 	eorseq	r4, r1, r2, asr ip
     888:	54434456 	strbpl	r4, [r3], #-1110	; 0xfffffbaa
     88c:	00324c52 	eorseq	r4, r2, r2, asr ip
     890:	4d435343 	stclmi	3, cr5, [r3, #-268]	; 0xfffffef4
     894:	49003252 	stmdbmi	r0, {r1, r4, r6, r9, ip, sp}
     898:	58554d4f 	ldmdapl	r5, {r0, r1, r2, r3, r6, r8, sl, fp, lr}^
     89c:	57535f43 	ldrbpl	r5, [r3, -r3, asr #30]
     8a0:	4441505f 	strbmi	r5, [r1], #-95	; 0xffffffa1
     8a4:	4c54435f 	mrrcmi	3, 5, r4, r4, cr15	; <UNPREDICTABLE>
     8a8:	4441505f 	strbmi	r5, [r1], #-95	; 0xffffffa1
     8ac:	44434c5f 	strbmi	r4, [r3], #-3167	; 0xfffff3a1
     8b0:	5441445f 	strbpl	r4, [r1], #-1119	; 0xfffffba1
     8b4:	00333241 	eorseq	r3, r3, r1, asr #4
     8b8:	43315343 	teqmi	r1, #201326593	; 0xc000001
     8bc:	50005244 	andpl	r5, r0, r4, asr #4
     8c0:	535f4c4c 	cmppl	pc, #76, 24	; 0x4c00
     8c4:	435f5359 	cmpmi	pc, #1677721601	; 0x64000001
     8c8:	4300524c 	movwmi	r5, #588	; 0x24c
     8cc:	435f4353 	cmpmi	pc, #1275068417	; 0x4c000001
     8d0:	4646454f 	strbmi	r4, [r6], -pc, asr #10
     8d4:	53430030 	movtpl	r0, #12336	; 0x3030
     8d8:	4f435f43 	svcmi	0x00435f43
     8dc:	31464645 	cmpcc	r6, r5, asr #12
     8e0:	43534300 	cmpmi	r3, #0, 6
     8e4:	454f435f 	strbmi	r4, [pc, #-863]	; 58d <_start-0x800ffa73>
     8e8:	00324646 	eorseq	r4, r2, r6, asr #12
     8ec:	5f435343 	svcpl	0x00435343
     8f0:	46454f43 	strbmi	r4, [r5], -r3, asr #30
     8f4:	43003346 	movwmi	r3, #838	; 0x346
     8f8:	435f4353 	cmpmi	pc, #1275068417	; 0x4c000001
     8fc:	4646454f 	strbmi	r4, [r6], -pc, asr #10
     900:	70620034 	rsbvc	r0, r2, r4, lsr r0
     904:	6f6d5f70 	svcvs	0x006d5f70
     908:	52006564 	andpl	r6, r0, #100, 10	; 0x19000000
     90c:	52455345 	subpl	r5, r5, #335544321	; 0x14000001
     910:	5f444556 	svcpl	0x00444556
     914:	44003232 	strmi	r3, [r0], #-562	; 0xfffffdce
     918:	00415441 	subeq	r5, r1, r1, asr #8
     91c:	4c525443 	cfldrdmi	mvd5, [r2], {67}	; 0x43
     920:	4f545f31 	svcmi	0x00545f31
     924:	4c500047 	mrrcmi	0, 4, r0, r0, cr7	; <UNPREDICTABLE>
     928:	55415f4c 	strbpl	r5, [r1, #-3916]	; 0xfffff0b4
     92c:	5f4f4944 	svcpl	0x004f4944
     930:	004d554e 	subeq	r5, sp, lr, asr #10
     934:	4353494d 	cmpmi	r3, #1261568	; 0x134000
     938:	4f545f31 	svcmi	0x00545f31
     93c:	4f490047 	svcmi	0x00490047
     940:	4358554d 	cmpmi	r8, #322961408	; 0x13400000
     944:	5f57535f 	svcpl	0x0057535f
     948:	5f58554d 	svcpl	0x0058554d
     94c:	5f4c5443 	svcpl	0x004c5443
     950:	5f444150 	svcpl	0x00444150
     954:	5f44434c 	svcpl	0x0044434c
     958:	4e595348 	cdpmi	3, 5, cr5, cr9, cr8, {2}
     95c:	42430043 	submi	r0, r3, #67	; 0x43
     960:	00524d43 	subseq	r4, r2, r3, asr #26
     964:	44435343 	strbmi	r5, [r3], #-835	; 0xfffffcbd
     968:	50003352 	andpl	r3, r0, r2, asr r3
     96c:	565f4c4c 	ldrbpl	r4, [pc], -ip, asr #24
     970:	4f454449 	svcmi	0x00454449
     974:	474f545f 	smlsldmi	r5, pc, pc, r4	; <UNPREDICTABLE>
     978:	4c4c5000 	marmi	acc0, r5, ip
     97c:	4d52415f 	ldfmie	f4, [r2, #-380]	; 0xfffffe84
     980:	5445535f 	strbpl	r5, [r5], #-863	; 0xfffffca1
     984:	4c4c5000 	marmi	acc0, r5, ip
     988:	4449565f 	strbmi	r5, [r9], #-1631	; 0xfffff9a1
     98c:	445f4f45 	ldrbmi	r4, [pc], #-3909	; 994 <_start-0x800ff66c>
     990:	4d4f4e45 	stclmi	14, cr4, [pc, #-276]	; 884 <_start-0x800ff77c>
     994:	52554300 	subspl	r4, r5, #0, 6
     998:	4655425f 			; <UNDEFINED> instruction: 0x4655425f
     99c:	4c4c5000 	marmi	acc0, r5, ip
     9a0:	4253555f 	subsmi	r5, r3, #398458880	; 0x17c00000
     9a4:	45535f31 	ldrbmi	r5, [r3, #-3889]	; 0xfffff0cf
     9a8:	48540054 	ldmdami	r4, {r2, r4, r6}^
     9ac:	00534552 	subseq	r4, r3, r2, asr r5
     9b0:	5f4c4c50 	svcpl	0x004c4c50
     9b4:	004d5241 	subeq	r5, sp, r1, asr #4
     9b8:	45534552 	ldrbmi	r4, [r3, #-1362]	; 0xfffffaae
     9bc:	44455652 	strbmi	r5, [r5], #-1618	; 0xfffff9ae
     9c0:	0031325f 	eorseq	r3, r1, pc, asr r2
     9c4:	554d4f49 	strbpl	r4, [sp, #-3913]	; 0xfffff0b7
     9c8:	535f4358 	cmppl	pc, #88, 6	; 0x60000001
     9cc:	41505f57 	cmpmi	r0, r7, asr pc
     9d0:	54435f44 	strbpl	r5, [r3], #-3908	; 0xfffff0bc
     9d4:	41505f4c 	cmpmi	r0, ip, asr #30
     9d8:	434c5f44 	movtmi	r5, #53060	; 0xcf44
     9dc:	4c435f44 	mcrrmi	15, 4, r5, r3, cr4
     9e0:	494d004b 	stmdbmi	sp, {r0, r1, r3, r6}^
     9e4:	5f304353 	svcpl	0x00304353
     9e8:	00524c43 	subseq	r4, r2, r3, asr #24
     9ec:	45534552 	ldrbmi	r4, [r3, #-1362]	; 0xfffffaae
     9f0:	44455652 	strbmi	r5, [r5], #-1618	; 0xfffff9ae
     9f4:	5000335f 	andpl	r3, r0, pc, asr r3
     9f8:	415f4c4c 	cmpmi	pc, ip, asr #24
     9fc:	4f494455 	svcmi	0x00494455
     a00:	4e45445f 	mcrmi	4, 2, r4, cr5, cr15, {2}
     a04:	41004d4f 	tstmi	r0, pc, asr #26
     a08:	54435f53 	strbpl	r5, [r3], #-3923	; 0xfffff0ad
     a0c:	43004c52 	movwmi	r4, #3154	; 0xc52
     a10:	535f4352 	cmppl	pc, #1207959553	; 0x48000001
     a14:	00544154 	subseq	r4, r4, r4, asr r1
     a18:	5f444650 	svcpl	0x00444650
     a1c:	5f303834 	svcpl	0x00303834
     a20:	00524c43 	subseq	r4, r2, r3, asr #24
     a24:	36786d49 	ldrbtcc	r6, [r8], -r9, asr #26
     a28:	5f6c6c75 	svcpl	0x006c6c75
     a2c:	5f64636c 	svcpl	0x0064636c
     a30:	746e6f63 	strbtvc	r6, [lr], #-3939	; 0xfffff09d
     a34:	6c6c6f72 	stclvs	15, cr6, [ip], #-456	; 0xfffffe38
     a38:	645f7265 	ldrbvs	r7, [pc], #-613	; a40 <_start-0x800ff5c0>
     a3c:	62617369 	rsbvs	r7, r1, #-1543503871	; 0xa4000001
     a40:	5000656c 	andpl	r6, r0, ip, ror #10
     a44:	555f4c4c 	ldrbpl	r4, [pc, #-3148]	; fffffe00 <__bss_end+0x7fefee70>
     a48:	5f314253 	svcpl	0x00314253
     a4c:	00474f54 	subeq	r4, r7, r4, asr pc
     a50:	434e5953 	movtmi	r5, #59731	; 0xe953
     a54:	4c45445f 	cfstrdmi	mvd4, [r5], {95}	; 0x5f
     a58:	47005941 	strmi	r5, [r0, -r1, asr #18]
     a5c:	314f4950 	cmpcc	pc, r0, asr r9	; <UNPREDICTABLE>
     a60:	4944475f 	stmdbmi	r4, {r0, r1, r2, r3, r4, r6, r8, r9, sl, lr}^
     a64:	6d490052 	stclvs	0, cr0, [r9, #-328]	; 0xfffffeb8
     a68:	6c753678 	ldclvs	6, cr3, [r5], #-480	; 0xfffffe20
     a6c:	636c5f6c 	cmnvs	ip, #108, 30	; 0x1b0
     a70:	6f635f64 	svcvs	0x00635f64
     a74:	6f72746e 	svcvs	0x0072746e
     a78:	72656c6c 	rsbvc	r6, r5, #108, 24	; 0x6c00
     a7c:	616e655f 	cmnvs	lr, pc, asr r5
     a80:	00656c62 	rsbeq	r6, r5, r2, ror #24
     a84:	5f4c4c50 	svcpl	0x004c4c50
     a88:	5f535953 	svcpl	0x00535953
     a8c:	004d554e 	subeq	r5, sp, lr, asr #10
     a90:	5f4c4c50 	svcpl	0x004c4c50
     a94:	5f535953 	svcpl	0x00535953
     a98:	00544553 	subseq	r4, r4, r3, asr r5
     a9c:	5f4c4c50 	svcpl	0x004c4c50
     aa0:	5f4d5241 	svcpl	0x004d5241
     aa4:	00474f54 	subeq	r4, r7, r4, asr pc
     aa8:	4e5f5341 	cdpmi	3, 5, cr5, cr15, cr1, {2}
     aac:	5f545845 	svcpl	0x00545845
     ab0:	00465542 	subeq	r5, r6, r2, asr #10
     ab4:	554d4f49 	strbpl	r4, [sp, #-3913]	; 0xfffff0b7
     ab8:	535f4358 	cmppl	pc, #88, 6	; 0x60000001
     abc:	41505f57 	cmpmi	r0, r7, asr pc
     ac0:	54435f44 	strbpl	r5, [r3], #-3908	; 0xfffff0bc
     ac4:	41505f4c 	cmpmi	r0, ip, asr #30
     ac8:	434c5f44 	movtmi	r5, #53060	; 0xcf44
     acc:	53565f44 	cmppl	r6, #68, 30	; 0x110
     ad0:	00434e59 	subeq	r4, r3, r9, asr lr
     ad4:	5f4c4c50 	svcpl	0x004c4c50
     ad8:	5f535953 	svcpl	0x00535953
     adc:	4f4e4544 	svcmi	0x004e4544
     ae0:	4552004d 	ldrbmi	r0, [r2, #-77]	; 0xffffffb3
     ae4:	56524553 			; <UNDEFINED> instruction: 0x56524553
     ae8:	315f4445 	cmpcc	pc, r5, asr #8
     aec:	57530034 	smmlarpl	r3, r4, r0, r0
     af0:	58554d5f 	ldmdapl	r5, {r0, r1, r2, r3, r4, r6, r8, sl, fp, lr}^
     af4:	4c54435f 	mrrcmi	3, 5, r4, r4, cr15	; <UNPREDICTABLE>
     af8:	4441505f 	strbmi	r5, [r1], #-95	; 0xffffffa1
     afc:	44434c5f 	strbmi	r4, [r3], #-3167	; 0xfffff3a1
     b00:	5441445f 	strbpl	r4, [r1], #-1119	; 0xfffffba1
     b04:	00303041 	eorseq	r3, r0, r1, asr #32
     b08:	4d5f5753 	ldclmi	7, cr5, [pc, #-332]	; 9c4 <_start-0x800ff63c>
     b0c:	435f5855 	cmpmi	pc, #5570560	; 0x550000
     b10:	505f4c54 	subspl	r4, pc, r4, asr ip	; <UNPREDICTABLE>
     b14:	4c5f4441 	cfldrdmi	mvd4, [pc], {65}	; 0x41
     b18:	445f4443 	ldrbmi	r4, [pc], #-1091	; b20 <_start-0x800ff4e0>
     b1c:	30415441 	subcc	r5, r1, r1, asr #8
     b20:	57530031 	smmlarpl	r3, r1, r0, r0
     b24:	58554d5f 	ldmdapl	r5, {r0, r1, r2, r3, r4, r6, r8, sl, fp, lr}^
     b28:	4c54435f 	mrrcmi	3, 5, r4, r4, cr15	; <UNPREDICTABLE>
     b2c:	4441505f 	strbmi	r5, [r1], #-95	; 0xffffffa1
     b30:	44434c5f 	strbmi	r4, [r3], #-3167	; 0xfffff3a1
     b34:	5441445f 	strbpl	r4, [r1], #-1119	; 0xfffffba1
     b38:	00323041 	eorseq	r3, r2, r1, asr #32
     b3c:	4d5f5753 	ldclmi	7, cr5, [pc, #-332]	; 9f8 <_start-0x800ff608>
     b40:	435f5855 	cmpmi	pc, #5570560	; 0x550000
     b44:	505f4c54 	subspl	r4, pc, r4, asr ip	; <UNPREDICTABLE>
     b48:	4c5f4441 	cfldrdmi	mvd4, [pc], {65}	; 0x41
     b4c:	445f4443 	ldrbmi	r4, [pc], #-1091	; b54 <_start-0x800ff4ac>
     b50:	30415441 	subcc	r5, r1, r1, asr #8
     b54:	57530033 	smmlarpl	r3, r3, r0, r0
     b58:	58554d5f 	ldmdapl	r5, {r0, r1, r2, r3, r4, r6, r8, sl, fp, lr}^
     b5c:	4c54435f 	mrrcmi	3, 5, r4, r4, cr15	; <UNPREDICTABLE>
     b60:	4441505f 	strbmi	r5, [r1], #-95	; 0xffffffa1
     b64:	44434c5f 	strbmi	r4, [r3], #-3167	; 0xfffff3a1
     b68:	5441445f 	strbpl	r4, [r1], #-1119	; 0xfffffba1
     b6c:	00343041 	eorseq	r3, r4, r1, asr #32
     b70:	4d5f5753 	ldclmi	7, cr5, [pc, #-332]	; a2c <_start-0x800ff5d4>
     b74:	435f5855 	cmpmi	pc, #5570560	; 0x550000
     b78:	505f4c54 	subspl	r4, pc, r4, asr ip	; <UNPREDICTABLE>
     b7c:	4c5f4441 	cfldrdmi	mvd4, [pc], {65}	; 0x41
     b80:	445f4443 	ldrbmi	r4, [pc], #-1091	; b88 <_start-0x800ff478>
     b84:	30415441 	subcc	r5, r1, r1, asr #8
     b88:	57530035 	smmlarpl	r3, r5, r0, r0
     b8c:	58554d5f 	ldmdapl	r5, {r0, r1, r2, r3, r4, r6, r8, sl, fp, lr}^
     b90:	4c54435f 	mrrcmi	3, 5, r4, r4, cr15	; <UNPREDICTABLE>
     b94:	4441505f 	strbmi	r5, [r1], #-95	; 0xffffffa1
     b98:	44434c5f 	strbmi	r4, [r3], #-3167	; 0xfffff3a1
     b9c:	5441445f 	strbpl	r4, [r1], #-1119	; 0xfffffba1
     ba0:	00363041 	eorseq	r3, r6, r1, asr #32
     ba4:	4d5f5753 	ldclmi	7, cr5, [pc, #-332]	; a60 <_start-0x800ff5a0>
     ba8:	435f5855 	cmpmi	pc, #5570560	; 0x550000
     bac:	505f4c54 	subspl	r4, pc, r4, asr ip	; <UNPREDICTABLE>
     bb0:	4c5f4441 	cfldrdmi	mvd4, [pc], {65}	; 0x41
     bb4:	445f4443 	ldrbmi	r4, [pc], #-1091	; bbc <_start-0x800ff444>
     bb8:	30415441 	subcc	r5, r1, r1, asr #8
     bbc:	57530037 	smmlarpl	r3, r7, r0, r0
     bc0:	58554d5f 	ldmdapl	r5, {r0, r1, r2, r3, r4, r6, r8, sl, fp, lr}^
     bc4:	4c54435f 	mrrcmi	3, 5, r4, r4, cr15	; <UNPREDICTABLE>
     bc8:	4441505f 	strbmi	r5, [r1], #-95	; 0xffffffa1
     bcc:	44434c5f 	strbmi	r4, [r3], #-3167	; 0xfffff3a1
     bd0:	5441445f 	strbpl	r4, [r1], #-1119	; 0xfffffba1
     bd4:	00383041 	eorseq	r3, r8, r1, asr #32
     bd8:	4d5f5753 	ldclmi	7, cr5, [pc, #-332]	; a94 <_start-0x800ff56c>
     bdc:	435f5855 	cmpmi	pc, #5570560	; 0x550000
     be0:	505f4c54 	subspl	r4, pc, r4, asr ip	; <UNPREDICTABLE>
     be4:	4c5f4441 	cfldrdmi	mvd4, [pc], {65}	; 0x41
     be8:	445f4443 	ldrbmi	r4, [pc], #-1091	; bf0 <_start-0x800ff410>
     bec:	30415441 	subcc	r5, r1, r1, asr #8
     bf0:	4c500039 	mrrcmi	0, 3, r0, r0, cr9	; <UNPREDICTABLE>
     bf4:	53555f4c 	cmppl	r5, #76, 30	; 0x130
     bf8:	435f3242 	cmpmi	pc, #536870916	; 0x20000004
     bfc:	4900524c 	stmdbmi	r0, {r2, r3, r6, r9, ip, lr}
     c00:	7536786d 	ldrvc	r7, [r6, #-2157]!	; 0xfffff793
     c04:	6c5f6c6c 	mrrcvs	12, 6, r6, pc, cr12	; <UNPREDICTABLE>
     c08:	695f6463 	ldmdbvs	pc, {r0, r1, r5, r6, sl, sp, lr}^	; <UNPREDICTABLE>
     c0c:	6e695f6f 	cdpvs	15, 6, cr5, cr9, cr15, {3}
     c10:	50007469 	andpl	r7, r0, r9, ror #8
     c14:	455f4c4c 	ldrbmi	r4, [pc, #-3148]	; ffffffd0 <__bss_end+0x7feff040>
     c18:	5f54454e 	svcpl	0x0054454e
     c1c:	00524c43 	subseq	r4, r2, r3, asr #24
     c20:	43495644 	movtmi	r5, #38468	; 0x9644
     c24:	304c5254 	subcc	r5, ip, r4, asr r2
     c28:	49564400 	ldmdbmi	r6, {sl, lr}^
     c2c:	4c525443 	cfldrdmi	mvd5, [r2], {67}	; 0x43
     c30:	44560031 	ldrbmi	r0, [r6], #-49	; 0xffffffcf
     c34:	4c525443 	cfldrdmi	mvd5, [r2], {67}	; 0x43
     c38:	4f545f30 	svcmi	0x00545f30
     c3c:	56440047 	strbpl	r0, [r4], -r7, asr #32
     c40:	52544349 	subspl	r4, r4, #603979777	; 0x24000001
     c44:	4300334c 	movwmi	r3, #844	; 0x34c
     c48:	524d4353 	subpl	r4, sp, #1275068417	; 0x4c000001
     c4c:	4c500031 	mrrcmi	0, 3, r0, r0, cr1	; <UNPREDICTABLE>
     c50:	59535f4c 	ldmdbpl	r3, {r2, r3, r6, r8, r9, sl, fp, ip, lr}^
     c54:	4f545f53 	svcmi	0x00545f53
     c58:	53410047 	movtpl	r0, #4167	; 0x1047
     c5c:	524c435f 	subpl	r4, ip, #2080374785	; 0x7c000001
     c60:	4c59454b 	cfldr64mi	mvdx4, [r9], {75}	; 0x4b
     c64:	5000574f 	andpl	r5, r0, pc, asr #14
     c68:	355f4446 	ldrbcc	r4, [pc, #-1094]	; 82a <_start-0x800ff7d6>
     c6c:	435f3832 	cmpmi	pc, #3276800	; 0x320000
     c70:	4300524c 	movwmi	r5, #588	; 0x24c
     c74:	5243504c 	subpl	r5, r3, #76	; 0x4c
     c78:	53494d00 	movtpl	r4, #40192	; 0x9d00
     c7c:	4d003043 	stcmi	0, cr3, [r0, #-268]	; 0xfffffef4
     c80:	31435349 	cmpcc	r3, r9, asr #6
     c84:	53494d00 	movtpl	r4, #40192	; 0x9d00
     c88:	4d003243 	sfmmi	f3, 4, [r0, #-268]	; 0xfffffef4
     c8c:	30435349 	subcc	r5, r3, r9, asr #6
     c90:	5445535f 	strbpl	r5, [r5], #-863	; 0xfffffca1
     c94:	4d4f4900 	vstrmi.16	s9, [pc, #-0]	; c9c <_start-0x800ff364>	; <UNPREDICTABLE>
     c98:	5f435855 	svcpl	0x00435855
     c9c:	505f5753 	subspl	r5, pc, r3, asr r7	; <UNPREDICTABLE>
     ca0:	435f4441 	cmpmi	pc, #1090519040	; 0x41000000
     ca4:	505f4c54 	subspl	r4, pc, r4, asr ip	; <UNPREDICTABLE>
     ca8:	4c5f4441 	cfldrdmi	mvd4, [pc], {65}	; 0x41
     cac:	525f4443 	subspl	r4, pc, #1124073472	; 0x43000000
     cb0:	54455345 	strbpl	r5, [r5], #-837	; 0xfffffcbb
     cb4:	43445600 	movtmi	r5, #17920	; 0x4600
     cb8:	334c5254 	movtcc	r5, #49748	; 0xc254
     cbc:	43445600 	movtmi	r5, #17920	; 0x4600
     cc0:	344c5254 	strbcc	r5, [ip], #-596	; 0xfffffdac
     cc4:	43534300 	cmpmi	r3, #0, 6
     cc8:	4d494c5f 	stclmi	12, cr4, [r9, #-380]	; 0xfffffe84
     ccc:	50005449 	andpl	r5, r0, r9, asr #8
     cd0:	555f4c4c 	ldrbpl	r4, [pc, #-3148]	; 8c <_start-0x800fff74>
     cd4:	5f324253 	svcpl	0x00324253
     cd8:	00544553 	subseq	r4, r4, r3, asr r5
     cdc:	4f495047 	svcmi	0x00495047
     ce0:	52445f31 	subpl	r5, r4, #49, 30	; 0xc4
     ce4:	49564400 	ldmdbmi	r6, {sl, lr}^
     ce8:	4c525443 	cfldrdmi	mvd5, [r2], {67}	; 0x43
     cec:	4c500032 	mrrcmi	0, 3, r0, r0, cr2	; <UNPREDICTABLE>
     cf0:	53555f4c 	cmppl	r5, #76, 30	; 0x130
     cf4:	545f3242 	ldrbpl	r3, [pc], #-578	; cfc <_start-0x800ff304>
     cf8:	5000474f 	andpl	r4, r0, pc, asr #14
     cfc:	345f4446 	ldrbcc	r4, [pc], #-1094	; d04 <_start-0x800ff2fc>
     d00:	535f3038 	cmppl	pc, #56	; 0x38
     d04:	44005445 	strmi	r5, [r0], #-1093	; 0xfffffbbb
     d08:	54434956 	strbpl	r4, [r3], #-2390	; 0xfffff6aa
     d0c:	00344c52 	eorseq	r4, r4, r2, asr ip
     d10:	45534552 	ldrbmi	r4, [r3, #-1362]	; 0xfffffaae
     d14:	44455652 	strbmi	r5, [r5], #-1618	; 0xfffff9ae
     d18:	0030325f 	eorseq	r3, r0, pc, asr r2
     d1c:	4c525443 	cfldrdmi	mvd5, [r2], {67}	; 0x43
     d20:	4c435f32 	mcrrmi	15, 3, r5, r3, cr2
     d24:	57530052 			; <UNDEFINED> instruction: 0x57530052
     d28:	4441505f 	strbmi	r5, [r1], #-95	; 0xffffffa1
     d2c:	4c54435f 	mrrcmi	3, 5, r4, r4, cr15	; <UNPREDICTABLE>
     d30:	7079545f 	rsbsvc	r5, r9, pc, asr r4
     d34:	45520065 	ldrbmi	r0, [r2, #-101]	; 0xffffff9b
     d38:	56524553 			; <UNDEFINED> instruction: 0x56524553
     d3c:	325f4445 	subscc	r4, pc, #1157627904	; 0x45000000
     d40:	5f575300 	svcpl	0x00575300
     d44:	5f58554d 	svcpl	0x0058554d
     d48:	5f4c5443 	svcpl	0x004c5443
     d4c:	5f444150 	svcpl	0x00444150
     d50:	5f44434c 	svcpl	0x0044434c
     d54:	41544144 	cmpmi	r4, r4, asr #2
     d58:	53003031 	movwpl	r3, #49	; 0x31
     d5c:	554d5f57 	strbpl	r5, [sp, #-3927]	; 0xfffff0a9
     d60:	54435f58 	strbpl	r5, [r3], #-3928	; 0xfffff0a8
     d64:	41505f4c 	cmpmi	r0, ip, asr #30
     d68:	434c5f44 	movtmi	r5, #53060	; 0xcf44
     d6c:	41445f44 	cmpmi	r4, r4, asr #30
     d70:	31314154 	teqcc	r1, r4, asr r1
     d74:	5f575300 	svcpl	0x00575300
     d78:	5f58554d 	svcpl	0x0058554d
     d7c:	5f4c5443 	svcpl	0x004c5443
     d80:	5f444150 	svcpl	0x00444150
     d84:	5f44434c 	svcpl	0x0044434c
     d88:	41544144 	cmpmi	r4, r4, asr #2
     d8c:	53003231 	movwpl	r3, #561	; 0x231
     d90:	554d5f57 	strbpl	r5, [sp, #-3927]	; 0xfffff0a9
     d94:	54435f58 	strbpl	r5, [r3], #-3928	; 0xfffff0a8
     d98:	41505f4c 	cmpmi	r0, ip, asr #30
     d9c:	434c5f44 	movtmi	r5, #53060	; 0xcf44
     da0:	41445f44 	cmpmi	r4, r4, asr #30
     da4:	33314154 	teqcc	r1, #84, 2
     da8:	5f575300 	svcpl	0x00575300
     dac:	5f58554d 	svcpl	0x0058554d
     db0:	5f4c5443 	svcpl	0x004c5443
     db4:	5f444150 	svcpl	0x00444150
     db8:	5f44434c 	svcpl	0x0044434c
     dbc:	41544144 	cmpmi	r4, r4, asr #2
     dc0:	53003431 	movwpl	r3, #1073	; 0x431
     dc4:	554d5f57 	strbpl	r5, [sp, #-3927]	; 0xfffff0a9
     dc8:	54435f58 	strbpl	r5, [r3], #-3928	; 0xfffff0a8
     dcc:	41505f4c 	cmpmi	r0, ip, asr #30
     dd0:	434c5f44 	movtmi	r5, #53060	; 0xcf44
     dd4:	41445f44 	cmpmi	r4, r4, asr #30
     dd8:	35314154 	ldrcc	r4, [r1, #-340]!	; 0xfffffeac
     ddc:	5f575300 	svcpl	0x00575300
     de0:	5f58554d 	svcpl	0x0058554d
     de4:	5f4c5443 	svcpl	0x004c5443
     de8:	5f444150 	svcpl	0x00444150
     dec:	5f44434c 	svcpl	0x0044434c
     df0:	41544144 	cmpmi	r4, r4, asr #2
     df4:	53003631 	movwpl	r3, #1585	; 0x631
     df8:	554d5f57 	strbpl	r5, [sp, #-3927]	; 0xfffff0a9
     dfc:	54435f58 	strbpl	r5, [r3], #-3928	; 0xfffff0a8
     e00:	41505f4c 	cmpmi	r0, ip, asr #30
     e04:	434c5f44 	movtmi	r5, #53060	; 0xcf44
     e08:	41445f44 	cmpmi	r4, r4, asr #30
     e0c:	37314154 			; <UNDEFINED> instruction: 0x37314154
     e10:	5f575300 	svcpl	0x00575300
     e14:	5f58554d 	svcpl	0x0058554d
     e18:	5f4c5443 	svcpl	0x004c5443
     e1c:	5f444150 	svcpl	0x00444150
     e20:	5f44434c 	svcpl	0x0044434c
     e24:	41544144 	cmpmi	r4, r4, asr #2
     e28:	53003831 	movwpl	r3, #2097	; 0x831
     e2c:	554d5f57 	strbpl	r5, [sp, #-3927]	; 0xfffff0a9
     e30:	54435f58 	strbpl	r5, [r3], #-3928	; 0xfffff0a8
     e34:	41505f4c 	cmpmi	r0, ip, asr #30
     e38:	434c5f44 	movtmi	r5, #53060	; 0xcf44
     e3c:	41445f44 	cmpmi	r4, r4, asr #30
     e40:	39314154 	ldmdbcc	r1!, {r2, r4, r6, r8, lr}
     e44:	53455200 	movtpl	r5, #20992	; 0x5200
     e48:	45565245 	ldrbmi	r5, [r6, #-581]	; 0xfffffdbb
     e4c:	35325f44 	ldrcc	r5, [r2, #-3908]!	; 0xfffff0bc
     e50:	53494d00 	movtpl	r4, #40192	; 0x9d00
     e54:	435f3243 	cmpmi	pc, #805306372	; 0x30000004
     e58:	5200524c 	andpl	r5, r0, #76, 4	; 0xc0000004
     e5c:	52455345 	subpl	r5, r5, #335544321	; 0x14000001
     e60:	5f444556 	svcpl	0x00444556
     e64:	54003632 	strpl	r3, [r0], #-1586	; 0xfffff9ce
     e68:	4e494d49 	cdpmi	13, 4, cr4, cr9, cr9, {2}
     e6c:	4c500047 	mrrcmi	0, 4, r0, r0, cr7	; <UNPREDICTABLE>
     e70:	49565f4c 	ldmdbmi	r6, {r2, r3, r6, r8, r9, sl, fp, ip, lr}^
     e74:	004f4544 	subeq	r4, pc, r4, asr #10
     e78:	5f4c4c50 	svcpl	0x004c4c50
     e7c:	49445541 	stmdbmi	r4, {r0, r6, r8, sl, ip, lr}^
     e80:	5443004f 	strbpl	r0, [r3], #-79	; 0xffffffb1
     e84:	5f314c52 	svcpl	0x00314c52
     e88:	00524c43 	subseq	r4, r2, r3, asr #24
     e8c:	4353494d 	cmpmi	r3, #1261568	; 0x134000
     e90:	4f545f30 	svcmi	0x00545f30
     e94:	6e750047 	cdpvs	0, 7, cr0, cr5, cr7, {2}
     e98:	6e676973 			; <UNDEFINED> instruction: 0x6e676973
     e9c:	63206465 			; <UNDEFINED> instruction: 0x63206465
     ea0:	00726168 	rsbseq	r6, r2, r8, ror #2
     ea4:	5f4c4c50 	svcpl	0x004c4c50
     ea8:	54454e45 	strbpl	r4, [r5], #-3653	; 0xfffff1bb
     eac:	5445535f 	strbpl	r5, [r5], #-863	; 0xfffffca1
     eb0:	4c4c5000 	marmi	acc0, r5, ip
     eb4:	454e455f 	strbmi	r4, [lr, #-1375]	; 0xfffffaa1
     eb8:	4f545f54 	svcmi	0x00545f54
     ebc:	46500047 	ldrbmi	r0, [r0], -r7, asr #32
     ec0:	38345f44 	ldmdacc	r4!, {r2, r6, r8, r9, sl, fp, ip, lr}
     ec4:	4f545f30 	svcmi	0x00545f30
     ec8:	4c500047 	mrrcmi	0, 4, r0, r0, cr7	; <UNPREDICTABLE>
     ecc:	53555f4c 	cmppl	r5, #76, 30	; 0x130
     ed0:	52003142 	andpl	r3, r0, #-2147483632	; 0x80000010
     ed4:	52455345 	subpl	r5, r5, #335544321	; 0x14000001
     ed8:	5f444556 	svcpl	0x00444556
     edc:	52003031 	andpl	r3, r0, #49	; 0x31
     ee0:	52455345 	subpl	r5, r5, #335544321	; 0x14000001
     ee4:	5f444556 	svcpl	0x00444556
     ee8:	52003131 	andpl	r3, r0, #1073741836	; 0x4000000c
     eec:	52455345 	subpl	r5, r5, #335544321	; 0x14000001
     ef0:	5f444556 	svcpl	0x00444556
     ef4:	52003231 	andpl	r3, r0, #268435459	; 0x10000003
     ef8:	52455345 	subpl	r5, r5, #335544321	; 0x14000001
     efc:	5f444556 	svcpl	0x00444556
     f00:	43003331 	movwmi	r3, #817	; 0x331
     f04:	5f4c5254 	svcpl	0x004c5254
     f08:	00524c43 	subseq	r4, r2, r3, asr #24
     f0c:	45534552 	ldrbmi	r4, [r3, #-1362]	; 0xfffffaae
     f10:	44455652 	strbmi	r5, [r5], #-1618	; 0xfffff9ae
     f14:	0035315f 	eorseq	r3, r5, pc, asr r1
     f18:	45534552 	ldrbmi	r4, [r3, #-1362]	; 0xfffffaae
     f1c:	44455652 	strbmi	r5, [r5], #-1618	; 0xfffff9ae
     f20:	0036315f 	eorseq	r3, r6, pc, asr r1
     f24:	45534552 	ldrbmi	r4, [r3, #-1362]	; 0xfffffaae
     f28:	44455652 	strbmi	r5, [r5], #-1618	; 0xfffff9ae
     f2c:	0037315f 	eorseq	r3, r7, pc, asr r1
     f30:	45534552 	ldrbmi	r4, [r3, #-1362]	; 0xfffffaae
     f34:	44455652 	strbmi	r5, [r5], #-1618	; 0xfffff9ae
     f38:	0038315f 	eorseq	r3, r8, pc, asr r1
     f3c:	45534552 	ldrbmi	r4, [r3, #-1362]	; 0xfffffaae
     f40:	44455652 	strbmi	r5, [r5], #-1618	; 0xfffff9ae
     f44:	0039315f 	eorseq	r3, r9, pc, asr r1
     f48:	45534552 	ldrbmi	r4, [r3, #-1362]	; 0xfffffaae
     f4c:	44455652 	strbmi	r5, [r5], #-1618	; 0xfffff9ae
     f50:	0033325f 	eorseq	r3, r3, pc, asr r2
     f54:	5f435343 	svcpl	0x00435343
     f58:	5346464f 	movtpl	r4, #26191	; 0x664f
     f5c:	52005445 	andpl	r5, r0, #1157627904	; 0x45000000
     f60:	52455345 	subpl	r5, r5, #335544321	; 0x14000001
     f64:	5f444556 	svcpl	0x00444556
     f68:	53003432 	movwpl	r3, #1074	; 0x432
     f6c:	554d5f57 	strbpl	r5, [sp, #-3927]	; 0xfffff0a9
     f70:	54435f58 	strbpl	r5, [r3], #-3928	; 0xfffff0a8
     f74:	41505f4c 	cmpmi	r0, ip, asr #30
     f78:	434c5f44 	movtmi	r5, #53060	; 0xcf44
     f7c:	41445f44 	cmpmi	r4, r4, asr #30
     f80:	30324154 	eorscc	r4, r2, r4, asr r1
     f84:	5f575300 	svcpl	0x00575300
     f88:	5f58554d 	svcpl	0x0058554d
     f8c:	5f4c5443 	svcpl	0x004c5443
     f90:	5f444150 	svcpl	0x00444150
     f94:	5f44434c 	svcpl	0x0044434c
     f98:	41544144 	cmpmi	r4, r4, asr #2
     f9c:	53003132 	movwpl	r3, #306	; 0x132
     fa0:	554d5f57 	strbpl	r5, [sp, #-3927]	; 0xfffff0a9
     fa4:	54435f58 	strbpl	r5, [r3], #-3928	; 0xfffff0a8
     fa8:	41505f4c 	cmpmi	r0, ip, asr #30
     fac:	434c5f44 	movtmi	r5, #53060	; 0xcf44
     fb0:	41445f44 	cmpmi	r4, r4, asr #30
     fb4:	32324154 	eorscc	r4, r2, #84, 2
     fb8:	5f575300 	svcpl	0x00575300
     fbc:	5f58554d 	svcpl	0x0058554d
     fc0:	5f4c5443 	svcpl	0x004c5443
     fc4:	5f444150 	svcpl	0x00444150
     fc8:	5f44434c 	svcpl	0x0044434c
     fcc:	41544144 	cmpmi	r4, r4, asr #2
     fd0:	52003332 	andpl	r3, r0, #-939524096	; 0xc8000000
     fd4:	52455345 	subpl	r5, r5, #335544321	; 0x14000001
     fd8:	5f444556 	svcpl	0x00444556
     fdc:	43003732 	movwmi	r3, #1842	; 0x732
     fe0:	50494844 	subpl	r4, r9, r4, asr #16
     fe4:	53410052 	movtpl	r0, #4178	; 0x1052
     fe8:	524c435f 	subpl	r4, ip, #2080374785	; 0x7c000001
     fec:	4859454b 	ldmdami	r9, {r0, r1, r3, r6, r8, sl, lr}^
     ff0:	00484749 	subeq	r4, r8, r9, asr #14
     ff4:	5f4c4c50 	svcpl	0x004c4c50
     ff8:	54454e45 	strbpl	r4, [r5], #-3653	; 0xfffff1bb
     ffc:	44465000 	strbmi	r5, [r6], #-0
    1000:	3832355f 	ldmdacc	r2!, {r0, r1, r2, r3, r4, r6, r8, sl, ip, sp}
    1004:	474f545f 	smlsldmi	r5, pc, pc, r4	; <UNPREDICTABLE>
    1008:	49504700 	ldmdbmi	r0, {r8, r9, sl, lr}^
    100c:	495f314f 	ldmdbmi	pc, {r0, r1, r2, r3, r6, r8, ip, sp}^	; <UNPREDICTABLE>
    1010:	5f38304f 	svcpl	0x0038304f
    1014:	00444150 	subeq	r4, r4, r0, asr r1
    1018:	5f4c4c50 	svcpl	0x004c4c50
    101c:	32425355 	subcc	r5, r2, #1409286145	; 0x54000001
    1020:	52544300 	subspl	r4, r4, #0, 6
    1024:	535f324c 	cmppl	pc, #76, 4	; 0xc0000004
    1028:	43005445 	movwmi	r5, #1093	; 0x445
    102c:	00525047 	subseq	r5, r2, r7, asr #32
    1030:	36786d49 	ldrbtcc	r6, [r8], -r9, asr #26
    1034:	5f6c6c75 	svcpl	0x006c6c75
    1038:	5f64636c 	svcpl	0x0064636c
    103c:	746e6f63 	strbtvc	r6, [lr], #-3939	; 0xfffff09d
    1040:	6c6c6f72 	stclvs	15, cr6, [ip], #-456	; 0xfffffe38
    1044:	695f7265 	ldmdbvs	pc, {r0, r2, r5, r6, r9, ip, sp, lr}^	; <UNPREDICTABLE>
    1048:	0074696e 	rsbseq	r6, r4, lr, ror #18
    104c:	5f444650 	svcpl	0x00444650
    1050:	5f383235 	svcpl	0x00383235
    1054:	00544553 	subseq	r4, r4, r3, asr r5
    1058:	554d4f49 	strbpl	r4, [sp, #-3913]	; 0xfffff0b7
    105c:	535f4358 	cmppl	pc, #88, 6	; 0x60000001
    1060:	41505f57 	cmpmi	r0, r7, asr pc
    1064:	54435f44 	strbpl	r5, [r3], #-3908	; 0xfffff0bc
    1068:	41505f4c 	cmpmi	r0, ip, asr #30
    106c:	434c5f44 	movtmi	r5, #53060	; 0xcf44
    1070:	53485f44 	movtpl	r5, #36676	; 0x8f44
    1074:	00434e59 	subeq	r4, r3, r9, asr lr
    1078:	4353494d 	cmpmi	r3, #1261568	; 0x134000
    107c:	45535f32 	ldrbmi	r5, [r3, #-3890]	; 0xfffff0ce
    1080:	43430054 	movtmi	r0, #12372	; 0x3054
    1084:	0052534f 	subseq	r5, r2, pc, asr #6
    1088:	52534943 	subspl	r4, r3, #1097728	; 0x10c000
    108c:	43534300 	cmpmi	r3, #0, 6
    1090:	00315244 	eorseq	r5, r1, r4, asr #4
    1094:	44435343 	strbmi	r5, [r3], #-835	; 0xfffffcbd
    1098:	49003252 	stmdbmi	r0, {r1, r4, r6, r9, ip, sp}
    109c:	58554d4f 	ldmdapl	r5, {r0, r1, r2, r3, r6, r8, sl, fp, lr}^
    10a0:	57535f43 	ldrbpl	r5, [r3, -r3, asr #30]
    10a4:	4441505f 	strbmi	r5, [r1], #-95	; 0xffffffa1
    10a8:	4c54435f 	mrrcmi	3, 5, r4, r4, cr15	; <UNPREDICTABLE>
    10ac:	4441505f 	strbmi	r5, [r1], #-95	; 0xffffffa1
    10b0:	44434c5f 	strbmi	r4, [r3], #-3167	; 0xfffff3a1
    10b4:	5441445f 	strbpl	r4, [r1], #-1119	; 0xfffffba1
    10b8:	00303041 	eorseq	r3, r0, r1, asr #32
    10bc:	554d4f49 	strbpl	r4, [sp, #-3913]	; 0xfffff0b7
    10c0:	535f4358 	cmppl	pc, #88, 6	; 0x60000001
    10c4:	41505f57 	cmpmi	r0, r7, asr pc
    10c8:	54435f44 	strbpl	r5, [r3], #-3908	; 0xfffff0bc
    10cc:	41505f4c 	cmpmi	r0, ip, asr #30
    10d0:	434c5f44 	movtmi	r5, #53060	; 0xcf44
    10d4:	41445f44 	cmpmi	r4, r4, asr #30
    10d8:	31304154 	teqcc	r0, r4, asr r1
    10dc:	4d4f4900 	vstrmi.16	s9, [pc, #-0]	; 10e4 <_start-0x800fef1c>	; <UNPREDICTABLE>
    10e0:	5f435855 	svcpl	0x00435855
    10e4:	505f5753 	subspl	r5, pc, r3, asr r7	; <UNPREDICTABLE>
    10e8:	435f4441 	cmpmi	pc, #1090519040	; 0x41000000
    10ec:	505f4c54 	subspl	r4, pc, r4, asr ip	; <UNPREDICTABLE>
    10f0:	4c5f4441 	cfldrdmi	mvd4, [pc], {65}	; 0x41
    10f4:	445f4443 	ldrbmi	r4, [pc], #-1091	; 10fc <_start-0x800fef04>
    10f8:	30415441 	subcc	r5, r1, r1, asr #8
    10fc:	4f490032 	svcmi	0x00490032
    1100:	4358554d 	cmpmi	r8, #322961408	; 0x13400000
    1104:	5f57535f 	svcpl	0x0057535f
    1108:	5f444150 	svcpl	0x00444150
    110c:	5f4c5443 	svcpl	0x004c5443
    1110:	5f444150 	svcpl	0x00444150
    1114:	5f44434c 	svcpl	0x0044434c
    1118:	41544144 	cmpmi	r4, r4, asr #2
    111c:	49003330 	stmdbmi	r0, {r4, r5, r8, r9, ip, sp}
    1120:	58554d4f 	ldmdapl	r5, {r0, r1, r2, r3, r6, r8, sl, fp, lr}^
    1124:	57535f43 	ldrbpl	r5, [r3, -r3, asr #30]
    1128:	4441505f 	strbmi	r5, [r1], #-95	; 0xffffffa1
    112c:	4c54435f 	mrrcmi	3, 5, r4, r4, cr15	; <UNPREDICTABLE>
    1130:	4441505f 	strbmi	r5, [r1], #-95	; 0xffffffa1
    1134:	44434c5f 	strbmi	r4, [r3], #-3167	; 0xfffff3a1
    1138:	5441445f 	strbpl	r4, [r1], #-1119	; 0xfffffba1
    113c:	00343041 	eorseq	r3, r4, r1, asr #32

Disassembly of section .debug_frame:

00000000 <.debug_frame>:
   0:	0000000c 	andeq	r0, r0, ip
   4:	ffffffff 			; <UNDEFINED> instruction: 0xffffffff
   8:	7c020001 	stcvc	0, cr0, [r2], {1}
   c:	000d0c0e 	andeq	r0, sp, lr, lsl #24
  10:	00000024 	andeq	r0, r0, r4, lsr #32
  14:	00000000 	andeq	r0, r0, r0
  18:	8010003c 	andshi	r0, r0, ip, lsr r0
  1c:	0000029e 	muleq	r0, lr, r2
  20:	87080e41 	strhi	r0, [r8, -r1, asr #28]
  24:	41018e02 	tstmi	r1, r2, lsl #28
  28:	0c41300e 	mcrreq	0, 0, r3, r1, cr14
  2c:	4a032807 	bmi	ca050 <_start-0x80035fb0>
  30:	41080e01 	tstmi	r8, r1, lsl #28
  34:	00000d0d 	andeq	r0, r0, sp, lsl #26
  38:	00000018 	andeq	r0, r0, r8, lsl r0
  3c:	00000000 	andeq	r0, r0, r0
  40:	801002da 			; <UNDEFINED> instruction: 0x801002da
  44:	00000012 	andeq	r0, r0, r2, lsl r0
  48:	87080e41 	strhi	r0, [r8, -r1, asr #28]
  4c:	41018e02 	tstmi	r1, r2, lsl #28
  50:	0000070d 	andeq	r0, r0, sp, lsl #14
  54:	0000000c 	andeq	r0, r0, ip
  58:	ffffffff 			; <UNDEFINED> instruction: 0xffffffff
  5c:	7c020001 	stcvc	0, cr0, [r2], {1}
  60:	000d0c0e 	andeq	r0, sp, lr, lsl #24
  64:	00000020 	andeq	r0, r0, r0, lsr #32
  68:	00000054 	andeq	r0, r0, r4, asr r0
  6c:	801002ec 	andshi	r0, r0, ip, ror #5
  70:	00000110 	andeq	r0, r0, r0, lsl r1
  74:	87080e41 	strhi	r0, [r8, -r1, asr #28]
  78:	41018e02 	tstmi	r1, r2, lsl #28
  7c:	0d41280e 	stcleq	8, cr2, [r1, #-56]	; 0xffffffc8
  80:	0e830207 	cdpeq	2, 8, cr0, cr3, cr7, {0}
  84:	0d0d4108 	stfeqs	f4, [sp, #-32]	; 0xffffffe0
  88:	00000024 	andeq	r0, r0, r4, lsr #32
  8c:	00000054 	andeq	r0, r0, r4, asr r0
  90:	801003fc 			; <UNDEFINED> instruction: 0x801003fc
  94:	000002ca 	andeq	r0, r0, sl, asr #5
  98:	87080e41 	strhi	r0, [r8, -r1, asr #28]
  9c:	41018e02 	tstmi	r1, r2, lsl #28
  a0:	0d41280e 	stcleq	8, cr2, [r1, #-56]	; 0xffffffc8
  a4:	01600307 	cmneq	r0, r7, lsl #6
  a8:	0d41080e 	stcleq	8, cr0, [r1, #-56]	; 0xffffffc8
  ac:	0000000d 	andeq	r0, r0, sp
  b0:	0000000c 	andeq	r0, r0, ip
  b4:	ffffffff 			; <UNDEFINED> instruction: 0xffffffff
  b8:	7c020001 	stcvc	0, cr0, [r2], {1}
  bc:	000d0c0e 	andeq	r0, sp, lr, lsl #24
  c0:	00000018 	andeq	r0, r0, r8, lsl r0
  c4:	000000b0 	strheq	r0, [r0], -r0	; <UNPREDICTABLE>
  c8:	801006c6 	andshi	r0, r0, r6, asr #13
  cc:	0000002c 	andeq	r0, r0, ip, lsr #32
  d0:	87080e41 	strhi	r0, [r8, -r1, asr #28]
  d4:	41018e02 	tstmi	r1, r2, lsl #28
  d8:	0000070d 	andeq	r0, r0, sp, lsl #14
  dc:	00000024 	andeq	r0, r0, r4, lsr #32
  e0:	000000b0 	strheq	r0, [r0], -r0	; <UNPREDICTABLE>
  e4:	801006f2 			; <UNDEFINED> instruction: 0x801006f2
  e8:	00000056 	andeq	r0, r0, r6, asr r0
  ec:	87040e41 	strhi	r0, [r4, -r1, asr #28]
  f0:	200e4101 	andcs	r4, lr, r1, lsl #2
  f4:	64070d41 	strvs	r0, [r7], #-3393	; 0xfffff2bf
  f8:	0d41040e 	cfstrdeq	mvd0, [r1, #-56]	; 0xffffffc8
  fc:	0ec7420d 	cdpeq	2, 12, cr4, cr7, cr13, {0}
 100:	00000000 	andeq	r0, r0, r0
 104:	00000020 	andeq	r0, r0, r0, lsr #32
 108:	000000b0 	strheq	r0, [r0], -r0	; <UNPREDICTABLE>
 10c:	80100748 	andshi	r0, r0, r8, asr #14
 110:	000000a2 	andeq	r0, r0, r2, lsr #1
 114:	87080e41 	strhi	r0, [r8, -r1, asr #28]
 118:	41018e02 	tstmi	r1, r2, lsl #28
 11c:	0d41280e 	stcleq	8, cr2, [r1, #-56]	; 0xffffffc8
 120:	0e4c0207 	cdpeq	2, 4, cr0, cr12, cr7, {0}
 124:	0d0d4108 	stfeqs	f4, [sp, #-32]	; 0xffffffe0
 128:	0000000c 	andeq	r0, r0, ip
 12c:	ffffffff 			; <UNDEFINED> instruction: 0xffffffff
 130:	7c020001 	stcvc	0, cr0, [r2], {1}
 134:	000d0c0e 	andeq	r0, sp, lr, lsl #24
 138:	00000024 	andeq	r0, r0, r4, lsr #32
 13c:	00000128 	andeq	r0, r0, r8, lsr #2
 140:	801007ea 	andshi	r0, r0, sl, ror #15
 144:	0000003a 	andeq	r0, r0, sl, lsr r0
 148:	84080e41 	strhi	r0, [r8], #-3649	; 0xfffff1bf
 14c:	41018702 	tstmi	r1, r2, lsl #14
 150:	0d41100e 	stcleq	0, cr1, [r1, #-56]	; 0xffffffc8
 154:	080e5707 	stmdaeq	lr, {r0, r1, r2, r8, r9, sl, ip, lr}
 158:	410d0d41 	tstmi	sp, r1, asr #26
 15c:	000ec4c7 	andeq	ip, lr, r7, asr #9
 160:	00000024 	andeq	r0, r0, r4, lsr #32
 164:	00000128 	andeq	r0, r0, r8, lsr #2
 168:	80100824 	andshi	r0, r0, r4, lsr #16
 16c:	00000050 	andeq	r0, r0, r0, asr r0
 170:	87040e41 	strhi	r0, [r4, -r1, asr #28]
 174:	180e4101 	stmdane	lr, {r0, r8, lr}
 178:	61070d41 	tstvs	r7, r1, asr #26
 17c:	0d41040e 	cfstrdeq	mvd0, [r1, #-56]	; 0xffffffc8
 180:	0ec7420d 	cdpeq	2, 12, cr4, cr7, cr13, {0}
 184:	00000000 	andeq	r0, r0, r0
 188:	00000020 	andeq	r0, r0, r0, lsr #32
 18c:	00000128 	andeq	r0, r0, r8, lsr #2
 190:	80100874 	andshi	r0, r0, r4, ror r8
 194:	00000072 	andeq	r0, r0, r2, ror r0
 198:	87080e41 	strhi	r0, [r8, -r1, asr #28]
 19c:	41018e02 	tstmi	r1, r2, lsl #28
 1a0:	0d41180e 	stcleq	8, cr1, [r1, #-56]	; 0xffffffc8
 1a4:	080e7407 	stmdaeq	lr, {r0, r1, r2, sl, ip, sp, lr}
 1a8:	000d0d41 	andeq	r0, sp, r1, asr #26
 1ac:	00000020 	andeq	r0, r0, r0, lsr #32
 1b0:	00000128 	andeq	r0, r0, r8, lsr #2
 1b4:	801008e6 	andshi	r0, r0, r6, ror #17
 1b8:	00000036 	andeq	r0, r0, r6, lsr r0
 1bc:	87080e41 	strhi	r0, [r8, -r1, asr #28]
 1c0:	41018e02 	tstmi	r1, r2, lsl #28
 1c4:	0d41100e 	stcleq	0, cr1, [r1, #-56]	; 0xffffffc8
 1c8:	080e5607 	stmdaeq	lr, {r0, r1, r2, r9, sl, ip, lr}
 1cc:	000d0d41 	andeq	r0, sp, r1, asr #26
 1d0:	00000018 	andeq	r0, r0, r8, lsl r0
 1d4:	00000128 	andeq	r0, r0, r8, lsr #2
 1d8:	8010091c 	andshi	r0, r0, ip, lsl r9
 1dc:	00000024 	andeq	r0, r0, r4, lsr #32
 1e0:	87080e41 	strhi	r0, [r8, -r1, asr #28]
 1e4:	41018e02 	tstmi	r1, r2, lsl #28
 1e8:	0000070d 	andeq	r0, r0, sp, lsl #14
 1ec:	00000018 	andeq	r0, r0, r8, lsl r0
 1f0:	00000128 	andeq	r0, r0, r8, lsr #2
 1f4:	80100940 	andshi	r0, r0, r0, asr #18
 1f8:	00000024 	andeq	r0, r0, r4, lsr #32
 1fc:	87080e41 	strhi	r0, [r8, -r1, asr #28]
 200:	41018e02 	tstmi	r1, r2, lsl #28
 204:	0000070d 	andeq	r0, r0, sp, lsl #14
 208:	00000018 	andeq	r0, r0, r8, lsl r0
 20c:	00000128 	andeq	r0, r0, r8, lsr #2
 210:	80100964 	andshi	r0, r0, r4, ror #18
 214:	0000000c 	andeq	r0, r0, ip
 218:	87080e41 	strhi	r0, [r8, -r1, asr #28]
 21c:	41018e02 	tstmi	r1, r2, lsl #28
 220:	0000070d 	andeq	r0, r0, sp, lsl #14
 224:	0000000c 	andeq	r0, r0, ip
 228:	ffffffff 			; <UNDEFINED> instruction: 0xffffffff
 22c:	7c020001 	stcvc	0, cr0, [r2], {1}
 230:	000d0c0e 	andeq	r0, sp, lr, lsl #24
 234:	00000024 	andeq	r0, r0, r4, lsr #32
 238:	00000224 	andeq	r0, r0, r4, lsr #4
 23c:	80100970 	andshi	r0, r0, r0, ror r9
 240:	00000020 	andeq	r0, r0, r0, lsr #32
 244:	87040e41 	strhi	r0, [r4, -r1, asr #28]
 248:	100e4101 	andne	r4, lr, r1, lsl #2
 24c:	49070d41 	stmdbmi	r7, {r0, r6, r8, sl, fp}
 250:	0d41040e 	cfstrdeq	mvd0, [r1, #-56]	; 0xffffffc8
 254:	0ec7420d 	cdpeq	2, 12, cr4, cr7, cr13, {0}
 258:	00000000 	andeq	r0, r0, r0
 25c:	00000024 	andeq	r0, r0, r4, lsr #32
 260:	00000224 	andeq	r0, r0, r4, lsr #4
 264:	80100990 	mulshi	r0, r0, r9
 268:	00000050 	andeq	r0, r0, r0, asr r0
 26c:	87040e41 	strhi	r0, [r4, -r1, asr #28]
 270:	180e4101 	stmdane	lr, {r0, r8, lr}
 274:	61070d41 	tstvs	r7, r1, asr #26
 278:	0d41040e 	cfstrdeq	mvd0, [r1, #-56]	; 0xffffffc8
 27c:	0ec7420d 	cdpeq	2, 12, cr4, cr7, cr13, {0}
 280:	00000000 	andeq	r0, r0, r0
 284:	00000020 	andeq	r0, r0, r0, lsr #32
 288:	00000224 	andeq	r0, r0, r4, lsr #4
 28c:	801009e0 	andshi	r0, r0, r0, ror #19
 290:	00000072 	andeq	r0, r0, r2, ror r0
 294:	87080e41 	strhi	r0, [r8, -r1, asr #28]
 298:	41018e02 	tstmi	r1, r2, lsl #28
 29c:	0d41180e 	stcleq	8, cr1, [r1, #-56]	; 0xffffffc8
 2a0:	080e7407 	stmdaeq	lr, {r0, r1, r2, sl, ip, sp, lr}
 2a4:	000d0d41 	andeq	r0, sp, r1, asr #26
 2a8:	00000024 	andeq	r0, r0, r4, lsr #32
 2ac:	00000224 	andeq	r0, r0, r4, lsr #4
 2b0:	80100a52 	andshi	r0, r0, r2, asr sl
 2b4:	0000005a 	andeq	r0, r0, sl, asr r0
 2b8:	87040e41 	strhi	r0, [r4, -r1, asr #28]
 2bc:	180e4101 	stmdane	lr, {r0, r8, lr}
 2c0:	66070d41 	strvs	r0, [r7], -r1, asr #26
 2c4:	0d41040e 	cfstrdeq	mvd0, [r1, #-56]	; 0xffffffc8
 2c8:	0ec7420d 	cdpeq	2, 12, cr4, cr7, cr13, {0}
 2cc:	00000000 	andeq	r0, r0, r0
 2d0:	00000018 	andeq	r0, r0, r8, lsl r0
 2d4:	00000224 	andeq	r0, r0, r4, lsr #4
 2d8:	80100aac 	andshi	r0, r0, ip, lsr #21
 2dc:	0000000c 	andeq	r0, r0, ip
 2e0:	87080e41 	strhi	r0, [r8, -r1, asr #28]
 2e4:	41018e02 	tstmi	r1, r2, lsl #28
 2e8:	0000070d 	andeq	r0, r0, sp, lsl #14
 2ec:	00000018 	andeq	r0, r0, r8, lsl r0
 2f0:	00000224 	andeq	r0, r0, r4, lsr #4
 2f4:	80100ab8 			; <UNDEFINED> instruction: 0x80100ab8
 2f8:	0000000c 	andeq	r0, r0, ip
 2fc:	87080e41 	strhi	r0, [r8, -r1, asr #28]
 300:	41018e02 	tstmi	r1, r2, lsl #28
 304:	0000070d 	andeq	r0, r0, sp, lsl #14
 308:	00000018 	andeq	r0, r0, r8, lsl r0
 30c:	00000224 	andeq	r0, r0, r4, lsr #4
 310:	80100ac4 	andshi	r0, r0, r4, asr #21
 314:	00000038 	andeq	r0, r0, r8, lsr r0
 318:	87080e41 	strhi	r0, [r8, -r1, asr #28]
 31c:	41018e02 	tstmi	r1, r2, lsl #28
 320:	0000070d 	andeq	r0, r0, sp, lsl #14
 324:	0000000c 	andeq	r0, r0, ip
 328:	ffffffff 			; <UNDEFINED> instruction: 0xffffffff
 32c:	7c020001 	stcvc	0, cr0, [r2], {1}
 330:	000d0c0e 	andeq	r0, sp, lr, lsl #24
 334:	00000018 	andeq	r0, r0, r8, lsl r0
 338:	00000324 	andeq	r0, r0, r4, lsr #6
 33c:	80100afc 			; <UNDEFINED> instruction: 0x80100afc
 340:	00000014 	andeq	r0, r0, r4, lsl r0
 344:	87080e41 	strhi	r0, [r8, -r1, asr #28]
 348:	41018e02 	tstmi	r1, r2, lsl #28
 34c:	0000070d 	andeq	r0, r0, sp, lsl #14
 350:	0000000c 	andeq	r0, r0, ip
 354:	ffffffff 			; <UNDEFINED> instruction: 0xffffffff
 358:	7c020001 	stcvc	0, cr0, [r2], {1}
 35c:	000d0c0e 	andeq	r0, sp, lr, lsl #24
 360:	00000024 	andeq	r0, r0, r4, lsr #32
 364:	00000350 	andeq	r0, r0, r0, asr r3
 368:	80100b10 	andshi	r0, r0, r0, lsl fp
 36c:	000000b8 	strheq	r0, [r0], -r8
 370:	87040e41 	strhi	r0, [r4, -r1, asr #28]
 374:	100e4101 	andne	r4, lr, r1, lsl #2
 378:	02070d41 	andeq	r0, r7, #4160	; 0x1040
 37c:	41040e55 	tstmi	r4, r5, asr lr
 380:	c7420d0d 	strbgt	r0, [r2, -sp, lsl #26]
 384:	0000000e 	andeq	r0, r0, lr
 388:	00000024 	andeq	r0, r0, r4, lsr #32
 38c:	00000350 	andeq	r0, r0, r0, asr r3
 390:	80100bc8 	andshi	r0, r0, r8, asr #23
 394:	00000296 	muleq	r0, r6, r2
 398:	87080e41 	strhi	r0, [r8, -r1, asr #28]
 39c:	41018e02 	tstmi	r1, r2, lsl #28
 3a0:	0d41180e 	stcleq	8, cr1, [r1, #-56]	; 0xffffffc8
 3a4:	01460307 	cmpeq	r6, r7, lsl #6
 3a8:	0d41080e 	stcleq	8, cr0, [r1, #-56]	; 0xffffffc8
 3ac:	0000000d 	andeq	r0, r0, sp
 3b0:	0000001c 	andeq	r0, r0, ip, lsl r0
 3b4:	00000350 	andeq	r0, r0, r0, asr r3
 3b8:	80100e5e 	andshi	r0, r0, lr, asr lr
 3bc:	00000026 	andeq	r0, r0, r6, lsr #32
 3c0:	87040e41 	strhi	r0, [r4, -r1, asr #28]
 3c4:	070d4101 	streq	r4, [sp, -r1, lsl #2]
 3c8:	420d0d4e 	andmi	r0, sp, #4992	; 0x1380
 3cc:	00000ec7 	andeq	r0, r0, r7, asr #29
 3d0:	0000001c 	andeq	r0, r0, ip, lsl r0
 3d4:	00000350 	andeq	r0, r0, r0, asr r3
 3d8:	80100e84 	andshi	r0, r0, r4, lsl #29
 3dc:	00000026 	andeq	r0, r0, r6, lsr #32
 3e0:	87040e41 	strhi	r0, [r4, -r1, asr #28]
 3e4:	070d4101 	streq	r4, [sp, -r1, lsl #2]
 3e8:	420d0d4e 	andmi	r0, sp, #4992	; 0x1380
 3ec:	00000ec7 	andeq	r0, r0, r7, asr #29
 3f0:	00000018 	andeq	r0, r0, r8, lsl r0
 3f4:	00000350 	andeq	r0, r0, r0, asr r3
 3f8:	80100eaa 	andshi	r0, r0, sl, lsr #29
 3fc:	00000014 	andeq	r0, r0, r4, lsl r0
 400:	87080e41 	strhi	r0, [r8, -r1, asr #28]
 404:	41018e02 	tstmi	r1, r2, lsl #28
 408:	0000070d 	andeq	r0, r0, sp, lsl #14
