
uart.elf:     file format elf32-littlearm


Disassembly of section .text:

80100000 <_start>:
80100000:	e59fd028 	ldr	sp, [pc, #40]	; 80100030 <clean+0x14>
80100004:	eb000001 	bl	80100010 <clean_bss>
80100008:	fa00006b 	blx	801001bc <main>

8010000c <halt>:
8010000c:	eafffffe 	b	8010000c <halt>

80100010 <clean_bss>:
80100010:	e59f101c 	ldr	r1, [pc, #28]	; 80100034 <clean+0x18>
80100014:	e59f201c 	ldr	r2, [pc, #28]	; 80100038 <clean+0x1c>
80100018:	e3a03000 	mov	r3, #0

8010001c <clean>:
8010001c:	e5813000 	str	r3, [r1]
80100020:	e2811004 	add	r1, r1, #4
80100024:	e1510002 	cmp	r1, r2
80100028:	1afffffb 	bne	8010001c <clean>
8010002c:	e1a0f00e 	mov	pc, lr
80100030:	80200000 	eorhi	r0, r0, r0
80100034:	8010020c 	andshi	r0, r0, ip, lsl #4
80100038:	80100218 	andshi	r0, r0, r8, lsl r2

8010003c <Uart_Init>:
8010003c:	b480      	push	{r7}
8010003e:	af00      	add	r7, sp, #0
80100040:	f240 220c 	movw	r2, #524	; 0x20c
80100044:	f2c8 0210 	movt	r2, #32784	; 0x8010
80100048:	2384      	movs	r3, #132	; 0x84
8010004a:	f2c0 230e 	movt	r3, #526	; 0x20e
8010004e:	6013      	str	r3, [r2, #0]
80100050:	f240 2210 	movw	r2, #528	; 0x210
80100054:	f2c8 0210 	movt	r2, #32784	; 0x8010
80100058:	2388      	movs	r3, #136	; 0x88
8010005a:	f2c0 230e 	movt	r3, #526	; 0x20e
8010005e:	6013      	str	r3, [r2, #0]
80100060:	f240 2214 	movw	r2, #532	; 0x214
80100064:	f2c8 0210 	movt	r2, #32784	; 0x8010
80100068:	f240 6324 	movw	r3, #1572	; 0x624
8010006c:	f2c0 230e 	movt	r3, #526	; 0x20e
80100070:	6013      	str	r3, [r2, #0]
80100072:	f240 2310 	movw	r3, #528	; 0x210
80100076:	f2c8 0310 	movt	r3, #32784	; 0x8010
8010007a:	681b      	ldr	r3, [r3, #0]
8010007c:	2200      	movs	r2, #0
8010007e:	601a      	str	r2, [r3, #0]
80100080:	f240 2314 	movw	r3, #532	; 0x214
80100084:	f2c8 0310 	movt	r3, #32784	; 0x8010
80100088:	681b      	ldr	r3, [r3, #0]
8010008a:	2203      	movs	r2, #3
8010008c:	601a      	str	r2, [r3, #0]
8010008e:	f240 230c 	movw	r3, #524	; 0x20c
80100092:	f2c8 0310 	movt	r3, #32784	; 0x8010
80100096:	681b      	ldr	r3, [r3, #0]
80100098:	2200      	movs	r2, #0
8010009a:	601a      	str	r2, [r3, #0]
8010009c:	2300      	movs	r3, #0
8010009e:	f2c0 2302 	movt	r3, #514	; 0x202
801000a2:	2200      	movs	r2, #0
801000a4:	f2c0 2202 	movt	r2, #514	; 0x202
801000a8:	f8d2 2080 	ldr.w	r2, [r2, #128]	; 0x80
801000ac:	f042 0201 	orr.w	r2, r2, #1
801000b0:	f8c3 2080 	str.w	r2, [r3, #128]	; 0x80
801000b4:	2200      	movs	r2, #0
801000b6:	f2c0 2202 	movt	r2, #514	; 0x202
801000ba:	2300      	movs	r3, #0
801000bc:	f2c0 2302 	movt	r3, #514	; 0x202
801000c0:	f8d3 3084 	ldr.w	r3, [r3, #132]	; 0x84
801000c4:	f443 4380 	orr.w	r3, r3, #16384	; 0x4000
801000c8:	f043 0326 	orr.w	r3, r3, #38	; 0x26
801000cc:	f8c2 3084 	str.w	r3, [r2, #132]	; 0x84
801000d0:	2300      	movs	r3, #0
801000d2:	f2c0 2302 	movt	r3, #514	; 0x202
801000d6:	2200      	movs	r2, #0
801000d8:	f2c0 2202 	movt	r2, #514	; 0x202
801000dc:	f8d2 2088 	ldr.w	r2, [r2, #136]	; 0x88
801000e0:	f042 0204 	orr.w	r2, r2, #4
801000e4:	f8c3 2088 	str.w	r2, [r3, #136]	; 0x88
801000e8:	2300      	movs	r3, #0
801000ea:	f2c0 2302 	movt	r3, #514	; 0x202
801000ee:	f44f 7220 	mov.w	r2, #640	; 0x280
801000f2:	f8c3 2090 	str.w	r2, [r3, #144]	; 0x90
801000f6:	2300      	movs	r3, #0
801000f8:	f2c0 2302 	movt	r3, #514	; 0x202
801000fc:	2247      	movs	r2, #71	; 0x47
801000fe:	f8c3 20a4 	str.w	r2, [r3, #164]	; 0xa4
80100102:	2300      	movs	r3, #0
80100104:	f2c0 2302 	movt	r3, #514	; 0x202
80100108:	f640 4234 	movw	r2, #3124	; 0xc34
8010010c:	f8c3 20a8 	str.w	r2, [r3, #168]	; 0xa8
80100110:	2300      	movs	r3, #0
80100112:	f2c0 2302 	movt	r3, #514	; 0x202
80100116:	2200      	movs	r2, #0
80100118:	f2c0 2202 	movt	r2, #514	; 0x202
8010011c:	f8d2 2080 	ldr.w	r2, [r2, #128]	; 0x80
80100120:	f042 0201 	orr.w	r2, r2, #1
80100124:	f8c3 2080 	str.w	r2, [r3, #128]	; 0x80
80100128:	bf00      	nop
8010012a:	46bd      	mov	sp, r7
8010012c:	f85d 7b04 	ldr.w	r7, [sp], #4
80100130:	4770      	bx	lr

80100132 <PutChar>:
80100132:	b480      	push	{r7}
80100134:	b083      	sub	sp, #12
80100136:	af00      	add	r7, sp, #0
80100138:	6078      	str	r0, [r7, #4]
8010013a:	bf00      	nop
8010013c:	2300      	movs	r3, #0
8010013e:	f2c0 2302 	movt	r3, #514	; 0x202
80100142:	f8d3 3098 	ldr.w	r3, [r3, #152]	; 0x98
80100146:	f003 0308 	and.w	r3, r3, #8
8010014a:	2b00      	cmp	r3, #0
8010014c:	d0f6      	beq.n	8010013c <PutChar+0xa>
8010014e:	2300      	movs	r3, #0
80100150:	f2c0 2302 	movt	r3, #514	; 0x202
80100154:	687a      	ldr	r2, [r7, #4]
80100156:	b2d2      	uxtb	r2, r2
80100158:	641a      	str	r2, [r3, #64]	; 0x40
8010015a:	bf00      	nop
8010015c:	370c      	adds	r7, #12
8010015e:	46bd      	mov	sp, r7
80100160:	f85d 7b04 	ldr.w	r7, [sp], #4
80100164:	4770      	bx	lr

80100166 <GetChar>:
80100166:	b480      	push	{r7}
80100168:	af00      	add	r7, sp, #0
8010016a:	bf00      	nop
8010016c:	2300      	movs	r3, #0
8010016e:	f2c0 2302 	movt	r3, #514	; 0x202
80100172:	f8d3 3098 	ldr.w	r3, [r3, #152]	; 0x98
80100176:	f003 0301 	and.w	r3, r3, #1
8010017a:	2b00      	cmp	r3, #0
8010017c:	d0f6      	beq.n	8010016c <GetChar+0x6>
8010017e:	2300      	movs	r3, #0
80100180:	f2c0 2302 	movt	r3, #514	; 0x202
80100184:	681b      	ldr	r3, [r3, #0]
80100186:	b2db      	uxtb	r3, r3
80100188:	4618      	mov	r0, r3
8010018a:	46bd      	mov	sp, r7
8010018c:	f85d 7b04 	ldr.w	r7, [sp], #4
80100190:	4770      	bx	lr

80100192 <PutStr>:
80100192:	b580      	push	{r7, lr}
80100194:	b082      	sub	sp, #8
80100196:	af00      	add	r7, sp, #0
80100198:	6078      	str	r0, [r7, #4]
8010019a:	e007      	b.n	801001ac <PutStr+0x1a>
8010019c:	687b      	ldr	r3, [r7, #4]
8010019e:	781b      	ldrb	r3, [r3, #0]
801001a0:	4618      	mov	r0, r3
801001a2:	f7ff ffc6 	bl	80100132 <PutChar>
801001a6:	687b      	ldr	r3, [r7, #4]
801001a8:	3301      	adds	r3, #1
801001aa:	607b      	str	r3, [r7, #4]
801001ac:	687b      	ldr	r3, [r7, #4]
801001ae:	781b      	ldrb	r3, [r3, #0]
801001b0:	2b00      	cmp	r3, #0
801001b2:	d1f3      	bne.n	8010019c <PutStr+0xa>
801001b4:	bf00      	nop
801001b6:	3708      	adds	r7, #8
801001b8:	46bd      	mov	sp, r7
801001ba:	bd80      	pop	{r7, pc}

801001bc <main>:
801001bc:	b580      	push	{r7, lr}
801001be:	b082      	sub	sp, #8
801001c0:	af00      	add	r7, sp, #0
801001c2:	f7ff ff3b 	bl	8010003c <Uart_Init>
801001c6:	f240 10fc 	movw	r0, #508	; 0x1fc
801001ca:	f2c8 0010 	movt	r0, #32784	; 0x8010
801001ce:	f7ff ffe0 	bl	80100192 <PutStr>
801001d2:	f7ff ffc8 	bl	80100166 <GetChar>
801001d6:	4603      	mov	r3, r0
801001d8:	71fb      	strb	r3, [r7, #7]
801001da:	79fb      	ldrb	r3, [r7, #7]
801001dc:	2b0d      	cmp	r3, #13
801001de:	d102      	bne.n	801001e6 <main+0x2a>
801001e0:	200a      	movs	r0, #10
801001e2:	f7ff ffa6 	bl	80100132 <PutChar>
801001e6:	79fb      	ldrb	r3, [r7, #7]
801001e8:	2b0a      	cmp	r3, #10
801001ea:	d102      	bne.n	801001f2 <main+0x36>
801001ec:	200d      	movs	r0, #13
801001ee:	f7ff ffa0 	bl	80100132 <PutChar>
801001f2:	79fb      	ldrb	r3, [r7, #7]
801001f4:	4618      	mov	r0, r3
801001f6:	f7ff ff9c 	bl	80100132 <PutChar>
801001fa:	e7ea      	b.n	801001d2 <main+0x16>

Disassembly of section .rodata:

801001fc <.LC0>:
801001fc:	6c6c6548 	cfstr64vs	mvdx6, [ip], #-288	; 0xfffffee0
80100200:	77202c6f 	strvc	r2, [r0, -pc, ror #24]!
80100204:	646c726f 	strbtvs	r7, [ip], #-623	; 0xfffffd91
80100208:	000d0a21 	andeq	r0, sp, r1, lsr #20

Disassembly of section .bss:

8010020c <__bss_start>:
8010020c:	00000000 	andeq	r0, r0, r0

80100210 <IOMUXC_SW_MUX_CTL_PAD_UART1_RX_DATA>:
80100210:	00000000 	andeq	r0, r0, r0

80100214 <IOMUXC_UART1_RX_DATA_SELECT_INPUT>:
80100214:	00000000 	andeq	r0, r0, r0

Disassembly of section .ARM.attributes:

00000000 <.ARM.attributes>:
   0:	00002e41 	andeq	r2, r0, r1, asr #28
   4:	61656100 	cmnvs	r5, r0, lsl #2
   8:	01006962 	tsteq	r0, r2, ror #18
   c:	00000024 	andeq	r0, r0, r4, lsr #32
  10:	412d3705 			; <UNDEFINED> instruction: 0x412d3705
  14:	070a0600 	streq	r0, [sl, -r0, lsl #12]
  18:	09010841 	stmdbeq	r1, {r0, r6, fp}
  1c:	12040a02 	andne	r0, r4, #8192	; 0x2000
  20:	15011404 	strne	r1, [r1, #-1028]	; 0xfffffbfc
  24:	18031701 	stmdane	r3, {r0, r8, r9, sl, ip}
  28:	1c021a01 			; <UNDEFINED> instruction: 0x1c021a01
  2c:	Address 0x000000000000002c is out of bounds.


Disassembly of section .comment:

00000000 <.comment>:
   0:	3a434347 	bcc	10d0d24 <_start-0x7f02f2dc>
   4:	694c2820 	stmdbvs	ip, {r5, fp, sp}^
   8:	6f72616e 	svcvs	0x0072616e
   c:	43434720 	movtmi	r4, #14112	; 0x3720
  10:	322e3620 	eorcc	r3, lr, #32, 12	; 0x2000000
  14:	3130322d 	teqcc	r0, sp, lsr #4
  18:	31312e36 	teqcc	r1, r6, lsr lr
  1c:	2e362029 	cdpcs	0, 3, cr2, cr6, cr9, {1}
  20:	20312e32 	eorscs	r2, r1, r2, lsr lr
  24:	36313032 			; <UNDEFINED> instruction: 0x36313032
  28:	36313031 			; <UNDEFINED> instruction: 0x36313031
	...

Disassembly of section .debug_line:

00000000 <.debug_line>:
   0:	00000043 	andeq	r0, r0, r3, asr #32
   4:	001e0002 	andseq	r0, lr, r2
   8:	01020000 	mrseq	r0, (UNDEF: 2)
   c:	000d0efb 	strdeq	r0, [sp], -fp
  10:	01010101 	tsteq	r1, r1, lsl #2
  14:	01000000 	mrseq	r0, (UNDEF: 0)
  18:	00010000 	andeq	r0, r1, r0
  1c:	72617473 	rsbvc	r7, r1, #1929379840	; 0x73000000
  20:	00532e74 	subseq	r2, r3, r4, ror lr
  24:	00000000 	andeq	r0, r0, r0
  28:	00020500 	andeq	r0, r2, r0, lsl #10
  2c:	18801000 	stmne	r0, {ip}
  30:	32313030 	eorscc	r3, r1, #48	; 0x30
  34:	2f302f2f 	svccs	0x00302f2f
  38:	03302f2f 	teqeq	r0, #47, 30	; 0xbc
  3c:	0b032e6c 	bleq	cb9f4 <_start-0x8003460c>
  40:	02022f2e 	andeq	r2, r2, #46, 30	; 0xb8
  44:	70010100 	andvc	r0, r1, r0, lsl #2
  48:	02000000 	andeq	r0, r0, #0
  4c:	00002700 	andeq	r2, r0, r0, lsl #14
  50:	fb010200 	blx	4085a <_start-0x800bf7a6>
  54:	01000d0e 	tsteq	r0, lr, lsl #26
  58:	00010101 	andeq	r0, r1, r1, lsl #2
  5c:	00010000 	andeq	r0, r1, r0
  60:	75000100 	strvc	r0, [r0, #-256]	; 0xffffff00
  64:	2e747261 	cdpcs	2, 7, cr7, cr4, cr1, {3}
  68:	00000063 	andeq	r0, r0, r3, rrx
  6c:	72617500 	rsbvc	r7, r1, #0, 10
  70:	00682e74 	rsbeq	r2, r8, r4, ror lr
  74:	00000000 	andeq	r0, r0, r0
  78:	3c020500 	cfstr32cc	mvfx0, [r2], {-0}
  7c:	03801000 	orreq	r1, r0, #0
  80:	83300112 	teqhi	r0, #-2147483644	; 0x80000004
  84:	75759283 	ldrbvc	r9, [r5, #-643]!	; 0xfffffd7d
  88:	ba0d0376 	blt	340e68 <_start-0x7fdbf198>
  8c:	ba1003dd 	blt	401008 <_start-0x7fcfeff8>
  90:	bb766775 	bllt	1d99e6c <_start-0x7e366194>
  94:	4b580d03 	blmi	16034a8 <_start-0x7eafcb58>
  98:	01040200 	mrseq	r0, R12_usr
  9c:	91062006 	tstls	r6, r6
  a0:	660d0367 	strvs	r0, [sp], -r7, ror #6
  a4:	0402002f 	streq	r0, [r2], #-47	; 0xffffffd1
  a8:	06200601 	strteq	r0, [r0], -r1, lsl #12
  ac:	0d035991 	vstreq.16	s10, [r3, #-290]	; 0xfffffede	; <UNPREDICTABLE>
  b0:	59224b58 	stmdbpl	r2!, {r3, r4, r6, r8, r9, fp, lr}
  b4:	04024f39 	streq	r4, [r2], #-3897	; 0xfffff0c7
  b8:	3b010100 	blcc	404c0 <_start-0x800bfb40>
  bc:	02000000 	andeq	r0, r0, #0
  c0:	00001d00 	andeq	r1, r0, r0, lsl #26
  c4:	fb010200 	blx	408ce <_start-0x800bf732>
  c8:	01000d0e 	tsteq	r0, lr, lsl #26
  cc:	00010101 	andeq	r0, r1, r1, lsl #2
  d0:	00010000 	andeq	r0, r1, r0
  d4:	6d000100 	stfvss	f0, [r0, #-0]
  d8:	2e6e6961 	vnmulcs.f16	s13, s28, s3	; <UNPREDICTABLE>
  dc:	00000063 	andeq	r0, r0, r3, rrx
  e0:	05000000 	streq	r0, [r0, #-0]
  e4:	1001bc02 	andne	fp, r1, r2, lsl #24
  e8:	303e1580 	eorscc	r1, lr, r0, lsl #11
  ec:	3f3e4c6a 	svccc	0x003e4c6a
  f0:	73033f3e 	movwvc	r3, #16190	; 0x3f3e
  f4:	0001024a 	andeq	r0, r1, sl, asr #4
  f8:	Address 0x00000000000000f8 is out of bounds.


Disassembly of section .debug_info:

00000000 <.debug_info>:
   0:	0000006e 	andeq	r0, r0, lr, rrx
   4:	00000002 	andeq	r0, r0, r2
   8:	01040000 	mrseq	r0, (UNDEF: 4)
   c:	00000000 	andeq	r0, r0, r0
  10:	80100000 	andshi	r0, r0, r0
  14:	8010003c 	andshi	r0, r0, ip, lsr r0
  18:	72617473 	rsbvc	r7, r1, #1929379840	; 0x73000000
  1c:	00532e74 	subseq	r2, r3, r4, ror lr
  20:	6d6f682f 	stclvs	8, cr6, [pc, #-188]!	; ffffff6c <__bss_end+0x7feffd54>
  24:	6f622f65 	svcvs	0x00622f65
  28:	312f6b6f 			; <UNDEFINED> instruction: 0x312f6b6f
  2c:	73613030 	cmnvc	r1, #48	; 0x30
  30:	6d695f6b 	stclvs	15, cr5, [r9, #-428]!	; 0xfffffe54
  34:	6c753678 	ldclvs	6, cr3, [r5], #-480	; 0xfffffe20
  38:	64732d6c 	ldrbtvs	r2, [r3], #-3436	; 0xfffff294
  3c:	6d742f6b 	ldclvs	15, cr2, [r4, #-428]!	; 0xfffffe54
  40:	5f382f70 	svcpl	0x00382f70
  44:	54524155 	ldrbpl	r4, [r2], #-341	; 0xfffffeab
  48:	e5b2b8e4 	ldr	fp, [r2, #2276]!	; 0x8e4
  4c:	bce7a38f 	stcllt	3, cr10, [r7], #572	; 0x23c
  50:	8ba8e796 	blhi	fea39eb0 <__bss_end+0x7e939c98>
  54:	3430302f 	ldrtcc	r3, [r0], #-47	; 0xffffffd1
  58:	7261755f 	rsbvc	r7, r1, #398458880	; 0x17c00000
  5c:	74735f74 	ldrbtvc	r5, [r3], #-3956	; 0xfffff08c
  60:	4e470072 	mcrmi	0, 2, r0, cr7, cr2, {3}
  64:	53412055 	movtpl	r2, #4181	; 0x1055
  68:	322e3220 	eorcc	r3, lr, #32, 4
  6c:	00302e37 	eorseq	r2, r0, r7, lsr lr
  70:	02008001 	andeq	r8, r0, #1
  74:	00040000 	andeq	r0, r4, r0
  78:	00000014 	andeq	r0, r0, r4, lsl r0
  7c:	00120104 	andseq	r0, r2, r4, lsl #2
  80:	360c0000 	strcc	r0, [ip], -r0
  84:	d2000001 	andle	r0, r0, #1
  88:	3c000000 	stccc	0, cr0, [r0], {-0}
  8c:	80801000 	addhi	r1, r0, r0
  90:	47000001 	strmi	r0, [r0, -r1]
  94:	02000000 	andeq	r0, r0, #0
  98:	120b02bc 	andne	r0, fp, #188, 4	; 0xc000000b
  9c:	03000001 	movweq	r0, #1
  a0:	000000cd 	andeq	r0, r0, sp, asr #1
  a4:	01190c02 	tsteq	r9, r2, lsl #24
  a8:	03000000 	movweq	r0, #0
  ac:	000000c2 	andeq	r0, r0, r2, asr #1
  b0:	011e0d02 	tsteq	lr, r2, lsl #26
  b4:	03040000 	movweq	r0, #16384	; 0x4000
  b8:	00000127 	andeq	r0, r0, r7, lsr #2
  bc:	01190e02 	tsteq	r9, r2, lsl #28
  c0:	03400000 	movteq	r0, #0
  c4:	000001bb 			; <UNDEFINED> instruction: 0x000001bb
  c8:	011e0f02 	tsteq	lr, r2, lsl #30
  cc:	03440000 	movteq	r0, #16384	; 0x4000
  d0:	0000013d 	andeq	r0, r0, sp, lsr r1
  d4:	01191002 	tsteq	r9, r2
  d8:	03800000 	orreq	r0, r0, #0
  dc:	00000142 	andeq	r0, r0, r2, asr #2
  e0:	01191102 	tsteq	r9, r2, lsl #2
  e4:	03840000 	orreq	r0, r4, #0
  e8:	00000147 	andeq	r0, r0, r7, asr #2
  ec:	01191202 	tsteq	r9, r2, lsl #4
  f0:	03880000 	orreq	r0, r8, #0
  f4:	0000014c 	andeq	r0, r0, ip, asr #2
  f8:	01191302 	tsteq	r9, r2, lsl #6
  fc:	038c0000 	orreq	r0, ip, #0
 100:	00000114 	andeq	r0, r0, r4, lsl r1
 104:	01191402 	tsteq	r9, r2, lsl #8
 108:	03900000 	orrseq	r0, r0, #0
 10c:	000001d9 	ldrdeq	r0, [r0], -r9
 110:	01191502 	tsteq	r9, r2, lsl #10
 114:	03940000 	orrseq	r0, r4, #0
 118:	00000000 	andeq	r0, r0, r0
 11c:	01191602 	tsteq	r9, r2, lsl #12
 120:	03980000 	orrseq	r0, r8, #0
 124:	00000087 	andeq	r0, r0, r7, lsl #1
 128:	01191702 	tsteq	r9, r2, lsl #14
 12c:	039c0000 	orrseq	r0, ip, #0
 130:	0000008c 	andeq	r0, r0, ip, lsl #1
 134:	01191802 	tsteq	r9, r2, lsl #16
 138:	03a00000 	moveq	r0, #0
 13c:	00000151 	andeq	r0, r0, r1, asr r1
 140:	01191902 	tsteq	r9, r2, lsl #18
 144:	03a40000 			; <UNDEFINED> instruction: 0x03a40000
 148:	0000012c 	andeq	r0, r0, ip, lsr #2
 14c:	01191a02 	tsteq	r9, r2, lsl #20
 150:	03a80000 			; <UNDEFINED> instruction: 0x03a80000
 154:	000000bd 	strheq	r0, [r0], -sp
 158:	01191b02 	tsteq	r9, r2, lsl #22
 15c:	03ac0000 			; <UNDEFINED> instruction: 0x03ac0000
 160:	00000156 	andeq	r0, r0, r6, asr r1
 164:	01191c02 	tsteq	r9, r2, lsl #24
 168:	04b00000 	ldrteq	r0, [r0], #0
 16c:	00535455 	subseq	r5, r3, r5, asr r4
 170:	01191d02 	tsteq	r9, r2, lsl #26
 174:	03b40000 			; <UNDEFINED> instruction: 0x03b40000
 178:	00000131 	andeq	r0, r0, r1, lsr r1
 17c:	01191e02 	tsteq	r9, r2, lsl #28
 180:	00b80000 	adcseq	r0, r8, r0
 184:	05070405 	streq	r0, [r7, #-1029]	; 0xfffffbfb
 188:	06000000 	streq	r0, [r0], -r0
 18c:	00000112 	andeq	r0, r0, r2, lsl r1
 190:	00013507 	andeq	r3, r1, r7, lsl #10
 194:	00012e00 	andeq	r2, r1, r0, lsl #28
 198:	012e0800 			; <UNDEFINED> instruction: 0x012e0800
 19c:	003b0000 	eorseq	r0, fp, r0
 1a0:	d0070405 	andle	r0, r7, r5, lsl #8
 1a4:	05000001 	streq	r0, [r0, #-1]
 1a8:	01190801 	tsteq	r9, r1, lsl #16
 1ac:	c6090000 	strgt	r0, [r9], -r0
 1b0:	02000001 	andeq	r0, r0, #1
 1b4:	0000251f 	andeq	r2, r0, pc, lsl r5
 1b8:	00990a00 	addseq	r0, r9, r0, lsl #20
 1bc:	04010000 	streq	r0, [r1], #-0
 1c0:	00000158 	andeq	r0, r0, r8, asr r1
 1c4:	020c0305 	andeq	r0, ip, #335544320	; 0x14000000
 1c8:	040b8010 	streq	r8, [fp], #-16
 1cc:	00000119 	andeq	r0, r0, r9, lsl r1
 1d0:	0001900a 	andeq	r9, r1, sl
 1d4:	58050100 	stmdapl	r5, {r8}
 1d8:	05000001 	streq	r0, [r0, #-1]
 1dc:	10021003 	andne	r1, r2, r3
 1e0:	016e0a80 	smulbbeq	lr, r0, sl
 1e4:	06010000 	streq	r0, [r1], -r0
 1e8:	00000158 	andeq	r0, r0, r8, asr r1
 1ec:	02140305 	andseq	r0, r4, #335544320	; 0x14000000
 1f0:	b40c8010 	strlt	r8, [ip], #-16
 1f4:	01000001 	tsteq	r0, r1
 1f8:	10019272 	andne	r9, r1, r2, ror r2
 1fc:	00002a80 	andeq	r2, r0, r0, lsl #21
 200:	a29c0100 	addsge	r0, ip, #0, 2
 204:	0d000001 	stceq	0, cr0, [r0, #-4]
 208:	72010073 	andvc	r0, r1, #115	; 0x73
 20c:	000001a2 	andeq	r0, r0, r2, lsr #3
 210:	00749102 	rsbseq	r9, r4, r2, lsl #2
 214:	01af040b 			; <UNDEFINED> instruction: 0x01af040b
 218:	01050000 	mrseq	r0, (UNDEF: 5)
 21c:	00012208 	andeq	r2, r1, r8, lsl #4
 220:	01a80e00 			; <UNDEFINED> instruction: 0x01a80e00
 224:	910f0000 	mrsls	r0, CPSR
 228:	01000000 	mrseq	r0, (UNDEF: 0)
 22c:	00013562 	andeq	r3, r1, r2, ror #10
 230:	10016600 	andne	r6, r1, r0, lsl #12
 234:	00002c80 	andeq	r2, r0, r0, lsl #25
 238:	109c0100 	addsne	r0, ip, r0, lsl #2
 23c:	0000015c 	andeq	r0, r0, ip, asr r1
 240:	01325201 	teqeq	r2, r1, lsl #4
 244:	00348010 	eorseq	r8, r4, r0, lsl r0
 248:	9c010000 	stcls	0, cr0, [r1], {-0}
 24c:	000001eb 	andeq	r0, r0, fp, ror #3
 250:	0100630d 	tsteq	r0, sp, lsl #6
 254:	0001eb52 	andeq	lr, r1, r2, asr fp
 258:	74910200 	ldrvc	r0, [r1], #512	; 0x200
 25c:	05041100 	streq	r1, [r4, #-256]	; 0xffffff00
 260:	00746e69 	rsbseq	r6, r4, r9, ror #28
 264:	00016412 	andeq	r6, r1, r2, lsl r4
 268:	3c120100 	ldfccs	f0, [r2], {-0}
 26c:	f6801000 			; <UNDEFINED> instruction: 0xf6801000
 270:	01000000 	mrseq	r0, (UNDEF: 0)
 274:	008e009c 	umulleq	r0, lr, ip, r0
 278:	00040000 	andeq	r0, r4, r0
 27c:	00000123 	andeq	r0, r0, r3, lsr #2
 280:	00120104 	andseq	r0, r2, r4, lsl #2
 284:	e80c0000 	stmda	ip, {}	; <UNPREDICTABLE>
 288:	d2000001 	andle	r0, r0, #1
 28c:	bc000000 	stclt	0, cr0, [r0], {-0}
 290:	40801001 	addmi	r1, r0, r1
 294:	bb000000 	bllt	29c <_start-0x800ffd64>
 298:	02000000 	andeq	r0, r0, #0
 29c:	00050704 	andeq	r0, r5, r4, lsl #14
 2a0:	04020000 	streq	r0, [r2], #-0
 2a4:	0001d007 	andeq	sp, r1, r7
 2a8:	08010200 	stmdaeq	r1, {r9}
 2ac:	00000119 	andeq	r0, r0, r9, lsl r1
 2b0:	0001ef03 	andeq	lr, r1, r3, lsl #30
 2b4:	8a030100 	bhi	c06bc <_start-0x8003f944>
 2b8:	bc000000 	stclt	0, cr0, [r0], {-0}
 2bc:	40801001 	addmi	r1, r0, r1
 2c0:	01000000 	mrseq	r0, (UNDEF: 0)
 2c4:	00008a9c 	muleq	r0, ip, sl
 2c8:	01de0400 	bicseq	r0, lr, r0, lsl #8
 2cc:	05010000 	streq	r0, [r1, #-0]
 2d0:	00000033 	andeq	r0, r0, r3, lsr r0
 2d4:	05779102 	ldrbeq	r9, [r7, #-258]!	; 0xfffffefe
 2d8:	000001b4 			; <UNDEFINED> instruction: 0x000001b4
 2dc:	008a0801 	addeq	r0, sl, r1, lsl #16
 2e0:	00720000 	rsbseq	r0, r2, r0
 2e4:	00060000 	andeq	r0, r6, r0
 2e8:	1001d207 	andne	sp, r1, r7, lsl #4
 2ec:	00002880 	andeq	r2, r0, r0, lsl #17
 2f0:	00910800 	addseq	r0, r1, r0, lsl #16
 2f4:	0c010000 	stceq	0, cr0, [r1], {-0}
 2f8:	0000008a 	andeq	r0, r0, sl, lsl #1
 2fc:	00000006 	andeq	r0, r0, r6
 300:	69050409 	stmdbvs	r5, {r0, r3, sl}
 304:	0000746e 	andeq	r7, r0, lr, ror #8

Disassembly of section .debug_abbrev:

00000000 <.debug_abbrev>:
   0:	10001101 	andne	r1, r0, r1, lsl #2
   4:	12011106 	andne	r1, r1, #-2147483647	; 0x80000001
   8:	1b080301 	blne	200c14 <_start-0x7feff3ec>
   c:	13082508 	movwne	r2, #34056	; 0x8508
  10:	00000005 	andeq	r0, r0, r5
  14:	25011101 	strcs	r1, [r1, #-257]	; 0xfffffeff
  18:	030b130e 	movweq	r1, #45838	; 0xb30e
  1c:	110e1b0e 	tstne	lr, lr, lsl #22
  20:	10061201 	andne	r1, r6, r1, lsl #4
  24:	02000017 	andeq	r0, r0, #23
  28:	0b0b0113 	bleq	2c047c <_start-0x7fe3fb84>
  2c:	0b3b0b3a 	bleq	ec2d1c <_start-0x7f23d2e4>
  30:	00001301 	andeq	r1, r0, r1, lsl #6
  34:	03000d03 	movweq	r0, #3331	; 0xd03
  38:	3b0b3a0e 	blcc	2ce878 <_start-0x7fe31788>
  3c:	3813490b 	ldmdacc	r3, {r0, r1, r3, r8, fp, lr}
  40:	0400000b 	streq	r0, [r0], #-11
  44:	0803000d 	stmdaeq	r3, {r0, r2, r3}
  48:	0b3b0b3a 	bleq	ec2d38 <_start-0x7f23d2c8>
  4c:	0b381349 	bleq	e04d78 <_start-0x7f2fb288>
  50:	24050000 	strcs	r0, [r5], #-0
  54:	3e0b0b00 	vmlacc.f64	d0, d11, d0
  58:	000e030b 	andeq	r0, lr, fp, lsl #6
  5c:	00350600 	eorseq	r0, r5, r0, lsl #12
  60:	00001349 	andeq	r1, r0, r9, asr #6
  64:	49010107 	stmdbmi	r1, {r0, r1, r2, r8}
  68:	00130113 	andseq	r0, r3, r3, lsl r1
  6c:	00210800 	eoreq	r0, r1, r0, lsl #16
  70:	0b2f1349 	bleq	bc4d9c <_start-0x7f53b264>
  74:	16090000 	strne	r0, [r9], -r0
  78:	3a0e0300 	bcc	380c80 <_start-0x7fd7f380>
  7c:	490b3b0b 	stmdbmi	fp, {r0, r1, r3, r8, r9, fp, ip, sp}
  80:	0a000013 	beq	d4 <_start-0x800fff2c>
  84:	0e030034 	mcreq	0, 0, r0, cr3, cr4, {1}
  88:	0b3b0b3a 	bleq	ec2d78 <_start-0x7f23d288>
  8c:	18021349 	stmdane	r2, {r0, r3, r6, r8, r9, ip}
  90:	0f0b0000 	svceq	0x000b0000
  94:	490b0b00 	stmdbmi	fp, {r8, r9, fp}
  98:	0c000013 	stceq	0, cr0, [r0], {19}
  9c:	193f012e 	ldmdbne	pc!, {r1, r2, r3, r5, r8}	; <UNPREDICTABLE>
  a0:	0b3a0e03 	bleq	e838b4 <_start-0x7f27c74c>
  a4:	19270b3b 	stmdbne	r7!, {r0, r1, r3, r4, r5, r8, r9, fp}
  a8:	06120111 			; <UNDEFINED> instruction: 0x06120111
  ac:	42961840 	addsmi	r1, r6, #64, 16	; 0x400000
  b0:	00130119 	andseq	r0, r3, r9, lsl r1
  b4:	00050d00 	andeq	r0, r5, r0, lsl #26
  b8:	0b3a0803 	bleq	e820cc <_start-0x7f27df34>
  bc:	13490b3b 	movtne	r0, #39739	; 0x9b3b
  c0:	00001802 	andeq	r1, r0, r2, lsl #16
  c4:	4900260e 	stmdbmi	r0, {r1, r2, r3, r9, sl, sp}
  c8:	0f000013 	svceq	0x00000013
  cc:	193f002e 	ldmdbne	pc!, {r1, r2, r3, r5}	; <UNPREDICTABLE>
  d0:	0b3a0e03 	bleq	e838e4 <_start-0x7f27c71c>
  d4:	19270b3b 	stmdbne	r7!, {r0, r1, r3, r4, r5, r8, r9, fp}
  d8:	01111349 	tsteq	r1, r9, asr #6
  dc:	18400612 	stmdane	r0, {r1, r4, r9, sl}^
  e0:	00194297 	mulseq	r9, r7, r2
  e4:	012e1000 			; <UNDEFINED> instruction: 0x012e1000
  e8:	0e03193f 			; <UNDEFINED> instruction: 0x0e03193f
  ec:	0b3b0b3a 	bleq	ec2ddc <_start-0x7f23d224>
  f0:	01111927 	tsteq	r1, r7, lsr #18
  f4:	18400612 	stmdane	r0, {r1, r4, r9, sl}^
  f8:	01194297 			; <UNDEFINED> instruction: 0x01194297
  fc:	11000013 	tstne	r0, r3, lsl r0
 100:	0b0b0024 	bleq	2c0198 <_start-0x7fe3fe68>
 104:	08030b3e 	stmdaeq	r3, {r1, r2, r3, r4, r5, r8, r9, fp}
 108:	2e120000 	cdpcs	0, 1, cr0, cr2, cr0, {0}
 10c:	03193f00 	tsteq	r9, #0, 30
 110:	3b0b3a0e 	blcc	2ce950 <_start-0x7fe316b0>
 114:	1119270b 	tstne	r9, fp, lsl #14
 118:	40061201 	andmi	r1, r6, r1, lsl #4
 11c:	19429718 	stmdbne	r2, {r3, r4, r8, r9, sl, ip, pc}^
 120:	01000000 	mrseq	r0, (UNDEF: 0)
 124:	0e250111 	mcreq	1, 1, r0, cr5, cr1, {0}
 128:	0e030b13 	vmoveq.32	d3[0], r0
 12c:	01110e1b 	tsteq	r1, fp, lsl lr
 130:	17100612 			; <UNDEFINED> instruction: 0x17100612
 134:	24020000 	strcs	r0, [r2], #-0
 138:	3e0b0b00 	vmlacc.f64	d0, d11, d0
 13c:	000e030b 	andeq	r0, lr, fp, lsl #6
 140:	012e0300 			; <UNDEFINED> instruction: 0x012e0300
 144:	0e03193f 			; <UNDEFINED> instruction: 0x0e03193f
 148:	0b3b0b3a 	bleq	ec2e38 <_start-0x7f23d1c8>
 14c:	01111349 	tsteq	r1, r9, asr #6
 150:	18400612 	stmdane	r0, {r1, r4, r9, sl}^
 154:	01194296 			; <UNDEFINED> instruction: 0x01194296
 158:	04000013 	streq	r0, [r0], #-19	; 0xffffffed
 15c:	0e030034 	mcreq	0, 0, r0, cr3, cr4, {1}
 160:	0b3b0b3a 	bleq	ec2e50 <_start-0x7f23d1b0>
 164:	18021349 	stmdane	r2, {r0, r3, r6, r8, r9, ip}
 168:	2e050000 	cdpcs	0, 0, cr0, cr5, cr0, {0}
 16c:	03193f01 	tsteq	r9, #1, 30
 170:	3b0b3a0e 	blcc	2ce9b0 <_start-0x7fe31650>
 174:	3c13490b 			; <UNDEFINED> instruction: 0x3c13490b
 178:	00130119 	andseq	r0, r3, r9, lsl r1
 17c:	00180600 	andseq	r0, r8, r0, lsl #12
 180:	0b070000 	bleq	1c0188 <_start-0x7ff3fe78>
 184:	12011101 	andne	r1, r1, #1073741824	; 0x40000000
 188:	08000006 	stmdaeq	r0, {r1, r2}
 18c:	193f012e 	ldmdbne	pc!, {r1, r2, r3, r5, r8}	; <UNPREDICTABLE>
 190:	0b3a0e03 	bleq	e839a4 <_start-0x7f27c65c>
 194:	13490b3b 	movtne	r0, #39739	; 0x9b3b
 198:	0000193c 	andeq	r1, r0, ip, lsr r9
 19c:	0b002409 	bleq	91c8 <_start-0x800f6e38>
 1a0:	030b3e0b 	movweq	r3, #48651	; 0xbe0b
 1a4:	00000008 	andeq	r0, r0, r8

Disassembly of section .debug_aranges:

00000000 <.debug_aranges>:
   0:	0000001c 	andeq	r0, r0, ip, lsl r0
   4:	00000002 	andeq	r0, r0, r2
   8:	00040000 	andeq	r0, r4, r0
   c:	00000000 	andeq	r0, r0, r0
  10:	80100000 	andshi	r0, r0, r0
  14:	0000003c 	andeq	r0, r0, ip, lsr r0
	...
  20:	0000001c 	andeq	r0, r0, ip, lsl r0
  24:	00720002 	rsbseq	r0, r2, r2
  28:	00040000 	andeq	r0, r4, r0
  2c:	00000000 	andeq	r0, r0, r0
  30:	8010003c 	andshi	r0, r0, ip, lsr r0
  34:	00000180 	andeq	r0, r0, r0, lsl #3
	...
  40:	0000001c 	andeq	r0, r0, ip, lsl r0
  44:	02760002 	rsbseq	r0, r6, #2
  48:	00040000 	andeq	r0, r4, r0
  4c:	00000000 	andeq	r0, r0, r0
  50:	801001bc 			; <UNDEFINED> instruction: 0x801001bc
  54:	00000040 	andeq	r0, r0, r0, asr #32
	...

Disassembly of section .debug_str:

00000000 <.debug_str>:
   0:	32525355 	subscc	r5, r2, #1409286145	; 0x54000001
   4:	736e7500 	cmnvc	lr, #0, 10
   8:	656e6769 	strbvs	r6, [lr, #-1897]!	; 0xfffff897
   c:	6e692064 	cdpvs	0, 6, cr2, cr9, cr4, {3}
  10:	4e470074 	mcrmi	0, 2, r0, cr7, cr4, {3}
  14:	31432055 	qdaddcc	r2, r5, r3
  18:	2e362031 	mrccs	0, 1, r2, cr6, cr1, {1}
  1c:	20312e32 	eorscs	r2, r1, r2, lsr lr
  20:	36313032 			; <UNDEFINED> instruction: 0x36313032
  24:	36313031 			; <UNDEFINED> instruction: 0x36313031
  28:	616d2d20 	cmnvs	sp, r0, lsr #26
  2c:	3d686372 	stclcc	3, cr6, [r8, #-456]!	; 0xfffffe38
  30:	766d7261 	strbtvc	r7, [sp], -r1, ror #4
  34:	20612d37 	rsbcs	r2, r1, r7, lsr sp
  38:	75746d2d 	ldrbvc	r6, [r4, #-3373]!	; 0xfffff2d3
  3c:	633d656e 	teqvs	sp, #461373440	; 0x1b800000
  40:	6574726f 	ldrbvs	r7, [r4, #-623]!	; 0xfffffd91
  44:	39612d78 	stmdbcc	r1!, {r3, r4, r5, r6, r8, sl, fp, sp}^
  48:	666d2d20 	strbtvs	r2, [sp], -r0, lsr #26
  4c:	74616f6c 	strbtvc	r6, [r1], #-3948	; 0xfffff094
  50:	6962612d 	stmdbvs	r2!, {r0, r2, r3, r5, r8, sp, lr}^
  54:	7261683d 	rsbvc	r6, r1, #3997696	; 0x3d0000
  58:	6d2d2064 	stcvs	0, cr2, [sp, #-400]!	; 0xfffffe70
  5c:	3d757066 	ldclcc	0, cr7, [r5, #-408]!	; 0xfffffe68
  60:	76706676 			; <UNDEFINED> instruction: 0x76706676
  64:	31642d33 	cmncc	r4, r3, lsr sp
  68:	6d2d2036 	stcvs	0, cr2, [sp, #-216]!	; 0xffffff28
  6c:	6d756874 	ldclvs	8, cr6, [r5, #-464]!	; 0xfffffe30
  70:	6d2d2062 	stcvs	0, cr2, [sp, #-392]!	; 0xfffffe78
  74:	2d736c74 	ldclcs	12, cr6, [r3, #-464]!	; 0xfffffe30
  78:	6c616964 			; <UNDEFINED> instruction: 0x6c616964
  7c:	3d746365 	ldclcc	3, cr6, [r4, #-404]!	; 0xfffffe6c
  80:	20756e67 	rsbscs	r6, r5, r7, ror #28
  84:	5500672d 	strpl	r6, [r0, #-1837]	; 0xfffff8d3
  88:	00435345 	subeq	r5, r3, r5, asr #6
  8c:	4d495455 	cfstrdmi	mvd5, [r9, #-340]	; 0xfffffeac
  90:	74654700 	strbtvc	r4, [r5], #-1792	; 0xfffff900
  94:	72616843 	rsbvc	r6, r1, #4390912	; 0x430000
  98:	4d4f4900 	vstrmi.16	s9, [pc, #-0]	; a0 <_start-0x800fff60>	; <UNPREDICTABLE>
  9c:	5f435855 	svcpl	0x00435855
  a0:	4d5f5753 	ldclmi	7, cr5, [pc, #-332]	; ffffff5c <__bss_end+0x7feffd44>
  a4:	435f5855 	cmpmi	pc, #5570560	; 0x550000
  a8:	505f4c54 	subspl	r4, pc, r4, asr ip	; <UNPREDICTABLE>
  ac:	555f4441 	ldrbpl	r4, [pc, #-1089]	; fffffc73 <__bss_end+0x7feffa5b>
  b0:	31545241 	cmpcc	r4, r1, asr #4
  b4:	5f58545f 	svcpl	0x0058545f
  b8:	41544144 	cmpmi	r4, r4, asr #2
  bc:	52425500 	subpl	r5, r2, #0, 10
  c0:	45520043 	ldrbmi	r0, [r2, #-67]	; 0xffffffbd
  c4:	56524553 			; <UNDEFINED> instruction: 0x56524553
  c8:	305f4445 	subscc	r4, pc, r5, asr #8
  cc:	58525500 	ldmdapl	r2, {r8, sl, ip, lr}^
  d0:	682f0044 	stmdavs	pc!, {r2, r6}	; <UNPREDICTABLE>
  d4:	2f656d6f 	svccs	0x00656d6f
  d8:	6b6f6f62 	blvs	1bdbe68 <_start-0x7e524198>
  dc:	3030312f 	eorscc	r3, r0, pc, lsr #2
  e0:	5f6b7361 	svcpl	0x006b7361
  e4:	36786d69 	ldrbtcc	r6, [r8], -r9, ror #26
  e8:	2d6c6c75 	stclcs	12, cr6, [ip, #-468]!	; 0xfffffe2c
  ec:	2f6b6473 	svccs	0x006b6473
  f0:	2f706d74 	svccs	0x00706d74
  f4:	41555f38 	cmpmi	r5, r8, lsr pc
  f8:	b8e45452 	stmialt	r4!, {r1, r4, r6, sl, ip, lr}^
  fc:	a38fe5b2 	orrge	lr, pc, #746586112	; 0x2c800000
 100:	e796bce7 	ldr	fp, [r6, r7, ror #25]
 104:	302f8ba8 	eorcc	r8, pc, r8, lsr #23
 108:	755f3430 	ldrbvc	r3, [pc, #-1072]	; fffffce0 <__bss_end+0x7feffac8>
 10c:	5f747261 	svcpl	0x00747261
 110:	00727473 	rsbseq	r7, r2, r3, ror r4
 114:	52434655 	subpl	r4, r3, #89128960	; 0x5500000
 118:	736e7500 	cmnvc	lr, #0, 10
 11c:	656e6769 	strbvs	r6, [lr, #-1897]!	; 0xfffff897
 120:	68632064 	stmdavs	r3!, {r2, r5, r6, sp}^
 124:	55007261 	strpl	r7, [r0, #-609]	; 0xfffffd9f
 128:	00445854 	subeq	r5, r4, r4, asr r8
 12c:	524d4255 	subpl	r4, sp, #1342177285	; 0x50000005
 130:	434d5500 	movtmi	r5, #54528	; 0xd500
 134:	61750052 	cmnvs	r5, r2, asr r0
 138:	632e7472 			; <UNDEFINED> instruction: 0x632e7472
 13c:	52435500 	subpl	r5, r3, #0, 10
 140:	43550031 	cmpmi	r5, #49	; 0x31
 144:	55003252 	strpl	r3, [r0, #-594]	; 0xfffffdae
 148:	00335243 	eorseq	r5, r3, r3, asr #4
 14c:	34524355 	ldrbcc	r4, [r2], #-853	; 0xfffffcab
 150:	49425500 	stmdbmi	r2, {r8, sl, ip, lr}^
 154:	4e4f0052 	mcrmi	0, 2, r0, cr15, cr2, {2}
 158:	00534d45 	subseq	r4, r3, r5, asr #26
 15c:	43747550 	cmnmi	r4, #80, 10	; 0x14000000
 160:	00726168 	rsbseq	r6, r2, r8, ror #2
 164:	74726155 	ldrbtvc	r6, [r2], #-341	; 0xfffffeab
 168:	696e495f 	stmdbvs	lr!, {r0, r1, r2, r3, r4, r6, r8, fp, lr}^
 16c:	4f490074 	svcmi	0x00490074
 170:	4358554d 	cmpmi	r8, #322961408	; 0x13400000
 174:	5241555f 	subpl	r5, r1, #398458880	; 0x17c00000
 178:	525f3154 	subspl	r3, pc, #84, 2
 17c:	41445f58 	cmpmi	r4, r8, asr pc
 180:	535f4154 	cmppl	pc, #84, 2
 184:	43454c45 	movtmi	r4, #23621	; 0x5c45
 188:	4e495f54 	mcrmi	15, 2, r5, cr9, cr4, {2}
 18c:	00545550 	subseq	r5, r4, r0, asr r5
 190:	554d4f49 	strbpl	r4, [sp, #-3913]	; 0xfffff0b7
 194:	535f4358 	cmppl	pc, #88, 6	; 0x60000001
 198:	554d5f57 	strbpl	r5, [sp, #-3927]	; 0xfffff0a9
 19c:	54435f58 	strbpl	r5, [r3], #-3928	; 0xfffff0a8
 1a0:	41505f4c 	cmpmi	r0, ip, asr #30
 1a4:	41555f44 	cmpmi	r5, r4, asr #30
 1a8:	5f315452 	svcpl	0x00315452
 1ac:	445f5852 	ldrbmi	r5, [pc], #-2130	; 1b4 <_start-0x800ffe4c>
 1b0:	00415441 	subeq	r5, r1, r1, asr #8
 1b4:	53747550 	cmnpl	r4, #80, 10	; 0x14000000
 1b8:	52007274 	andpl	r7, r0, #116, 4	; 0x40000007
 1bc:	52455345 	subpl	r5, r5, #335544321	; 0x14000001
 1c0:	5f444556 	svcpl	0x00444556
 1c4:	41550031 	cmpmi	r5, r1, lsr r0
 1c8:	545f5452 	ldrbpl	r5, [pc], #-1106	; 1d0 <_start-0x800ffe30>
 1cc:	00657079 	rsbeq	r7, r5, r9, ror r0
 1d0:	657a6973 	ldrbvs	r6, [sl, #-2419]!	; 0xfffff68d
 1d4:	65707974 	ldrbvs	r7, [r0, #-2420]!	; 0xfffff68c
 1d8:	52535500 	subspl	r5, r3, #0, 10
 1dc:	54630031 	strbtpl	r0, [r3], #-49	; 0xffffffcf
 1e0:	44747365 	ldrbtmi	r7, [r4], #-869	; 0xfffffc9b
 1e4:	00617461 	rsbeq	r7, r1, r1, ror #8
 1e8:	6e69616d 	powvsez	f6, f1, #5.0
 1ec:	6d00632e 	stcvs	3, cr6, [r0, #-184]	; 0xffffff48
 1f0:	006e6961 	rsbeq	r6, lr, r1, ror #18

Disassembly of section .debug_frame:

00000000 <.debug_frame>:
   0:	0000000c 	andeq	r0, r0, ip
   4:	ffffffff 			; <UNDEFINED> instruction: 0xffffffff
   8:	7c020001 	stcvc	0, cr0, [r2], {1}
   c:	000d0c0e 	andeq	r0, sp, lr, lsl #24
  10:	0000001c 	andeq	r0, r0, ip, lsl r0
  14:	00000000 	andeq	r0, r0, r0
  18:	8010003c 	andshi	r0, r0, ip, lsr r0
  1c:	000000f6 	strdeq	r0, [r0], -r6
  20:	87040e41 	strhi	r0, [r4, -r1, asr #28]
  24:	070d4101 	streq	r4, [sp, -r1, lsl #2]
  28:	0d0d7602 	stceq	6, cr7, [sp, #-8]
  2c:	000ec742 	andeq	ip, lr, r2, asr #14
  30:	00000024 	andeq	r0, r0, r4, lsr #32
  34:	00000000 	andeq	r0, r0, r0
  38:	80100132 	andshi	r0, r0, r2, lsr r1
  3c:	00000034 	andeq	r0, r0, r4, lsr r0
  40:	87040e41 	strhi	r0, [r4, -r1, asr #28]
  44:	100e4101 	andne	r4, lr, r1, lsl #2
  48:	53070d41 	movwpl	r0, #32065	; 0x7d41
  4c:	0d41040e 	cfstrdeq	mvd0, [r1, #-56]	; 0xffffffc8
  50:	0ec7420d 	cdpeq	2, 12, cr4, cr7, cr13, {0}
  54:	00000000 	andeq	r0, r0, r0
  58:	0000001c 	andeq	r0, r0, ip, lsl r0
  5c:	00000000 	andeq	r0, r0, r0
  60:	80100166 	andshi	r0, r0, r6, ror #2
  64:	0000002c 	andeq	r0, r0, ip, lsr #32
  68:	87040e41 	strhi	r0, [r4, -r1, asr #28]
  6c:	070d4101 	streq	r4, [sp, -r1, lsl #2]
  70:	420d0d51 	andmi	r0, sp, #5184	; 0x1440
  74:	00000ec7 	andeq	r0, r0, r7, asr #29
  78:	00000020 	andeq	r0, r0, r0, lsr #32
  7c:	00000000 	andeq	r0, r0, r0
  80:	80100192 	mulshi	r0, r2, r1
  84:	0000002a 	andeq	r0, r0, sl, lsr #32
  88:	87080e41 	strhi	r0, [r8, -r1, asr #28]
  8c:	41018e02 	tstmi	r1, r2, lsl #28
  90:	0d41100e 	stcleq	0, cr1, [r1, #-56]	; 0xffffffc8
  94:	080e5007 	stmdaeq	lr, {r0, r1, r2, ip, lr}
  98:	000d0d41 	andeq	r0, sp, r1, asr #26
  9c:	0000000c 	andeq	r0, r0, ip
  a0:	ffffffff 			; <UNDEFINED> instruction: 0xffffffff
  a4:	7c020001 	stcvc	0, cr0, [r2], {1}
  a8:	000d0c0e 	andeq	r0, sp, lr, lsl #24
  ac:	0000001c 	andeq	r0, r0, ip, lsl r0
  b0:	0000009c 	muleq	r0, ip, r0
  b4:	801001bc 			; <UNDEFINED> instruction: 0x801001bc
  b8:	00000040 	andeq	r0, r0, r0, asr #32
  bc:	87080e41 	strhi	r0, [r8, -r1, asr #28]
  c0:	41018e02 	tstmi	r1, r2, lsl #28
  c4:	0d41100e 	stcleq	0, cr1, [r1, #-56]	; 0xffffffc8
  c8:	00000007 	andeq	r0, r0, r7
